L251 LINKER/LOCATER V4.66.93.0                                                          05/11/2024  21:00:46  PAGE 1


L251 LINKER/LOCATER V4.66.93.0, INVOKED BY:
E:\KEIL5C251\C251\BIN\L251.EXE .\Out_File\board.obj, .\Out_File\common.obj, ..\..\Libraries\libraries\STC32_FPMU_LARGE_V
>> 1.0.LIB (STC32F_FPMU), .\Out_File\zf_adc.obj, .\Out_File\zf_delay.obj, .\Out_File\zf_eeprom.obj, .\Out_File\zf_exti.o
>> bj, .\Out_File\zf_gpio.obj, .\Out_File\zf_iic.obj, .\Out_File\zf_nvic.obj, .\Out_File\zf_pwm.obj, .\Out_File\zf_spi.o
>> bj, .\Out_File\zf_tim.obj, .\Out_File\zf_uart.obj, .\Out_File\zf_fifo.obj, .\Out_File\SEEKFREE_18TFT.obj, .\Out_File\
>> SEEKFREE_ABSOLUTE_ENCODER.obj, .\Out_File\SEEKFREE_BLUETOOTH_CH9141.obj, ..\..\Libraries\seekfree_peripheral\SEEKFREE
>> _CONFIG.LIB, .\Out_File\SEEKFREE_DL1A.obj, .\Out_File\SEEKFREE_FONT.obj, .\Out_File\SEEKFREE_ICM20602.obj, .\Out_File
>> \SEEKFREE_IMU660RA.obj, .\Out_File\SEEKFREE_IMU963RA.obj, .\Out_File\SEEKFREE_IPS114_SPI.obj, .\Out_File\SEEKFREE_MPU
>> 6050.obj, .\Out_File\SEEKFREE_OLED.obj, .\Out_File\SEEKFREE_PRINTF.obj, .\Out_File\SEEKFREE_TSL1401.obj, .\Out_File\S
>> EEKFREE_VIRSCO.obj, .\Out_File\SEEKFREE_WIRELESS.obj, .\Out_File\isr.obj, .\Out_File\main.obj, .\Out_File\Inductance.
>> obj, .\Out_File\Motor.obj, .\Out_File\encoder.obj, .\Out_File\direction.obj, .\Out_File\vofa.obj, .\Out_File\mpu6050.
>> obj, .\Out_File\TrackElement.obj, .\Out_File\menu.obj, .\Out_File\ALLInit.obj, .\Out_File\RGB.obj TO .\Out_File\SEEKF
>> REE PRINT (.\Out_File\SEEKFREE.map) CASE DISABLEWARNING (16, 57) REMOVEUNUSED CLASSES (EDATA (0X0-0X1FFF), HDATA (0X0
>> -0X1FFF, 0XFE0000-0XFFFFFF))


CPU MODE:     251 SOURCE MODE
INTR FRAME:   4 BYTES SAVED ON INTERRUPT
MEMORY MODEL: XSMALL WITH FLOATING POINT ARITHMETIC


INPUT MODULES INCLUDED:
  .\Out_File\board.obj (board)
         COMMENT TYPE 0: C251 V5.60.0
  .\Out_File\common.obj (common)
         COMMENT TYPE 0: C251 V5.60.0
  ..\..\Libraries\libraries\STC32_FPMU_LARGE_V1.0.LIB (STC32F_FPMU)
         COMMENT TYPE 0: A251 V4.69.13.0
  .\Out_File\zf_adc.obj (zf_adc)
         COMMENT TYPE 0: C251 V5.60.0
  .\Out_File\zf_delay.obj (zf_delay)
         COMMENT TYPE 0: C251 V5.60.0
  .\Out_File\zf_eeprom.obj (zf_eeprom)
         COMMENT TYPE 0: C251 V5.60.0
  .\Out_File\zf_exti.obj (zf_exti)
         COMMENT TYPE 0: C251 V5.60.0
  .\Out_File\zf_gpio.obj (zf_gpio)
         COMMENT TYPE 0: C251 V5.60.0
  .\Out_File\zf_iic.obj (zf_iic)
         COMMENT TYPE 0: C251 V5.60.0
  .\Out_File\zf_nvic.obj (zf_nvic)
         COMMENT TYPE 0: C251 V5.60.0
  .\Out_File\zf_pwm.obj (zf_pwm)
         COMMENT TYPE 0: C251 V5.60.0
  .\Out_File\zf_spi.obj (zf_spi)
         COMMENT TYPE 0: C251 V5.60.0
  .\Out_File\zf_tim.obj (zf_tim)
         COMMENT TYPE 0: C251 V5.60.0
  .\Out_File\zf_uart.obj (zf_uart)
         COMMENT TYPE 0: C251 V5.60.0
  .\Out_File\zf_fifo.obj (zf_fifo)
         COMMENT TYPE 0: C251 V5.60.0
  .\Out_File\SEEKFREE_18TFT.obj (SEEKFREE_18TFT)
         COMMENT TYPE 0: C251 V5.60.0
  .\Out_File\SEEKFREE_ABSOLUTE_ENCODER.obj (SEEKFREE_ABSOLUTE_ENCODER)
         COMMENT TYPE 0: C251 V5.60.0
  .\Out_File\SEEKFREE_BLUETOOTH_CH9141.obj (SEEKFREE_BLUETOOTH_CH9141)
         COMMENT TYPE 0: C251 V5.60.0
  .\Out_File\SEEKFREE_DL1A.obj (SEEKFREE_DL1A)
         COMMENT TYPE 0: C251 V5.60.0
  .\Out_File\SEEKFREE_FONT.obj (SEEKFREE_FONT)
         COMMENT TYPE 0: C251 V5.60.0
  .\Out_File\SEEKFREE_ICM20602.obj (SEEKFREE_ICM20602)
         COMMENT TYPE 0: C251 V5.60.0
  .\Out_File\SEEKFREE_IMU660RA.obj (SEEKFREE_IMU660RA)
         COMMENT TYPE 0: C251 V5.60.0
L251 LINKER/LOCATER V4.66.93.0                                                        05/11/2024  21:00:46  PAGE 2


  .\Out_File\SEEKFREE_IMU963RA.obj (SEEKFREE_IMU963RA)
         COMMENT TYPE 0: C251 V5.60.0
  .\Out_File\SEEKFREE_IPS114_SPI.obj (SEEKFREE_IPS114_SPI)
         COMMENT TYPE 0: C251 V5.60.0
  .\Out_File\SEEKFREE_MPU6050.obj (SEEKFREE_MPU6050)
         COMMENT TYPE 0: C251 V5.60.0
  .\Out_File\SEEKFREE_OLED.obj (SEEKFREE_OLED)
         COMMENT TYPE 0: C251 V5.60.0
  .\Out_File\SEEKFREE_PRINTF.obj (SEEKFREE_PRINTF)
         COMMENT TYPE 0: C251 V5.60.0
  .\Out_File\SEEKFREE_TSL1401.obj (SEEKFREE_TSL1401)
         COMMENT TYPE 0: C251 V5.60.0
  .\Out_File\SEEKFREE_VIRSCO.obj (SEEKFREE_VIRSCO)
         COMMENT TYPE 0: C251 V5.60.0
  .\Out_File\SEEKFREE_WIRELESS.obj (SEEKFREE_WIRELESS)
         COMMENT TYPE 0: C251 V5.60.0
  .\Out_File\isr.obj (isr)
         COMMENT TYPE 0: C251 V5.60.0
  .\Out_File\main.obj (main)
         COMMENT TYPE 0: C251 V5.60.0
  .\Out_File\Inductance.obj (Inductance)
         COMMENT TYPE 0: C251 V5.60.0
  .\Out_File\Motor.obj (Motor)
         COMMENT TYPE 0: C251 V5.60.0
  .\Out_File\encoder.obj (encoder)
         COMMENT TYPE 0: C251 V5.60.0
  .\Out_File\direction.obj (direction)
         COMMENT TYPE 0: C251 V5.60.0
  .\Out_File\vofa.obj (vofa)
         COMMENT TYPE 0: C251 V5.60.0
  .\Out_File\mpu6050.obj (mpu6050)
         COMMENT TYPE 0: C251 V5.60.0
  .\Out_File\TrackElement.obj (TrackElement)
         COMMENT TYPE 0: C251 V5.60.0
  .\Out_File\menu.obj (menu)
         COMMENT TYPE 0: C251 V5.60.0
  .\Out_File\ALLInit.obj (ALLInit)
         COMMENT TYPE 0: C251 V5.60.0
  .\Out_File\RGB.obj (RGB)
         COMMENT TYPE 0: C251 V5.60.0
  ..\..\Libraries\seekfree_peripheral\SEEKFREE_CONFIG.LIB (SEEKFREE_CONFIG)
         COMMENT TYPE 0: C251 V5.60.0
  E:\KEIL5C251\C251\LIB\C2SFPXS.LIB (PRINTF)
         COMMENT TYPE 0: A251 V4.69.6.0
  E:\KEIL5C251\C251\LIB\C2SFPXS.LIB (?C?PRNFMT)
         COMMENT TYPE 0: A251 V4.69.6.0
  E:\KEIL5C251\C251\LIB\C2SFPXS.LIB (?C?FPCONVERT)
         COMMENT TYPE 0: A251 V4.69.6.0
  E:\KEIL5C251\C251\LIB\C2SFPXS.LIB (?C?FTNPWR)
         COMMENT TYPE 0: A251 V4.69.6.0
  E:\KEIL5C251\C251\LIB\C2SXS.LIB (?C_START)
         COMMENT TYPE 0: A251 V4.69.6.0
  E:\KEIL5C251\C251\LIB\C2SXS.LIB (?C?INITEDATA)
         COMMENT TYPE 0: A251 V4.69.6.0
  E:\KEIL5C251\C251\LIB\C2SXS.LIB (?C?SIDIV)
         COMMENT TYPE 0: A251 V4.69.6.0
  E:\KEIL5C251\C251\LIB\C2SXS.LIB (?C?LMUL)
         COMMENT TYPE 0: A251 V4.69.6.0
  E:\KEIL5C251\C251\LIB\C2SXS.LIB (?C?LIMUL)
         COMMENT TYPE 0: A251 V4.69.6.0
  E:\KEIL5C251\C251\LIB\C2SXS.LIB (?C?ULDIV)
         COMMENT TYPE 0: A251 V4.69.6.0
  E:\KEIL5C251\C251\LIB\C2SXS.LIB (?C?SLDIV)
         COMMENT TYPE 0: A251 V4.69.6.0
  E:\KEIL5C251\C251\LIB\C2SXS.LIB (?C?BMOVENP)
L251 LINKER/LOCATER V4.66.93.0                                                        05/11/2024  21:00:46  PAGE 3


         COMMENT TYPE 0: A251 V4.69.6.0
  E:\KEIL5C251\C251\LIB\C2SXS.LIB (ABS)
         COMMENT TYPE 0: C251 V5.58.7
  E:\KEIL5C251\C251\LIB\C2SXS.LIB (memcpy)
         COMMENT TYPE 0: C251 V5.58.7
  E:\KEIL5C251\C251\LIB\C2SXS.LIB (memset)
         COMMENT TYPE 0: C251 V5.58.7
  E:\KEIL5C251\C251\LIB\C2SXS.LIB (?C?INITEDATA_END)
         COMMENT TYPE 0: A251 V4.69.6.0


ACTIVE MEMORY CLASSES OF MODULE:  .\Out_File\SEEKFREE (board)

BASE        START       END         USED      MEMORY CLASS
==========================================================
000000H     000000H     001FFFH     000FD5H   EDATA
000000H     000000H     001FFFH               HDATA
            FE0000H     FFFFFFH                 
FF0000H     FF0000H     FFFFFFH     005F7CH   CODE
000000H     FF0000H     FFFFFFH     00068DH   HCONST
000020H.0   000020H.0   00002FH.7   000000H.1 BIT
FF0000H     FF0000H     FFFFFFH     000004H   CONST
000000H     000000H     00007FH     000008H   DATA


MEMORY MAP OF MODULE:  .\Out_File\SEEKFREE (board)


START     STOP      LENGTH    ALIGN  RELOC    MEMORY CLASS   SEGMENT NAME
=========================================================================
000000H   000007H   000008H   ---    AT..     DATA           "REG BANK 0"
000008H   00001FH   000018H   BYTE   UNIT     EDATA          ?ED?ANGLE_RING?DIRECTION
000020H.0 000020H.0 000000H.1 BIT    UNIT     BIT            ?BI?WS2812_BIT?RGB
000020H.1 000020H   000000H.7 ---    ---      **GAP**
000021H   000128H   000108H   BYTE   UNIT     EDATA          ?ED?INDUCTANCE
000129H   000229H   000101H   BYTE   UNIT     EDATA          ?ED?SEEKFREE_TSL1401
00022AH   0002A9H   000080H   BYTE   UNIT     EDATA          ?ED?VOFA
0002AAH   000308H   00005FH   BYTE   UNIT     EDATA          ?ED?ZF_SPRINTF?SEEKFREE_PRINTF
000309H   000364H   00005CH   BYTE   UNIT     EDATA          ?ED?MOTOR
000365H   0003BAH   000056H   BYTE   UNIT     EDATA          ?ED?DIRECTION
0003BBH   000410H   000056H   BYTE   UNIT     EDATA          ?ED?TRACKELEMENT
000411H   000465H   000055H   BYTE   UNIT     EDATA          ?ED?SEEKFREE_BLUETOOTH_CH9141
000466H   0004BAH   000055H   BYTE   UNIT     EDATA          ?ED?SEEKFREE_WIRELESS
0004BBH   0004EAH   000030H   BYTE   UNIT     EDATA          ?ED?LCD_SHOWFLOAT_SIMSPI?SEEKFREE_18TFT
0004EBH   00051AH   000030H   BYTE   UNIT     EDATA          ?ED?LCD_SHOWFLOAT?SEEKFREE_18TFT
00051BH   00054AH   000030H   BYTE   UNIT     EDATA          ?ED?IPS114_SHOWFLOAT_SIMSPI?SEEKFREE_IPS114_SPI
00054BH   00057AH   000030H   BYTE   UNIT     EDATA          ?ED?IPS114_SHOWFLOAT?SEEKFREE_IPS114_SPI
00057BH   0005AAH   000030H   BYTE   UNIT     EDATA          ?ED?OLED_PRINTF_FLOAT_PX8?SEEKFREE_OLED
0005ABH   0005DAH   000030H   BYTE   UNIT     EDATA          ?ED?OLED_PRINTF_FLOAT?SEEKFREE_OLED
0005DBH   00060AH   000030H   BYTE   UNIT     EDATA          ?ED?OLED_PRINTF_FLOAT_SPI?SEEKFREE_OLED
00060BH   000639H   00002FH   BYTE   UNIT     EDATA          ?ED?DL1A_SET_MEASUREMENT_TIMING_BUDGET?SEEKFREE_DL1A
00063AH   000665H   00002CH   BYTE   UNIT     EDATA          ?ED?LCD_SHOWINT32_SIMSPI?SEEKFREE_18TFT
000666H   000691H   00002CH   BYTE   UNIT     EDATA          ?ED?LCD_SHOWINT32?SEEKFREE_18TFT
000692H   0006BDH   00002CH   BYTE   UNIT     EDATA          ?ED?IPS114_SHOWINT32_SIMSPI?SEEKFREE_IPS114_SPI
0006BEH   0006E9H   00002CH   BYTE   UNIT     EDATA          ?ED?IPS114_SHOWINT32?SEEKFREE_IPS114_SPI
0006EAH   000715H   00002CH   BYTE   UNIT     EDATA          ?ED?OLED_PRINTF_INT32?SEEKFREE_OLED
000716H   000741H   00002CH   BYTE   UNIT     EDATA          ?ED?OLED_PRINTF_INT32_SPI?SEEKFREE_OLED
000742H   00076DH   00002CH   BYTE   UNIT     EDATA          ?ED?ENCODER
00076EH   000795H   000028H   BYTE   UNIT     EDATA          ?ED?NORMALIZATION_TRACKING_ADC?INDUCTANCE
000796H   0007BDH   000028H   BYTE   UNIT     EDATA          _EDATA_GROUP_
0007BEH   0007DCH   00001FH   BYTE   UNIT     EDATA          ?ED?DL1A_GET_MEASUREMENT_TIMING_BUDGET?SEEKFREE_DL1A
0007DDH   0007F6H   00001AH   BYTE   UNIT     EDATA          ?ED?DIRCONTROL_2?DIRECTION
0007F7H   000810H   00001AH   BYTE   UNIT     EDATA          ?ED?SEND4DATATOVOFA?VOFA
000811H   00082AH   00001AH   BYTE   UNIT     EDATA          ?ED?SECOND__NWHUAN_MENU?MENU
00082BH   000840H   000016H   BYTE   UNIT     EDATA          ?ED?WH_TURN_OUT?DIRECTION
L251 LINKER/LOCATER V4.66.93.0                                                        05/11/2024  21:00:46  PAGE 4


000841H   000855H   000015H   BYTE   UNIT     EDATA          ?ED?DL1A_INIT?SEEKFREE_DL1A
000856H   000869H   000014H   BYTE   UNIT     EDATA          ?ED?PWM_INIT?ZF_PWM
00086AH   00087DH   000014H   BYTE   UNIT     EDATA          ?ED?PWM_FREQ?ZF_PWM
00087EH   000891H   000014H   BYTE   UNIT     EDATA          ?ED?NUMBER_CONVERSION_ASCII?SEEKFREE_PRINTF
000892H   0008A5H   000014H   BYTE   UNIT     EDATA          ?ED?SQ?INDUCTANCE
0008A6H   0008B8H   000013H   BYTE   UNIT     EDATA          ?ED?FIFO_READ_BUFFER?ZF_FIFO
0008B9H   0008CAH   000012H   BYTE   UNIT     EDATA          ?ED?SEEKFREE_IMU963RA
0008CBH   0008DCH   000012H   BYTE   UNIT     EDATA          ?ED?OLED_DIS_BMP?SEEKFREE_OLED
0008DDH   0008EEH   000012H   BYTE   UNIT     EDATA          ?ED?OLED_DIS_BMP_SPI?SEEKFREE_OLED
0008EFH   0008FEH   000010H   BYTE   UNIT     EDATA          ?ED?FIFO_WRITE_BUFFER?ZF_FIFO
0008FFH   00090EH   000010H   BYTE   UNIT     EDATA          ?ED?SECOND_ELEMENT_MENU?MENU
00090FH   00091EH   000010H   BYTE   UNIT     EDATA          ?ED?SECOND_MOTOR_MENU?MENU
00091FH   00092CH   00000EH   BYTE   UNIT     EDATA          ?ED?PWM_DUTY?ZF_PWM
00092DH   00093AH   00000EH   BYTE   UNIT     EDATA          ?ED?UART_INIT?ZF_UART
00093BH   000948H   00000EH   BYTE   UNIT     EDATA          ?ED?OLED_PRINT_CHINESE?SEEKFREE_OLED
000949H   000956H   00000EH   BYTE   UNIT     EDATA          ?ED?OLED_PRINT_CHINESE_SPI?SEEKFREE_OLED
000957H   000964H   00000EH   BYTE   UNIT     EDATA          ?ED?DATA_CONVERSION?SEEKFREE_VIRSCO
000965H   000971H   00000DH   BYTE   UNIT     EDATA          ?ED?ICM20602_SIMSPI_R_REG_BYTES?SEEKFREE_ICM20602
000972H   00097EH   00000DH   BYTE   UNIT     EDATA          ?ED?PRINTF_REVERSE_ORDER?SEEKFREE_PRINTF
00097FH   00098AH   00000CH   BYTE   UNIT     EDATA          ?ED?FIFO_INIT?ZF_FIFO
00098BH   000996H   00000CH   BYTE   UNIT     EDATA          ?ED?LCD_SHOWINT16_SIMSPI?SEEKFREE_18TFT
000997H   0009A2H   00000CH   BYTE   UNIT     EDATA          ?ED?LCD_SHOWUINT16_SIMSPI?SEEKFREE_18TFT
0009A3H   0009AEH   00000CH   BYTE   UNIT     EDATA          ?ED?LCD_SHOWINT16?SEEKFREE_18TFT
0009AFH   0009BAH   00000CH   BYTE   UNIT     EDATA          ?ED?LCD_SHOWUINT16?SEEKFREE_18TFT
0009BBH   0009C6H   00000CH   BYTE   UNIT     EDATA          ?ED?SHOWIMAGE?SEEKFREE_18TFT
0009C7H   0009D2H   00000CH   BYTE   UNIT     EDATA          ?ED?BLUETOOTH_CH9141_READ_BUFF?SEEKFREE_BLUETOOTH_CH9141
0009D3H   0009DEH   00000CH   BYTE   UNIT     EDATA          ?ED?DL1A_GET_SPAD_INFO?SEEKFREE_DL1A
0009DFH   0009EAH   00000CH   BYTE   UNIT     EDATA          ?ED?DL1A_GET_SEQUENCE_STEP_TIMEOUTS?SEEKFREE_DL1A
0009EBH   0009F6H   00000CH   BYTE   UNIT     EDATA          ?ED?SEEKFREE_ICM20602
0009F7H   000A02H   00000CH   BYTE   UNIT     EDATA          ?ED?SEEKFREE_IMU660RA
000A03H   000A0EH   00000CH   BYTE   UNIT     EDATA          ?ED?IMU660RA_SIMIIC_WRITE_REGS?SEEKFREE_IMU660RA
000A0FH   000A1AH   00000CH   BYTE   UNIT     EDATA          ?ED?IPS114_SHOWINT16_SIMSPI?SEEKFREE_IPS114_SPI
000A1BH   000A26H   00000CH   BYTE   UNIT     EDATA          ?ED?IPS114_SHOWUINT16_SIMSPI?SEEKFREE_IPS114_SPI
000A27H   000A32H   00000CH   BYTE   UNIT     EDATA          ?ED?IPS114_SHOWINT16?SEEKFREE_IPS114_SPI
000A33H   000A3EH   00000CH   BYTE   UNIT     EDATA          ?ED?IPS114_SHOWUINT16?SEEKFREE_IPS114_SPI
000A3FH   000A4AH   00000CH   BYTE   UNIT     EDATA          ?ED?SEEKFREE_MPU6050
000A4BH   000A56H   00000CH   BYTE   UNIT     EDATA          ?ED?WIRELESS_UART_READ_BUFF?SEEKFREE_WIRELESS
000A57H   000A62H   00000CH   BYTE   UNIT     EDATA          ?ED?MAIN
000A63H   000A6EH   00000CH   BYTE   UNIT     EDATA          ?ED?MOTOR_SET_PID?MOTOR
000A6FH   000A7AH   00000CH   BYTE   UNIT     EDATA          ?ED?NH_TURN_OUT?DIRECTION
000A7BH   000A86H   00000CH   BYTE   UNIT     EDATA          ?ED?ANGLE_SPEED_RING?DIRECTION
000A87H   000A92H   00000CH   BYTE   UNIT     EDATA          ?ED?LOWPASSFILTER?MPU6050
000A93H   000A9DH   00000BH   BYTE   UNIT     EDATA          ?ED?OLED_UINT16_PX8?SEEKFREE_OLED
000A9EH   000AA8H   00000BH   BYTE   UNIT     EDATA          ?ED?OLED_UINT16?SEEKFREE_OLED
000AA9H   000AB3H   00000BH   BYTE   UNIT     EDATA          ?ED?OLED_INT16?SEEKFREE_OLED
000AB4H   000ABEH   00000BH   BYTE   UNIT     EDATA          ?ED?OLED_UINT16_SPI?SEEKFREE_OLED
000ABFH   000AC9H   00000BH   BYTE   UNIT     EDATA          ?ED?OLED_INT16_SPI?SEEKFREE_OLED
000ACAH   000AD3H   00000AH   BYTE   UNIT     EDATA          ?ED?IAP_READ_BYTES?ZF_EEPROM
000AD4H   000ADDH   00000AH   BYTE   UNIT     EDATA          ?ED?IAP_WRITE_BYTES?ZF_EEPROM
000ADEH   000AE7H   00000AH   BYTE   UNIT     EDATA          ?ED?LCD_SHOWSTR_SIMSPI?SEEKFREE_18TFT
000AE8H   000AF1H   00000AH   BYTE   UNIT     EDATA          ?ED?LCD_SHOWSTR?SEEKFREE_18TFT
000AF2H   000AFBH   00000AH   BYTE   UNIT     EDATA          ?ED?BLUETOOTH_CH9141_SEND_BUFF?SEEKFREE_BLUETOOTH_CH9141
000AFCH   000B05H   00000AH   BYTE   UNIT     EDATA          ?ED?DL1A_SIMIIC_READ_REGS?SEEKFREE_DL1A
000B06H   000B0FH   00000AH   BYTE   UNIT     EDATA          ?ED?DL1A_SIMIIC_READ_REGS_1?SEEKFREE_DL1A
000B10H   000B19H   00000AH   BYTE   UNIT     EDATA          ?ED?DL1A_ENCODE_TIMEOUT?SEEKFREE_DL1A
000B1AH   000B23H   00000AH   BYTE   UNIT     EDATA          ?ED?IMU660RA_SIMIIC_READ_REGS?SEEKFREE_IMU660RA
000B24H   000B2DH   00000AH   BYTE   UNIT     EDATA          ?ED?IPS114_SHOWSTR_SIMSPI?SEEKFREE_IPS114_SPI
000B2EH   000B37H   00000AH   BYTE   UNIT     EDATA          ?ED?IPS114_SHOWSTR?SEEKFREE_IPS114_SPI
000B38H   000B41H   00000AH   BYTE   UNIT     EDATA          ?ED?SEEKFREE_VIRSCO
000B42H   000B4BH   00000AH   BYTE   UNIT     EDATA          ?ED?GYRO_FILTER?MPU6050
000B4CH   000B54H   000009H   BYTE   UNIT     EDATA          ?ED?LCD_SHOWINT8_SIMSPI?SEEKFREE_18TFT
000B55H   000B5DH   000009H   BYTE   UNIT     EDATA          ?ED?LCD_SHOWUINT8_SIMSPI?SEEKFREE_18TFT
000B5EH   000B66H   000009H   BYTE   UNIT     EDATA          ?ED?LCD_SHOWINT8?SEEKFREE_18TFT
000B67H   000B6FH   000009H   BYTE   UNIT     EDATA          ?ED?LCD_SHOWUINT8?SEEKFREE_18TFT
000B70H   000B78H   000009H   BYTE   UNIT     EDATA          ?ED?DL1A_SIMIIC_WRITE_DATS?SEEKFREE_DL1A
L251 LINKER/LOCATER V4.66.93.0                                                        05/11/2024  21:00:46  PAGE 5


000B79H   000B81H   000009H   BYTE   UNIT     EDATA          ?ED?DL1A_TIMEOUT_MICROSECONDS_TO_MCLKS?SEEKFREE_DL1A
000B82H   000B8AH   000009H   BYTE   UNIT     EDATA          ?ED?DL1A_SET_SIGNAL_RATE_LIMIT?SEEKFREE_DL1A
000B8BH   000B93H   000009H   BYTE   UNIT     EDATA          ?ED?ICM20602_READ_REGISTERS?SEEKFREE_ICM20602
000B94H   000B9CH   000009H   BYTE   UNIT     EDATA          ?ED?IMU963RA_SIMSPI_R_REG_BYTES?SEEKFREE_IMU963RA
000B9DH   000BA5H   000009H   BYTE   UNIT     EDATA          ?ED?IMU963RA_READ_ACC_GYRO_REGISTERS?SEEKFREE_IMU963RA
000BA6H   000BAEH   000009H   BYTE   UNIT     EDATA          ?ED?IPS114_SHOWINT8_SIMSPI?SEEKFREE_IPS114_SPI
000BAFH   000BB7H   000009H   BYTE   UNIT     EDATA          ?ED?IPS114_SHOWUINT8_SIMSPI?SEEKFREE_IPS114_SPI
000BB8H   000BC0H   000009H   BYTE   UNIT     EDATA          ?ED?IPS114_SHOWINT8?SEEKFREE_IPS114_SPI
000BC1H   000BC9H   000009H   BYTE   UNIT     EDATA          ?ED?IPS114_SHOWUINT8?SEEKFREE_IPS114_SPI
000BCAH   000BD2H   000009H   BYTE   UNIT     EDATA          ?ED?OLED_P6X8STR?SEEKFREE_OLED
000BD3H   000BDBH   000009H   BYTE   UNIT     EDATA          ?ED?OLED_P8X16STR?SEEKFREE_OLED
000BDCH   000BE4H   000009H   BYTE   UNIT     EDATA          ?ED?OLED_P6X8STR_SPI?SEEKFREE_OLED
000BE5H   000BEDH   000009H   BYTE   UNIT     EDATA          ?ED?OLED_P8X16STR_SPI?SEEKFREE_OLED
000BEEH   000BF6H   000009H   BYTE   UNIT     EDATA          ?ED?CRC_CHECK?SEEKFREE_VIRSCO
000BF7H   000BFEH   000008H   BYTE   UNIT     EDATA          ?ED?SET_CLK?BOARD
000BFFH   000C06H   000008H   BYTE   UNIT     EDATA          ?ED?UART_PUTBUFF?ZF_UART
000C07H   000C0EH   000008H   BYTE   UNIT     EDATA          ?ED?FIFO_HEAD_OFFSET?ZF_FIFO
000C0FH   000C16H   000008H   BYTE   UNIT     EDATA          ?ED?FIFO_END_OFFSET?ZF_FIFO
000C17H   000C1EH   000008H   BYTE   UNIT     EDATA          ?ED?LCD_SET_REGION_SIMSPI?SEEKFREE_18TFT
000C1FH   000C26H   000008H   BYTE   UNIT     EDATA          ?ED?LCD_SHOWCHAR_SIMSPI?SEEKFREE_18TFT
000C27H   000C2EH   000008H   BYTE   UNIT     EDATA          ?ED?LCD_SET_REGION?SEEKFREE_18TFT
000C2FH   000C36H   000008H   BYTE   UNIT     EDATA          ?ED?LCD_SHOWCHAR?SEEKFREE_18TFT
000C37H   000C3EH   000008H   BYTE   UNIT     EDATA          ?ED?IPS114_SET_REGION_SIMSPI?SEEKFREE_IPS114_SPI
000C3FH   000C46H   000008H   BYTE   UNIT     EDATA          ?ED?IPS114_SHOWCHAR_SIMSPI?SEEKFREE_IPS114_SPI
000C47H   000C4EH   000008H   BYTE   UNIT     EDATA          ?ED?IPS114_SET_REGION?SEEKFREE_IPS114_SPI
000C4FH   000C56H   000008H   BYTE   UNIT     EDATA          ?ED?IPS114_SHOWCHAR?SEEKFREE_IPS114_SPI
000C57H   000C5EH   000008H   BYTE   UNIT     EDATA          ?ED?OLED_HEXASCII?SEEKFREE_OLED
000C5FH   000C66H   000008H   BYTE   UNIT     EDATA          ?ED?OLED_HEXASCII_SPI?SEEKFREE_OLED
000C67H   000C6EH   000008H   BYTE   UNIT     EDATA          ?ED?MPU6050
000C6FH   000C76H   000008H   BYTE   UNIT     EDATA          ?ED?SUB_PID?TRACKELEMENT
000C77H   000C7EH   000008H   BYTE   UNIT     EDATA          ?ED?WS2812_SENDDATA?RGB
000C7FH   000C85H   000007H   BYTE   UNIT     EDATA          ?ED?IIC_READ_REG_BYTES?ZF_IIC
000C86H   000C8CH   000007H   BYTE   UNIT     EDATA          ?ED?SPI_INIT?ZF_SPI
000C8DH   000C93H   000007H   BYTE   UNIT     EDATA          ?ED?DL1A_TIMEOUT_MCLKS_TO_MICROSECONDS?SEEKFREE_DL1A
000C94H   000C9AH   000007H   BYTE   UNIT     EDATA          ?ED?IMU963RA_GET_MAG?SEEKFREE_IMU963RA
000C9BH   000CA1H   000007H   BYTE   UNIT     EDATA          ?ED?MPU6050_SIMIIC_READ_REGS?SEEKFREE_MPU6050
000CA2H   000CA8H   000007H   BYTE   UNIT     EDATA          ?ED?CCD_SEND_DATA?SEEKFREE_TSL1401
000CA9H   000CAEH   000006H   BYTE   UNIT     EDATA          ?ED?ADC_ONCE?ZF_ADC
000CAFH   000CB4H   000006H   BYTE   UNIT     EDATA          ?ED?DELAY_US?ZF_DELAY
000CB5H   000CBAH   000006H   BYTE   UNIT     EDATA          ?ED?IIC_INIT?ZF_IIC
000CBBH   000CC0H   000006H   BYTE   UNIT     EDATA          ?ED?IIC_READ_REG?ZF_IIC
000CC1H   000CC6H   000006H   BYTE   UNIT     EDATA          ?ED?PIT_TIMER_MS?ZF_TIM
000CC7H   000CCCH   000006H   BYTE   UNIT     EDATA          ?ED?UART_PUTSTR?ZF_UART
000CCDH   000CD2H   000006H   BYTE   UNIT     EDATA          ?ED?LCD_DRAWPOINT_SIMSPI?SEEKFREE_18TFT
000CD3H   000CD8H   000006H   BYTE   UNIT     EDATA          ?ED?LCD_DRAWPOINT?SEEKFREE_18TFT
000CD9H   000CDEH   000006H   BYTE   UNIT     EDATA          ?ED?ICM20602_GET_ACC?SEEKFREE_ICM20602
000CDFH   000CE4H   000006H   BYTE   UNIT     EDATA          ?ED?ICM20602_GET_GYRO?SEEKFREE_ICM20602
000CE5H   000CEAH   000006H   BYTE   UNIT     EDATA          ?ED?ICM20602_ACC_TRANSITION?SEEKFREE_ICM20602
000CEBH   000CF0H   000006H   BYTE   UNIT     EDATA          ?ED?ICM20602_GYRO_TRANSITION?SEEKFREE_ICM20602
000CF1H   000CF6H   000006H   BYTE   UNIT     EDATA          ?ED?IMU660RA_GET_ACC?SEEKFREE_IMU660RA
000CF7H   000CFCH   000006H   BYTE   UNIT     EDATA          ?ED?IMU660RA_GET_GYRO?SEEKFREE_IMU660RA
000CFDH   000D02H   000006H   BYTE   UNIT     EDATA          ?ED?IMU660RA_ACC_TRANSITION?SEEKFREE_IMU660RA
000D03H   000D08H   000006H   BYTE   UNIT     EDATA          ?ED?IMU660RA_GYRO_TRANSITION?SEEKFREE_IMU660RA
000D09H   000D0EH   000006H   BYTE   UNIT     EDATA          ?ED?IMU963RA_WRITE_MAG_REGISTER?SEEKFREE_IMU963RA
000D0FH   000D14H   000006H   BYTE   UNIT     EDATA          ?ED?IMU963RA_GET_ACC?SEEKFREE_IMU963RA
000D15H   000D1AH   000006H   BYTE   UNIT     EDATA          ?ED?IMU963RA_GET_GYRO?SEEKFREE_IMU963RA
000D1BH   000D20H   000006H   BYTE   UNIT     EDATA          ?ED?IMU963RA_ACC_TRANSITION?SEEKFREE_IMU963RA
000D21H   000D26H   000006H   BYTE   UNIT     EDATA          ?ED?IMU963RA_GYRO_TRANSITION?SEEKFREE_IMU963RA
000D27H   000D2CH   000006H   BYTE   UNIT     EDATA          ?ED?IMU963RA_MAG_TRANSITION?SEEKFREE_IMU963RA
000D2DH   000D32H   000006H   BYTE   UNIT     EDATA          ?ED?IPS114_CLEAR_SIMSPI?SEEKFREE_IPS114_SPI
000D33H   000D38H   000006H   BYTE   UNIT     EDATA          ?ED?IPS114_DRAWPOINT_SIMSPI?SEEKFREE_IPS114_SPI
000D39H   000D3EH   000006H   BYTE   UNIT     EDATA          ?ED?IPS114_CLEAR?SEEKFREE_IPS114_SPI
000D3FH   000D44H   000006H   BYTE   UNIT     EDATA          ?ED?IPS114_DRAWPOINT?SEEKFREE_IPS114_SPI
000D45H   000D4AH   000006H   BYTE   UNIT     EDATA          ?ED?MPU6050_GET_ACCDATA?SEEKFREE_MPU6050
000D4BH   000D50H   000006H   BYTE   UNIT     EDATA          ?ED?MPU6050_GET_GYRO?SEEKFREE_MPU6050
L251 LINKER/LOCATER V4.66.93.0                                                        05/11/2024  21:00:46  PAGE 6


000D51H   000D56H   000006H   BYTE   UNIT     EDATA          ?ED?WIRELESS_UART_SEND_BUFF?SEEKFREE_WIRELESS
000D57H   000D5CH   000006H   BYTE   UNIT     EDATA          ?ED?MAIN?MAIN
000D5DH   000D62H   000006H   BYTE   UNIT     EDATA          ?ED?LSPEED_PID_OUT?MOTOR
000D63H   000D68H   000006H   BYTE   UNIT     EDATA          ?ED?RSPEED_PID_OUT?MOTOR
000D69H   000D6DH   000005H   BYTE   UNIT     EDATA          ?ED?ZF_UART
000D6EH   000D72H   000005H   BYTE   UNIT     EDATA          ?ED?SIMSPI_R_REG_BYTE?SEEKFREE_ABSOLUTE_ENCODER
000D73H   000D77H   000005H   BYTE   UNIT     EDATA          ?ED?ENCODER_SIMSPI_R_REG_BYTE?SEEKFREE_ABSOLUTE_ENCODER
000D78H   000D7CH   000005H   BYTE   UNIT     EDATA          ?ED?SPI_R_REG_BYTE?SEEKFREE_ABSOLUTE_ENCODER
000D7DH   000D81H   000005H   BYTE   UNIT     EDATA          ?ED?ENCODER_SPI_R_REG_BYTE?SEEKFREE_ABSOLUTE_ENCODER
000D82H   000D86H   000005H   BYTE   UNIT     EDATA          ?ED?DL1A_GET_SEQUENCE_STEP_ENABLES?SEEKFREE_DL1A
000D87H   000D8BH   000005H   BYTE   UNIT     EDATA          ?ED?DL1A_PERFORM_SINGLE_REF_CALIBRATION?SEEKFREE_DL1A
000D8CH   000D90H   000005H   BYTE   UNIT     EDATA          ?ED?ICM20602_SIMSPI_R_REG_BYTE?SEEKFREE_ICM20602
000D91H   000D95H   000005H   BYTE   UNIT     EDATA          ?ED?IMU963RA_SIMSPI_R_REG_BYTE?SEEKFREE_IMU963RA
000D96H   000D9AH   000005H   BYTE   UNIT     EDATA          ?ED?ISR
000D9BH   000D9FH   000005H   BYTE   UNIT     EDATA          ?ED?FILTER_1?MOTOR
000DA0H   000DA3H   000004H   BYTE   UNIT     EDATA          ?ED?BOARD
000DA4H   000DA7H   000004H   BYTE   UNIT     EDATA          ?ED?CLOCK_INIT?BOARD
000DA8H   000DABH   000004H   BYTE   UNIT     EDATA          ?ED?ADC_INIT?ZF_ADC
000DACH   000DAFH   000004H   BYTE   UNIT     EDATA          ?ED?ZF_DELAY
000DB0H   000DB3H   000004H   BYTE   UNIT     EDATA          ?ED?DELAY_MS?ZF_DELAY
000DB4H   000DB7H   000004H   BYTE   UNIT     EDATA          ?ED?DELAY_NS?ZF_DELAY
000DB8H   000DBBH   000004H   BYTE   UNIT     EDATA          ?ED?IAP_ERASE_PAGE?ZF_EEPROM
000DBCH   000DBFH   000004H   BYTE   UNIT     EDATA          ?ED?EXIT_INIT?ZF_EXTI
000DC0H   000DC3H   000004H   BYTE   UNIT     EDATA          ?ED?GPIO_PULL_SET?ZF_GPIO
000DC4H   000DC7H   000004H   BYTE   UNIT     EDATA          ?ED?GPIO_MODE?ZF_GPIO
000DC8H   000DCBH   000004H   BYTE   UNIT     EDATA          ?ED?CTIMER_COUNT_READ?ZF_TIM
000DCCH   000DCFH   000004H   BYTE   UNIT     EDATA          ?ED?FIFO_CLEAR?ZF_FIFO
000DD0H   000DD3H   000004H   BYTE   UNIT     EDATA          ?ED?FIFO_USED?ZF_FIFO
000DD4H   000DD7H   000004H   BYTE   UNIT     EDATA          ?ED?LCD_CLEAR_SIMSPI?SEEKFREE_18TFT
000DD8H   000DDBH   000004H   BYTE   UNIT     EDATA          ?ED?LCD_WRITEDATA_16BIT?SEEKFREE_18TFT
000DDCH   000DDFH   000004H   BYTE   UNIT     EDATA          ?ED?LCD_CLEAR?SEEKFREE_18TFT
000DE0H   000DE3H   000004H   BYTE   UNIT     EDATA          ?ED?ICM20602_SELF_CHECK?SEEKFREE_ICM20602
000DE4H   000DE7H   000004H   BYTE   UNIT     EDATA          ?ED?ICM20602_INIT?SEEKFREE_ICM20602
000DE8H   000DEBH   000004H   BYTE   UNIT     EDATA          ?ED?IMU660RA_SELF_CHECK?SEEKFREE_IMU660RA
000DECH   000DEFH   000004H   BYTE   UNIT     EDATA          ?ED?IMU963RA_READ_MAG_REGISTER?SEEKFREE_IMU963RA
000DF0H   000DF3H   000004H   BYTE   UNIT     EDATA          ?ED?IMU963RA_ACC_GYRO_SELF_CHECK?SEEKFREE_IMU963RA
000DF4H   000DF7H   000004H   BYTE   UNIT     EDATA          ?ED?IMU963RA_MAG_SELF_CHECK?SEEKFREE_IMU963RA
000DF8H   000DFBH   000004H   BYTE   UNIT     EDATA          ?ED?IPS114_WRITEDATA_16BIT?SEEKFREE_IPS114_SPI
000DFCH   000DFFH   000004H   BYTE   UNIT     EDATA          ?ED?LIMIT?MOTOR
000E00H   000E03H   000004H   BYTE   UNIT     EDATA          ?ED?MOTOR_PWM?MOTOR
000E04H   000E07H   000004H   BYTE   UNIT     EDATA          ?ED?GET_ANGLE?MPU6050
000E08H   000E0BH   000004H   BYTE   UNIT     EDATA          ?ED?SHOW_ALLVAL?MENU
000E0CH   000E0FH   000004H   BYTE   UNIT     EDATA          ?ED?FIRST_MENU?MENU
000E10H   000E12H   000003H   BYTE   UNIT     EDATA          ?ED?IIC_DELAY_US?ZF_IIC
000E13H   000E15H   000003H   BYTE   UNIT     EDATA          ?ED?WAIT?ZF_IIC
000E16H   000E18H   000003H   BYTE   UNIT     EDATA          ?ED?IIC_WRITE_REG?ZF_IIC
000E19H   000E1BH   000003H   BYTE   UNIT     EDATA          ?ED?NVIC_SETPRIORITY?ZF_NVIC
000E1CH   000E1EH   000003H   BYTE   UNIT     EDATA          ?ED?UART_PUTCHAR?ZF_UART
000E1FH   000E21H   000003H   BYTE   UNIT     EDATA          ?ED?LCD_WRITEDATA_16BIT_SIMSPI?SEEKFREE_18TFT
000E22H   000E24H   000003H   BYTE   UNIT     EDATA          ?ED?ENCODER_SIMSPI_W_REG_BYTE?SEEKFREE_ABSOLUTE_ENCODER
000E25H   000E27H   000003H   BYTE   UNIT     EDATA          ?ED?ENCODER_SPI_W_REG_BYTE?SEEKFREE_ABSOLUTE_ENCODER
000E28H   000E2AH   000003H   BYTE   UNIT     EDATA          ?ED?SEEKFREE_DL1A
000E2BH   000E2DH   000003H   BYTE   UNIT     EDATA          ?ED?DL1A_READ_CH?SEEKFREE_DL1A
000E2EH   000E30H   000003H   BYTE   UNIT     EDATA          ?ED?DL1A_SIMIIC_WRITE_REG?SEEKFREE_DL1A
000E31H   000E33H   000003H   BYTE   UNIT     EDATA          ?ED?DL1A_SIMIIC_READ_REG?SEEKFREE_DL1A
000E34H   000E36H   000003H   BYTE   UNIT     EDATA          ?ED?DL1A_GET_VCSEL_PULSE_PERIOD?SEEKFREE_DL1A
000E37H   000E39H   000003H   BYTE   UNIT     EDATA          ?ED?DL1A_GET_DISTANCE?SEEKFREE_DL1A
000E3AH   000E3CH   000003H   BYTE   UNIT     EDATA          ?ED?IMU660RA_READ_CH?SEEKFREE_IMU660RA
000E3DH   000E3FH   000003H   BYTE   UNIT     EDATA          ?ED?IMU660RA_SIMIIC_WRITE_REG?SEEKFREE_IMU660RA
000E40H   000E42H   000003H   BYTE   UNIT     EDATA          ?ED?IMU660RA_SIMIIC_READ_REG?SEEKFREE_IMU660RA
000E43H   000E45H   000003H   BYTE   UNIT     EDATA          ?ED?IPS114_WRITEDATAI_16BIT_SIMSPI?SEEKFREE_IPS114_SPI
000E46H   000E48H   000003H   BYTE   UNIT     EDATA          ?ED?MPU6050_READ_CH?SEEKFREE_MPU6050
000E49H   000E4BH   000003H   BYTE   UNIT     EDATA          ?ED?MPU6050_SIMIIC_WRITE_REG?SEEKFREE_MPU6050
000E4CH   000E4EH   000003H   BYTE   UNIT     EDATA          ?ED?MPU6050_SIMIIC_READ_REG?SEEKFREE_MPU6050
000E4FH   000E51H   000003H   BYTE   UNIT     EDATA          ?ED?OLED_FILL?SEEKFREE_OLED
L251 LINKER/LOCATER V4.66.93.0                                                        05/11/2024  21:00:46  PAGE 7


000E52H   000E54H   000003H   BYTE   UNIT     EDATA          ?ED?OLED_PUTPIXEL?SEEKFREE_OLED
000E55H   000E57H   000003H   BYTE   UNIT     EDATA          ?ED?OLED_FILL_SPI?SEEKFREE_OLED
000E58H   000E5AH   000003H   BYTE   UNIT     EDATA          ?ED?OLED_PUTPIXEL_SPI?SEEKFREE_OLED
000E5BH   000E5DH   000003H   BYTE   UNIT     EDATA          ?ED?RGB_COLOR?RGB
000E5EH   000E60H   000003H   BYTE   UNIT     EDATA          ?ED?RGB_SHOW?RGB
000E61H   000E62H   000002H   BYTE   UNIT     EDATA          ?ED?COMMON
000E63H   000E64H   000002H   BYTE   UNIT     EDATA          ?ED?SEND_DATA?ZF_IIC
000E65H   000E66H   000002H   BYTE   UNIT     EDATA          ?ED?IIC_CHANGE_PIN?ZF_IIC
000E67H   000E68H   000002H   BYTE   UNIT     EDATA          ?ED?PWM_SET_GPIO?ZF_PWM
000E69H   000E6AH   000002H   BYTE   UNIT     EDATA          ?ED?SPI_CHANGE_PIN?ZF_SPI
000E6BH   000E6CH   000002H   BYTE   UNIT     EDATA          ?ED?CTIMER_COUNT_INIT?ZF_TIM
000E6DH   000E6EH   000002H   BYTE   UNIT     EDATA          ?ED?CTIMER_COUNT_CLEAN?ZF_TIM
000E6FH   000E70H   000002H   BYTE   UNIT     EDATA          ?ED?LCD_WRITEINDEX_SIMSPI?SEEKFREE_18TFT
000E71H   000E72H   000002H   BYTE   UNIT     EDATA          ?ED?LCD_WRITEDATA_SIMSPI?SEEKFREE_18TFT
000E73H   000E74H   000002H   BYTE   UNIT     EDATA          ?ED?ENCODER_DELAY_US?SEEKFREE_ABSOLUTE_ENCODER
000E75H   000E76H   000002H   BYTE   UNIT     EDATA          ?ED?SIMSPI_WR_BYTE?SEEKFREE_ABSOLUTE_ENCODER
000E77H   000E78H   000002H   BYTE   UNIT     EDATA          ?ED?SIMSPI_W_REG_BYTE?SEEKFREE_ABSOLUTE_ENCODER
000E79H   000E7AH   000002H   BYTE   UNIT     EDATA          ?ED?SET_ZERO_POSITION_SIMSPI?SEEKFREE_ABSOLUTE_ENCODER
000E7BH   000E7CH   000002H   BYTE   UNIT     EDATA          ?ED?ENCODER_ANGLE_SIMSPI?SEEKFREE_ABSOLUTE_ENCODER
000E7DH   000E7EH   000002H   BYTE   UNIT     EDATA          ?ED?SPI_W_REG_BYTE?SEEKFREE_ABSOLUTE_ENCODER
000E7FH   000E80H   000002H   BYTE   UNIT     EDATA          ?ED?SET_ZERO_POSITION_SPI?SEEKFREE_ABSOLUTE_ENCODER
000E81H   000E82H   000002H   BYTE   UNIT     EDATA          ?ED?ENCODER_ANGLE_SPI?SEEKFREE_ABSOLUTE_ENCODER
000E83H   000E84H   000002H   BYTE   UNIT     EDATA          ?ED?DL1A_SIMIIC_DELAY?SEEKFREE_DL1A
000E85H   000E86H   000002H   BYTE   UNIT     EDATA          ?ED?DL1A_SEND_CH?SEEKFREE_DL1A
000E87H   000E88H   000002H   BYTE   UNIT     EDATA          ?ED?DL1A_DECODE_TIMEOUT?SEEKFREE_DL1A
000E89H   000E8AH   000002H   BYTE   UNIT     EDATA          ?ED?ICM20602_SIMSPI_WR_BYTE?SEEKFREE_ICM20602
000E8BH   000E8CH   000002H   BYTE   UNIT     EDATA          ?ED?ICM20602_SIMSPI_W_REG_BYTE?SEEKFREE_ICM20602
000E8DH   000E8EH   000002H   BYTE   UNIT     EDATA          ?ED?ICM20602_WRITE_REGISTER?SEEKFREE_ICM20602
000E8FH   000E90H   000002H   BYTE   UNIT     EDATA          ?ED?ICM20602_READ_REGISTER?SEEKFREE_ICM20602
000E91H   000E92H   000002H   BYTE   UNIT     EDATA          ?ED?IMU660RA_SIMIIC_DELAY?SEEKFREE_IMU660RA
000E93H   000E94H   000002H   BYTE   UNIT     EDATA          ?ED?IMU660RA_SEND_CH?SEEKFREE_IMU660RA
000E95H   000E96H   000002H   BYTE   UNIT     EDATA          ?ED?IMU963RA_SIMSPI_WR_BYTE?SEEKFREE_IMU963RA
000E97H   000E98H   000002H   BYTE   UNIT     EDATA          ?ED?IMU963RA_SIMSPI_W_REG_BYTE?SEEKFREE_IMU963RA
000E99H   000E9AH   000002H   BYTE   UNIT     EDATA          ?ED?IMU963RA_WRITE_ACC_GYRO_REGISTER?SEEKFREE_IMU963RA
000E9BH   000E9CH   000002H   BYTE   UNIT     EDATA          ?ED?IMU963RA_READ_ACC_GYRO_REGISTER?SEEKFREE_IMU963RA
000E9DH   000E9EH   000002H   BYTE   UNIT     EDATA          ?ED?IMU963RA_CONNECT_MAG?SEEKFREE_IMU963RA
000E9FH   000EA0H   000002H   BYTE   UNIT     EDATA          ?ED?IPS114_WRITEINDEX_SIMSPI?SEEKFREE_IPS114_SPI
000EA1H   000EA2H   000002H   BYTE   UNIT     EDATA          ?ED?IPS114_WRITEDATA_SIMSPI?SEEKFREE_IPS114_SPI
000EA3H   000EA4H   000002H   BYTE   UNIT     EDATA          ?ED?MPU6050_SIMIIC_DELAY?SEEKFREE_MPU6050
000EA5H   000EA6H   000002H   BYTE   UNIT     EDATA          ?ED?MPU6050_SEND_CH?SEEKFREE_MPU6050
000EA7H   000EA8H   000002H   BYTE   UNIT     EDATA          ?ED?OLED_WRDAT?SEEKFREE_OLED
000EA9H   000EAAH   000002H   BYTE   UNIT     EDATA          ?ED?OLED_WRCMD?SEEKFREE_OLED
000EABH   000EACH   000002H   BYTE   UNIT     EDATA          ?ED?OLED_SET_POS?SEEKFREE_OLED
000EADH   000EAEH   000002H   BYTE   UNIT     EDATA          ?ED?OLED_CLRPIXEL?SEEKFREE_OLED
000EAFH   000EB0H   000002H   BYTE   UNIT     EDATA          ?ED?OLED_SET_POS_SPI?SEEKFREE_OLED
000EB1H   000EB2H   000002H   BYTE   UNIT     EDATA          ?ED?OLED_CLRPIXEL_SPI?SEEKFREE_OLED
000EB3H   000EB4H   000002H   BYTE   UNIT     EDATA          ?ED?BUZZER?MOTOR
000EB5H   000EB6H   000002H   BYTE   UNIT     EDATA          ?ED?L_ENC_INTEGRAL?ENCODER
000EB7H   000EB8H   000002H   BYTE   UNIT     EDATA          ?ED?R_ENC_INTEGRAL?ENCODER
000EB9H   000EBAH   000002H   BYTE   UNIT     EDATA          ?ED?TM4_ISR?ENCODER
000EBBH   000EBCH   000002H   BYTE   UNIT     EDATA          ?ED?CAR_DISTANCE?DIRECTION
000EBDH   000EBEH   000002H   BYTE   UNIT     EDATA          ?ED?GYRO_ZERO_WANDER?MPU6050
000EBFH   000EC0H   000002H   BYTE   UNIT     EDATA          ?ED?DISTACE?TRACKELEMENT
000EC1H   000EC2H   000002H   BYTE   UNIT     EDATA          ?ED?SPEED_PLAN?TRACKELEMENT
000EC3H   000EC4H   000002H   BYTE   UNIT     EDATA          ?ED?TRACKING?TRACKELEMENT
000EC5H   000EC5H   000001H   BYTE   UNIT     EDATA          ?ED?PUTCHAR?BOARD
000EC6H   000EC6H   000001H   BYTE   UNIT     EDATA          ?ED?IAP_SET_TPS?ZF_EEPROM
000EC7H   000EC7H   000001H   BYTE   UNIT     EDATA          ?ED?START?ZF_IIC
000EC8H   000EC8H   000001H   BYTE   UNIT     EDATA          ?ED?RECV_ACK?ZF_IIC
000EC9H   000EC9H   000001H   BYTE   UNIT     EDATA          ?ED?SEND_ACK?ZF_IIC
000ECAH   000ECAH   000001H   BYTE   UNIT     EDATA          ?ED?STOP?ZF_IIC
000ECBH   000ECBH   000001H   BYTE   UNIT     EDATA          ?ED?SPI_MOSI?ZF_SPI
000ECCH   000ECCH   000001H   BYTE   UNIT     EDATA          ?ED?SPI_CHANGE_MODE?ZF_SPI
000ECDH   000ECDH   000001H   BYTE   UNIT     EDATA          ?ED?LCD_WRITEINDEX?SEEKFREE_18TFT
000ECEH   000ECEH   000001H   BYTE   UNIT     EDATA          ?ED?LCD_WRITEDATA?SEEKFREE_18TFT
L251 LINKER/LOCATER V4.66.93.0                                                        05/11/2024  21:00:46  PAGE 8


000ECFH   000ECFH   000001H   BYTE   UNIT     EDATA          ?ED?ENCODER_SELF4_CHECK?SEEKFREE_ABSOLUTE_ENCODER
000ED0H   000ED0H   000001H   BYTE   UNIT     EDATA          ?ED?SPI_WR_BYTE?SEEKFREE_ABSOLUTE_ENCODER
000ED1H   000ED1H   000001H   BYTE   UNIT     EDATA          ?ED?ENCODER_SELF5_CHECK?SEEKFREE_ABSOLUTE_ENCODER
000ED2H   000ED2H   000001H   BYTE   UNIT     EDATA          ?ED?DL1A_SIMIIC_SENDACK?SEEKFREE_DL1A
000ED3H   000ED3H   000001H   BYTE   UNIT     EDATA          ?ED?IMU660RA_SIMIIC_SENDACK?SEEKFREE_IMU660RA
000ED4H   000ED4H   000001H   BYTE   UNIT     EDATA          ?ED?IMU660RA_INIT?SEEKFREE_IMU660RA
000ED5H   000ED5H   000001H   BYTE   UNIT     EDATA          ?ED?IMU963RA_INIT?SEEKFREE_IMU963RA
000ED6H   000ED6H   000001H   BYTE   UNIT     EDATA          ?ED?IPS114_WRITEINDEX?SEEKFREE_IPS114_SPI
000ED7H   000ED7H   000001H   BYTE   UNIT     EDATA          ?ED?IPS114_WRITEDATA?SEEKFREE_IPS114_SPI
000ED8H   000ED8H   000001H   BYTE   UNIT     EDATA          ?ED?MPU6050_SIMIIC_SENDACK?SEEKFREE_MPU6050
000ED9H   000ED9H   000001H   BYTE   UNIT     EDATA          ?ED?OLED_WRDAT_SPI?SEEKFREE_OLED
000EDAH   000EDAH   000001H   BYTE   UNIT     EDATA          ?ED?OLED_WRCMD_SPI?SEEKFREE_OLED
000EDBH   000EDBH   000001H   BYTE   UNIT     EDATA          ?ED?CCD_COLLECT?SEEKFREE_TSL1401
000EDCH   000EDCH   000001H   BYTE   UNIT     EDATA          ?ED?WIRELESS_UART_SEND_BYTE?SEEKFREE_WIRELESS
000EDDH   000EDDH   000001H   BYTE   UNIT     EDATA          ?ED?UART1_ISR?ISR
000EDEH   000FDDH   000100H   BYTE   UNIT     EDATA          ?STACK
000FDEH   FEFFFFH   FEF022H   ---    ---      **GAP**
FF0000H   FF0002H   000003H   ---    OFFS..   CODE           ?CO?start251?4
FF0003H   FF0005H   000003H   ---    OFFS..   CODE           ?PR?IV?0
FF0006H   FF0009H   000004H   BYTE   INSEG    CODE           ?PR?ENABLEGLOBALIRQ?BOARD
FF000AH   FF000AH   000001H   BYTE   INSEG    CODE           ?PR?INT1_ISR?ISR
FF000BH   FF000DH   000003H   ---    OFFS..   CODE           ?PR?IV?1
FF000EH   FF0011H   000004H   BYTE   UNIT     CODE           ?PR?FPADD?STC32F_FPMU
FF0012H   FF0012H   000001H   ---    ---      **GAP**
FF0013H   FF0015H   000003H   ---    OFFS..   CODE           ?PR?IV?2
FF0016H   FF0019H   000004H   BYTE   UNIT     CODE           ?PR?FPMUL?STC32F_FPMU
FF001AH   FF001AH   000001H   ---    ---      **GAP**
FF001BH   FF001DH   000003H   ---    OFFS..   CODE           ?PR?IV?3
FF001EH   FF0021H   000004H   BYTE   UNIT     CODE           ?PR?FPDIV?STC32F_FPMU
FF0022H   FF0022H   000001H   ---    ---      **GAP**
FF0023H   FF0025H   000003H   ---    OFFS..   CODE           ?PR?IV?4
FF0026H   FF0042H   00001DH   BYTE   INSEG    CODE           ?PR?MPU6050_SIMIIC_DELAY?SEEKFREE_MPU6050
FF0043H   FF0045H   000003H   ---    OFFS..   CODE           ?PR?IV?8
FF0046H   FF004FH   00000AH   BYTE   INSEG    CODE           ?PR?TM1_ISR?ISR
FF0050H   FF0052H   000003H   ---    ---      **GAP**
FF0053H   FF0055H   000003H   ---    OFFS..   CODE           ?PR?IV?10
FF0056H   FF0059H   000004H   BYTE   UNIT     CODE           ?PR?FCASTL?STC32F_FPMU
FF005AH   FF005AH   000001H   ---    ---      **GAP**
FF005BH   FF005DH   000003H   ---    OFFS..   CODE           ?PR?IV?11
FF005EH   FF0061H   000004H   BYTE   INSEG    CODE           ?PR?INT0_ISR?ISR
FF0062H   FF0062H   000001H   ---    ---      **GAP**
FF0063H   FF0065H   000003H   ---    OFFS..   CODE           ?PR?IV?12
FF0066H   FF007FH   00001AH   BYTE   INSEG    CODE           ?PR?BLUETOOTH_CH9141_UART_CALLBACK?SEEKFREE_BLUETOOTH_CH91
                                                             -41
FF0080H   FF0082H   000003H   ---    ---      **GAP**
FF0083H   FF0085H   000003H   ---    OFFS..   CODE           ?PR?IV?16
FF0086H   FF0089H   000004H   BYTE   INSEG    CODE           ?PR?INT2_ISR?ISR
FF008AH   FF008AH   000001H   ---    ---      **GAP**
FF008BH   FF008DH   000003H   ---    OFFS..   CODE           ?PR?IV?17
FF008EH   FF0091H   000004H   BYTE   INSEG    CODE           ?PR?INT3_ISR?ISR
FF0092H   FF0092H   000001H   ---    ---      **GAP**
FF0093H   FF0095H   000003H   ---    OFFS..   CODE           ?PR?IV?18
FF0096H   FF0099H   000004H   BYTE   INSEG    CODE           ?PR?INT4_ISR?ISR
FF009AH   FF009AH   000001H   ---    ---      **GAP**
FF009BH   FF009DH   000003H   ---    OFFS..   CODE           ?PR?IV?19
FF009EH   FF00A1H   000004H   BYTE   INSEG    CODE           ?PR?TM2_ISR?ISR
FF00A2H   FF00A2H   000001H   ---    ---      **GAP**
FF00A3H   FF00A5H   000003H   ---    OFFS..   CODE           ?PR?IV?20
FF00A6H   FF212CH   002087H   BYTE   UNIT     CODE           ?CO?SEEKFREE_CONFIG
FF212DH   FF2F34H   000E08H   BYTE   UNIT     CODE           ?CO?SEEKFREE_FONT
FF2F35H   FF3841H   00090DH   BYTE   INSEG    CODE           ?PR?GPIO_MODE?ZF_GPIO
FF3842H   FF3F11H   0006D0H   BYTE   UNIT     CODE           ?C?LIB_CODE
FF3F12H   FF453DH   00062CH   BYTE   INSEG    CODE           ?PR?SET_CLK?BOARD
FF453EH   FF4917H   0003DAH   BYTE   INSEG    CODE           ?PR?PWM_INIT?ZF_PWM
FF4918H   FF4CCFH   0003B8H   BYTE   INSEG    CODE           ?PR?PWM_SET_GPIO?ZF_PWM
L251 LINKER/LOCATER V4.66.93.0                                                        05/11/2024  21:00:46  PAGE 9


FF4CD0H   FF4F82H   0002B3H   BYTE   INSEG    CODE           ?PR?UART_INIT?ZF_UART
FF4F83H   FF5127H   0001A5H   BYTE   INSEG    CODE           ?PR?RGB_COLOR?RGB
FF5128H   FF525FH   000138H   BYTE   INSEG    CODE           ?PR?FIFO_WRITE_BUFFER?ZF_FIFO
FF5260H   FF5344H   0000E5H   BYTE   INSEG    CODE           ?PR?PIT_TIMER_MS?ZF_TIM
FF5345H   FF53F9H   0000B5H   BYTE   INSEG    CODE           ?PR?ADC_INIT?ZF_ADC
FF53FAH   FF54A1H   0000A8H   BYTE   INSEG    CODE           ?PR?OLED_INIT?SEEKFREE_OLED
FF54A2H   FF5519H   000078H   BYTE   INSEG    CODE           ?PR?WS2812_BIT?RGB
FF551AH   FF5590H   000077H   BYTE   INSEG    CODE           ?PR?BOARD_INIT?BOARD
FF5591H   FF5605H   000075H   BYTE   INSEG    CODE           ?PR?UART_PUTCHAR?ZF_UART
FF5606H   FF5675H   000070H   BYTE   INSEG    CODE           ?PR?GYRO_ZERO_WANDER?MPU6050
FF5676H   FF56E1H   00006CH   BYTE   INSEG    CODE           ?PR?MPU6050_SIMIIC_READ_REGS?SEEKFREE_MPU6050
FF56E2H   FF574BH   00006AH   BYTE   INSEG    CODE           ?PR?FIFO_HEAD_OFFSET?ZF_FIFO
FF574CH   FF57B5H   00006AH   BYTE   INSEG    CODE           ?PR?MPU6050_READ_CH?SEEKFREE_MPU6050
FF57B6H   FF5816H   000061H   BYTE   INSEG    CODE           ?PR?UART4_ISR?ISR
FF5817H   FF5876H   000060H   BYTE   INSEG    CODE           ?PR?MPU6050_INIT?SEEKFREE_MPU6050
FF5877H   FF58D3H   00005DH   BYTE   INSEG    CODE           ?PR?CTIMER_COUNT_CLEAN?ZF_TIM
FF58D4H   FF5930H   00005DH   BYTE   INSEG    CODE           ?PR?OLED_FILL?SEEKFREE_OLED
FF5931H   FF5984H   000054H   BYTE   INSEG    CODE           ?PR?CTIMER_COUNT_INIT?ZF_TIM
FF5985H   FF59D6H   000052H   BYTE   INSEG    CODE           ?PR?MPU6050_GET_GYRO?SEEKFREE_MPU6050
FF59D7H   FF5A22H   00004CH   BYTE   INSEG    CODE           ?PR?OLED_WRCMD?SEEKFREE_OLED
FF5A23H   FF5A6EH   00004CH   BYTE   INSEG    CODE           ?PR?OLED_WRDAT?SEEKFREE_OLED
FF5A6FH   FF5AB9H   00004BH   BYTE   INSEG    CODE           ?PR?MOTOR_SET_PID?MOTOR
FF5ABAH   FF5B04H   00004BH   BYTE   INSEG    CODE           ?PR?TM4_ISR?ENCODER
FF5B05H   FF5B4DH   000049H   BYTE   INSEG    CODE           ?PR?MPU6050_SEND_CH?SEEKFREE_MPU6050
FF5B4EH   FF5B94H   000047H   BYTE   INSEG    CODE           ?PR?INDUCTANCE_INIT?INDUCTANCE
FF5B95H   FF5BD9H   000045H   BYTE   INSEG    CODE           ?PR?MAIN?MAIN
FF5BDAH   FF5C1CH   000043H   BYTE   INSEG    CODE           ?PR?ALL_PERIPHERAL_INIT?ALLINIT
FF5C1DH   FF5C5EH   000042H   BYTE   INSEG    CODE           ?PR?UART1_ISR?ISR
FF5C5FH   FF5C71H   000013H   BYTE   UNIT     CODE           ?C_C51STARTUP
FF5C72H   FF5C9AH   000029H   BYTE   UNIT     CODE           ?C_C51STARTUP?2
FF5C9BH   FF5C9DH   000003H   BYTE   UNIT     CODE           ?C_C51STARTUP?3
FF5C9EH   FF5CD8H   00003BH   BYTE   INSEG    CODE           ?PR?MPU6050_SIMIIC_READ_REG?SEEKFREE_MPU6050
FF5CD9H   FF5D0DH   000035H   BYTE   INSEG    CODE           ?PR?DELAY_MS?ZF_DELAY
FF5D0EH   FF5D42H   000035H   BYTE   INSEG    CODE           ?PR?OLED_SET_POS?SEEKFREE_OLED
FF5D43H   FF5D75H   000033H   BYTE   INSEG    CODE           ?PR?MPU6050_SELF1_CHECK?SEEKFREE_MPU6050
FF5D76H   FF5DA8H   000033H   BYTE   INSEG    CODE           ?PR?GPIO_INIT?ALLINIT
FF5DA9H   FF5DD7H   00002FH   BYTE   INSEG    CODE           ?PR?ENCODER_TIME_INIT?ENCODER
FF5DD8H   FF5E01H   00002AH   BYTE   INSEG    CODE           ?PR?MPU6050_SIMIIC_WRITE_REG?SEEKFREE_MPU6050
FF5E02H   FF5E29H   000028H   BYTE   INSEG    CODE           ?PR?MPU6050_SIMIIC_SENDACK?SEEKFREE_MPU6050
FF5E2AH   FF5E4EH   000025H   BYTE   INSEG    CODE           ?PR?MEMCPY?_?MEMCPY
FF5E4FH   FF5E71H   000023H   BYTE   INSEG    CODE           ?PR?DELAY_INIT?ZF_DELAY
FF5E72H   FF5E94H   000023H   BYTE   INSEG    CODE           ?PR?MOTOR_INIT?MOTOR
FF5E95H   FF5EB5H   000021H   BYTE   INSEG    CODE           ?PR?MPU6050_SCCB_WAITACK?SEEKFREE_MPU6050
FF5EB6H   FF5ECFH   00001AH   BYTE   INSEG    CODE           ?PR?WIRELESS_UART_CALLBACK?SEEKFREE_WIRELESS
FF5ED0H   FF5EE9H   00001AH   BYTE   INSEG    CODE           ?PR?UART2_ISR?ISR
FF5EEAH   FF5F03H   00001AH   BYTE   INSEG    CODE           ?PR?UART3_ISR?ISR
FF5F04H   FF5F1AH   000017H   BYTE   INSEG    CODE           ?PR?TM0_ISR?ISR
FF5F1BH   FF5F30H   000016H   BYTE   INSEG    CODE           ?PR?MPU6050_SIMIIC_STOP?SEEKFREE_MPU6050
FF5F31H   FF5F44H   000014H   BYTE   INSEG    CODE           ?PR?CLOCK_INIT?BOARD
FF5F45H   FF5F57H   000013H   BYTE   INSEG    CODE           ?PR?MPU6050_SIMIIC_START?SEEKFREE_MPU6050
FF5F58H   FF5F69H   000012H   BYTE   INSEG    CODE           ?PR?PUTCHAR?BOARD
FF5F6AH   FF5F7AH   000011H   BYTE   INSEG    CODE           ?PR?ICACHEON?BOARD
FF5F7BH   FF5F80H   000006H   BYTE   UNIT     CODE           ?PR?CASTF?STC32F_FPMU
FF5F81H   FF5F86H   000006H   BYTE   UNIT     CODE           ?PR?FCASTI?STC32F_FPMU
FF5F87H   FF5F8AH   000004H   BYTE   INSEG    CODE           ?PR?TM3_ISR?ISR
FF5F8BH   FF5F8EH   000004H   BYTE   UNIT     CONST          ?CO?PRINTF
FF5F8FH   FF63CFH   000441H   BYTE   UNIT     HCONST         ?C_INITEDATA
FF63D0H   FF648BH   0000BCH   BYTE   UNIT     HCONST         ?HC?MENU
FF648CH   FF64E3H   000058H   BYTE   UNIT     HCONST         ?HC?ZF_PWM
FF64E4H   FF652EH   00004BH   BYTE   UNIT     HCONST         ?HC?SEEKFREE_IMU963RA
FF652FH   FF6573H   000045H   BYTE   UNIT     HCONST         ?HC?INDUCTANCE
FF6574H   FF65A8H   000035H   BYTE   UNIT     HCONST         ?HC?SEEKFREE_ICM20602
FF65A9H   FF65DCH   000034H   BYTE   UNIT     HCONST         ?HC?SEEKFREE_IMU660RA
FF65DDH   FF65F2H   000016H   BYTE   UNIT     HCONST         ?HC?SEEKFREE_MPU6050
FF65F3H   FF6605H   000013H   BYTE   UNIT     HCONST         ?HC?SEEKFREE_DL1A
L251 LINKER/LOCATER V4.66.93.0                                                        05/11/2024  21:00:46  PAGE 10


FF6606H   FF660FH   00000AH   BYTE   UNIT     HCONST         ?HC?SEEKFREE_OLED
FF6610H   FF6615H   000006H   BYTE   UNIT     HCONST         ?HC?SEEKFREE_18TFT
FF6616H   FF661BH   000006H   BYTE   UNIT     HCONST         ?HC?SEEKFREE_IPS114_SPI

* * * * * * * * *   R E M O V E D     S E G M E N T S   * * * * * * * *
   *DEL*:           000016H   BYTE   INSEG    CODE           ?PR?DISALBE_ICACHE?BOARD
   *DEL*:           000017H   BYTE   INSEG    CODE           ?PR?ENALBE_ICACHE?BOARD
   *DEL*:           000004H   BYTE   INSEG    CODE           ?PR?DISABLEGLOBALIRQ?BOARD
   *DEL*:           000004H   BYTE   UNIT     CODE           ?PR?FPSUB?STC32F_FPMU
   *DEL*:           000004H   BYTE   UNIT     CODE           ?PR?SQRT?STC32F_FPMU
   *DEL*:           00000CH   BYTE   UNIT     CODE           ?PR?FPCMP?STC32F_FPMU
   *DEL*:           000006H   BYTE   UNIT     CODE           ?PR?FXAM?STC32F_FPMU
   *DEL*:           000007H   BYTE   UNIT     CODE           ?PR?FCHS?STC32F_FPMU
   *DEL*:           000007H   BYTE   UNIT     CODE           ?PR?FABS?STC32F_FPMU
   *DEL*:           000004H   BYTE   UNIT     CODE           ?PR?SIN?STC32F_FPMU
   *DEL*:           000004H   BYTE   UNIT     CODE           ?PR?COS?STC32F_FPMU
   *DEL*:           000004H   BYTE   UNIT     CODE           ?PR?TAN?STC32F_FPMU
   *DEL*:           00000AH   BYTE   UNIT     CODE           ?PR?ATAN?STC32F_FPMU
   *DEL*:           000006H   BYTE   UNIT     CODE           ?PR?FCASTC?STC32F_FPMU
   *DEL*:           000004H   BYTE   UNIT     CODE           ?PR?FCLEX?STC32F_FPMU
   *DEL*:           000004H   BYTE   UNIT     CODE           ?PR?FINIT?STC32F_FPMU
   *DEL*:           000006H   BYTE   UNIT     CODE           ?PR?FPSRR?STC32F_FPMU
   *DEL*:           000006H   BYTE   UNIT     CODE           ?PR?FPSRW?STC32F_FPMU
   *DEL*:           000006H   BYTE   UNIT     CODE           ?PR?FPCRR?STC32F_FPMU
   *DEL*:           000006H   BYTE   UNIT     CODE           ?PR?FPCRW?STC32F_FPMU
   *DEL*:           000056H   BYTE   INSEG    CODE           ?PR?ADC_ONCE?ZF_ADC
   *DEL*:           000019H   BYTE   INSEG    CODE           ?PR?DELAY_NS?ZF_DELAY
   *DEL*:           000033H   BYTE   INSEG    CODE           ?PR?DELAY_US?ZF_DELAY
   *DEL*:           00001AH   BYTE   INSEG    CODE           ?PR?IAP_SET_TPS?ZF_EEPROM
   *DEL*:           000015H   BYTE   INSEG    CODE           ?PR?EEPROM_TRIG?ZF_EEPROM
   *DEL*:           000029H   BYTE   INSEG    CODE           ?PR?IAP_ERASE_PAGE?ZF_EEPROM
   *DEL*:           000004H   BYTE   INSEG    CODE           ?PR?IAP_IDLE?ZF_EEPROM
   *DEL*:           00005FH   BYTE   INSEG    CODE           ?PR?IAP_READ_BYTES?ZF_EEPROM
   *DEL*:           000008H   BYTE   INSEG    CODE           ?PR?IAP_INIT?ZF_EEPROM
   *DEL*:           00005BH   BYTE   INSEG    CODE           ?PR?IAP_WRITE_BYTES?ZF_EEPROM
   *DEL*:           000012H   BYTE   INSEG    CODE           ?PR?IAP_GET_CMD_STATE?ZF_EEPROM
   *DEL*:           000066H   BYTE   INSEG    CODE           ?PR?EXIT_INIT?ZF_EXTI
   *DEL*:           000095H   BYTE   INSEG    CODE           ?PR?GPIO_PULL_SET?ZF_GPIO
   *DEL*:           000028H   BYTE   INSEG    CODE           ?PR?SEND_DATA?ZF_IIC
   *DEL*:           000037H   BYTE   INSEG    CODE           ?PR?IIC_CHANGE_PIN?ZF_IIC
   *DEL*:           00001CH   BYTE   INSEG    CODE           ?PR?RECV_DATA?ZF_IIC
   *DEL*:           000015H   BYTE   INSEG    CODE           ?PR?START?ZF_IIC
   *DEL*:           000057H   BYTE   INSEG    CODE           ?PR?WAIT?ZF_IIC
   *DEL*:           000021H   BYTE   INSEG    CODE           ?PR?SEND_ACK?ZF_IIC
   *DEL*:           000015H   BYTE   INSEG    CODE           ?PR?RECV_ACK?ZF_IIC
   *DEL*:           000015H   BYTE   INSEG    CODE           ?PR?STOP?ZF_IIC
   *DEL*:           00001EH   BYTE   INSEG    CODE           ?PR?SEND_NAK?ZF_IIC
   *DEL*:           00007AH   BYTE   INSEG    CODE           ?PR?IIC_INIT?ZF_IIC
   *DEL*:           000099H   BYTE   INSEG    CODE           ?PR?IIC_READ_REG?ZF_IIC
   *DEL*:           0000D4H   BYTE   INSEG    CODE           ?PR?IIC_READ_REG_BYTES?ZF_IIC
   *DEL*:           00007CH   BYTE   INSEG    CODE           ?PR?IIC_WRITE_REG?ZF_IIC
   *DEL*:           000035H   BYTE   INSEG    CODE           ?PR?IIC_DELAY_US?ZF_IIC
   *DEL*:           0000B9H   BYTE   INSEG    CODE           ?PR?NVIC_SETPRIORITY?ZF_NVIC
   *DEL*:           000118H   BYTE   INSEG    CODE           ?PR?PWM_DUTY?ZF_PWM
   *DEL*:           0001ABH   BYTE   INSEG    CODE           ?PR?PWM_FREQ?ZF_PWM
   *DEL*:           000026H   BYTE   INSEG    CODE           ?PR?SPI_CHANGE_MODE?ZF_SPI
   *DEL*:           0000CCH   BYTE   INSEG    CODE           ?PR?SPI_CHANGE_PIN?ZF_SPI
   *DEL*:           0000F5H   BYTE   INSEG    CODE           ?PR?SPI_INIT?ZF_SPI
   *DEL*:           000012H   BYTE   INSEG    CODE           ?PR?SPI_MOSI?ZF_SPI
   *DEL*:           0000B4H   BYTE   INSEG    CODE           ?PR?CTIMER_COUNT_READ?ZF_TIM
   *DEL*:           000039H   BYTE   INSEG    CODE           ?PR?UART_PUTBUFF?ZF_UART
   *DEL*:           00002BH   BYTE   INSEG    CODE           ?PR?UART_PUTSTR?ZF_UART
   *DEL*:           000183H   BYTE   INSEG    CODE           ?PR?FIFO_READ_BUFFER?ZF_FIFO
   *DEL*:           000043H   BYTE   INSEG    CODE           ?PR?FIFO_CLEAR?ZF_FIFO
   *DEL*:           000070H   BYTE   INSEG    CODE           ?PR?FIFO_END_OFFSET?ZF_FIFO
L251 LINKER/LOCATER V4.66.93.0                                                        05/11/2024  21:00:46  PAGE 11


   *DEL*:           000025H   BYTE   INSEG    CODE           ?PR?FIFO_USED?ZF_FIFO
   *DEL*:           00006EH   BYTE   INSEG    CODE           ?PR?FIFO_INIT?ZF_FIFO
   *DEL*:           0000CDH   BYTE   INSEG    CODE           ?PR?LCD_SHOWUINT16?SEEKFREE_18TFT
   *DEL*:           0000CEH   BYTE   INSEG    CODE           ?PR?LCD_SHOWINT32_SIMSPI?SEEKFREE_18TFT
   *DEL*:           000119H   BYTE   INSEG    CODE           ?PR?LCD_SHOWINT16_SIMSPI?SEEKFREE_18TFT
   *DEL*:           0000CEH   BYTE   INSEG    CODE           ?PR?LCD_SHOWINT32?SEEKFREE_18TFT
   *DEL*:           000119H   BYTE   INSEG    CODE           ?PR?LCD_SHOWINT16?SEEKFREE_18TFT
   *DEL*:           000057H   BYTE   INSEG    CODE           ?PR?LCD_CLEAR_SIMSPI?SEEKFREE_18TFT
   *DEL*:           000057H   BYTE   INSEG    CODE           ?PR?LCD_CLEAR?SEEKFREE_18TFT
   *DEL*:           00005DH   BYTE   INSEG    CODE           ?PR?LCD_SHOWSTR_SIMSPI?SEEKFREE_18TFT
   *DEL*:           00005DH   BYTE   INSEG    CODE           ?PR?LCD_SHOWSTR?SEEKFREE_18TFT
   *DEL*:           00004CH   BYTE   INSEG    CODE           ?PR?LCD_WRITEINDEX_SIMSPI?SEEKFREE_18TFT
   *DEL*:           00004CH   BYTE   INSEG    CODE           ?PR?LCD_WRITEDATA_SIMSPI?SEEKFREE_18TFT
   *DEL*:           000015H   BYTE   INSEG    CODE           ?PR?LCD_WRITEINDEX?SEEKFREE_18TFT
   *DEL*:           000015H   BYTE   INSEG    CODE           ?PR?LCD_WRITEDATA?SEEKFREE_18TFT
   *DEL*:           000055H   BYTE   INSEG    CODE           ?PR?LCD_WRITEDATA_16BIT_SIMSPI?SEEKFREE_18TFT
   *DEL*:           000064H   BYTE   INSEG    CODE           ?PR?LCD_SET_REGION_SIMSPI?SEEKFREE_18TFT
   *DEL*:           0001FDH   BYTE   INSEG    CODE           ?PR?LCD_INIT_SIMSPI?SEEKFREE_18TFT
   *DEL*:           0000ECH   BYTE   INSEG    CODE           ?PR?SHOWIMAGE?SEEKFREE_18TFT
   *DEL*:           000064H   BYTE   INSEG    CODE           ?PR?LCD_SET_REGION?SEEKFREE_18TFT
   *DEL*:           0001F3H   BYTE   INSEG    CODE           ?PR?LCD_INIT?SEEKFREE_18TFT
   *DEL*:           0000A9H   BYTE   INSEG    CODE           ?PR?LCD_SHOWUINT8_SIMSPI?SEEKFREE_18TFT
   *DEL*:           0000A9H   BYTE   INSEG    CODE           ?PR?LCD_SHOWUINT8?SEEKFREE_18TFT
   *DEL*:           0000EBH   BYTE   INSEG    CODE           ?PR?LCD_SHOWINT8_SIMSPI?SEEKFREE_18TFT
   *DEL*:           0000EBH   BYTE   INSEG    CODE           ?PR?LCD_SHOWINT8?SEEKFREE_18TFT
   *DEL*:           00002AH   BYTE   INSEG    CODE           ?PR?LCD_WRITEDATA_16BIT?SEEKFREE_18TFT
   *DEL*:           000145H   BYTE   INSEG    CODE           ?PR?LCD_SHOWFLOAT_SIMSPI?SEEKFREE_18TFT
   *DEL*:           000023H   BYTE   INSEG    CODE           ?PR?LCD_DRAWPOINT_SIMSPI?SEEKFREE_18TFT
   *DEL*:           000145H   BYTE   INSEG    CODE           ?PR?LCD_SHOWFLOAT?SEEKFREE_18TFT
   *DEL*:           000023H   BYTE   INSEG    CODE           ?PR?LCD_DRAWPOINT?SEEKFREE_18TFT
   *DEL*:           0000BFH   BYTE   INSEG    CODE           ?PR?LCD_SHOWCHAR_SIMSPI?SEEKFREE_18TFT
   *DEL*:           0000BFH   BYTE   INSEG    CODE           ?PR?LCD_SHOWCHAR?SEEKFREE_18TFT
   *DEL*:           0000CDH   BYTE   INSEG    CODE           ?PR?LCD_SHOWUINT16_SIMSPI?SEEKFREE_18TFT
   *DEL*:           000013H   BYTE   INSEG    CODE           ?PR?ENCODER_SELF4_CHECK?SEEKFREE_ABSOLUTE_ENCODER
   *DEL*:           000013H   BYTE   INSEG    CODE           ?PR?ENCODER_SELF5_CHECK?SEEKFREE_ABSOLUTE_ENCODER
   *DEL*:           000042H   BYTE   INSEG    CODE           ?PR?ENCODER_SPI_R_REG_BYTE?SEEKFREE_ABSOLUTE_ENCODER
   *DEL*:           00000AH   BYTE   INSEG    CODE           ?PR?ENCODER_DELAY_US?SEEKFREE_ABSOLUTE_ENCODER
   *DEL*:           000053H   BYTE   INSEG    CODE           ?PR?ENCODER_SPI_W_REG_BYTE?SEEKFREE_ABSOLUTE_ENCODER
   *DEL*:           00002DH   BYTE   INSEG    CODE           ?PR?SIMSPI_R_REG_BYTE?SEEKFREE_ABSOLUTE_ENCODER
   *DEL*:           000029H   BYTE   INSEG    CODE           ?PR?SIMSPI_W_REG_BYTE?SEEKFREE_ABSOLUTE_ENCODER
   *DEL*:           000030H   BYTE   INSEG    CODE           ?PR?ENCODER_INIT_SPI?SEEKFREE_ABSOLUTE_ENCODER
   *DEL*:           00000CH   BYTE   INSEG    CODE           ?PR?SPI_WR_BYTE?SEEKFREE_ABSOLUTE_ENCODER
   *DEL*:           000032H   BYTE   INSEG    CODE           ?PR?SET_ZERO_POSITION_SIMSPI?SEEKFREE_ABSOLUTE_ENCODER
   *DEL*:           000035H   BYTE   INSEG    CODE           ?PR?ENCODER_ANGLE_SIMSPI?SEEKFREE_ABSOLUTE_ENCODER
   *DEL*:           00002DH   BYTE   INSEG    CODE           ?PR?SPI_R_REG_BYTE?SEEKFREE_ABSOLUTE_ENCODER
   *DEL*:           000029H   BYTE   INSEG    CODE           ?PR?SPI_W_REG_BYTE?SEEKFREE_ABSOLUTE_ENCODER
   *DEL*:           000042H   BYTE   INSEG    CODE           ?PR?ENCODER_SIMSPI_R_REG_BYTE?SEEKFREE_ABSOLUTE_ENCODER
   *DEL*:           000053H   BYTE   INSEG    CODE           ?PR?ENCODER_SIMSPI_W_REG_BYTE?SEEKFREE_ABSOLUTE_ENCODER
   *DEL*:           000010H   BYTE   INSEG    CODE           ?PR?ENCODER_INIT_SIMSPI?SEEKFREE_ABSOLUTE_ENCODER
   *DEL*:           000032H   BYTE   INSEG    CODE           ?PR?SET_ZERO_POSITION_SPI?SEEKFREE_ABSOLUTE_ENCODER
   *DEL*:           000053H   BYTE   INSEG    CODE           ?PR?SIMSPI_WR_BYTE?SEEKFREE_ABSOLUTE_ENCODER
   *DEL*:           000035H   BYTE   INSEG    CODE           ?PR?ENCODER_ANGLE_SPI?SEEKFREE_ABSOLUTE_ENCODER
   *DEL*:           00002EH   BYTE   INSEG    CODE           ?PR?BLUETOOTH_CH9141_READ_BUFF?SEEKFREE_BLUETOOTH_CH9141
   *DEL*:           0000CCH   BYTE   INSEG    CODE           ?PR?BLUETOOTH_CH9141_SEND_BUFF?SEEKFREE_BLUETOOTH_CH9141
   *DEL*:           00003FH   BYTE   INSEG    CODE           ?PR?BLUETOOTH_CH9141_INIT?SEEKFREE_BLUETOOTH_CH9141
   *DEL*:           000028H   BYTE   INSEG    CODE           ?PR?DL1A_SIMIIC_SENDACK?SEEKFREE_DL1A
   *DEL*:           000051H   BYTE   INSEG    CODE           ?PR?DL1A_TIMEOUT_MICROSECONDS_TO_MCLKS?SEEKFREE_DL1A
   *DEL*:           000053H   BYTE   INSEG    CODE           ?PR?DL1A_TIMEOUT_MCLKS_TO_MICROSECONDS?SEEKFREE_DL1A
   *DEL*:           00003EH   BYTE   INSEG    CODE           ?PR?DL1A_SET_SIGNAL_RATE_LIMIT?SEEKFREE_DL1A
   *DEL*:           00006AH   BYTE   INSEG    CODE           ?PR?DL1A_READ_CH?SEEKFREE_DL1A
   *DEL*:           00002AH   BYTE   INSEG    CODE           ?PR?DL1A_DECODE_TIMEOUT?SEEKFREE_DL1A
   *DEL*:           000049H   BYTE   INSEG    CODE           ?PR?DL1A_SEND_CH?SEEKFREE_DL1A
   *DEL*:           000195H   BYTE   INSEG    CODE           ?PR?DL1A_GET_SPAD_INFO?SEEKFREE_DL1A
   *DEL*:           00007FH   BYTE   INSEG    CODE           ?PR?DL1A_ENCODE_TIMEOUT?SEEKFREE_DL1A
   *DEL*:           00008EH   BYTE   INSEG    CODE           ?PR?DL1A_GET_SEQUENCE_STEP_ENABLES?SEEKFREE_DL1A
L251 LINKER/LOCATER V4.66.93.0                                                        05/11/2024  21:00:46  PAGE 12


   *DEL*:           000021H   BYTE   INSEG    CODE           ?PR?DL1A_SCCB_WAITACK?SEEKFREE_DL1A
   *DEL*:           00006CH   BYTE   INSEG    CODE           ?PR?DL1A_GET_DISTANCE?SEEKFREE_DL1A
   *DEL*:           00001FH   BYTE   INSEG    CODE           ?PR?DL1A_SIMIIC_DELAY?SEEKFREE_DL1A
   *DEL*:           0000ABH   BYTE   INSEG    CODE           ?PR?DL1A_PERFORM_SINGLE_REF_CALIBRATION?SEEKFREE_DL1A
   *DEL*:           000169H   BYTE   INSEG    CODE           ?PR?DL1A_GET_SEQUENCE_STEP_TIMEOUTS?SEEKFREE_DL1A
   *DEL*:           000013H   BYTE   INSEG    CODE           ?PR?DL1A_SIMIIC_START?SEEKFREE_DL1A
   *DEL*:           000068H   BYTE   INSEG    CODE           ?PR?DL1A_SIMIIC_READ_REGS?SEEKFREE_DL1A
   *DEL*:           0000B6H   BYTE   INSEG    CODE           ?PR?DL1A_GET_MEASUREMENT_TIMING_BUDGET?SEEKFREE_DL1A
   *DEL*:           000042H   BYTE   INSEG    CODE           ?PR?DL1A_SIMIIC_WRITE_DATS?SEEKFREE_DL1A
   *DEL*:           00003BH   BYTE   INSEG    CODE           ?PR?DL1A_SIMIIC_READ_REG?SEEKFREE_DL1A
   *DEL*:           000068H   BYTE   INSEG    CODE           ?PR?DL1A_SIMIIC_READ_REGS_1?SEEKFREE_DL1A
   *DEL*:           000149H   BYTE   INSEG    CODE           ?PR?DL1A_SET_MEASUREMENT_TIMING_BUDGET?SEEKFREE_DL1A
   *DEL*:           000016H   BYTE   INSEG    CODE           ?PR?DL1A_SIMIIC_STOP?SEEKFREE_DL1A
   *DEL*:           00002AH   BYTE   INSEG    CODE           ?PR?DL1A_SIMIIC_WRITE_REG?SEEKFREE_DL1A
   *DEL*:           0006AEH   BYTE   INSEG    CODE           ?PR?DL1A_INIT?SEEKFREE_DL1A
   *DEL*:           00007AH   BYTE   INSEG    CODE           ?PR?DL1A_GET_VCSEL_PULSE_PERIOD?SEEKFREE_DL1A
   *DEL*:           00001EH   BYTE   INSEG    CODE           ?PR?ICM20602_READ_REGISTER?SEEKFREE_ICM20602
   *DEL*:           00008DH   BYTE   INSEG    CODE           ?PR?ICM20602_GYRO_TRANSITION?SEEKFREE_ICM20602
   *DEL*:           00001AH   BYTE   INSEG    CODE           ?PR?ICM20602_WRITE_REGISTER?SEEKFREE_ICM20602
   *DEL*:           000059H   BYTE   INSEG    CODE           ?PR?ICM20602_SIMSPI_WR_BYTE?SEEKFREE_ICM20602
   *DEL*:           00004EH   BYTE   INSEG    CODE           ?PR?ICM20602_SELF_CHECK?SEEKFREE_ICM20602
   *DEL*:           000051H   BYTE   INSEG    CODE           ?PR?ICM20602_SIMSPI_R_REG_BYTES?SEEKFREE_ICM20602
   *DEL*:           000027H   BYTE   INSEG    CODE           ?PR?ICM20602_SIMSPI_R_REG_BYTE?SEEKFREE_ICM20602
   *DEL*:           00001BH   BYTE   INSEG    CODE           ?PR?ICM20602_SIMSPI_W_REG_BYTE?SEEKFREE_ICM20602
   *DEL*:           0000C2H   BYTE   INSEG    CODE           ?PR?ICM20602_INIT?SEEKFREE_ICM20602
   *DEL*:           000050H   BYTE   INSEG    CODE           ?PR?ICM20602_GET_ACC?SEEKFREE_ICM20602
   *DEL*:           000089H   BYTE   INSEG    CODE           ?PR?ICM20602_ACC_TRANSITION?SEEKFREE_ICM20602
   *DEL*:           000026H   BYTE   INSEG    CODE           ?PR?ICM20602_READ_REGISTERS?SEEKFREE_ICM20602
   *DEL*:           000050H   BYTE   INSEG    CODE           ?PR?ICM20602_GET_GYRO?SEEKFREE_ICM20602
   *DEL*:           000057H   BYTE   INSEG    CODE           ?PR?IMU660RA_GET_GYRO?SEEKFREE_IMU660RA
   *DEL*:           000021H   BYTE   INSEG    CODE           ?PR?IMU660RA_SCCB_WAITACK?SEEKFREE_IMU660RA
   *DEL*:           00001DH   BYTE   INSEG    CODE           ?PR?IMU660RA_SIMIIC_DELAY?SEEKFREE_IMU660RA
   *DEL*:           0000A8H   BYTE   INSEG    CODE           ?PR?IMU660RA_GYRO_TRANSITION?SEEKFREE_IMU660RA
   *DEL*:           00004EH   BYTE   INSEG    CODE           ?PR?IMU660RA_SELF_CHECK?SEEKFREE_IMU660RA
   *DEL*:           000013H   BYTE   INSEG    CODE           ?PR?IMU660RA_SIMIIC_START?SEEKFREE_IMU660RA
   *DEL*:           000068H   BYTE   INSEG    CODE           ?PR?IMU660RA_SIMIIC_READ_REGS?SEEKFREE_IMU660RA
   *DEL*:           00003BH   BYTE   INSEG    CODE           ?PR?IMU660RA_SIMIIC_READ_REG?SEEKFREE_IMU660RA
   *DEL*:           00004FH   BYTE   INSEG    CODE           ?PR?IMU660RA_SIMIIC_WRITE_REGS?SEEKFREE_IMU660RA
   *DEL*:           000016H   BYTE   INSEG    CODE           ?PR?IMU660RA_SIMIIC_STOP?SEEKFREE_IMU660RA
   *DEL*:           00002AH   BYTE   INSEG    CODE           ?PR?IMU660RA_SIMIIC_WRITE_REG?SEEKFREE_IMU660RA
   *DEL*:           0000CCH   BYTE   INSEG    CODE           ?PR?IMU660RA_INIT?SEEKFREE_IMU660RA
   *DEL*:           000028H   BYTE   INSEG    CODE           ?PR?IMU660RA_SIMIIC_SENDACK?SEEKFREE_IMU660RA
   *DEL*:           00006AH   BYTE   INSEG    CODE           ?PR?IMU660RA_READ_CH?SEEKFREE_IMU660RA
   *DEL*:           000057H   BYTE   INSEG    CODE           ?PR?IMU660RA_GET_ACC?SEEKFREE_IMU660RA
   *DEL*:           000049H   BYTE   INSEG    CODE           ?PR?IMU660RA_SEND_CH?SEEKFREE_IMU660RA
   *DEL*:           00007CH   BYTE   INSEG    CODE           ?PR?IMU660RA_ACC_TRANSITION?SEEKFREE_IMU660RA
   *DEL*:           00008DH   BYTE   INSEG    CODE           ?PR?IMU963RA_ACC_TRANSITION?SEEKFREE_IMU963RA
   *DEL*:           000050H   BYTE   INSEG    CODE           ?PR?IMU963RA_GET_GYRO?SEEKFREE_IMU963RA
   *DEL*:           000051H   BYTE   INSEG    CODE           ?PR?IMU963RA_MAG_TRANSITION?SEEKFREE_IMU963RA
   *DEL*:           0000D2H   BYTE   INSEG    CODE           ?PR?IMU963RA_GYRO_TRANSITION?SEEKFREE_IMU963RA
   *DEL*:           000059H   BYTE   INSEG    CODE           ?PR?IMU963RA_SIMSPI_WR_BYTE?SEEKFREE_IMU963RA
   *DEL*:           00006CH   BYTE   INSEG    CODE           ?PR?IMU963RA_READ_MAG_REGISTER?SEEKFREE_IMU963RA
   *DEL*:           00003AH   BYTE   INSEG    CODE           ?PR?IMU963RA_CONNECT_MAG?SEEKFREE_IMU963RA
   *DEL*:           000026H   BYTE   INSEG    CODE           ?PR?IMU963RA_READ_ACC_GYRO_REGISTERS?SEEKFREE_IMU963RA
   *DEL*:           00007FH   BYTE   INSEG    CODE           ?PR?IMU963RA_WRITE_MAG_REGISTER?SEEKFREE_IMU963RA
   *DEL*:           000023H   BYTE   INSEG    CODE           ?PR?IMU963RA_READ_ACC_GYRO_REGISTER?SEEKFREE_IMU963RA
   *DEL*:           00004BH   BYTE   INSEG    CODE           ?PR?IMU963RA_SIMSPI_R_REG_BYTES?SEEKFREE_IMU963RA
   *DEL*:           00002DH   BYTE   INSEG    CODE           ?PR?IMU963RA_SIMSPI_R_REG_BYTE?SEEKFREE_IMU963RA
   *DEL*:           000051H   BYTE   INSEG    CODE           ?PR?IMU963RA_MAG_SELF_CHECK?SEEKFREE_IMU963RA
   *DEL*:           00001AH   BYTE   INSEG    CODE           ?PR?IMU963RA_WRITE_ACC_GYRO_REGISTER?SEEKFREE_IMU963RA
   *DEL*:           000021H   BYTE   INSEG    CODE           ?PR?IMU963RA_SIMSPI_W_REG_BYTE?SEEKFREE_IMU963RA
   *DEL*:           00011DH   BYTE   INSEG    CODE           ?PR?IMU963RA_INIT?SEEKFREE_IMU963RA
   *DEL*:           00004EH   BYTE   INSEG    CODE           ?PR?IMU963RA_ACC_GYRO_SELF_CHECK?SEEKFREE_IMU963RA
   *DEL*:           000050H   BYTE   INSEG    CODE           ?PR?IMU963RA_GET_ACC?SEEKFREE_IMU963RA
   *DEL*:           00006BH   BYTE   INSEG    CODE           ?PR?IMU963RA_GET_MAG?SEEKFREE_IMU963RA
L251 LINKER/LOCATER V4.66.93.0                                                        05/11/2024  21:00:46  PAGE 13


   *DEL*:           0000A9H   BYTE   INSEG    CODE           ?PR?IPS114_SHOWUINT8_SIMSPI?SEEKFREE_IPS114_SPI
   *DEL*:           0000A5H   BYTE   INSEG    CODE           ?PR?IPS114_SHOWUINT8?SEEKFREE_IPS114_SPI
   *DEL*:           0000EBH   BYTE   INSEG    CODE           ?PR?IPS114_SHOWINT8_SIMSPI?SEEKFREE_IPS114_SPI
   *DEL*:           0000E7H   BYTE   INSEG    CODE           ?PR?IPS114_SHOWINT8?SEEKFREE_IPS114_SPI
   *DEL*:           00002AH   BYTE   INSEG    CODE           ?PR?IPS114_WRITEDATA_16BIT?SEEKFREE_IPS114_SPI
   *DEL*:           000145H   BYTE   INSEG    CODE           ?PR?IPS114_SHOWFLOAT_SIMSPI?SEEKFREE_IPS114_SPI
   *DEL*:           000023H   BYTE   INSEG    CODE           ?PR?IPS114_DRAWPOINT_SIMSPI?SEEKFREE_IPS114_SPI
   *DEL*:           000145H   BYTE   INSEG    CODE           ?PR?IPS114_SHOWFLOAT?SEEKFREE_IPS114_SPI
   *DEL*:           000023H   BYTE   INSEG    CODE           ?PR?IPS114_DRAWPOINT?SEEKFREE_IPS114_SPI
   *DEL*:           0000BFH   BYTE   INSEG    CODE           ?PR?IPS114_SHOWCHAR_SIMSPI?SEEKFREE_IPS114_SPI
   *DEL*:           0000BFH   BYTE   INSEG    CODE           ?PR?IPS114_SHOWCHAR?SEEKFREE_IPS114_SPI
   *DEL*:           0000CDH   BYTE   INSEG    CODE           ?PR?IPS114_SHOWUINT16_SIMSPI?SEEKFREE_IPS114_SPI
   *DEL*:           0000CDH   BYTE   INSEG    CODE           ?PR?IPS114_SHOWUINT16?SEEKFREE_IPS114_SPI
   *DEL*:           0000CEH   BYTE   INSEG    CODE           ?PR?IPS114_SHOWINT32_SIMSPI?SEEKFREE_IPS114_SPI
   *DEL*:           000119H   BYTE   INSEG    CODE           ?PR?IPS114_SHOWINT16_SIMSPI?SEEKFREE_IPS114_SPI
   *DEL*:           0000CEH   BYTE   INSEG    CODE           ?PR?IPS114_SHOWINT32?SEEKFREE_IPS114_SPI
   *DEL*:           000115H   BYTE   INSEG    CODE           ?PR?IPS114_SHOWINT16?SEEKFREE_IPS114_SPI
   *DEL*:           00005FH   BYTE   INSEG    CODE           ?PR?IPS114_CLEAR_SIMSPI?SEEKFREE_IPS114_SPI
   *DEL*:           00005FH   BYTE   INSEG    CODE           ?PR?IPS114_CLEAR?SEEKFREE_IPS114_SPI
   *DEL*:           000055H   BYTE   INSEG    CODE           ?PR?IPS114_WRITEDATAI_16BIT_SIMSPI?SEEKFREE_IPS114_SPI
   *DEL*:           00005DH   BYTE   INSEG    CODE           ?PR?IPS114_SHOWSTR_SIMSPI?SEEKFREE_IPS114_SPI
   *DEL*:           00005DH   BYTE   INSEG    CODE           ?PR?IPS114_SHOWSTR?SEEKFREE_IPS114_SPI
   *DEL*:           00004CH   BYTE   INSEG    CODE           ?PR?IPS114_WRITEINDEX_SIMSPI?SEEKFREE_IPS114_SPI
   *DEL*:           00004CH   BYTE   INSEG    CODE           ?PR?IPS114_WRITEDATA_SIMSPI?SEEKFREE_IPS114_SPI
   *DEL*:           000015H   BYTE   INSEG    CODE           ?PR?IPS114_WRITEINDEX?SEEKFREE_IPS114_SPI
   *DEL*:           000015H   BYTE   INSEG    CODE           ?PR?IPS114_WRITEDATA?SEEKFREE_IPS114_SPI
   *DEL*:           000054H   BYTE   INSEG    CODE           ?PR?IPS114_SET_REGION_SIMSPI?SEEKFREE_IPS114_SPI
   *DEL*:           000154H   BYTE   INSEG    CODE           ?PR?IPS114_INIT_SIMSPI?SEEKFREE_IPS114_SPI
   *DEL*:           000054H   BYTE   INSEG    CODE           ?PR?IPS114_SET_REGION?SEEKFREE_IPS114_SPI
   *DEL*:           000176H   BYTE   INSEG    CODE           ?PR?IPS114_INIT?SEEKFREE_IPS114_SPI
   *DEL*:           000052H   BYTE   INSEG    CODE           ?PR?MPU6050_GET_ACCDATA?SEEKFREE_MPU6050
   *DEL*:           000047H   BYTE   INSEG    CODE           ?PR?OLED_PUTPIXEL?SEEKFREE_OLED
   *DEL*:           00006FH   BYTE   INSEG    CODE           ?PR?OLED_HEXASCII_SPI?SEEKFREE_OLED
   *DEL*:           00044DH   BYTE   INSEG    CODE           ?PR?OLED_DIS_BMP_SPI?SEEKFREE_OLED
   *DEL*:           000145H   BYTE   INSEG    CODE           ?PR?OLED_PRINTF_FLOAT?SEEKFREE_OLED
   *DEL*:           000121H   BYTE   INSEG    CODE           ?PR?OLED_P8X16STR_SPI?SEEKFREE_OLED
   *DEL*:           000145H   BYTE   INSEG    CODE           ?PR?OLED_PRINTF_FLOAT_PX8?SEEKFREE_OLED
   *DEL*:           000041H   BYTE   INSEG    CODE           ?PR?OLED_CLRPIXEL_SPI?SEEKFREE_OLED
   *DEL*:           0000C0H   BYTE   INSEG    CODE           ?PR?OLED_PRINT_CHINESE_SPI?SEEKFREE_OLED
   *DEL*:           0000CEH   BYTE   INSEG    CODE           ?PR?OLED_PRINTF_INT32?SEEKFREE_OLED
   *DEL*:           000027H   BYTE   INSEG    CODE           ?PR?OLED_UINT16?SEEKFREE_OLED
   *DEL*:           000027H   BYTE   INSEG    CODE           ?PR?OLED_UINT16_PX8?SEEKFREE_OLED
   *DEL*:           000048H   BYTE   INSEG    CODE           ?PR?OLED_PUTPIXEL_SPI?SEEKFREE_OLED
   *DEL*:           000036H   BYTE   INSEG    CODE           ?PR?OLED_SET_POS_SPI?SEEKFREE_OLED
   *DEL*:           0000D1H   BYTE   INSEG    CODE           ?PR?OLED_P6X8STR?SEEKFREE_OLED
   *DEL*:           000073H   BYTE   INSEG    CODE           ?PR?OLED_INT16?SEEKFREE_OLED
   *DEL*:           000145H   BYTE   INSEG    CODE           ?PR?OLED_PRINTF_FLOAT_SPI?SEEKFREE_OLED
   *DEL*:           000015H   BYTE   INSEG    CODE           ?PR?OLED_WRCMD_SPI?SEEKFREE_OLED
   *DEL*:           000015H   BYTE   INSEG    CODE           ?PR?OLED_WRDAT_SPI?SEEKFREE_OLED
   *DEL*:           00006FH   BYTE   INSEG    CODE           ?PR?OLED_HEXASCII?SEEKFREE_OLED
   *DEL*:           00005DH   BYTE   INSEG    CODE           ?PR?OLED_FILL_SPI?SEEKFREE_OLED
   *DEL*:           0000CEH   BYTE   INSEG    CODE           ?PR?OLED_PRINTF_INT32_SPI?SEEKFREE_OLED
   *DEL*:           000027H   BYTE   INSEG    CODE           ?PR?OLED_UINT16_SPI?SEEKFREE_OLED
   *DEL*:           0000D1H   BYTE   INSEG    CODE           ?PR?OLED_P6X8STR_SPI?SEEKFREE_OLED
   *DEL*:           000073H   BYTE   INSEG    CODE           ?PR?OLED_INT16_SPI?SEEKFREE_OLED
   *DEL*:           00046AH   BYTE   INSEG    CODE           ?PR?OLED_DIS_BMP?SEEKFREE_OLED
   *DEL*:           0000C8H   BYTE   INSEG    CODE           ?PR?OLED_INIT_SPI?SEEKFREE_OLED
   *DEL*:           000121H   BYTE   INSEG    CODE           ?PR?OLED_P8X16STR?SEEKFREE_OLED
   *DEL*:           000040H   BYTE   INSEG    CODE           ?PR?OLED_CLRPIXEL?SEEKFREE_OLED
   *DEL*:           0000C0H   BYTE   INSEG    CODE           ?PR?OLED_PRINT_CHINESE?SEEKFREE_OLED
   *DEL*:           000117H   BYTE   INSEG    CODE           ?PR?NUMBER_CONVERSION_ASCII?SEEKFREE_PRINTF
   *DEL*:           000661H   BYTE   INSEG    CODE           ?PR?ZF_SPRINTF?SEEKFREE_PRINTF
   *DEL*:           000095H   BYTE   INSEG    CODE           ?PR?PRINTF_REVERSE_ORDER?SEEKFREE_PRINTF
   *DEL*:           00008AH   BYTE   INSEG    CODE           ?PR?CCD_SEND_DATA?SEEKFREE_TSL1401
   *DEL*:           000017H   BYTE   INSEG    CODE           ?PR?CCD_INIT?SEEKFREE_TSL1401
L251 LINKER/LOCATER V4.66.93.0                                                        05/11/2024  21:00:46  PAGE 14


   *DEL*:           00005FH   BYTE   INSEG    CODE           ?PR?CCD_COLLECT?SEEKFREE_TSL1401
   *DEL*:           00009AH   BYTE   INSEG    CODE           ?PR?CRC_CHECK?SEEKFREE_VIRSCO
   *DEL*:           0000DCH   BYTE   INSEG    CODE           ?PR?DATA_CONVERSION?SEEKFREE_VIRSCO
   *DEL*:           00002EH   BYTE   INSEG    CODE           ?PR?WIRELESS_UART_READ_BUFF?SEEKFREE_WIRELESS
   *DEL*:           000073H   BYTE   INSEG    CODE           ?PR?WIRELESS_UART_SEND_BUFF?SEEKFREE_WIRELESS
   *DEL*:           00003EH   BYTE   INSEG    CODE           ?PR?WIRELESS_UART_INIT?SEEKFREE_WIRELESS
   *DEL*:           00001DH   BYTE   INSEG    CODE           ?PR?WIRELESS_UART_SEND_BYTE?SEEKFREE_WIRELESS
   *DEL*:           000682H   BYTE   INSEG    CODE           ?PR?NORMALIZATION_TRACKING_ADC?INDUCTANCE
   *DEL*:           0000BAH   BYTE   INSEG    CODE           ?PR?SQ?INDUCTANCE
   *DEL*:           00013BH   BYTE   INSEG    CODE           ?PR?SHOW_VAL?INDUCTANCE
   *DEL*:           0000B4H   BYTE   INSEG    CODE           ?PR?RSPEED_PID_OUT?MOTOR
   *DEL*:           000012H   BYTE   INSEG    CODE           ?PR?BUZZER?MOTOR
   *DEL*:           0000D5H   BYTE   INSEG    CODE           ?PR?FILTER_1?MOTOR
   *DEL*:           00003BH   BYTE   INSEG    CODE           ?PR?LIMIT?MOTOR
   *DEL*:           000073H   BYTE   INSEG    CODE           ?PR?MOTOR_PWM?MOTOR
   *DEL*:           0000B4H   BYTE   INSEG    CODE           ?PR?LSPEED_PID_OUT?MOTOR
   *DEL*:           000048H   BYTE   INSEG    CODE           ?PR?L_ENC_INTEGRAL?ENCODER
   *DEL*:           000048H   BYTE   INSEG    CODE           ?PR?R_ENC_INTEGRAL?ENCODER
   *DEL*:           000007H   BYTE   INSEG    CODE           ?PR?ENCODER_READ_PULSE?ENCODER
   *DEL*:           000022H   BYTE   INSEG    CODE           ?PR?L_ENCODER_PULSE?ENCODER
   *DEL*:           000026H   BYTE   INSEG    CODE           ?PR?R_ENCODER_PULSE?ENCODER
   *DEL*:           00006AH   BYTE   INSEG    CODE           ?PR?WH_TURN_OUT?DIRECTION
   *DEL*:           000058H   BYTE   INSEG    CODE           ?PR?DIRCONTROL?DIRECTION
   *DEL*:           000083H   BYTE   INSEG    CODE           ?PR?DIRCONTROL_2?DIRECTION
   *DEL*:           000044H   BYTE   INSEG    CODE           ?PR?CAR_DISTANCE?DIRECTION
   *DEL*:           0000CFH   BYTE   INSEG    CODE           ?PR?ANGLE_SPEED_RING?DIRECTION
   *DEL*:           0000BFH   BYTE   INSEG    CODE           ?PR?ANGLE_RING?DIRECTION
   *DEL*:           0000CFH   BYTE   INSEG    CODE           ?PR?NH_TURN_OUT?DIRECTION
   *DEL*:           0001C1H   BYTE   INSEG    CODE           ?PR?SEND4DATATOVOFA?VOFA
   *DEL*:           00005CH   BYTE   INSEG    CODE           ?PR?GYRO_FILTER?MPU6050
   *DEL*:           00002FH   BYTE   INSEG    CODE           ?PR?LOWPASSFILTER?MPU6050
   *DEL*:           000017H   BYTE   INSEG    CODE           ?PR?GET_ANGLE?MPU6050
   *DEL*:           000040H   BYTE   INSEG    CODE           ?PR?SUB_PID?TRACKELEMENT
   *DEL*:           000099H   BYTE   INSEG    CODE           ?PR?CROSSROAD?TRACKELEMENT
   *DEL*:           000076H   BYTE   INSEG    CODE           ?PR?TRACKING?TRACKELEMENT
   *DEL*:           000038H   BYTE   INSEG    CODE           ?PR?DISTACE?TRACKELEMENT
   *DEL*:           0000FCH   BYTE   INSEG    CODE           ?PR?ERROR_SPEED?TRACKELEMENT
   *DEL*:           00008CH   BYTE   INSEG    CODE           ?PR?SPEED_PLAN?TRACKELEMENT
   *DEL*:           000039H   BYTE   INSEG    CODE           ?PR?SHOW_VAL_MENU?MENU
   *DEL*:           00005DH   BYTE   INSEG    CODE           ?PR?CARSTART_MENU?MENU
   *DEL*:           0003A7H   BYTE   INSEG    CODE           ?PR?FIRST_MENU?MENU
   *DEL*:           000225H   BYTE   INSEG    CODE           ?PR?SECOND_ELEMENT_MENU?MENU
   *DEL*:           0000B6H   BYTE   INSEG    CODE           ?PR?SECOND__SPEED_MENU?MENU
   *DEL*:           00005DH   BYTE   INSEG    CODE           ?PR?SHOW_ALLVAL?MENU
   *DEL*:           000407H   BYTE   INSEG    CODE           ?PR?SECOND_MOTOR_MENU?MENU
   *DEL*:           0006DBH   BYTE   INSEG    CODE           ?PR?SECOND__NWHUAN_MENU?MENU
   *DEL*:           000080H   BYTE   INSEG    CODE           ?PR?RGB_SHOW?RGB
   *DEL*:           000061H   BYTE   INSEG    CODE           ?PR?WS2812_SENDDATA?RGB
   *DEL*:           000010H   BYTE   INSEG    CODE           ?PR?ABS?_?ABS
   *DEL*:           00001AH   BYTE   INSEG    CODE           ?PR?MEMSET?_?MEMSET



OVERLAY MAP OF MODULE:   .\Out_File\SEEKFREE (board)


FUNCTION/MODULE                               EDATA_GROUP
--> CALLED FUNCTION/MODULE                    START  STOP
=========================================================
UART1_Isr/isr                                 ----- -----

*** NEW ROOT ********************************

UART2_Isr/isr                                 ----- -----

L251 LINKER/LOCATER V4.66.93.0                                                        05/11/2024  21:00:46  PAGE 15


*** NEW ROOT ********************************

UART3_Isr/isr                                 ----- -----

*** NEW ROOT ********************************

UART4_Isr/isr                                 ----- -----
  +--> wireless_uart_callback/SEEKFREE_WIRELESS
  +--> bluetooth_ch9141_uart_callback/SEEKFREE_BLUETOOTH_CH9141

wireless_uart_callback/SEEKFREE_WIRELESS      ----- -----
  +--> fifo_write_buffer/zf_fifo

fifo_write_buffer/zf_fifo                     ----- -----
  +--> memcpy?_/memcpy
  +--> fifo_head_offset/zf_fifo

memcpy?_/memcpy                               ----- -----

fifo_head_offset/zf_fifo                      ----- -----

bluetooth_ch9141_uart_callback/SEEKFREE_+     ----- -----
... BLUETOOTH_CH9141
  +--> fifo_write_buffer/zf_fifo

*** NEW ROOT ********************************

INT0_Isr/isr                                  ----- -----

*** NEW ROOT ********************************

INT1_Isr/isr                                  ----- -----

*** NEW ROOT ********************************

INT2_Isr/isr                                  ----- -----

*** NEW ROOT ********************************

INT3_Isr/isr                                  ----- -----

*** NEW ROOT ********************************

INT4_Isr/isr                                  ----- -----

*** NEW ROOT ********************************

TM0_Isr/isr                                   ----- -----

*** NEW ROOT ********************************

TM1_Isr/isr                                   ----- -----

*** NEW ROOT ********************************

TM2_Isr/isr                                   ----- -----

*** NEW ROOT ********************************

TM3_Isr/isr                                   ----- -----

*** NEW ROOT ********************************

TM4_Isr/encoder                               ----- -----
  +--> mpu6050_get_gyro/SEEKFREE_MPU6050
L251 LINKER/LOCATER V4.66.93.0                                                        05/11/2024  21:00:46  PAGE 16


  +--> ctimer_count_clean/zf_tim

mpu6050_get_gyro/SEEKFREE_MPU6050             ----- -----
  +--> mpu6050_simiic_read_regs/SEEKFREE_MPU6050

mpu6050_simiic_read_regs/SEEKFREE_MPU605+     ----- -----
... 0
  +--> mpu6050_simiic_start/SEEKFREE_MPU6050
  +--> mpu6050_send_ch/SEEKFREE_MPU6050
  +--> mpu6050_read_ch/SEEKFREE_MPU6050
  +--> mpu6050_simiic_stop/SEEKFREE_MPU6050

mpu6050_simiic_start/SEEKFREE_MPU6050         ----- -----
  +--> mpu6050_simiic_delay/SEEKFREE_MPU6050

mpu6050_simiic_delay/SEEKFREE_MPU6050         ----- -----

mpu6050_send_ch/SEEKFREE_MPU6050              ----- -----
  +--> mpu6050_simiic_delay/SEEKFREE_MPU6050
  +--> mpu6050_sccb_waitack/SEEKFREE_MPU6050

mpu6050_sccb_waitack/SEEKFREE_MPU6050         ----- -----
  +--> mpu6050_simiic_delay/SEEKFREE_MPU6050

mpu6050_read_ch/SEEKFREE_MPU6050              ----- -----
  +--> mpu6050_simiic_delay/SEEKFREE_MPU6050
  +--> mpu6050_simiic_sendack/SEEKFREE_MPU6050

mpu6050_simiic_sendack/SEEKFREE_MPU6050       ----- -----
  +--> mpu6050_simiic_delay/SEEKFREE_MPU6050

mpu6050_simiic_stop/SEEKFREE_MPU6050          ----- -----
  +--> mpu6050_simiic_delay/SEEKFREE_MPU6050

ctimer_count_clean/zf_tim                     ----- -----

*** NEW ROOT ********************************

?C_C51STARTUP                                 ----- -----

*** NEW ROOT ********************************

?C_C51STARTUP?3                               ----- -----
  +--> main/main

main/main                                     ----- -----
  +--> clock_init/board
  +--> board_init/board
  +--> GPIO_Init/ALLInit
  +--> ALL_Peripheral_Init/ALLInit
  +--> gyro_zero_wander/mpu6050
  +--> delay_ms/zf_delay
  +--> RGB_Color/RGB

clock_init/board                              ----- -----
  +--> set_clk/board

set_clk/board                                 ----- -----

board_init/board                              ----- -----
  +--> delay_init/zf_delay
  +--> ICacheOn/board
  +--> uart_init/zf_uart
  +--> EnableGlobalIRQ/board

L251 LINKER/LOCATER V4.66.93.0                                                        05/11/2024  21:00:46  PAGE 17


delay_init/zf_delay                           ----- -----
  +--> ?C?SLDIV/?C?SLDIV

?C?SLDIV/?C?SLDIV                             ----- -----
  +--> ?C?ULIDIV/?C?ULDIV

?C?ULIDIV/?C?ULDIV                            ----- -----

ICacheOn/board                                ----- -----

uart_init/zf_uart                             ----- -----
  +--> ?C?ULIDIV/?C?ULDIV

EnableGlobalIRQ/board                         ----- -----

GPIO_Init/ALLInit                             ----- -----
  +--> gpio_mode/zf_gpio

gpio_mode/zf_gpio                             ----- -----

ALL_Peripheral_Init/ALLInit                   ----- -----
  +--> mpu6050_init/SEEKFREE_MPU6050
  +--> uart_init/zf_uart
  +--> oled_init/SEEKFREE_OLED
  +--> oled_fill/SEEKFREE_OLED
  +--> delay_init/zf_delay
  +--> Inductance_Init/Inductance
  +--> Motor_Init/Motor
  +--> Motor_SET_PID/Motor
  +--> Encoder_Time_Init/encoder

mpu6050_init/SEEKFREE_MPU6050                 ----- -----
  +--> delay_ms/zf_delay
  +--> mpu6050_self1_check/SEEKFREE_MPU6050
  +--> mpu6050_simiic_write_reg/SEEKFREE_MPU6050

delay_ms/zf_delay                             ----- -----

mpu6050_self1_check/SEEKFREE_MPU6050          ----- -----
  +--> mpu6050_simiic_write_reg/SEEKFREE_MPU6050
  +--> mpu6050_simiic_read_reg/SEEKFREE_MPU6050
  +--> PRINTF/PRINTF

mpu6050_simiic_write_reg/SEEKFREE_MPU605+     ----- -----
... 0
  +--> mpu6050_simiic_start/SEEKFREE_MPU6050
  +--> mpu6050_send_ch/SEEKFREE_MPU6050
  +--> mpu6050_simiic_stop/SEEKFREE_MPU6050

mpu6050_simiic_read_reg/SEEKFREE_MPU6050      ----- -----
  +--> mpu6050_simiic_start/SEEKFREE_MPU6050
  +--> mpu6050_send_ch/SEEKFREE_MPU6050
  +--> mpu6050_read_ch/SEEKFREE_MPU6050
  +--> mpu6050_simiic_stop/SEEKFREE_MPU6050

PRINTF/PRINTF                                 0796H 07BDH
  +--> OUT/PRINTF

OUT/PRINTF                                    ----- -----
  +--> PUTCH/PRINTF

PUTCH/PRINTF                                  ----- -----
  +--> putchar/board
  +--> OUT/PRINTF

L251 LINKER/LOCATER V4.66.93.0                                                        05/11/2024  21:00:46  PAGE 18


putchar/board                                 ----- -----
  +--> uart_putchar/zf_uart

uart_putchar/zf_uart                          ----- -----

oled_init/SEEKFREE_OLED                       ----- -----
  +--> delay_ms/zf_delay
  +--> oled_wrcmd/SEEKFREE_OLED
  +--> oled_fill/SEEKFREE_OLED
  +--> oled_set_pos/SEEKFREE_OLED

oled_wrcmd/SEEKFREE_OLED                      ----- -----

oled_fill/SEEKFREE_OLED                       ----- -----
  +--> oled_wrcmd/SEEKFREE_OLED
  +--> oled_wrdat/SEEKFREE_OLED

oled_wrdat/SEEKFREE_OLED                      ----- -----

oled_set_pos/SEEKFREE_OLED                    ----- -----
  +--> oled_wrcmd/SEEKFREE_OLED

Inductance_Init/Inductance                    ----- -----
  +--> adc_init/zf_adc

adc_init/zf_adc                               ----- -----

Motor_Init/Motor                              ----- -----
  +--> pwm_init/zf_pwm

pwm_init/zf_pwm                               ----- -----
  +--> pwm_set_gpio/zf_pwm
  +--> ?C?ULIDIV/?C?ULDIV
  +--> FCASTL/STC32F_FPMU
  +--> FPDIV/STC32F_FPMU
  +--> FPMUL/STC32F_FPMU
  +--> CASTF/STC32F_FPMU

pwm_set_gpio/zf_pwm                           ----- -----
  +--> gpio_mode/zf_gpio

FCASTL/STC32F_FPMU                            ----- -----

FPDIV/STC32F_FPMU                             ----- -----

FPMUL/STC32F_FPMU                             ----- -----

CASTF/STC32F_FPMU                             ----- -----

Motor_SET_PID/Motor                           ----- -----

Encoder_Time_Init/encoder                     ----- -----
  +--> pit_timer_ms/zf_tim
  +--> gpio_mode/zf_gpio
  +--> ctimer_count_init/zf_tim
  +--> EnableGlobalIRQ/board

pit_timer_ms/zf_tim                           ----- -----
  +--> ?C?SLDIV/?C?SLDIV

ctimer_count_init/zf_tim                      ----- -----

gyro_zero_wander/mpu6050                      ----- -----
  +--> mpu6050_get_gyro/SEEKFREE_MPU6050
  +--> FCASTI/STC32F_FPMU
L251 LINKER/LOCATER V4.66.93.0                                                        05/11/2024  21:00:46  PAGE 19


  +--> FPADD/STC32F_FPMU
  +--> FPDIV/STC32F_FPMU

FCASTI/STC32F_FPMU                            ----- -----

FPADD/STC32F_FPMU                             ----- -----

RGB_Color/RGB                                 ----- -----
  +--> WS2812_bit/RGB

WS2812_bit/RGB                                ----- -----

*** NEW ROOT ********************************

?C_C51STARTUP?2                               ----- -----



PUBLIC SYMBOLS OF MODULE:  .\Out_File\SEEKFREE (board)


      VALUE       CLASS    TYPE      PUBLIC SYMBOL NAME
      =================================================
      00000008H   EDATA    BYTE      ?Angle_Ring?BYTE
      00000A7BH   EDATA    BYTE      ?Angle_Speed_Ring?BYTE
      00FF3EEFH   CODE     ---       ?C?BMOVENP
      00FF3EEDH   CODE     ---       ?C?BMOVENP8
      00FF5F7BH   CODE     ---       ?C?CASTF
      000000FFH   NUMBER   ---       ?C?CODESEG
*DEL*:00000000H   CODE     ---       ?C?FCASTC
      00FF5F81H   CODE     ---       ?C?FCASTI
      00FF0056H   CODE     ---       ?C?FCASTL
      00FF000EH   CODE     ---       ?C?FPADD
*DEL*:00000000H   CODE     ---       ?C?FPCMP3
      00FF3CB8H   CODE     ---       ?C?FPCONVERT
      00FF001EH   CODE     ---       ?C?FPDIV
      00FF0016H   CODE     ---       ?C?FPMUL
*DEL*:00000000H   CODE     ---       ?C?FPNEG
      00FF3D70H   CODE     ---       ?C?FPROUND
*DEL*:00000000H   CODE     ---       ?C?FPSUB
      00FF3DE3H   CODE     ---       ?C?FTNPWR
      00FF5C72H   CODE     ---       ?C?INITEDATA
      00FF63CEH   HCONST   WORD      ?C?INITEDATA_END
      00FF3E5DH   CODE     ---       ?C?LIMUL
      00FF3E4CH   CODE     ---       ?C?LMUL
      00FF389BH   CODE     ---       ?C?PRNFMT
      00FF3E1AH   CODE     ---       ?C?SIDIV
      00FF3EB9H   CODE     NEAR LAB  ?C?SLDIV
      00FF0000H   CODE     ---       ?C?STARTUP
      00FF3E68H   CODE     NEAR LAB  ?C?ULDIV
      00FF3E66H   CODE     NEAR LAB  ?C?ULIDIV
      00000001H   NUMBER   ---       ?C?XDATASEG
      00FF0000H   CODE     ---       ?C_STARTUP
      00000957H   EDATA    BYTE      ?data_conversion?BYTE
      000007DDH   EDATA    BYTE      ?DirControl_2?BYTE
      0000097FH   EDATA    BYTE      ?fifo_init?BYTE
      000008A6H   EDATA    BYTE      ?fifo_read_buffer?BYTE
      000008EFH   EDATA    BYTE      ?fifo_write_buffer?BYTE
      00000ACAH   EDATA    BYTE      ?iap_read_bytes?BYTE
      00000AD4H   EDATA    BYTE      ?iap_write_bytes?BYTE
      00000CB1H   EDATA    BYTE      ?iic_init?BYTE
      0000054BH   EDATA    BYTE      ?ips114_showfloat?BYTE
      0000051BH   EDATA    BYTE      ?ips114_showfloat_simspi?BYTE
      000004EBH   EDATA    BYTE      ?lcd_showfloat?BYTE
      000004BBH   EDATA    BYTE      ?lcd_showfloat_simspi?BYTE
L251 LINKER/LOCATER V4.66.93.0                                                        05/11/2024  21:00:46  PAGE 20


      00000A87H   EDATA    BYTE      ?lowPassFilter?BYTE
      00000A63H   EDATA    BYTE      ?Motor_SET_PID?BYTE
      00000A6FH   EDATA    BYTE      ?nh_Turn_Out?BYTE
      0000087EH   EDATA    BYTE      ?number_conversion_ascii?BYTE
      000005ABH   EDATA    BYTE      ?oled_printf_float?BYTE
      0000057BH   EDATA    BYTE      ?oled_printf_float_px8?BYTE
      000005DBH   EDATA    BYTE      ?oled_printf_float_spi?BYTE
      000007BEH   EDATA    ---       ?printf?BYTE
      0000086AH   EDATA    BYTE      ?pwm_freq?BYTE
      00000856H   EDATA    BYTE      ?pwm_init?BYTE
      000007F7H   EDATA    BYTE      ?Send4DataToVofa?BYTE
      00000C80H   EDATA    BYTE      ?spi_init?BYTE
      0000092DH   EDATA    BYTE      ?uart_init?BYTE
      0000082BH   EDATA    BYTE      ?wh_Turn_Out?BYTE
      00000020H.0 BIT      BIT       ?WS2812_bit?BIT
      000002D2H   EDATA    BYTE      ?zf_sprintf?BYTE
*DEL*:00000000H   CODE     ---       abs?_
*SFR* 000000E0H   DATA     BYTE      ACC
      00000085H   EDATA    INT       ad_diff
      0000004BH   EDATA    ---       AD_NOR_VAL
      0000011DH   EDATA    INT       ad_sum
      00000087H   EDATA    ---       ad_value
*SFR* 000000BCH   DATA     BYTE      ADC_CONTR
      00FF5345H   CODE     ---       adc_init
      0000003BH   EDATA    ---       ADC_MAX
      0000002DH   EDATA    ---       ADC_MIN
*DEL*:00000000H   CODE     ---       adc_once
*SFR* 000000BDH   DATA     BYTE      ADC_RES
*SFR* 000000BEH   DATA     BYTE      ADC_RESL
*SFR* 000000DEH   DATA     BYTE      ADCCFG
      00FF5BDAH   CODE     ---       ALL_Peripheral_Init
      00000746H   EDATA    FLOAT     Ang
      0000074EH   EDATA    FLOAT     angle1
      000003D3H   EDATA    FLOAT     Angle4
      000003BFH   EDATA    FLOAT     Angle_D
      00000403H   EDATA    INT       ANGLE_FLAG
      000003C7H   EDATA    FLOAT     Angle_I
      00000407H   EDATA    FLOAT     angle_jifen
      000003CFH   EDATA    FLOAT     Angle_P
*DEL*:00000000H   CODE     ---       Angle_Ring
*DEL*:00000000H   CODE     ---       Angle_Speed_Ring
*DEL*:00000000H   CODE     ---       ATAN?_
*SFR* 000000EFH   DATA     BYTE      AUXINTIF
*SFR* 0000008EH   DATA     BYTE      AUXR
*SFR* 00000097H   DATA     BYTE      AUXR2
*DEL*:00000000H   CODE     ---       bluetooth_ch9141_init
*DEL*:00000000H   CODE     ---       bluetooth_ch9141_read_buff
*DEL*:00000000H   CODE     ---       bluetooth_ch9141_send_buff
      00FF0066H   CODE     ---       bluetooth_ch9141_uart_callback
      000003EFH   EDATA    LONG      bmq_jifen
      00FF551AH   CODE     ---       board_init
      00000083H   EDATA    INT       bug
      00000D69H   EDATA    ---       busy
*DEL*:00000000H   CODE     ---       Buzzer
*SFR* 000000F1H   DATA     BYTE      CANICR
*DEL*:00000000H   CODE     ---       Car_Distance
      00000A5FH   EDATA    INT       Car_Start_Flag
      00000A61H   EDATA    INT       Car_Stop_Flag
*DEL*:00000000H   CODE     ---       CarStart_Menu
*DEL*:00000000H   CODE     ---       ccd_collect
      0000012AH   EDATA    ---       ccd_data
*DEL*:00000000H   CODE     ---       ccd_init
*DEL*:00000000H   CODE     ---       ccd_send_data
      00FF5F31H   CODE     ---       clock_init
*SFR* 000000E6H   DATA     BYTE      CMPCR1
L251 LINKER/LOCATER V4.66.93.0                                                        05/11/2024  21:00:46  PAGE 21


*SFR* 000000E7H   DATA     BYTE      CMPCR2
*DEL*:00000000H   CODE     ---       COS?_
*DEL*:00000000H   CODE     ---       CRC_CHECK
*DEL*:00000000H   CODE     ---       Crossroad
      00FF5877H   CODE     ---       ctimer_count_clean
      00FF5931H   CODE     ---       ctimer_count_init
*DEL*:00000000H   CODE     ---       ctimer_count_read
*DEL*:00000000H   CODE     ---       data_conversion
      0000022AH   EDATA    ---       DataToSend
      00FF5E4FH   CODE     ---       delay_init
      00FF5CD9H   CODE     ---       delay_ms
*DEL*:00000000H   CODE     ---       delay_ns
*DEL*:00000000H   CODE     ---       delay_us
      0000075CH   EDATA    INT       dir_out
*DEL*:00000000H   CODE     ---       DirControl
*DEL*:00000000H   CODE     ---       DirControl_2
*DEL*:00000000H   CODE     ---       DisableGlobalIRQ
*DEL*:00000000H   CODE     ---       disalbe_icache
*DEL*:00000000H   CODE     ---       Distace
      000003EBH   EDATA    LONG      Distance
      000003F9H   EDATA    INT       DISTANCE_FLAG
      00000E28H   EDATA    WORD      dl1a_distance_mm
      00000E2AH   EDATA    BYTE      dl1a_finsh_flag
*DEL*:00000000H   CODE     ---       dl1a_get_distance
*DEL*:00000000H   CODE     ---       dl1a_init
      00FF00A6H   CODE     ---       dl1b_default_configuration
*SFR* 000000EDH   DATA     BYTE      DMAIR
*SFR* 00000083H   DATA     BYTE      DPH
*SFR* 00000082H   DATA     BYTE      DPL
*SFR* 000000A8H.7 DATA     BIT       EA
*DEL*:00000000H   CODE     ---       eeprom_trig
      000003DDH   EDATA    ---       Element_Order
      00FF0006H   CODE     ---       EnableGlobalIRQ
*DEL*:00000000H   CODE     ---       enalbe_icache
*DEL*:00000000H   CODE     ---       encoder_angle_simspi
*DEL*:00000000H   CODE     ---       encoder_angle_spi
*DEL*:00000000H   CODE     ---       encoder_delay_us
*DEL*:00000000H   CODE     ---       encoder_init_simspi
*DEL*:00000000H   CODE     ---       encoder_init_spi
*DEL*:00000000H   CODE     ---       Encoder_Read_Pulse
*DEL*:00000000H   CODE     ---       encoder_self4_check
*DEL*:00000000H   CODE     ---       encoder_self5_check
*DEL*:00000000H   CODE     ---       encoder_simspi_r_reg_byte
*DEL*:00000000H   CODE     ---       encoder_simspi_w_reg_byte
*DEL*:00000000H   CODE     ---       encoder_spi_r_reg_byte
*DEL*:00000000H   CODE     ---       encoder_spi_w_reg_byte
      00FF5DA9H   CODE     ---       Encoder_Time_Init
      000003D7H   EDATA    INT       Err_speed
*DEL*:00000000H   CODE     ---       Error_Speed
*SFR* 000000A8H.4 DATA     BIT       ES
*SFR* 000000A8H.1 DATA     BIT       ET0
*SFR* 000000A8H.3 DATA     BIT       ET1
*SFR* 000000A8H.0 DATA     BIT       EX0
*SFR* 000000A8H.2 DATA     BIT       EX1
*DEL*:00000000H   CODE     ---       exit_init
*SFR* 000000D0H.5 DATA     BIT       F0
*DEL*:00000000H   CODE     ---       FABS?_
*DEL*:00000000H   CODE     ---       FCLEX
*DEL*:00000000H   CODE     ---       fifo_clear
*DEL*:00000000H   CODE     ---       fifo_end_offset
      00FF56E2H   CODE     ---       fifo_head_offset
*DEL*:00000000H   CODE     ---       fifo_init
*DEL*:00000000H   CODE     ---       fifo_read_buffer
*DEL*:00000000H   CODE     ---       fifo_used
      00FF5128H   CODE     ---       fifo_write_buffer
L251 LINKER/LOCATER V4.66.93.0                                                        05/11/2024  21:00:46  PAGE 22


*DEL*:00000000H   CODE     ---       filter_1
*DEL*:00000000H   CODE     ---       FINIT
*DEL*:00000000H   CODE     ---       First_menu
      00000A5BH   EDATA    INT       flag
*DEL*:00000000H   CODE     ---       FPCRR
*DEL*:00000000H   CODE     ---       FPCRW
*DEL*:00000000H   CODE     ---       FPSRR
*DEL*:00000000H   CODE     ---       FPSRW
*DEL*:00000000H   CODE     ---       FXAM
*DEL*:00000000H   CODE     ---       Get_Angle
      00FF5D76H   CODE     ---       GPIO_Init
      00FF2F35H   CODE     ---       gpio_mode
*DEL*:00000000H   CODE     ---       gpio_pull_set
      00000A57H   EDATA    FLOAT     Gyro_Diff
*DEL*:00000000H   CODE     ---       Gyro_filter
      00000367H   EDATA    FLOAT     gyro_z3
      00FF5606H   CODE     ---       gyro_zero_wander
*SFR* 000000F6H   DATA     BYTE      IAP_ADDRE
*SFR* 000000C3H   DATA     BYTE      IAP_ADDRH
*SFR* 000000C4H   DATA     BYTE      IAP_ADDRL
*SFR* 000000C5H   DATA     BYTE      IAP_CMD
*SFR* 000000C7H   DATA     BYTE      IAP_CONTR
*SFR* 000000C2H   DATA     BYTE      IAP_DATA
*DEL*:00000000H   CODE     ---       iap_erase_page
*DEL*:00000000H   CODE     ---       iap_get_cmd_state
*DEL*:00000000H   CODE     ---       iap_idle
*DEL*:00000000H   CODE     ---       iap_init
*DEL*:00000000H   CODE     ---       iap_read_bytes
*DEL*:00000000H   CODE     ---       iap_set_tps
*SFR* 000000F5H   DATA     BYTE      IAP_TPS
*SFR* 000000C6H   DATA     BYTE      IAP_TRIG
*DEL*:00000000H   CODE     ---       iap_write_bytes
      00FF5F6AH   CODE     ---       ICacheOn
*SFR* 000000F7H   DATA     BYTE      ICHECR
*DEL*:00000000H   CODE     ---       icm20602_acc_transition
      000009EBH   EDATA    INT       icm20602_acc_x
      000009EDH   EDATA    INT       icm20602_acc_y
      000009EFH   EDATA    INT       icm20602_acc_z
*DEL*:00000000H   CODE     ---       icm20602_get_acc
*DEL*:00000000H   CODE     ---       icm20602_get_gyro
*DEL*:00000000H   CODE     ---       icm20602_gyro_transition
      000009F1H   EDATA    INT       icm20602_gyro_x
      000009F3H   EDATA    INT       icm20602_gyro_y
      000009F5H   EDATA    INT       icm20602_gyro_z
*DEL*:00000000H   CODE     ---       icm20602_init
*SFR* 000000A8H   DATA     BYTE      IE
*SFR* 000000AFH   DATA     BYTE      IE2
*DEL*:00000000H   CODE     ---       iic_change_pin
*DEL*:00000000H   CODE     ---       iic_delay_us
*DEL*:00000000H   CODE     ---       iic_init
*DEL*:00000000H   CODE     ---       iic_read_reg
*DEL*:00000000H   CODE     ---       iic_read_reg_bytes
*DEL*:00000000H   CODE     ---       iic_write_reg
*DEL*:00000000H   CODE     ---       imu660ra_acc_transition
      000009F7H   EDATA    INT       imu660ra_acc_x
      000009F9H   EDATA    INT       imu660ra_acc_y
      000009FBH   EDATA    INT       imu660ra_acc_z
      00FF012DH   CODE     ---       imu660ra_config_file
*DEL*:00000000H   CODE     ---       imu660ra_get_acc
*DEL*:00000000H   CODE     ---       imu660ra_get_gyro
*DEL*:00000000H   CODE     ---       imu660ra_gyro_transition
      000009FDH   EDATA    INT       imu660ra_gyro_x
      000009FFH   EDATA    INT       imu660ra_gyro_y
      00000A01H   EDATA    INT       imu660ra_gyro_z
*DEL*:00000000H   CODE     ---       imu660ra_init
L251 LINKER/LOCATER V4.66.93.0                                                        05/11/2024  21:00:46  PAGE 23


*DEL*:00000000H   CODE     ---       imu963ra_acc_transition
      000008B9H   EDATA    INT       imu963ra_acc_x
      000008BBH   EDATA    INT       imu963ra_acc_y
      000008BDH   EDATA    INT       imu963ra_acc_z
*DEL*:00000000H   CODE     ---       imu963ra_get_acc
*DEL*:00000000H   CODE     ---       imu963ra_get_gyro
*DEL*:00000000H   CODE     ---       imu963ra_get_mag
*DEL*:00000000H   CODE     ---       imu963ra_gyro_transition
      000008C5H   EDATA    INT       imu963ra_gyro_x
      000008C7H   EDATA    INT       imu963ra_gyro_y
      000008C9H   EDATA    INT       imu963ra_gyro_z
*DEL*:00000000H   CODE     ---       imu963ra_init
*DEL*:00000000H   CODE     ---       imu963ra_mag_transition
      000008BFH   EDATA    INT       imu963ra_mag_x
      000008C1H   EDATA    INT       imu963ra_mag_y
      000008C3H   EDATA    INT       imu963ra_mag_z
      00000113H   EDATA    INT       Inductance_Error
      00FF5B4EH   CODE     ---       Inductance_Init
      00FF005EH   CODE     ---       INT0_Isr
      00FF000AH   CODE     ---       INT1_Isr
      00FF0086H   CODE     ---       INT2_Isr
      00FF008EH   CODE     ---       INT3_Isr
      00FF0096H   CODE     ---       INT4_Isr
*SFR* 0000008FH   DATA     BYTE      INTCLKO
*SFR* 000000B8H   DATA     BYTE      IP
*SFR* 000000B5H   DATA     BYTE      IP2
*SFR* 000000B6H   DATA     BYTE      IP2H
*SFR* 000000DFH   DATA     BYTE      IP3
*SFR* 000000EEH   DATA     BYTE      IP3H
*SFR* 000000B7H   DATA     BYTE      IPH
*DEL*:00000000H   CODE     ---       ips114_clear
*DEL*:00000000H   CODE     ---       ips114_clear_simspi
*DEL*:00000000H   CODE     ---       ips114_drawpoint
*DEL*:00000000H   CODE     ---       ips114_drawpoint_simspi
*DEL*:00000000H   CODE     ---       ips114_init
*DEL*:00000000H   CODE     ---       ips114_init_simspi
*DEL*:00000000H   CODE     ---       ips114_set_region
*DEL*:00000000H   CODE     ---       ips114_set_region_simspi
*DEL*:00000000H   CODE     ---       ips114_showchar
*DEL*:00000000H   CODE     ---       ips114_showchar_simspi
*DEL*:00000000H   CODE     ---       ips114_showfloat
*DEL*:00000000H   CODE     ---       ips114_showfloat_simspi
*DEL*:00000000H   CODE     ---       ips114_showint16
*DEL*:00000000H   CODE     ---       ips114_showint16_simspi
*DEL*:00000000H   CODE     ---       ips114_showint32
*DEL*:00000000H   CODE     ---       ips114_showint32_simspi
*DEL*:00000000H   CODE     ---       ips114_showint8
*DEL*:00000000H   CODE     ---       ips114_showint8_simspi
*DEL*:00000000H   CODE     ---       ips114_showstr
*DEL*:00000000H   CODE     ---       ips114_showstr_simspi
*DEL*:00000000H   CODE     ---       ips114_showuint16
*DEL*:00000000H   CODE     ---       ips114_showuint16_simspi
*DEL*:00000000H   CODE     ---       ips114_showuint8
*DEL*:00000000H   CODE     ---       ips114_showuint8_simspi
*DEL*:00000000H   CODE     ---       ips114_writeData
*DEL*:00000000H   CODE     ---       ips114_writedata_16bit
*DEL*:00000000H   CODE     ---       ips114_writeData_simspi
*DEL*:00000000H   CODE     ---       ips114_writeDatai_16bit_simspi
*DEL*:00000000H   CODE     ---       ips114_writeIndex
*DEL*:00000000H   CODE     ---       ips114_writeIndex_simspi
*SFR* 0000009DH   DATA     BYTE      IRCBAND
*SFR* 0000009FH   DATA     BYTE      IRTRIM
*SFR* 00000088H.0 DATA     BIT       IT0
*SFR* 00000088H.2 DATA     BIT       IT1
      00000754H   EDATA    FLOAT     L
L251 LINKER/LOCATER V4.66.93.0                                                        05/11/2024  21:00:46  PAGE 24


      00000121H   EDATA    WORD      L1
      00000115H   EDATA    WORD      L1_NOR_ADC
      00000127H   EDATA    WORD      L2
      00000119H   EDATA    WORD      L2_NOR_ADC
      00000023H   EDATA    WORD      L3
      0000011BH   EDATA    WORD      L3_NOR_ADC
*DEL*:00000000H   CODE     ---       L_Enc_integral
*DEL*:00000000H   CODE     ---       L_Encoder_Pulse
      0000074CH   EDATA    INT       L_Pulse
*DEL*:00000000H   CODE     ---       lcd_clear
*DEL*:00000000H   CODE     ---       lcd_clear_simspi
*DEL*:00000000H   CODE     ---       lcd_drawpoint
*DEL*:00000000H   CODE     ---       lcd_drawpoint_simspi
*DEL*:00000000H   CODE     ---       lcd_init
*DEL*:00000000H   CODE     ---       lcd_init_simspi
*DEL*:00000000H   CODE     ---       lcd_set_region
*DEL*:00000000H   CODE     ---       lcd_set_region_simspi
*DEL*:00000000H   CODE     ---       lcd_showchar
*DEL*:00000000H   CODE     ---       lcd_showchar_simspi
*DEL*:00000000H   CODE     ---       lcd_showfloat
*DEL*:00000000H   CODE     ---       lcd_showfloat_simspi
*DEL*:00000000H   CODE     ---       lcd_showint16
*DEL*:00000000H   CODE     ---       lcd_showint16_simspi
*DEL*:00000000H   CODE     ---       lcd_showint32
*DEL*:00000000H   CODE     ---       lcd_showint32_simspi
*DEL*:00000000H   CODE     ---       lcd_showint8
*DEL*:00000000H   CODE     ---       lcd_showint8_simspi
*DEL*:00000000H   CODE     ---       lcd_showstr
*DEL*:00000000H   CODE     ---       lcd_showstr_simspi
*DEL*:00000000H   CODE     ---       lcd_showuint16
*DEL*:00000000H   CODE     ---       lcd_showuint16_simspi
*DEL*:00000000H   CODE     ---       lcd_showuint8
*DEL*:00000000H   CODE     ---       lcd_showuint8_simspi
*DEL*:00000000H   CODE     ---       lcd_writeData
*DEL*:00000000H   CODE     ---       lcd_writedata_16bit
*DEL*:00000000H   CODE     ---       lcd_writeData_16bit_simspi
*DEL*:00000000H   CODE     ---       lcd_writeData_simspi
*DEL*:00000000H   CODE     ---       lcd_writeIndex
*DEL*:00000000H   CODE     ---       lcd_writeIndex_simspi
      00000049H   EDATA    WORD      Left_Val
*DEL*:00000000H   CODE     ---       limit
*SFR* 000000F9H   DATA     BYTE      LINICR
*DEL*:00000000H   CODE     ---       lowPassFilter
*DEL*:00000000H   CODE     ---       LSpeed_pid_Out
      00000125H   EDATA    WORD      M1
      00000117H   EDATA    WORD      M1_NOR_ADC
      00FF5B95H   CODE     ---       main
      00FF5E2AH   CODE     ---       memcpy?_
*DEL*:00000000H   CODE     ---       memset?_
      00000A5DH   EDATA    INT       menu
      00000331H   EDATA    FLOAT     Motor_I
      00FF5E72H   CODE     ---       Motor_Init
      00000335H   EDATA    FLOAT     Motor_P
      00000309H   EDATA    ---       Motor_pid
*DEL*:00000000H   CODE     ---       Motor_PWM
      00FF5A6FH   CODE     ---       Motor_SET_PID
      00000A3FH   EDATA    INT       mpu6050_acc_x
      00000A41H   EDATA    INT       mpu6050_acc_y
      00000A43H   EDATA    INT       mpu6050_acc_z
*DEL*:00000000H   CODE     ---       mpu6050_get_accdata
      00FF5985H   CODE     ---       mpu6050_get_gyro
      00000A45H   EDATA    INT       mpu6050_gyro_x
      00000A47H   EDATA    INT       mpu6050_gyro_y
      00000A49H   EDATA    INT       mpu6050_gyro_z
      00FF5817H   CODE     ---       mpu6050_init
L251 LINKER/LOCATER V4.66.93.0                                                        05/11/2024  21:00:46  PAGE 25


      00FF5C9EH   CODE     ---       mpu6050_simiic_read_reg
      00FF5676H   CODE     ---       mpu6050_simiic_read_regs
      0000036BH   EDATA    FLOAT     Nh_D
      00000742H   EDATA    INT       nh_out
      00000373H   EDATA    FLOAT     Nh_P
*DEL*:00000000H   CODE     ---       nh_Turn_Out
      00000067H   EDATA    ---       NOR_VAL
*DEL*:00000000H   CODE     ---       NORMALIZATION_TRACKING_ADC
*DEL*:00000000H   CODE     ---       number_conversion_ascii
*DEL*:00000000H   CODE     ---       NVIC_SetPriority
      00FF2D0DH   CODE     ---       oled_6x8
      00FF212DH   CODE     ---       oled_8x16
*DEL*:00000000H   CODE     ---       oled_clrpixel
*DEL*:00000000H   CODE     ---       oled_clrpixel_spi
*DEL*:00000000H   CODE     ---       oled_dis_bmp
*DEL*:00000000H   CODE     ---       oled_dis_bmp_spi
      00FF58D4H   CODE     ---       oled_fill
*DEL*:00000000H   CODE     ---       oled_fill_spi
*DEL*:00000000H   CODE     ---       oled_hexascii
*DEL*:00000000H   CODE     ---       oled_hexascii_spi
      00FF53FAH   CODE     ---       oled_init
*DEL*:00000000H   CODE     ---       oled_init_spi
*DEL*:00000000H   CODE     ---       oled_int16
*DEL*:00000000H   CODE     ---       oled_int16_spi
*DEL*:00000000H   CODE     ---       oled_p6x8str
*DEL*:00000000H   CODE     ---       oled_p6x8str_spi
*DEL*:00000000H   CODE     ---       oled_p8x16str
*DEL*:00000000H   CODE     ---       oled_p8x16str_spi
*DEL*:00000000H   CODE     ---       oled_print_chinese
*DEL*:00000000H   CODE     ---       oled_print_chinese_spi
*DEL*:00000000H   CODE     ---       oled_printf_float
*DEL*:00000000H   CODE     ---       oled_printf_float_px8
*DEL*:00000000H   CODE     ---       oled_printf_float_spi
*DEL*:00000000H   CODE     ---       oled_printf_int32
*DEL*:00000000H   CODE     ---       oled_printf_int32_spi
*DEL*:00000000H   CODE     ---       oled_putpixel
*DEL*:00000000H   CODE     ---       oled_putpixel_spi
      00FF5D0EH   CODE     ---       oled_set_pos
*DEL*:00000000H   CODE     ---       oled_set_pos_spi
*DEL*:00000000H   CODE     ---       oled_uint16
*DEL*:00000000H   CODE     ---       oled_uint16_px8
*DEL*:00000000H   CODE     ---       oled_uint16_spi
      00FF59D7H   CODE     ---       oled_wrcmd
*DEL*:00000000H   CODE     ---       oled_wrcmd_spi
      00FF5A23H   CODE     ---       oled_wrdat
*DEL*:00000000H   CODE     ---       oled_wrdat_spi
*SFR* 00000080H   DATA     BYTE      P0
*SFR* 00000080H.4 DATA     BIT       P04
*SFR* 00000080H.7 DATA     BIT       P07
*SFR* 00000094H   DATA     BYTE      P0M0
*SFR* 00000093H   DATA     BYTE      P0M1
*SFR* 00000090H   DATA     BYTE      P1
*SFR* 00000090H.5 DATA     BIT       P15
*SFR* 00000090H.6 DATA     BIT       P16
*SFR* 00000092H   DATA     BYTE      P1M0
*SFR* 00000091H   DATA     BYTE      P1M1
*SFR* 000000A0H   DATA     BYTE      P2
*SFR* 000000A0H.0 DATA     BIT       P20
*SFR* 000000A0H.1 DATA     BIT       P21
*SFR* 000000A0H.2 DATA     BIT       P22
*SFR* 000000A0H.3 DATA     BIT       P23
*SFR* 000000A0H.4 DATA     BIT       P24
*SFR* 000000A0H.5 DATA     BIT       P25
*SFR* 000000A0H.6 DATA     BIT       P26
*SFR* 000000A0H.7 DATA     BIT       P27
L251 LINKER/LOCATER V4.66.93.0                                                        05/11/2024  21:00:46  PAGE 26


*SFR* 00000096H   DATA     BYTE      P2M0
*SFR* 00000095H   DATA     BYTE      P2M1
*SFR* 000000B0H   DATA     BYTE      P3
*SFR* 000000B0H.2 DATA     BIT       P32
*SFR* 000000B0H.3 DATA     BIT       P33
*SFR* 000000B0H.7 DATA     BIT       P37
*SFR* 000000B2H   DATA     BYTE      P3M0
*SFR* 000000B1H   DATA     BYTE      P3M1
*SFR* 000000C0H   DATA     BYTE      P4
*SFR* 000000C0H.0 DATA     BIT       P40
*SFR* 000000C0H.1 DATA     BIT       P41
*SFR* 000000C0H.2 DATA     BIT       P42
*SFR* 000000C0H.3 DATA     BIT       P43
*SFR* 000000C0H.4 DATA     BIT       P44
*SFR* 000000C0H.5 DATA     BIT       P45
*SFR* 000000C0H.6 DATA     BIT       P46
*SFR* 000000B4H   DATA     BYTE      P4M0
*SFR* 000000B3H   DATA     BYTE      P4M1
*SFR* 000000C8H   DATA     BYTE      P5
*SFR* 000000C8H.0 DATA     BIT       P50
*SFR* 000000C8H.2 DATA     BIT       P52
*SFR* 000000CAH   DATA     BYTE      P5M0
*SFR* 000000C9H   DATA     BYTE      P5M1
*SFR* 000000E8H   DATA     BYTE      P6
*SFR* 000000CCH   DATA     BYTE      P6M0
*SFR* 000000CBH   DATA     BYTE      P6M1
*SFR* 000000F8H   DATA     BYTE      P7
*SFR* 000000E2H   DATA     BYTE      P7M0
*SFR* 000000E1H   DATA     BYTE      P7M1
*SFR* 000000A2H   DATA     BYTE      P_SW1
*SFR* 000000BAH   DATA     BYTE      P_SW2
*SFR* 000000BBH   DATA     BYTE      P_SW3
*SFR* 00000087H   DATA     BYTE      PCON
      00FF5260H   CODE     ---       pit_timer_ms
      00FF3842H   CODE     NEAR LAB  printf
*DEL*:00000000H   CODE     ---       printf_reverse_order
*SFR* 000000D0H   DATA     BYTE      PSW
      00FF5F58H   CODE     ---       putchar
      00FF64ACH   HCONST   ---       PWM_ARR_ADDR
      00FF64B4H   HCONST   ---       PWM_CCER_ADDR
      00FF64C4H   HCONST   ---       PWM_CCMR_ADDR
      00FF648CH   HCONST   ---       PWM_CCR_ADDR
*DEL*:00000000H   CODE     ---       pwm_duty
*DEL*:00000000H   CODE     ---       pwm_freq
      00FF453EH   CODE     ---       pwm_init
      00FF4918H   CODE     ---       pwm_set_gpio
      00000758H   EDATA    FLOAT     R
      00000025H   EDATA    WORD      R1
      0000011FH   EDATA    WORD      R1_NOR_ADC
      00000027H   EDATA    WORD      R2
      00000123H   EDATA    WORD      R2_NOR_ADC
      00000029H   EDATA    WORD      R3
      00000021H   EDATA    WORD      R3_NOR_ADC
*DEL*:00000000H   CODE     ---       R_Enc_integral
*DEL*:00000000H   CODE     ---       R_Encoder_Pulse
      00000752H   EDATA    INT       R_Pulse
      000003CDH   EDATA    INT       RAngle_Flag
*DEL*:00000000H   CODE     ---       recv_ack
*DEL*:00000000H   CODE     ---       recv_data
      00FF4F83H   CODE     ---       RGB_Color
*DEL*:00000000H   CODE     ---       RGB_Show
      0000002BH   EDATA    WORD      Right_Val
      000003E5H   EDATA    INT       ring_flag
      000003FBH   EDATA    INT       RING_FLAG1
      000003FDH   EDATA    INT       RING_FLAG2
L251 LINKER/LOCATER V4.66.93.0                                                        05/11/2024  21:00:46  PAGE 27


      000003FFH   EDATA    INT       RING_FLAG3
      00000401H   EDATA    INT       RING_FLAG4
*DEL*:00000000H   CODE     ---       RSpeed_pid_Out
*SFR* 000000FFH   DATA     BYTE      RSTCFG
*SFR* 0000009BH   DATA     BYTE      S2BUF
*SFR* 0000009AH   DATA     BYTE      S2CON
*SFR* 000000ADH   DATA     BYTE      S3BUF
*SFR* 000000ACH   DATA     BYTE      S3CON
*SFR* 000000FEH   DATA     BYTE      S4BUF
*SFR* 000000FDH   DATA     BYTE      S4CON
*SFR* 00000099H   DATA     BYTE      SBUF
*SFR* 00000098H   DATA     BYTE      SCON
*DEL*:00000000H   CODE     ---       Second__NWHuan_menu
*DEL*:00000000H   CODE     ---       Second__Speed_menu
*DEL*:00000000H   CODE     ---       Second_Element_menu
*DEL*:00000000H   CODE     ---       Second_Motor_menu
*DEL*:00000000H   CODE     ---       Send4DataToVofa
*DEL*:00000000H   CODE     ---       send_ack
*DEL*:00000000H   CODE     ---       send_data
*DEL*:00000000H   CODE     ---       send_nak
      00FF3F12H   CODE     ---       set_clk
      000003F7H   EDATA    INT       set_speed
*DEL*:00000000H   CODE     ---       set_zero_position_simspi
*DEL*:00000000H   CODE     ---       set_zero_position_spi
      000003DBH   EDATA    INT       shizi_flag
*DEL*:00000000H   CODE     ---       Show_AllVal
*DEL*:00000000H   CODE     ---       show_val
*DEL*:00000000H   CODE     ---       Show_Val_Menu
*DEL*:00000000H   CODE     ---       showimage
*DEL*:00000000H   CODE     ---       simspi_r_reg_byte
*DEL*:00000000H   CODE     ---       simspi_w_reg_byte
*DEL*:00000000H   CODE     ---       simspi_wr_byte
*DEL*:00000000H   CODE     ---       SIN?_
*SFR* 000000CEH   DATA     BYTE      SPCTL
*SFR* 000000CFH   DATA     BYTE      SPDAT
      00000744H   EDATA    INT       speed
*DEL*:00000000H   CODE     ---       Speed_Plan
      000003CBH   EDATA    INT       Speed_Plan1
      00000339H   EDATA    FLOAT     Speed_Ring
      00000365H   EDATA    INT       Speed_Ring_Flag
*DEL*:00000000H   CODE     ---       spi_change_mode
*DEL*:00000000H   CODE     ---       spi_change_pin
*DEL*:00000000H   CODE     ---       spi_init
*DEL*:00000000H   CODE     ---       spi_mosi
*DEL*:00000000H   CODE     ---       spi_r_reg_byte
*DEL*:00000000H   CODE     ---       spi_w_reg_byte
*DEL*:00000000H   CODE     ---       spi_wr_byte
*SFR* 000000CDH   DATA     BYTE      SPSTAT
*DEL*:00000000H   CODE     ---       sq
*DEL*:00000000H   CODE     ---       SQRT?_
*DEL*:00000000H   CODE     ---       start
*DEL*:00000000H   CODE     ---       stop
      000003BBH   EDATA    FLOAT     Sub_motor_i
      000003C3H   EDATA    FLOAT     Sub_motor_p
*DEL*:00000000H   CODE     ---       Sub_Pid
      000003D9H   EDATA    INT       Sub_speed
      000003E7H   EDATA    FLOAT     Sub_wh_d
      000003F3H   EDATA    FLOAT     Sub_wh_p
      0000074AH   EDATA    INT       Sum_Pulse
      00000DA0H   EDATA    LONG      sys_clk
      00000D96H   EDATA    DWORD     SysTickFlag
*SFR* 000000D6H   DATA     BYTE      T2H
*SFR* 000000D7H   DATA     BYTE      T2L
*SFR* 000000D4H   DATA     BYTE      T3H
*SFR* 000000D5H   DATA     BYTE      T3L
L251 LINKER/LOCATER V4.66.93.0                                                        05/11/2024  21:00:46  PAGE 28


*SFR* 000000D2H   DATA     BYTE      T4H
*SFR* 000000D3H   DATA     BYTE      T4L
*SFR* 000000DDH   DATA     BYTE      T4T3M
*SFR* 000000AEH   DATA     BYTE      TA
*DEL*:00000000H   CODE     ---       TAN?_
*SFR* 00000088H   DATA     BYTE      TCON
      00FF271DH   CODE     ---       tft_ascii
*SFR* 0000008CH   DATA     BYTE      TH0
*SFR* 0000008DH   DATA     BYTE      TH1
*SFR* 0000008AH   DATA     BYTE      TL0
*SFR* 0000008BH   DATA     BYTE      TL1
      00FF5F04H   CODE     ---       TM0_Isr
      00FF0046H   CODE     ---       TM1_Isr
      00FF009EH   CODE     ---       TM2_Isr
      00FF5F87H   CODE     ---       TM3_Isr
      00FF5ABAH   CODE     ---       TM4_Isr
*SFR* 00000089H   DATA     BYTE      TMOD
*SFR* 00000088H.4 DATA     BIT       TR0
*SFR* 00000088H.6 DATA     BIT       TR1
      00000405H   EDATA    INT       Track_flag
*DEL*:00000000H   CODE     ---       Tracking
      00000129H   EDATA    BYTE      tsl1401_finish_flag
      00FF5C1DH   CODE     ---       UART1_Isr
      00FF5ED0H   CODE     ---       UART2_Isr
      00FF5EEAH   CODE     ---       UART3_Isr
      00FF57B6H   CODE     ---       UART4_Isr
      00FF4CD0H   CODE     ---       uart_init
*DEL*:00000000H   CODE     ---       uart_putbuff
      00FF5591H   CODE     ---       uart_putchar
*DEL*:00000000H   CODE     ---       uart_putstr
*SFR* 000000F4H   DATA     BYTE      USBCON
      00000B38H   EDATA    ---       virtual_scope_data
*SFR* 000000A6H   DATA     BYTE      VRTRIM
*DEL*:00000000H   CODE     ---       wait
*SFR* 000000C1H   DATA     BYTE      WDT_CONTR
      0000036FH   EDATA    FLOAT     Wh_D
      00000377H   EDATA    FLOAT     Wh_P
*DEL*:00000000H   CODE     ---       wh_Turn_Out
      00000E61H   EDATA    INT       wireless_type
      00FF5EB6H   CODE     ---       wireless_uart_callback
*DEL*:00000000H   CODE     ---       wireless_uart_init
*DEL*:00000000H   CODE     ---       wireless_uart_read_buff
*DEL*:00000000H   CODE     ---       wireless_uart_send_buff
*DEL*:00000000H   CODE     ---       wireless_uart_send_byte
      00FF54A2H   CODE     ---       WS2812_bit
*DEL*:00000000H   CODE     ---       WS2812_SendData
*SFR* 000000E9H   DATA     BYTE      WTST
      00000DACH   EDATA    WORD      zf_delay_ms
      00000DAEH   EDATA    WORD      zf_delay_us
*DEL*:00000000H   CODE     ---       zf_sprintf



SYMBOL TABLE OF MODULE:  .\Out_File\SEEKFREE (board)

      VALUE       REP       CLASS    TYPE      SYMBOL NAME
      ====================================================
      ---         MODULE    ---      ---       board
      00FF0006H   PUBLIC    CODE     ---       EnableGlobalIRQ
      00FF551AH   PUBLIC    CODE     ---       board_init
      00FF5F31H   PUBLIC    CODE     ---       clock_init
      00FF5F6AH   PUBLIC    CODE     ---       ICacheOn
      00FF3F12H   PUBLIC    CODE     ---       set_clk
      00FF5F58H   PUBLIC    CODE     ---       putchar
      00000DA0H   PUBLIC    EDATA    LONG      sys_clk
L251 LINKER/LOCATER V4.66.93.0                                                        05/11/2024  21:00:46  PAGE 29


      00000094H   SFRSYM    DATA     BYTE      P0M0
      000000D0H   SFRSYM    DATA     BYTE      PSW
      0000009DH   SFRSYM    DATA     BYTE      IRCBAND
      00000097H   SFRSYM    DATA     BYTE      AUXR2
      000000EFH   SFRSYM    DATA     BYTE      AUXINTIF
      000000FDH   SFRSYM    DATA     BYTE      S4CON
      000000ACH   SFRSYM    DATA     BYTE      S3CON
      0000009AH   SFRSYM    DATA     BYTE      S2CON
      000000A6H   SFRSYM    DATA     BYTE      VRTRIM
      000000B7H   SFRSYM    DATA     BYTE      IPH
      000000CDH   SFRSYM    DATA     BYTE      SPSTAT
      000000DDH   SFRSYM    DATA     BYTE      T4T3M
      0000009FH   SFRSYM    DATA     BYTE      IRTRIM
      000000C1H   SFRSYM    DATA     BYTE      WDT_CONTR
      000000E9H   SFRSYM    DATA     BYTE      WTST
      000000DFH   SFRSYM    DATA     BYTE      IP3
      000000F4H   SFRSYM    DATA     BYTE      USBCON
      000000B5H   SFRSYM    DATA     BYTE      IP2
      000000FFH   SFRSYM    DATA     BYTE      RSTCFG
      000000C7H   SFRSYM    DATA     BYTE      IAP_CONTR
      000000F9H   SFRSYM    DATA     BYTE      LINICR
      0000008EH   SFRSYM    DATA     BYTE      AUXR
      000000AFH   SFRSYM    DATA     BYTE      IE2
      00000088H   SFRSYM    DATA     BYTE      TCON
      00000089H   SFRSYM    DATA     BYTE      TMOD
      00000098H   SFRSYM    DATA     BYTE      SCON
      000000F1H   SFRSYM    DATA     BYTE      CANICR
      00000087H   SFRSYM    DATA     BYTE      PCON
      000000BCH   SFRSYM    DATA     BYTE      ADC_CONTR
      000000F7H   SFRSYM    DATA     BYTE      ICHECR
      000000E7H   SFRSYM    DATA     BYTE      CMPCR2
      000000E6H   SFRSYM    DATA     BYTE      CMPCR1
      000000DEH   SFRSYM    DATA     BYTE      ADCCFG
      000000B8H   SFRSYM    DATA     BYTE      IP
      0000008FH   SFRSYM    DATA     BYTE      INTCLKO
      000000AEH   SFRSYM    DATA     BYTE      TA
      000000EEH   SFRSYM    DATA     BYTE      IP3H
      000000B6H   SFRSYM    DATA     BYTE      IP2H
      000000A8H   SFRSYM    DATA     BYTE      IE
      000000BBH   SFRSYM    DATA     BYTE      P_SW3
      000000BAH   SFRSYM    DATA     BYTE      P_SW2
      000000A2H   SFRSYM    DATA     BYTE      P_SW1
      000000CEH   SFRSYM    DATA     BYTE      SPCTL
      000000F8H   SFRSYM    DATA     BYTE      P7
      000000A8H.7 SFRSYM    DATA     BIT       EA
      000000E8H   SFRSYM    DATA     BYTE      P6
      000000C8H   SFRSYM    DATA     BYTE      P5
      000000C0H   SFRSYM    DATA     BYTE      P4
      000000C9H   SFRSYM    DATA     BYTE      P5M1
      000000B0H   SFRSYM    DATA     BYTE      P3
      000000B3H   SFRSYM    DATA     BYTE      P4M1
      000000CAH   SFRSYM    DATA     BYTE      P5M0
      000000A0H   SFRSYM    DATA     BYTE      P2
      000000B1H   SFRSYM    DATA     BYTE      P3M1
      000000B4H   SFRSYM    DATA     BYTE      P4M0
      00000090H   SFRSYM    DATA     BYTE      P1
      00000095H   SFRSYM    DATA     BYTE      P2M1
      000000B2H   SFRSYM    DATA     BYTE      P3M0
      00000080H   SFRSYM    DATA     BYTE      P0
      00000091H   SFRSYM    DATA     BYTE      P1M1
      00000096H   SFRSYM    DATA     BYTE      P2M0
      00000092H   SFRSYM    DATA     BYTE      P1M0
      00000093H   SFRSYM    DATA     BYTE      P0M1

      00FF3F12H   BLOCK     CODE     ---       LVL=0
L251 LINKER/LOCATER V4.66.93.0                                                        05/11/2024  21:00:46  PAGE 30


      00000BF7H   SYMBOL    EDATA    DWORD     clock
      00FF3F16H   BLOCK     CODE     NEAR LAB  LVL=1
      00000BFBH   SYMBOL    EDATA    DWORD     temp_sys_clk
      ---         BLOCKEND  ---      ---       LVL=1
      00FF3F12H   LINE      CODE     ---       #35
      00FF3F16H   LINE      CODE     ---       #36
      00FF3F16H   LINE      CODE     ---       #37
      00FF3F1CH   LINE      CODE     ---       #40
      00FF3FFDH   LINE      CODE     ---       #42
      00FF3FFDH   LINE      CODE     ---       #44
      00FF400AH   LINE      CODE     ---       #45
      00FF4017H   LINE      CODE     ---       #46
      00FF4024H   LINE      CODE     ---       #47
      00FF4028H   LINE      CODE     ---       #48
      00FF402BH   LINE      CODE     ---       #49
      00FF402CH   LINE      CODE     ---       #50
      00FF402DH   LINE      CODE     ---       #51
      00FF402EH   LINE      CODE     ---       #52
      00FF402FH   LINE      CODE     ---       #53
      00FF403CH   LINE      CODE     ---       #54
      00FF4044H   LINE      CODE     ---       #55
      00FF4047H   LINE      CODE     ---       #57
      00FF4047H   LINE      CODE     ---       #59
      00FF4054H   LINE      CODE     ---       #60
      00FF4061H   LINE      CODE     ---       #61
      00FF406EH   LINE      CODE     ---       #62
      00FF4072H   LINE      CODE     ---       #63
      00FF4075H   LINE      CODE     ---       #64
      00FF4076H   LINE      CODE     ---       #65
      00FF4077H   LINE      CODE     ---       #66
      00FF4078H   LINE      CODE     ---       #67
      00FF4079H   LINE      CODE     ---       #68
      00FF4086H   LINE      CODE     ---       #69
      00FF408EH   LINE      CODE     ---       #70
      00FF4091H   LINE      CODE     ---       #72
      00FF4091H   LINE      CODE     ---       #74
      00FF409EH   LINE      CODE     ---       #75
      00FF40ABH   LINE      CODE     ---       #76
      00FF40B8H   LINE      CODE     ---       #77
      00FF40BCH   LINE      CODE     ---       #78
      00FF40BFH   LINE      CODE     ---       #79
      00FF40C0H   LINE      CODE     ---       #80
      00FF40C1H   LINE      CODE     ---       #81
      00FF40C2H   LINE      CODE     ---       #82
      00FF40C3H   LINE      CODE     ---       #83
      00FF40D0H   LINE      CODE     ---       #84
      00FF40D8H   LINE      CODE     ---       #85
      00FF40DBH   LINE      CODE     ---       #87
      00FF40DBH   LINE      CODE     ---       #89
      00FF40E8H   LINE      CODE     ---       #90
      00FF40F5H   LINE      CODE     ---       #91
      00FF4102H   LINE      CODE     ---       #92
      00FF4106H   LINE      CODE     ---       #93
      00FF4107H   LINE      CODE     ---       #94
      00FF4108H   LINE      CODE     ---       #95
      00FF4109H   LINE      CODE     ---       #96
      00FF410AH   LINE      CODE     ---       #97
      00FF410DH   LINE      CODE     ---       #98
      00FF411AH   LINE      CODE     ---       #99
      00FF4122H   LINE      CODE     ---       #100
      00FF4125H   LINE      CODE     ---       #102
      00FF4125H   LINE      CODE     ---       #104
      00FF4132H   LINE      CODE     ---       #105
      00FF413FH   LINE      CODE     ---       #106
      00FF414CH   LINE      CODE     ---       #107
L251 LINKER/LOCATER V4.66.93.0                                                        05/11/2024  21:00:46  PAGE 31


      00FF4150H   LINE      CODE     ---       #108
      00FF4153H   LINE      CODE     ---       #109
      00FF4154H   LINE      CODE     ---       #110
      00FF4155H   LINE      CODE     ---       #111
      00FF4156H   LINE      CODE     ---       #112
      00FF4157H   LINE      CODE     ---       #113
      00FF4164H   LINE      CODE     ---       #114
      00FF416CH   LINE      CODE     ---       #115
      00FF416FH   LINE      CODE     ---       #117
      00FF416FH   LINE      CODE     ---       #119
      00FF417CH   LINE      CODE     ---       #120
      00FF4189H   LINE      CODE     ---       #121
      00FF4196H   LINE      CODE     ---       #122
      00FF419AH   LINE      CODE     ---       #123
      00FF419DH   LINE      CODE     ---       #124
      00FF419EH   LINE      CODE     ---       #125
      00FF419FH   LINE      CODE     ---       #126
      00FF41A0H   LINE      CODE     ---       #127
      00FF41A1H   LINE      CODE     ---       #128
      00FF41AEH   LINE      CODE     ---       #129
      00FF41B6H   LINE      CODE     ---       #130
      00FF41B9H   LINE      CODE     ---       #132
      00FF41B9H   LINE      CODE     ---       #134
      00FF41C6H   LINE      CODE     ---       #135
      00FF41D3H   LINE      CODE     ---       #136
      00FF41E0H   LINE      CODE     ---       #137
      00FF41E4H   LINE      CODE     ---       #138
      00FF41E7H   LINE      CODE     ---       #139
      00FF41E8H   LINE      CODE     ---       #140
      00FF41E9H   LINE      CODE     ---       #141
      00FF41EAH   LINE      CODE     ---       #142
      00FF41EBH   LINE      CODE     ---       #143
      00FF41F8H   LINE      CODE     ---       #144
      00FF4200H   LINE      CODE     ---       #145
      00FF4203H   LINE      CODE     ---       #147
      00FF4203H   LINE      CODE     ---       #149
      00FF4210H   LINE      CODE     ---       #150
      00FF421DH   LINE      CODE     ---       #151
      00FF422AH   LINE      CODE     ---       #152
      00FF422EH   LINE      CODE     ---       #153
      00FF4231H   LINE      CODE     ---       #154
      00FF4232H   LINE      CODE     ---       #155
      00FF4233H   LINE      CODE     ---       #156
      00FF4234H   LINE      CODE     ---       #157
      00FF4235H   LINE      CODE     ---       #158
      00FF4242H   LINE      CODE     ---       #159
      00FF424AH   LINE      CODE     ---       #160
      00FF424DH   LINE      CODE     ---       #162
      00FF424DH   LINE      CODE     ---       #164
      00FF425AH   LINE      CODE     ---       #165
      00FF4267H   LINE      CODE     ---       #166
      00FF4274H   LINE      CODE     ---       #167
      00FF4278H   LINE      CODE     ---       #168
      00FF427BH   LINE      CODE     ---       #169
      00FF427CH   LINE      CODE     ---       #170
      00FF427DH   LINE      CODE     ---       #171
      00FF427EH   LINE      CODE     ---       #172
      00FF427FH   LINE      CODE     ---       #173
      00FF428CH   LINE      CODE     ---       #174
      00FF4294H   LINE      CODE     ---       #175
      00FF4297H   LINE      CODE     ---       #177
      00FF4297H   LINE      CODE     ---       #179
      00FF42A4H   LINE      CODE     ---       #180
      00FF42B1H   LINE      CODE     ---       #181
      00FF42BEH   LINE      CODE     ---       #182
L251 LINKER/LOCATER V4.66.93.0                                                        05/11/2024  21:00:46  PAGE 32


      00FF42C2H   LINE      CODE     ---       #183
      00FF42C5H   LINE      CODE     ---       #184
      00FF42C6H   LINE      CODE     ---       #185
      00FF42C7H   LINE      CODE     ---       #186
      00FF42C8H   LINE      CODE     ---       #187
      00FF42C9H   LINE      CODE     ---       #188
      00FF42D6H   LINE      CODE     ---       #189
      00FF42DEH   LINE      CODE     ---       #190
      00FF42E1H   LINE      CODE     ---       #192
      00FF42E1H   LINE      CODE     ---       #194
      00FF42EEH   LINE      CODE     ---       #195
      00FF42FBH   LINE      CODE     ---       #196
      00FF4308H   LINE      CODE     ---       #197
      00FF430CH   LINE      CODE     ---       #198
      00FF4310H   LINE      CODE     ---       #199
      00FF4311H   LINE      CODE     ---       #200
      00FF4312H   LINE      CODE     ---       #201
      00FF4313H   LINE      CODE     ---       #202
      00FF4314H   LINE      CODE     ---       #203
      00FF4321H   LINE      CODE     ---       #204
      00FF4329H   LINE      CODE     ---       #205
      00FF432CH   LINE      CODE     ---       #207
      00FF432CH   LINE      CODE     ---       #209
      00FF4339H   LINE      CODE     ---       #210
      00FF4346H   LINE      CODE     ---       #211
      00FF4353H   LINE      CODE     ---       #212
      00FF4357H   LINE      CODE     ---       #213
      00FF435BH   LINE      CODE     ---       #214
      00FF435CH   LINE      CODE     ---       #215
      00FF435DH   LINE      CODE     ---       #216
      00FF435EH   LINE      CODE     ---       #217
      00FF435FH   LINE      CODE     ---       #218
      00FF436CH   LINE      CODE     ---       #219
      00FF4374H   LINE      CODE     ---       #220
      00FF4377H   LINE      CODE     ---       #222
      00FF4377H   LINE      CODE     ---       #224
      00FF4384H   LINE      CODE     ---       #225
      00FF4391H   LINE      CODE     ---       #226
      00FF439EH   LINE      CODE     ---       #227
      00FF43A2H   LINE      CODE     ---       #228
      00FF43A6H   LINE      CODE     ---       #229
      00FF43A7H   LINE      CODE     ---       #230
      00FF43A8H   LINE      CODE     ---       #231
      00FF43A9H   LINE      CODE     ---       #232
      00FF43AAH   LINE      CODE     ---       #233
      00FF43B7H   LINE      CODE     ---       #234
      00FF43BFH   LINE      CODE     ---       #235
      00FF43C2H   LINE      CODE     ---       #237
      00FF43C2H   LINE      CODE     ---       #239
      00FF43CFH   LINE      CODE     ---       #240
      00FF43DCH   LINE      CODE     ---       #241
      00FF43E9H   LINE      CODE     ---       #242
      00FF43EDH   LINE      CODE     ---       #243
      00FF43F1H   LINE      CODE     ---       #244
      00FF43F2H   LINE      CODE     ---       #245
      00FF43F3H   LINE      CODE     ---       #246
      00FF43F4H   LINE      CODE     ---       #247
      00FF43F5H   LINE      CODE     ---       #248
      00FF4402H   LINE      CODE     ---       #249
      00FF440AH   LINE      CODE     ---       #250
      00FF440DH   LINE      CODE     ---       #252
      00FF440DH   LINE      CODE     ---       #254
      00FF441AH   LINE      CODE     ---       #255
      00FF4427H   LINE      CODE     ---       #256
      00FF4434H   LINE      CODE     ---       #257
L251 LINKER/LOCATER V4.66.93.0                                                        05/11/2024  21:00:46  PAGE 33


      00FF4438H   LINE      CODE     ---       #258
      00FF443CH   LINE      CODE     ---       #259
      00FF443DH   LINE      CODE     ---       #260
      00FF443EH   LINE      CODE     ---       #261
      00FF443FH   LINE      CODE     ---       #262
      00FF4440H   LINE      CODE     ---       #263
      00FF444DH   LINE      CODE     ---       #264
      00FF4455H   LINE      CODE     ---       #265
      00FF4458H   LINE      CODE     ---       #267
      00FF4458H   LINE      CODE     ---       #269
      00FF4465H   LINE      CODE     ---       #270
      00FF4472H   LINE      CODE     ---       #271
      00FF447FH   LINE      CODE     ---       #272
      00FF4483H   LINE      CODE     ---       #273
      00FF4487H   LINE      CODE     ---       #274
      00FF4488H   LINE      CODE     ---       #275
      00FF4489H   LINE      CODE     ---       #276
      00FF448AH   LINE      CODE     ---       #277
      00FF448BH   LINE      CODE     ---       #278
      00FF4498H   LINE      CODE     ---       #279
      00FF44A0H   LINE      CODE     ---       #280
      00FF44A3H   LINE      CODE     ---       #282
      00FF44A3H   LINE      CODE     ---       #284
      00FF44B0H   LINE      CODE     ---       #285
      00FF44BDH   LINE      CODE     ---       #286
      00FF44CAH   LINE      CODE     ---       #287
      00FF44CEH   LINE      CODE     ---       #288
      00FF44D2H   LINE      CODE     ---       #289
      00FF44D3H   LINE      CODE     ---       #290
      00FF44D4H   LINE      CODE     ---       #291
      00FF44D5H   LINE      CODE     ---       #292
      00FF44D6H   LINE      CODE     ---       #293
      00FF44E3H   LINE      CODE     ---       #294
      00FF44EBH   LINE      CODE     ---       #295
      00FF44EDH   LINE      CODE     ---       #307
      00FF44EDH   LINE      CODE     ---       #309
      00FF44FAH   LINE      CODE     ---       #310
      00FF4507H   LINE      CODE     ---       #311
      00FF4514H   LINE      CODE     ---       #312
      00FF4518H   LINE      CODE     ---       #313
      00FF451CH   LINE      CODE     ---       #314
      00FF451DH   LINE      CODE     ---       #315
      00FF451EH   LINE      CODE     ---       #316
      00FF451FH   LINE      CODE     ---       #317
      00FF4520H   LINE      CODE     ---       #318
      00FF452DH   LINE      CODE     ---       #319
      00FF4539H   LINE      CODE     ---       #320
      00FF4539H   LINE      CODE     ---       #321
      00FF4539H   LINE      CODE     ---       #323
      00FF453DH   LINE      CODE     ---       #324
      ---         BLOCKEND  ---      ---       LVL=0

      00FF5F58H   BLOCK     CODE     ---       LVL=0
      00000EC5H   SYMBOL    EDATA    CHAR      c
      00FF5F58H   LINE      CODE     ---       #333
      00FF5F5CH   LINE      CODE     ---       #335
      00FF5F65H   LINE      CODE     ---       #337
      00FF5F69H   LINE      CODE     ---       #338
      ---         BLOCKEND  ---      ---       LVL=0

      00FF0006H   BLOCK     CODE     ---       LVL=0
      00FF0006H   LINE      CODE     ---       #347
      00FF0006H   LINE      CODE     ---       #349
      00FF0009H   LINE      CODE     ---       #350
      ---         BLOCKEND  ---      ---       LVL=0
L251 LINKER/LOCATER V4.66.93.0                                                        05/11/2024  21:00:46  PAGE 34



      00FF5F6AH   BLOCK     CODE     ---       LVL=0
      00FF5F6AH   LINE      CODE     ---       #385
      00FF5F6AH   LINE      CODE     ---       #387
      00FF5F6BH   LINE      CODE     ---       #388
      00FF5F6CH   LINE      CODE     ---       #389
      00FF5F70H   LINE      CODE     ---       #391
      00FF5F74H   LINE      CODE     ---       #393
      00FF5F78H   LINE      CODE     ---       #395
      00FF5F79H   LINE      CODE     ---       #396
      00FF5F7AH   LINE      CODE     ---       #397
      ---         BLOCKEND  ---      ---       LVL=0

      00FF5F31H   BLOCK     CODE     ---       LVL=0
      00000DA4H   SYMBOL    EDATA    DWORD     clock
      00FF5F31H   LINE      CODE     ---       #399
      00FF5F35H   LINE      CODE     ---       #401
      00FF5F39H   LINE      CODE     ---       #409
      00FF5F44H   LINE      CODE     ---       #413
      ---         BLOCKEND  ---      ---       LVL=0

      00FF551AH   BLOCK     CODE     ---       LVL=0
      00FF551AH   LINE      CODE     ---       #416
      00FF551AH   LINE      CODE     ---       #419
      00FF551DH   LINE      CODE     ---       #422
      00FF5520H   LINE      CODE     ---       #423
      00FF5523H   LINE      CODE     ---       #424
      00FF5526H   LINE      CODE     ---       #425
      00FF5529H   LINE      CODE     ---       #426
      00FF552CH   LINE      CODE     ---       #427
      00FF552FH   LINE      CODE     ---       #428
      00FF5532H   LINE      CODE     ---       #429
      00FF5535H   LINE      CODE     ---       #430
      00FF5538H   LINE      CODE     ---       #431
      00FF553BH   LINE      CODE     ---       #432
      00FF553EH   LINE      CODE     ---       #433
      00FF5541H   LINE      CODE     ---       #452
      00FF5544H   LINE      CODE     ---       #454
      00FF5554H   LINE      CODE     ---       #459
      00FF5557H   LINE      CODE     ---       #460
      00FF5557H   LINE      CODE     ---       #464
      00FF555AH   LINE      CODE     ---       #465
      00FF555DH   LINE      CODE     ---       #466
      00FF5560H   LINE      CODE     ---       #467
      00FF5563H   LINE      CODE     ---       #468
      00FF5566H   LINE      CODE     ---       #469
      00FF5569H   LINE      CODE     ---       #470
      00FF556CH   LINE      CODE     ---       #471
      00FF556FH   LINE      CODE     ---       #472
      00FF5572H   LINE      CODE     ---       #474
      00FF558DH   LINE      CODE     ---       #475
      00FF5590H   LINE      CODE     ---       #476
      ---         BLOCKEND  ---      ---       LVL=0

      ---         MODULE    ---      ---       common
      00000E61H   PUBLIC    EDATA    INT       wireless_type
      000000D0H   SFRSYM    DATA     BYTE      PSW
      0000009DH   SFRSYM    DATA     BYTE      IRCBAND
      00000097H   SFRSYM    DATA     BYTE      AUXR2
      000000EFH   SFRSYM    DATA     BYTE      AUXINTIF
      000000FDH   SFRSYM    DATA     BYTE      S4CON
      000000ACH   SFRSYM    DATA     BYTE      S3CON
      0000009AH   SFRSYM    DATA     BYTE      S2CON
      000000B7H   SFRSYM    DATA     BYTE      IPH
      000000CDH   SFRSYM    DATA     BYTE      SPSTAT
L251 LINKER/LOCATER V4.66.93.0                                                        05/11/2024  21:00:46  PAGE 35


      000000DDH   SFRSYM    DATA     BYTE      T4T3M
      000000C1H   SFRSYM    DATA     BYTE      WDT_CONTR
      000000DFH   SFRSYM    DATA     BYTE      IP3
      000000F4H   SFRSYM    DATA     BYTE      USBCON
      000000B5H   SFRSYM    DATA     BYTE      IP2
      000000FFH   SFRSYM    DATA     BYTE      RSTCFG
      000000C7H   SFRSYM    DATA     BYTE      IAP_CONTR
      000000F9H   SFRSYM    DATA     BYTE      LINICR
      0000008EH   SFRSYM    DATA     BYTE      AUXR
      000000AFH   SFRSYM    DATA     BYTE      IE2
      00000088H   SFRSYM    DATA     BYTE      TCON
      00000089H   SFRSYM    DATA     BYTE      TMOD
      00000098H   SFRSYM    DATA     BYTE      SCON
      000000F1H   SFRSYM    DATA     BYTE      CANICR
      00000087H   SFRSYM    DATA     BYTE      PCON
      000000BCH   SFRSYM    DATA     BYTE      ADC_CONTR
      000000E7H   SFRSYM    DATA     BYTE      CMPCR2
      000000E6H   SFRSYM    DATA     BYTE      CMPCR1
      000000DEH   SFRSYM    DATA     BYTE      ADCCFG
      000000B8H   SFRSYM    DATA     BYTE      IP
      0000008FH   SFRSYM    DATA     BYTE      INTCLKO
      000000EEH   SFRSYM    DATA     BYTE      IP3H
      000000B6H   SFRSYM    DATA     BYTE      IP2H
      000000A8H   SFRSYM    DATA     BYTE      IE
      000000BBH   SFRSYM    DATA     BYTE      P_SW3
      000000BAH   SFRSYM    DATA     BYTE      P_SW2
      000000A2H   SFRSYM    DATA     BYTE      P_SW1
      000000CEH   SFRSYM    DATA     BYTE      SPCTL
      000000F8H   SFRSYM    DATA     BYTE      P7
      000000E8H   SFRSYM    DATA     BYTE      P6
      000000C8H   SFRSYM    DATA     BYTE      P5
      000000C0H   SFRSYM    DATA     BYTE      P4
      000000B0H   SFRSYM    DATA     BYTE      P3
      000000A0H   SFRSYM    DATA     BYTE      P2
      00000090H   SFRSYM    DATA     BYTE      P1
      00000080H   SFRSYM    DATA     BYTE      P0

      ---         MODULE    ---      ---       STC32F_FPMU
      00FF5F7BH   PUBLIC    CODE     ---       ?C?CASTF
      00FF5F81H   PUBLIC    CODE     ---       ?C?FCASTI
      00FF0056H   PUBLIC    CODE     ---       ?C?FCASTL
      00FF000EH   PUBLIC    CODE     ---       ?C?FPADD
      00FF001EH   PUBLIC    CODE     ---       ?C?FPDIV
      00FF0016H   PUBLIC    CODE     ---       ?C?FPMUL
      000000E0H   SFRSYM    DATA     BYTE      ACC
      000000EDH   SFRSYM    DATA     BYTE      DMAIR
      00000083H   SFRSYM    DATA     BYTE      DPH
      00000082H   SFRSYM    DATA     BYTE      DPL
      0000001CH   SYMBOL    NUMBER   ---       DMA_FPADD
      00000030H   SYMBOL    NUMBER   ---       DMA_FPATAN
      00000027H   SYMBOL    NUMBER   ---       DMA_FPCLD
      00000032H   SYMBOL    NUMBER   ---       DMA_FPCLEX
      00000021H   SYMBOL    NUMBER   ---       DMA_FPCMP
      0000002EH   SYMBOL    NUMBER   ---       DMA_FPCOS
      00000035H   SYMBOL    NUMBER   ---       DMA_FPCRR
      00000036H   SYMBOL    NUMBER   ---       DMA_FPCRW
      00000023H   SYMBOL    NUMBER   ---       DMA_FPCST
      0000001FH   SYMBOL    NUMBER   ---       DMA_FPDIV
      00000028H   SYMBOL    NUMBER   ---       DMA_FPILD
      00000031H   SYMBOL    NUMBER   ---       DMA_FPINIT
      00000024H   SYMBOL    NUMBER   ---       DMA_FPIST
      00000029H   SYMBOL    NUMBER   ---       DMA_FPLLD
      00000025H   SYMBOL    NUMBER   ---       DMA_FPLST
      0000001EH   SYMBOL    NUMBER   ---       DMA_FPMUL
      0000002DH   SYMBOL    NUMBER   ---       DMA_FPSIN
L251 LINKER/LOCATER V4.66.93.0                                                        05/11/2024  21:00:46  PAGE 36


      00000020H   SYMBOL    NUMBER   ---       DMA_FPSQRT
      00000033H   SYMBOL    NUMBER   ---       DMA_FPSRR
      00000034H   SYMBOL    NUMBER   ---       DMA_FPSRW
      0000001DH   SYMBOL    NUMBER   ---       DMA_FPSUB
      0000002FH   SYMBOL    NUMBER   ---       DMA_FPTAN
      00000022H   SYMBOL    NUMBER   ---       DMA_FPXAM
      00000001H   SYMBOL    NUMBER   ---       FP_CONV_EN
      00000001H   SYMBOL    NUMBER   ---       FP_REGS_EN
      00000001H   SYMBOL    NUMBER   ---       FP_TRIG_EN

      00FF000EH   BLOCK     CODE     NEAR LAB  LVL=0
      00FF000EH   LINE      CODE     ---       #62
      00FF0011H   LINE      CODE     ---       #63
      ---         BLOCKEND  ---      ---       LVL=0

      00FF0016H   BLOCK     CODE     NEAR LAB  LVL=0
      00FF0016H   LINE      CODE     ---       #82
      00FF0019H   LINE      CODE     ---       #83
      ---         BLOCKEND  ---      ---       LVL=0

      00FF001EH   BLOCK     CODE     NEAR LAB  LVL=0
      00FF001EH   LINE      CODE     ---       #92
      00FF0021H   LINE      CODE     ---       #93
      ---         BLOCKEND  ---      ---       LVL=0

      00FF5F7BH   BLOCK     CODE     NEAR LAB  LVL=0
      00FF5F7BH   LINE      CODE     ---       #213
      00FF5F7EH   LINE      CODE     ---       #214
      00FF5F80H   LINE      CODE     ---       #215
      ---         BLOCKEND  ---      ---       LVL=0

      00FF5F81H   BLOCK     CODE     NEAR LAB  LVL=0
      00FF5F81H   LINE      CODE     ---       #235
      00FF5F83H   LINE      CODE     ---       #236
      00FF5F86H   LINE      CODE     ---       #237
      ---         BLOCKEND  ---      ---       LVL=0

      00FF0056H   BLOCK     CODE     NEAR LAB  LVL=0
      00FF0056H   LINE      CODE     ---       #246
      00FF0059H   LINE      CODE     ---       #247
      ---         BLOCKEND  ---      ---       LVL=0

      ---         MODULE    ---      ---       zf_adc
      00FF5345H   PUBLIC    CODE     ---       adc_init
      00000094H   SFRSYM    DATA     BYTE      P0M0
      000000D0H   SFRSYM    DATA     BYTE      PSW
      0000009DH   SFRSYM    DATA     BYTE      IRCBAND
      00000097H   SFRSYM    DATA     BYTE      AUXR2
      000000EFH   SFRSYM    DATA     BYTE      AUXINTIF
      000000FDH   SFRSYM    DATA     BYTE      S4CON
      000000ACH   SFRSYM    DATA     BYTE      S3CON
      0000009AH   SFRSYM    DATA     BYTE      S2CON
      000000B7H   SFRSYM    DATA     BYTE      IPH
      000000CDH   SFRSYM    DATA     BYTE      SPSTAT
      000000BEH   SFRSYM    DATA     BYTE      ADC_RESL
      000000DDH   SFRSYM    DATA     BYTE      T4T3M
      000000C1H   SFRSYM    DATA     BYTE      WDT_CONTR
      000000DFH   SFRSYM    DATA     BYTE      IP3
      000000F4H   SFRSYM    DATA     BYTE      USBCON
      000000B5H   SFRSYM    DATA     BYTE      IP2
      000000FFH   SFRSYM    DATA     BYTE      RSTCFG
      000000C7H   SFRSYM    DATA     BYTE      IAP_CONTR
      000000F9H   SFRSYM    DATA     BYTE      LINICR
      0000008EH   SFRSYM    DATA     BYTE      AUXR
      000000AFH   SFRSYM    DATA     BYTE      IE2
L251 LINKER/LOCATER V4.66.93.0                                                        05/11/2024  21:00:46  PAGE 37


      00000088H   SFRSYM    DATA     BYTE      TCON
      00000089H   SFRSYM    DATA     BYTE      TMOD
      00000098H   SFRSYM    DATA     BYTE      SCON
      000000F1H   SFRSYM    DATA     BYTE      CANICR
      00000087H   SFRSYM    DATA     BYTE      PCON
      000000BCH   SFRSYM    DATA     BYTE      ADC_CONTR
      000000E7H   SFRSYM    DATA     BYTE      CMPCR2
      000000E6H   SFRSYM    DATA     BYTE      CMPCR1
      000000DEH   SFRSYM    DATA     BYTE      ADCCFG
      000000B8H   SFRSYM    DATA     BYTE      IP
      0000008FH   SFRSYM    DATA     BYTE      INTCLKO
      000000EEH   SFRSYM    DATA     BYTE      IP3H
      000000B6H   SFRSYM    DATA     BYTE      IP2H
      000000BDH   SFRSYM    DATA     BYTE      ADC_RES
      000000A8H   SFRSYM    DATA     BYTE      IE
      000000BBH   SFRSYM    DATA     BYTE      P_SW3
      000000BAH   SFRSYM    DATA     BYTE      P_SW2
      000000A2H   SFRSYM    DATA     BYTE      P_SW1
      000000CEH   SFRSYM    DATA     BYTE      SPCTL
      000000F8H   SFRSYM    DATA     BYTE      P7
      000000E8H   SFRSYM    DATA     BYTE      P6
      000000C8H   SFRSYM    DATA     BYTE      P5
      000000C0H   SFRSYM    DATA     BYTE      P4
      000000B0H   SFRSYM    DATA     BYTE      P3
      000000A0H   SFRSYM    DATA     BYTE      P2
      00000090H   SFRSYM    DATA     BYTE      P1
      00000080H   SFRSYM    DATA     BYTE      P0
      00000091H   SFRSYM    DATA     BYTE      P1M1
      00000092H   SFRSYM    DATA     BYTE      P1M0
      00000093H   SFRSYM    DATA     BYTE      P0M1

      00FF5345H   BLOCK     CODE     ---       LVL=0
      00000DA8H   SYMBOL    EDATA    INT       adcn
      00000DAAH   SYMBOL    EDATA    INT       speed
      00FF5345H   LINE      CODE     ---       #32
      00FF534DH   LINE      CODE     ---       #34
      00FF5350H   LINE      CODE     ---       #36
      00FF5353H   LINE      CODE     ---       #37
      00FF535BH   LINE      CODE     ---       #39
      00FF536DH   LINE      CODE     ---       #42
      00FF5388H   LINE      CODE     ---       #43
      00FF53A1H   LINE      CODE     ---       #44
      00FF53A3H   LINE      CODE     ---       #45
      00FF53B3H   LINE      CODE     ---       #48
      00FF53CEH   LINE      CODE     ---       #49
      00FF53E7H   LINE      CODE     ---       #50
      00FF53E7H   LINE      CODE     ---       #52
      00FF53F6H   LINE      CODE     ---       #54
      00FF53F9H   LINE      CODE     ---       #55
      ---         BLOCKEND  ---      ---       LVL=0
      00000CA9H   SYMBOL    EDATA    INT       adcn
      00000CABH   SYMBOL    EDATA    INT       resolution
      00000CADH   SYMBOL    EDATA    WORD      adc_value

      ---         MODULE    ---      ---       zf_delay
      00FF5E4FH   PUBLIC    CODE     ---       delay_init
      00FF5CD9H   PUBLIC    CODE     ---       delay_ms
      00000DACH   PUBLIC    EDATA    WORD      zf_delay_ms
      00000DAEH   PUBLIC    EDATA    WORD      zf_delay_us
      000000D0H   SFRSYM    DATA     BYTE      PSW
      0000009DH   SFRSYM    DATA     BYTE      IRCBAND
      00000097H   SFRSYM    DATA     BYTE      AUXR2
      000000EFH   SFRSYM    DATA     BYTE      AUXINTIF
      000000FDH   SFRSYM    DATA     BYTE      S4CON
      000000ACH   SFRSYM    DATA     BYTE      S3CON
L251 LINKER/LOCATER V4.66.93.0                                                        05/11/2024  21:00:46  PAGE 38


      0000009AH   SFRSYM    DATA     BYTE      S2CON
      000000B7H   SFRSYM    DATA     BYTE      IPH
      000000CDH   SFRSYM    DATA     BYTE      SPSTAT
      000000DDH   SFRSYM    DATA     BYTE      T4T3M
      000000C1H   SFRSYM    DATA     BYTE      WDT_CONTR
      000000DFH   SFRSYM    DATA     BYTE      IP3
      000000F4H   SFRSYM    DATA     BYTE      USBCON
      000000B5H   SFRSYM    DATA     BYTE      IP2
      000000FFH   SFRSYM    DATA     BYTE      RSTCFG
      000000C7H   SFRSYM    DATA     BYTE      IAP_CONTR
      000000F9H   SFRSYM    DATA     BYTE      LINICR
      0000008EH   SFRSYM    DATA     BYTE      AUXR
      000000AFH   SFRSYM    DATA     BYTE      IE2
      00000088H   SFRSYM    DATA     BYTE      TCON
      00000089H   SFRSYM    DATA     BYTE      TMOD
      00000098H   SFRSYM    DATA     BYTE      SCON
      000000F1H   SFRSYM    DATA     BYTE      CANICR
      00000087H   SFRSYM    DATA     BYTE      PCON
      000000BCH   SFRSYM    DATA     BYTE      ADC_CONTR
      000000E7H   SFRSYM    DATA     BYTE      CMPCR2
      000000E6H   SFRSYM    DATA     BYTE      CMPCR1
      000000DEH   SFRSYM    DATA     BYTE      ADCCFG
      000000B8H   SFRSYM    DATA     BYTE      IP
      0000008FH   SFRSYM    DATA     BYTE      INTCLKO
      000000EEH   SFRSYM    DATA     BYTE      IP3H
      000000B6H   SFRSYM    DATA     BYTE      IP2H
      000000A8H   SFRSYM    DATA     BYTE      IE
      000000BBH   SFRSYM    DATA     BYTE      P_SW3
      000000BAH   SFRSYM    DATA     BYTE      P_SW2
      000000A2H   SFRSYM    DATA     BYTE      P_SW1
      000000CEH   SFRSYM    DATA     BYTE      SPCTL
      000000F8H   SFRSYM    DATA     BYTE      P7
      000000E8H   SFRSYM    DATA     BYTE      P6
      000000C8H   SFRSYM    DATA     BYTE      P5
      000000C0H   SFRSYM    DATA     BYTE      P4
      000000B0H   SFRSYM    DATA     BYTE      P3
      000000A0H   SFRSYM    DATA     BYTE      P2
      00000090H   SFRSYM    DATA     BYTE      P1
      00000080H   SFRSYM    DATA     BYTE      P0

      00FF5E4FH   BLOCK     CODE     ---       LVL=0
      00FF5E4FH   LINE      CODE     ---       #34
      00FF5E4FH   LINE      CODE     ---       #36
      00FF5E5EH   LINE      CODE     ---       #37
      00FF5E71H   LINE      CODE     ---       #38
      ---         BLOCKEND  ---      ---       LVL=0

      00FF5CD9H   BLOCK     CODE     ---       LVL=0
      00000DB0H   SYMBOL    EDATA    WORD      ms
      00FF5CDDH   BLOCK     CODE     NEAR LAB  LVL=1
      00000DB2H   SYMBOL    EDATA    WORD      i
      ---         BLOCKEND  ---      ---       LVL=1
      00FF5CD9H   LINE      CODE     ---       #46
      00FF5CDDH   LINE      CODE     ---       #47
      00FF5CDDH   LINE      CODE     ---       #49
      00FF5CDDH   LINE      CODE     ---       #50
      00FF5CE5H   LINE      CODE     ---       #51
      00FF5CF9H   LINE      CODE     ---       #52
      00FF5D0DH   LINE      CODE     ---       #53
      ---         BLOCKEND  ---      ---       LVL=0
      00000CAFH   SYMBOL    EDATA    DWORD     us
      00000CB3H   SYMBOL    EDATA    WORD      i
      00000DB4H   SYMBOL    EDATA    WORD      ns
      00000DB6H   SYMBOL    EDATA    WORD      cycles

L251 LINKER/LOCATER V4.66.93.0                                                        05/11/2024  21:00:46  PAGE 39


      ---         MODULE    ---      ---       zf_eeprom
      00000ACAH   PUBLIC    EDATA    BYTE      ?iap_read_bytes?BYTE
      00000AD4H   PUBLIC    EDATA    BYTE      ?iap_write_bytes?BYTE
      000000D0H   SFRSYM    DATA     BYTE      PSW
      0000009DH   SFRSYM    DATA     BYTE      IRCBAND
      000000D0H.5 SFRSYM    DATA     BIT       F0
      00000097H   SFRSYM    DATA     BYTE      AUXR2
      000000C6H   SFRSYM    DATA     BYTE      IAP_TRIG
      000000EFH   SFRSYM    DATA     BYTE      AUXINTIF
      000000FDH   SFRSYM    DATA     BYTE      S4CON
      000000ACH   SFRSYM    DATA     BYTE      S3CON
      0000009AH   SFRSYM    DATA     BYTE      S2CON
      000000B7H   SFRSYM    DATA     BYTE      IPH
      000000CDH   SFRSYM    DATA     BYTE      SPSTAT
      000000DDH   SFRSYM    DATA     BYTE      T4T3M
      000000C1H   SFRSYM    DATA     BYTE      WDT_CONTR
      000000C2H   SFRSYM    DATA     BYTE      IAP_DATA
      000000DFH   SFRSYM    DATA     BYTE      IP3
      000000F4H   SFRSYM    DATA     BYTE      USBCON
      000000B5H   SFRSYM    DATA     BYTE      IP2
      000000FFH   SFRSYM    DATA     BYTE      RSTCFG
      000000C7H   SFRSYM    DATA     BYTE      IAP_CONTR
      000000F9H   SFRSYM    DATA     BYTE      LINICR
      0000008EH   SFRSYM    DATA     BYTE      AUXR
      000000AFH   SFRSYM    DATA     BYTE      IE2
      00000088H   SFRSYM    DATA     BYTE      TCON
      00000089H   SFRSYM    DATA     BYTE      TMOD
      00000098H   SFRSYM    DATA     BYTE      SCON
      000000F5H   SFRSYM    DATA     BYTE      IAP_TPS
      000000F1H   SFRSYM    DATA     BYTE      CANICR
      00000087H   SFRSYM    DATA     BYTE      PCON
      000000BCH   SFRSYM    DATA     BYTE      ADC_CONTR
      000000E7H   SFRSYM    DATA     BYTE      CMPCR2
      000000E6H   SFRSYM    DATA     BYTE      CMPCR1
      000000C4H   SFRSYM    DATA     BYTE      IAP_ADDRL
      000000C3H   SFRSYM    DATA     BYTE      IAP_ADDRH
      000000F6H   SFRSYM    DATA     BYTE      IAP_ADDRE
      000000DEH   SFRSYM    DATA     BYTE      ADCCFG
      000000B8H   SFRSYM    DATA     BYTE      IP
      0000008FH   SFRSYM    DATA     BYTE      INTCLKO
      000000EEH   SFRSYM    DATA     BYTE      IP3H
      000000B6H   SFRSYM    DATA     BYTE      IP2H
      000000C5H   SFRSYM    DATA     BYTE      IAP_CMD
      000000A8H   SFRSYM    DATA     BYTE      IE
      000000BBH   SFRSYM    DATA     BYTE      P_SW3
      000000BAH   SFRSYM    DATA     BYTE      P_SW2
      000000A2H   SFRSYM    DATA     BYTE      P_SW1
      000000CEH   SFRSYM    DATA     BYTE      SPCTL
      000000F8H   SFRSYM    DATA     BYTE      P7
      000000A8H.7 SFRSYM    DATA     BIT       EA
      000000E8H   SFRSYM    DATA     BYTE      P6
      000000C8H   SFRSYM    DATA     BYTE      P5
      000000C0H   SFRSYM    DATA     BYTE      P4
      000000B0H   SFRSYM    DATA     BYTE      P3
      000000A0H   SFRSYM    DATA     BYTE      P2
      00000090H   SFRSYM    DATA     BYTE      P1
      00000080H   SFRSYM    DATA     BYTE      P0
      00000EC6H   SYMBOL    EDATA    BYTE      write_time
      00000ACAH   SYMBOL    EDATA    DWORD     addr
      00000ACEH   SYMBOL    EDATA    ---       buf
      00000AD2H   SYMBOL    EDATA    WORD      len
      00000AD4H   SYMBOL    EDATA    DWORD     addr
      00000AD8H   SYMBOL    EDATA    ---       buf
      00000ADCH   SYMBOL    EDATA    WORD      len
      00000DB8H   SYMBOL    EDATA    DWORD     addr
L251 LINKER/LOCATER V4.66.93.0                                                        05/11/2024  21:00:46  PAGE 40



      ---         MODULE    ---      ---       zf_exti
      000000D0H   SFRSYM    DATA     BYTE      PSW
      0000009DH   SFRSYM    DATA     BYTE      IRCBAND
      00000097H   SFRSYM    DATA     BYTE      AUXR2
      000000EFH   SFRSYM    DATA     BYTE      AUXINTIF
      000000FDH   SFRSYM    DATA     BYTE      S4CON
      000000ACH   SFRSYM    DATA     BYTE      S3CON
      0000009AH   SFRSYM    DATA     BYTE      S2CON
      000000B7H   SFRSYM    DATA     BYTE      IPH
      000000CDH   SFRSYM    DATA     BYTE      SPSTAT
      000000DDH   SFRSYM    DATA     BYTE      T4T3M
      000000C1H   SFRSYM    DATA     BYTE      WDT_CONTR
      00000088H.2 SFRSYM    DATA     BIT       IT1
      000000A8H.2 SFRSYM    DATA     BIT       EX1
      00000088H.0 SFRSYM    DATA     BIT       IT0
      000000A8H.0 SFRSYM    DATA     BIT       EX0
      000000DFH   SFRSYM    DATA     BYTE      IP3
      000000F4H   SFRSYM    DATA     BYTE      USBCON
      000000B5H   SFRSYM    DATA     BYTE      IP2
      000000FFH   SFRSYM    DATA     BYTE      RSTCFG
      000000C7H   SFRSYM    DATA     BYTE      IAP_CONTR
      000000F9H   SFRSYM    DATA     BYTE      LINICR
      0000008EH   SFRSYM    DATA     BYTE      AUXR
      000000AFH   SFRSYM    DATA     BYTE      IE2
      00000088H   SFRSYM    DATA     BYTE      TCON
      00000089H   SFRSYM    DATA     BYTE      TMOD
      00000098H   SFRSYM    DATA     BYTE      SCON
      000000F1H   SFRSYM    DATA     BYTE      CANICR
      00000087H   SFRSYM    DATA     BYTE      PCON
      000000BCH   SFRSYM    DATA     BYTE      ADC_CONTR
      000000E7H   SFRSYM    DATA     BYTE      CMPCR2
      000000E6H   SFRSYM    DATA     BYTE      CMPCR1
      000000DEH   SFRSYM    DATA     BYTE      ADCCFG
      000000B8H   SFRSYM    DATA     BYTE      IP
      0000008FH   SFRSYM    DATA     BYTE      INTCLKO
      000000EEH   SFRSYM    DATA     BYTE      IP3H
      000000B6H   SFRSYM    DATA     BYTE      IP2H
      000000A8H   SFRSYM    DATA     BYTE      IE
      000000BBH   SFRSYM    DATA     BYTE      P_SW3
      000000BAH   SFRSYM    DATA     BYTE      P_SW2
      000000A2H   SFRSYM    DATA     BYTE      P_SW1
      000000CEH   SFRSYM    DATA     BYTE      SPCTL
      000000F8H   SFRSYM    DATA     BYTE      P7
      000000E8H   SFRSYM    DATA     BYTE      P6
      000000C8H   SFRSYM    DATA     BYTE      P5
      000000C0H   SFRSYM    DATA     BYTE      P4
      000000B0H   SFRSYM    DATA     BYTE      P3
      000000A0H   SFRSYM    DATA     BYTE      P2
      00000090H   SFRSYM    DATA     BYTE      P1
      00000080H   SFRSYM    DATA     BYTE      P0
      00000DBCH   SYMBOL    EDATA    INT       int_n
      00000DBEH   SYMBOL    EDATA    INT       mode

      ---         MODULE    ---      ---       zf_gpio
      00FF2F35H   PUBLIC    CODE     ---       gpio_mode
      00000094H   SFRSYM    DATA     BYTE      P0M0
      000000D0H   SFRSYM    DATA     BYTE      PSW
      0000009DH   SFRSYM    DATA     BYTE      IRCBAND
      00000097H   SFRSYM    DATA     BYTE      AUXR2
      000000EFH   SFRSYM    DATA     BYTE      AUXINTIF
      000000FDH   SFRSYM    DATA     BYTE      S4CON
      000000ACH   SFRSYM    DATA     BYTE      S3CON
      0000009AH   SFRSYM    DATA     BYTE      S2CON
      000000B7H   SFRSYM    DATA     BYTE      IPH
L251 LINKER/LOCATER V4.66.93.0                                                        05/11/2024  21:00:46  PAGE 41


      000000CDH   SFRSYM    DATA     BYTE      SPSTAT
      000000DDH   SFRSYM    DATA     BYTE      T4T3M
      000000C1H   SFRSYM    DATA     BYTE      WDT_CONTR
      000000DFH   SFRSYM    DATA     BYTE      IP3
      000000F4H   SFRSYM    DATA     BYTE      USBCON
      000000B5H   SFRSYM    DATA     BYTE      IP2
      000000FFH   SFRSYM    DATA     BYTE      RSTCFG
      000000C7H   SFRSYM    DATA     BYTE      IAP_CONTR
      000000F9H   SFRSYM    DATA     BYTE      LINICR
      0000008EH   SFRSYM    DATA     BYTE      AUXR
      000000AFH   SFRSYM    DATA     BYTE      IE2
      00000088H   SFRSYM    DATA     BYTE      TCON
      00000089H   SFRSYM    DATA     BYTE      TMOD
      00000098H   SFRSYM    DATA     BYTE      SCON
      000000F1H   SFRSYM    DATA     BYTE      CANICR
      00000087H   SFRSYM    DATA     BYTE      PCON
      000000BCH   SFRSYM    DATA     BYTE      ADC_CONTR
      000000E7H   SFRSYM    DATA     BYTE      CMPCR2
      000000E6H   SFRSYM    DATA     BYTE      CMPCR1
      000000DEH   SFRSYM    DATA     BYTE      ADCCFG
      000000B8H   SFRSYM    DATA     BYTE      IP
      0000008FH   SFRSYM    DATA     BYTE      INTCLKO
      000000EEH   SFRSYM    DATA     BYTE      IP3H
      000000B6H   SFRSYM    DATA     BYTE      IP2H
      000000A8H   SFRSYM    DATA     BYTE      IE
      000000BBH   SFRSYM    DATA     BYTE      P_SW3
      000000BAH   SFRSYM    DATA     BYTE      P_SW2
      000000A2H   SFRSYM    DATA     BYTE      P_SW1
      000000CEH   SFRSYM    DATA     BYTE      SPCTL
      000000F8H   SFRSYM    DATA     BYTE      P7
      000000E1H   SFRSYM    DATA     BYTE      P7M1
      000000E8H   SFRSYM    DATA     BYTE      P6
      000000C8H   SFRSYM    DATA     BYTE      P5
      000000CBH   SFRSYM    DATA     BYTE      P6M1
      000000E2H   SFRSYM    DATA     BYTE      P7M0
      000000C0H   SFRSYM    DATA     BYTE      P4
      000000C9H   SFRSYM    DATA     BYTE      P5M1
      000000CCH   SFRSYM    DATA     BYTE      P6M0
      000000B0H   SFRSYM    DATA     BYTE      P3
      000000B3H   SFRSYM    DATA     BYTE      P4M1
      000000CAH   SFRSYM    DATA     BYTE      P5M0
      000000A0H   SFRSYM    DATA     BYTE      P2
      000000B1H   SFRSYM    DATA     BYTE      P3M1
      000000B4H   SFRSYM    DATA     BYTE      P4M0
      00000090H   SFRSYM    DATA     BYTE      P1
      00000095H   SFRSYM    DATA     BYTE      P2M1
      000000B2H   SFRSYM    DATA     BYTE      P3M0
      00000080H   SFRSYM    DATA     BYTE      P0
      00000091H   SFRSYM    DATA     BYTE      P1M1
      00000096H   SFRSYM    DATA     BYTE      P2M0
      00000092H   SFRSYM    DATA     BYTE      P1M0
      00000093H   SFRSYM    DATA     BYTE      P0M1
      00000DC0H   SYMBOL    EDATA    INT       pin
      00000DC2H   SYMBOL    EDATA    INT       pull

      00FF2F35H   BLOCK     CODE     ---       LVL=0
      00000DC4H   SYMBOL    EDATA    INT       pin
      00000DC6H   SYMBOL    EDATA    INT       mode
      00FF2F35H   LINE      CODE     ---       #54
      00FF2F3DH   LINE      CODE     ---       #56
      00FF2F4AH   LINE      CODE     ---       #58
      00FF2F5AH   LINE      CODE     ---       #60
      00FF2F75H   LINE      CODE     ---       #61
      00FF2F90H   LINE      CODE     ---       #62
      00FF2F90H   LINE      CODE     ---       #63
L251 LINKER/LOCATER V4.66.93.0                                                        05/11/2024  21:00:46  PAGE 42


      00FF2FA2H   LINE      CODE     ---       #65
      00FF2FBDH   LINE      CODE     ---       #66
      00FF2FD8H   LINE      CODE     ---       #67
      00FF2FD8H   LINE      CODE     ---       #68
      00FF2FEAH   LINE      CODE     ---       #70
      00FF3005H   LINE      CODE     ---       #71
      00FF3020H   LINE      CODE     ---       #72
      00FF3020H   LINE      CODE     ---       #74
      00FF3032H   LINE      CODE     ---       #76
      00FF304DH   LINE      CODE     ---       #77
      00FF3068H   LINE      CODE     ---       #78
      00FF3068H   LINE      CODE     ---       #79
      00FF307AH   LINE      CODE     ---       #81
      00FF3095H   LINE      CODE     ---       #82
      00FF30B0H   LINE      CODE     ---       #83
      00FF30B0H   LINE      CODE     ---       #84
      00FF30C2H   LINE      CODE     ---       #86
      00FF30DDH   LINE      CODE     ---       #87
      00FF30F8H   LINE      CODE     ---       #88
      00FF30F8H   LINE      CODE     ---       #89
      00FF310AH   LINE      CODE     ---       #91
      00FF3125H   LINE      CODE     ---       #92
      00FF3140H   LINE      CODE     ---       #93
      00FF3140H   LINE      CODE     ---       #94
      00FF3155H   LINE      CODE     ---       #96
      00FF3170H   LINE      CODE     ---       #97
      00FF318BH   LINE      CODE     ---       #98
      00FF318EH   LINE      CODE     ---       #100
      00FF319DH   LINE      CODE     ---       #102
      00FF31ADH   LINE      CODE     ---       #104
      00FF31C8H   LINE      CODE     ---       #105
      00FF31E1H   LINE      CODE     ---       #106
      00FF31E1H   LINE      CODE     ---       #107
      00FF31F3H   LINE      CODE     ---       #109
      00FF320EH   LINE      CODE     ---       #110
      00FF3227H   LINE      CODE     ---       #111
      00FF3227H   LINE      CODE     ---       #112
      00FF3239H   LINE      CODE     ---       #114
      00FF3254H   LINE      CODE     ---       #115
      00FF326DH   LINE      CODE     ---       #116
      00FF326DH   LINE      CODE     ---       #118
      00FF327FH   LINE      CODE     ---       #120
      00FF329AH   LINE      CODE     ---       #121
      00FF32B3H   LINE      CODE     ---       #122
      00FF32B3H   LINE      CODE     ---       #123
      00FF32C5H   LINE      CODE     ---       #125
      00FF32E0H   LINE      CODE     ---       #126
      00FF32F9H   LINE      CODE     ---       #127
      00FF32F9H   LINE      CODE     ---       #128
      00FF330BH   LINE      CODE     ---       #130
      00FF3326H   LINE      CODE     ---       #131
      00FF333FH   LINE      CODE     ---       #132
      00FF333FH   LINE      CODE     ---       #133
      00FF3351H   LINE      CODE     ---       #135
      00FF336CH   LINE      CODE     ---       #136
      00FF3385H   LINE      CODE     ---       #137
      00FF3385H   LINE      CODE     ---       #138
      00FF339AH   LINE      CODE     ---       #140
      00FF33B5H   LINE      CODE     ---       #141
      00FF33CEH   LINE      CODE     ---       #142
      00FF33D1H   LINE      CODE     ---       #145
      00FF33E0H   LINE      CODE     ---       #147
      00FF33F0H   LINE      CODE     ---       #149
      00FF3409H   LINE      CODE     ---       #150
      00FF3424H   LINE      CODE     ---       #151
L251 LINKER/LOCATER V4.66.93.0                                                        05/11/2024  21:00:46  PAGE 43


      00FF3424H   LINE      CODE     ---       #152
      00FF3436H   LINE      CODE     ---       #154
      00FF344FH   LINE      CODE     ---       #155
      00FF346AH   LINE      CODE     ---       #156
      00FF346AH   LINE      CODE     ---       #157
      00FF347CH   LINE      CODE     ---       #159
      00FF3495H   LINE      CODE     ---       #160
      00FF34B0H   LINE      CODE     ---       #161
      00FF34B0H   LINE      CODE     ---       #163
      00FF34C2H   LINE      CODE     ---       #165
      00FF34DBH   LINE      CODE     ---       #166
      00FF34F6H   LINE      CODE     ---       #167
      00FF34F6H   LINE      CODE     ---       #168
      00FF3508H   LINE      CODE     ---       #170
      00FF3521H   LINE      CODE     ---       #171
      00FF353CH   LINE      CODE     ---       #172
      00FF353CH   LINE      CODE     ---       #173
      00FF354EH   LINE      CODE     ---       #175
      00FF3567H   LINE      CODE     ---       #176
      00FF3582H   LINE      CODE     ---       #177
      00FF3582H   LINE      CODE     ---       #178
      00FF3594H   LINE      CODE     ---       #180
      00FF35ADH   LINE      CODE     ---       #181
      00FF35C8H   LINE      CODE     ---       #182
      00FF35C8H   LINE      CODE     ---       #183
      00FF35DDH   LINE      CODE     ---       #185
      00FF35F6H   LINE      CODE     ---       #186
      00FF3611H   LINE      CODE     ---       #187
      00FF3614H   LINE      CODE     ---       #189
      00FF3623H   LINE      CODE     ---       #191
      00FF3633H   LINE      CODE     ---       #193
      00FF364CH   LINE      CODE     ---       #194
      00FF3665H   LINE      CODE     ---       #195
      00FF3665H   LINE      CODE     ---       #196
      00FF3677H   LINE      CODE     ---       #198
      00FF3690H   LINE      CODE     ---       #199
      00FF36A9H   LINE      CODE     ---       #200
      00FF36A9H   LINE      CODE     ---       #201
      00FF36BBH   LINE      CODE     ---       #203
      00FF36D4H   LINE      CODE     ---       #204
      00FF36EDH   LINE      CODE     ---       #205
      00FF36EDH   LINE      CODE     ---       #207
      00FF36FFH   LINE      CODE     ---       #209
      00FF3718H   LINE      CODE     ---       #210
      00FF3731H   LINE      CODE     ---       #211
      00FF3731H   LINE      CODE     ---       #212
      00FF3743H   LINE      CODE     ---       #214
      00FF375CH   LINE      CODE     ---       #215
      00FF3775H   LINE      CODE     ---       #216
      00FF3775H   LINE      CODE     ---       #217
      00FF3787H   LINE      CODE     ---       #219
      00FF37A0H   LINE      CODE     ---       #220
      00FF37B9H   LINE      CODE     ---       #221
      00FF37B9H   LINE      CODE     ---       #222
      00FF37CBH   LINE      CODE     ---       #224
      00FF37E4H   LINE      CODE     ---       #225
      00FF37FDH   LINE      CODE     ---       #226
      00FF37FDH   LINE      CODE     ---       #227
      00FF380FH   LINE      CODE     ---       #229
      00FF3828H   LINE      CODE     ---       #230
      00FF3841H   LINE      CODE     ---       #231
      00FF3841H   LINE      CODE     ---       #233
      ---         BLOCKEND  ---      ---       LVL=0

      ---         MODULE    ---      ---       zf_iic
L251 LINKER/LOCATER V4.66.93.0                                                        05/11/2024  21:00:46  PAGE 44


      00000CB1H   PUBLIC    EDATA    BYTE      ?iic_init?BYTE
      000000D0H   SFRSYM    DATA     BYTE      PSW
      0000009DH   SFRSYM    DATA     BYTE      IRCBAND
      00000097H   SFRSYM    DATA     BYTE      AUXR2
      000000EFH   SFRSYM    DATA     BYTE      AUXINTIF
      000000FDH   SFRSYM    DATA     BYTE      S4CON
      000000ACH   SFRSYM    DATA     BYTE      S3CON
      0000009AH   SFRSYM    DATA     BYTE      S2CON
      000000B7H   SFRSYM    DATA     BYTE      IPH
      000000CDH   SFRSYM    DATA     BYTE      SPSTAT
      000000DDH   SFRSYM    DATA     BYTE      T4T3M
      000000C1H   SFRSYM    DATA     BYTE      WDT_CONTR
      000000DFH   SFRSYM    DATA     BYTE      IP3
      000000F4H   SFRSYM    DATA     BYTE      USBCON
      000000B5H   SFRSYM    DATA     BYTE      IP2
      000000FFH   SFRSYM    DATA     BYTE      RSTCFG
      000000C7H   SFRSYM    DATA     BYTE      IAP_CONTR
      000000F9H   SFRSYM    DATA     BYTE      LINICR
      0000008EH   SFRSYM    DATA     BYTE      AUXR
      000000AFH   SFRSYM    DATA     BYTE      IE2
      00000088H   SFRSYM    DATA     BYTE      TCON
      00000089H   SFRSYM    DATA     BYTE      TMOD
      00000098H   SFRSYM    DATA     BYTE      SCON
      000000F1H   SFRSYM    DATA     BYTE      CANICR
      00000087H   SFRSYM    DATA     BYTE      PCON
      000000BCH   SFRSYM    DATA     BYTE      ADC_CONTR
      000000E7H   SFRSYM    DATA     BYTE      CMPCR2
      000000E6H   SFRSYM    DATA     BYTE      CMPCR1
      000000DEH   SFRSYM    DATA     BYTE      ADCCFG
      000000B8H   SFRSYM    DATA     BYTE      IP
      0000008FH   SFRSYM    DATA     BYTE      INTCLKO
      000000EEH   SFRSYM    DATA     BYTE      IP3H
      000000B6H   SFRSYM    DATA     BYTE      IP2H
      000000A8H   SFRSYM    DATA     BYTE      IE
      000000BBH   SFRSYM    DATA     BYTE      P_SW3
      000000BAH   SFRSYM    DATA     BYTE      P_SW2
      000000A2H   SFRSYM    DATA     BYTE      P_SW1
      000000CEH   SFRSYM    DATA     BYTE      SPCTL
      000000F8H   SFRSYM    DATA     BYTE      P7
      000000E8H   SFRSYM    DATA     BYTE      P6
      000000C8H   SFRSYM    DATA     BYTE      P5
      000000C0H   SFRSYM    DATA     BYTE      P4
      000000B0H   SFRSYM    DATA     BYTE      P3
      000000A0H   SFRSYM    DATA     BYTE      P2
      00000090H   SFRSYM    DATA     BYTE      P1
      00000080H   SFRSYM    DATA     BYTE      P0
      00000E10H   SYMBOL    EDATA    WORD      x
      00000E12H   SYMBOL    EDATA    BYTE      i
      00000E13H   SYMBOL    EDATA    WORD      count
      00000E15H   SYMBOL    EDATA    BYTE      ret
      00000EC7H   SYMBOL    EDATA    BYTE      ret
      00000E63H   SYMBOL    EDATA    CHAR      dat
      00000E64H   SYMBOL    EDATA    BYTE      ret
      00000EC8H   SYMBOL    EDATA    BYTE      ret
      00000EC9H   SYMBOL    EDATA    BYTE      ret
      00000ECAH   SYMBOL    EDATA    BYTE      ret
      00000CB5H   SYMBOL    EDATA    INT       iic_n
      00000CB7H   SYMBOL    EDATA    DWORD     wait_time
      00000E16H   SYMBOL    EDATA    BYTE      dev_add
      00000E17H   SYMBOL    EDATA    BYTE      reg
      00000E18H   SYMBOL    EDATA    BYTE      dat
      00000CBBH   SYMBOL    EDATA    BYTE      dev_add
      00000CBCH   SYMBOL    EDATA    BYTE      reg
      00000CBDH   SYMBOL    EDATA    ---       dat
      00000C7FH   SYMBOL    EDATA    BYTE      dev_add
L251 LINKER/LOCATER V4.66.93.0                                                        05/11/2024  21:00:46  PAGE 45


      00000C80H   SYMBOL    EDATA    BYTE      reg
      00000C81H   SYMBOL    EDATA    ---       dat
      00000C85H   SYMBOL    EDATA    BYTE      num
      00000E65H   SYMBOL    EDATA    INT       iic_n

      ---         MODULE    ---      ---       zf_nvic
      000000D0H   SFRSYM    DATA     BYTE      PSW
      0000009DH   SFRSYM    DATA     BYTE      IRCBAND
      00000097H   SFRSYM    DATA     BYTE      AUXR2
      000000EFH   SFRSYM    DATA     BYTE      AUXINTIF
      000000FDH   SFRSYM    DATA     BYTE      S4CON
      000000ACH   SFRSYM    DATA     BYTE      S3CON
      0000009AH   SFRSYM    DATA     BYTE      S2CON
      000000B7H   SFRSYM    DATA     BYTE      IPH
      000000CDH   SFRSYM    DATA     BYTE      SPSTAT
      000000DDH   SFRSYM    DATA     BYTE      T4T3M
      000000C1H   SFRSYM    DATA     BYTE      WDT_CONTR
      000000DFH   SFRSYM    DATA     BYTE      IP3
      000000F4H   SFRSYM    DATA     BYTE      USBCON
      000000B5H   SFRSYM    DATA     BYTE      IP2
      000000FFH   SFRSYM    DATA     BYTE      RSTCFG
      000000C7H   SFRSYM    DATA     BYTE      IAP_CONTR
      000000F9H   SFRSYM    DATA     BYTE      LINICR
      0000008EH   SFRSYM    DATA     BYTE      AUXR
      000000AFH   SFRSYM    DATA     BYTE      IE2
      00000088H   SFRSYM    DATA     BYTE      TCON
      00000089H   SFRSYM    DATA     BYTE      TMOD
      00000098H   SFRSYM    DATA     BYTE      SCON
      000000F1H   SFRSYM    DATA     BYTE      CANICR
      00000087H   SFRSYM    DATA     BYTE      PCON
      000000BCH   SFRSYM    DATA     BYTE      ADC_CONTR
      000000E7H   SFRSYM    DATA     BYTE      CMPCR2
      000000E6H   SFRSYM    DATA     BYTE      CMPCR1
      000000DEH   SFRSYM    DATA     BYTE      ADCCFG
      000000B8H   SFRSYM    DATA     BYTE      IP
      0000008FH   SFRSYM    DATA     BYTE      INTCLKO
      000000EEH   SFRSYM    DATA     BYTE      IP3H
      000000B6H   SFRSYM    DATA     BYTE      IP2H
      000000A8H   SFRSYM    DATA     BYTE      IE
      000000BBH   SFRSYM    DATA     BYTE      P_SW3
      000000BAH   SFRSYM    DATA     BYTE      P_SW2
      000000A2H   SFRSYM    DATA     BYTE      P_SW1
      000000CEH   SFRSYM    DATA     BYTE      SPCTL
      000000F8H   SFRSYM    DATA     BYTE      P7
      000000E8H   SFRSYM    DATA     BYTE      P6
      000000C8H   SFRSYM    DATA     BYTE      P5
      000000C0H   SFRSYM    DATA     BYTE      P4
      000000B0H   SFRSYM    DATA     BYTE      P3
      000000A0H   SFRSYM    DATA     BYTE      P2
      00000090H   SFRSYM    DATA     BYTE      P1
      00000080H   SFRSYM    DATA     BYTE      P0
      00000E19H   SYMBOL    EDATA    INT       irqn
      00000E1BH   SYMBOL    EDATA    BYTE      priority

      ---         MODULE    ---      ---       zf_pwm
      00FF4918H   PUBLIC    CODE     ---       pwm_set_gpio
      00FF453EH   PUBLIC    CODE     ---       pwm_init
      00FF648CH   PUBLIC    HCONST   ---       PWM_CCR_ADDR
      00FF64ACH   PUBLIC    HCONST   ---       PWM_ARR_ADDR
      00FF64B4H   PUBLIC    HCONST   ---       PWM_CCER_ADDR
      00FF64C4H   PUBLIC    HCONST   ---       PWM_CCMR_ADDR
      00000856H   PUBLIC    EDATA    BYTE      ?pwm_init?BYTE
      0000086AH   PUBLIC    EDATA    BYTE      ?pwm_freq?BYTE
      000000D0H   SFRSYM    DATA     BYTE      PSW
      0000009DH   SFRSYM    DATA     BYTE      IRCBAND
L251 LINKER/LOCATER V4.66.93.0                                                        05/11/2024  21:00:46  PAGE 46


      00000097H   SFRSYM    DATA     BYTE      AUXR2
      000000EFH   SFRSYM    DATA     BYTE      AUXINTIF
      000000FDH   SFRSYM    DATA     BYTE      S4CON
      000000ACH   SFRSYM    DATA     BYTE      S3CON
      0000009AH   SFRSYM    DATA     BYTE      S2CON
      000000B7H   SFRSYM    DATA     BYTE      IPH
      000000CDH   SFRSYM    DATA     BYTE      SPSTAT
      000000DDH   SFRSYM    DATA     BYTE      T4T3M
      000000C1H   SFRSYM    DATA     BYTE      WDT_CONTR
      000000DFH   SFRSYM    DATA     BYTE      IP3
      000000F4H   SFRSYM    DATA     BYTE      USBCON
      000000B5H   SFRSYM    DATA     BYTE      IP2
      000000FFH   SFRSYM    DATA     BYTE      RSTCFG
      000000C7H   SFRSYM    DATA     BYTE      IAP_CONTR
      000000F9H   SFRSYM    DATA     BYTE      LINICR
      0000008EH   SFRSYM    DATA     BYTE      AUXR
      000000AFH   SFRSYM    DATA     BYTE      IE2
      00000088H   SFRSYM    DATA     BYTE      TCON
      00000089H   SFRSYM    DATA     BYTE      TMOD
      00000098H   SFRSYM    DATA     BYTE      SCON
      000000F1H   SFRSYM    DATA     BYTE      CANICR
      00000087H   SFRSYM    DATA     BYTE      PCON
      000000BCH   SFRSYM    DATA     BYTE      ADC_CONTR
      000000E7H   SFRSYM    DATA     BYTE      CMPCR2
      000000E6H   SFRSYM    DATA     BYTE      CMPCR1
      000000DEH   SFRSYM    DATA     BYTE      ADCCFG
      000000B8H   SFRSYM    DATA     BYTE      IP
      0000008FH   SFRSYM    DATA     BYTE      INTCLKO
      000000EEH   SFRSYM    DATA     BYTE      IP3H
      000000B6H   SFRSYM    DATA     BYTE      IP2H
      000000A8H   SFRSYM    DATA     BYTE      IE
      000000BBH   SFRSYM    DATA     BYTE      P_SW3
      000000BAH   SFRSYM    DATA     BYTE      P_SW2
      000000A2H   SFRSYM    DATA     BYTE      P_SW1
      000000CEH   SFRSYM    DATA     BYTE      SPCTL
      000000F8H   SFRSYM    DATA     BYTE      P7
      000000E8H   SFRSYM    DATA     BYTE      P6
      000000C8H   SFRSYM    DATA     BYTE      P5
      000000C0H   SFRSYM    DATA     BYTE      P4
      000000B0H   SFRSYM    DATA     BYTE      P3
      000000A0H   SFRSYM    DATA     BYTE      P2
      00000090H   SFRSYM    DATA     BYTE      P1
      00000080H   SFRSYM    DATA     BYTE      P0

      00FF4918H   BLOCK     CODE     ---       LVL=0
      00000E67H   SYMBOL    EDATA    INT       pwmch
      00FF4918H   LINE      CODE     ---       #49
      00FF491CH   LINE      CODE     ---       #51
      00FF4A91H   LINE      CODE     ---       #53
      00FF4A91H   LINE      CODE     ---       #55
      00FF4A9CH   LINE      CODE     ---       #56
      00FF4A9FH   LINE      CODE     ---       #58
      00FF4A9FH   LINE      CODE     ---       #60
      00FF4AAAH   LINE      CODE     ---       #61
      00FF4AADH   LINE      CODE     ---       #63
      00FF4AADH   LINE      CODE     ---       #65
      00FF4AB8H   LINE      CODE     ---       #66
      00FF4ABBH   LINE      CODE     ---       #68
      00FF4ABBH   LINE      CODE     ---       #70
      00FF4AC6H   LINE      CODE     ---       #71
      00FF4AC9H   LINE      CODE     ---       #73
      00FF4AC9H   LINE      CODE     ---       #75
      00FF4AD4H   LINE      CODE     ---       #76
      00FF4AD7H   LINE      CODE     ---       #78
      00FF4AD7H   LINE      CODE     ---       #80
L251 LINKER/LOCATER V4.66.93.0                                                        05/11/2024  21:00:46  PAGE 47


      00FF4AE2H   LINE      CODE     ---       #81
      00FF4AE5H   LINE      CODE     ---       #84
      00FF4AE5H   LINE      CODE     ---       #86
      00FF4AF0H   LINE      CODE     ---       #87
      00FF4AF3H   LINE      CODE     ---       #89
      00FF4AF3H   LINE      CODE     ---       #91
      00FF4AFEH   LINE      CODE     ---       #92
      00FF4B01H   LINE      CODE     ---       #94
      00FF4B01H   LINE      CODE     ---       #96
      00FF4B0CH   LINE      CODE     ---       #97
      00FF4B0FH   LINE      CODE     ---       #99
      00FF4B0FH   LINE      CODE     ---       #101
      00FF4B1AH   LINE      CODE     ---       #102
      00FF4B1DH   LINE      CODE     ---       #104
      00FF4B1DH   LINE      CODE     ---       #106
      00FF4B28H   LINE      CODE     ---       #107
      00FF4B2BH   LINE      CODE     ---       #109
      00FF4B2BH   LINE      CODE     ---       #111
      00FF4B36H   LINE      CODE     ---       #112
      00FF4B39H   LINE      CODE     ---       #115
      00FF4B39H   LINE      CODE     ---       #117
      00FF4B44H   LINE      CODE     ---       #118
      00FF4B47H   LINE      CODE     ---       #120
      00FF4B47H   LINE      CODE     ---       #122
      00FF4B52H   LINE      CODE     ---       #123
      00FF4B55H   LINE      CODE     ---       #125
      00FF4B55H   LINE      CODE     ---       #127
      00FF4B60H   LINE      CODE     ---       #128
      00FF4B63H   LINE      CODE     ---       #130
      00FF4B63H   LINE      CODE     ---       #132
      00FF4B6EH   LINE      CODE     ---       #133
      00FF4B71H   LINE      CODE     ---       #135
      00FF4B71H   LINE      CODE     ---       #137
      00FF4B7CH   LINE      CODE     ---       #138
      00FF4B7FH   LINE      CODE     ---       #140
      00FF4B7FH   LINE      CODE     ---       #142
      00FF4B8AH   LINE      CODE     ---       #143
      00FF4B8DH   LINE      CODE     ---       #147
      00FF4B8DH   LINE      CODE     ---       #149
      00FF4B98H   LINE      CODE     ---       #150
      00FF4B9BH   LINE      CODE     ---       #152
      00FF4B9BH   LINE      CODE     ---       #154
      00FF4BA6H   LINE      CODE     ---       #155
      00FF4BA9H   LINE      CODE     ---       #157
      00FF4BA9H   LINE      CODE     ---       #159
      00FF4BB4H   LINE      CODE     ---       #160
      00FF4BB7H   LINE      CODE     ---       #162
      00FF4BB7H   LINE      CODE     ---       #164
      00FF4BC2H   LINE      CODE     ---       #165
      00FF4BC5H   LINE      CODE     ---       #167
      00FF4BC5H   LINE      CODE     ---       #169
      00FF4BD0H   LINE      CODE     ---       #170
      00FF4BD3H   LINE      CODE     ---       #172
      00FF4BD3H   LINE      CODE     ---       #174
      00FF4BDEH   LINE      CODE     ---       #175
      00FF4BE1H   LINE      CODE     ---       #177
      00FF4BE1H   LINE      CODE     ---       #179
      00FF4BECH   LINE      CODE     ---       #180
      00FF4BEFH   LINE      CODE     ---       #182
      00FF4BEFH   LINE      CODE     ---       #184
      00FF4BFAH   LINE      CODE     ---       #185
      00FF4BFDH   LINE      CODE     ---       #189
      00FF4BFDH   LINE      CODE     ---       #191
      00FF4C08H   LINE      CODE     ---       #192
      00FF4C0BH   LINE      CODE     ---       #194
L251 LINKER/LOCATER V4.66.93.0                                                        05/11/2024  21:00:46  PAGE 48


      00FF4C0BH   LINE      CODE     ---       #196
      00FF4C16H   LINE      CODE     ---       #197
      00FF4C19H   LINE      CODE     ---       #199
      00FF4C19H   LINE      CODE     ---       #201
      00FF4C22H   LINE      CODE     ---       #202
      00FF4C25H   LINE      CODE     ---       #204
      00FF4C25H   LINE      CODE     ---       #206
      00FF4C30H   LINE      CODE     ---       #207
      00FF4C33H   LINE      CODE     ---       #210
      00FF4C33H   LINE      CODE     ---       #212
      00FF4C3EH   LINE      CODE     ---       #213
      00FF4C41H   LINE      CODE     ---       #215
      00FF4C41H   LINE      CODE     ---       #217
      00FF4C4CH   LINE      CODE     ---       #218
      00FF4C4FH   LINE      CODE     ---       #220
      00FF4C4FH   LINE      CODE     ---       #222
      00FF4C5AH   LINE      CODE     ---       #223
      00FF4C5CH   LINE      CODE     ---       #225
      00FF4C5CH   LINE      CODE     ---       #227
      00FF4C67H   LINE      CODE     ---       #228
      00FF4C69H   LINE      CODE     ---       #232
      00FF4C69H   LINE      CODE     ---       #234
      00FF4C74H   LINE      CODE     ---       #235
      00FF4C76H   LINE      CODE     ---       #237
      00FF4C76H   LINE      CODE     ---       #239
      00FF4C81H   LINE      CODE     ---       #240
      00FF4C83H   LINE      CODE     ---       #242
      00FF4C83H   LINE      CODE     ---       #244
      00FF4C8EH   LINE      CODE     ---       #245
      00FF4C90H   LINE      CODE     ---       #247
      00FF4C90H   LINE      CODE     ---       #249
      00FF4C9BH   LINE      CODE     ---       #250
      00FF4C9DH   LINE      CODE     ---       #254
      00FF4C9DH   LINE      CODE     ---       #256
      00FF4CA8H   LINE      CODE     ---       #257
      00FF4CAAH   LINE      CODE     ---       #259
      00FF4CAAH   LINE      CODE     ---       #261
      00FF4CB5H   LINE      CODE     ---       #262
      00FF4CB7H   LINE      CODE     ---       #264
      00FF4CB7H   LINE      CODE     ---       #266
      00FF4CC2H   LINE      CODE     ---       #267
      00FF4CC4H   LINE      CODE     ---       #269
      00FF4CC4H   LINE      CODE     ---       #271
      00FF4CCFH   LINE      CODE     ---       #272
      00FF4CCFH   LINE      CODE     ---       #275
      00FF4CCFH   LINE      CODE     ---       #277
      ---         BLOCKEND  ---      ---       LVL=0

      00FF453EH   BLOCK     CODE     ---       LVL=0
      00000856H   SYMBOL    EDATA    INT       pwmch
      00000858H   SYMBOL    EDATA    DWORD     freq
      0000085CH   SYMBOL    EDATA    DWORD     duty
      00FF4546H   BLOCK     CODE     NEAR LAB  LVL=1
      00000860H   SYMBOL    EDATA    DWORD     match_temp
      00000864H   SYMBOL    EDATA    DWORD     period_temp
      00000868H   SYMBOL    EDATA    WORD      freq_div
      ---         BLOCKEND  ---      ---       LVL=1
      00FF453EH   LINE      CODE     ---       #290
      00FF4546H   LINE      CODE     ---       #291
      00FF4546H   LINE      CODE     ---       #295
      00FF454CH   LINE      CODE     ---       #298
      00FF454FH   LINE      CODE     ---       #301
      00FF4556H   LINE      CODE     ---       #305
      00FF4569H   LINE      CODE     ---       #306
      00FF4578H   LINE      CODE     ---       #307
L251 LINKER/LOCATER V4.66.93.0                                                        05/11/2024  21:00:46  PAGE 49


      00FF4593H   LINE      CODE     ---       #309
      00FF459DH   LINE      CODE     ---       #311
      00FF45C4H   LINE      CODE     ---       #312
      00FF45C6H   LINE      CODE     ---       #315
      00FF45D4H   LINE      CODE     ---       #316
      00FF45D4H   LINE      CODE     ---       #319
      00FF45E3H   LINE      CODE     ---       #322
      00FF4614H   LINE      CODE     ---       #323
      00FF464BH   LINE      CODE     ---       #326
      00FF469DH   LINE      CODE     ---       #329
      00FF46B0H   LINE      CODE     ---       #330
      00FF46BFH   LINE      CODE     ---       #332
      00FF46CCH   LINE      CODE     ---       #333
      00FF46D9H   LINE      CODE     ---       #334
      00FF46DCH   LINE      CODE     ---       #337
      00FF471AH   LINE      CODE     ---       #338
      00FF474DH   LINE      CODE     ---       #341
      00FF47ADH   LINE      CODE     ---       #345
      00FF47C0H   LINE      CODE     ---       #346
      00FF47CFH   LINE      CODE     ---       #348
      00FF47DCH   LINE      CODE     ---       #349
      00FF47E9H   LINE      CODE     ---       #350
      00FF47E9H   LINE      CODE     ---       #353
      00FF481BH   LINE      CODE     ---       #354
      00FF4853H   LINE      CODE     ---       #357
      00FF4881H   LINE      CODE     ---       #358
      00FF48B5H   LINE      CODE     ---       #361
      00FF48E6H   LINE      CODE     ---       #362
      00FF4917H   LINE      CODE     ---       #367
      ---         BLOCKEND  ---      ---       LVL=0
      0000091FH   SYMBOL    EDATA    INT       pwmch
      00000921H   SYMBOL    EDATA    DWORD     duty
      00000925H   SYMBOL    EDATA    DWORD     match_temp
      00000929H   SYMBOL    EDATA    DWORD     arr
      0000086AH   SYMBOL    EDATA    INT       pwmch
      0000086CH   SYMBOL    EDATA    DWORD     freq
      00000870H   SYMBOL    EDATA    DWORD     duty
      00000874H   SYMBOL    EDATA    DWORD     match_temp
      00000878H   SYMBOL    EDATA    DWORD     period_temp
      0000087CH   SYMBOL    EDATA    WORD      freq_div

      ---         MODULE    ---      ---       zf_spi
      00000C80H   PUBLIC    EDATA    BYTE      ?spi_init?BYTE
      000000CFH   SFRSYM    DATA     BYTE      SPDAT
      000000D0H   SFRSYM    DATA     BYTE      PSW
      0000009DH   SFRSYM    DATA     BYTE      IRCBAND
      00000097H   SFRSYM    DATA     BYTE      AUXR2
      000000EFH   SFRSYM    DATA     BYTE      AUXINTIF
      000000FDH   SFRSYM    DATA     BYTE      S4CON
      000000ACH   SFRSYM    DATA     BYTE      S3CON
      0000009AH   SFRSYM    DATA     BYTE      S2CON
      000000B7H   SFRSYM    DATA     BYTE      IPH
      000000CDH   SFRSYM    DATA     BYTE      SPSTAT
      000000DDH   SFRSYM    DATA     BYTE      T4T3M
      000000C1H   SFRSYM    DATA     BYTE      WDT_CONTR
      000000DFH   SFRSYM    DATA     BYTE      IP3
      000000F4H   SFRSYM    DATA     BYTE      USBCON
      000000B5H   SFRSYM    DATA     BYTE      IP2
      000000FFH   SFRSYM    DATA     BYTE      RSTCFG
      000000C7H   SFRSYM    DATA     BYTE      IAP_CONTR
      000000F9H   SFRSYM    DATA     BYTE      LINICR
      0000008EH   SFRSYM    DATA     BYTE      AUXR
      000000AFH   SFRSYM    DATA     BYTE      IE2
      00000088H   SFRSYM    DATA     BYTE      TCON
      00000089H   SFRSYM    DATA     BYTE      TMOD
L251 LINKER/LOCATER V4.66.93.0                                                        05/11/2024  21:00:46  PAGE 50


      00000098H   SFRSYM    DATA     BYTE      SCON
      000000F1H   SFRSYM    DATA     BYTE      CANICR
      00000087H   SFRSYM    DATA     BYTE      PCON
      000000BCH   SFRSYM    DATA     BYTE      ADC_CONTR
      000000E7H   SFRSYM    DATA     BYTE      CMPCR2
      000000E6H   SFRSYM    DATA     BYTE      CMPCR1
      000000DEH   SFRSYM    DATA     BYTE      ADCCFG
      000000B8H   SFRSYM    DATA     BYTE      IP
      0000008FH   SFRSYM    DATA     BYTE      INTCLKO
      000000EEH   SFRSYM    DATA     BYTE      IP3H
      000000B6H   SFRSYM    DATA     BYTE      IP2H
      000000A8H   SFRSYM    DATA     BYTE      IE
      000000BBH   SFRSYM    DATA     BYTE      P_SW3
      000000BAH   SFRSYM    DATA     BYTE      P_SW2
      000000A2H   SFRSYM    DATA     BYTE      P_SW1
      000000CEH   SFRSYM    DATA     BYTE      SPCTL
      000000F8H   SFRSYM    DATA     BYTE      P7
      000000E8H   SFRSYM    DATA     BYTE      P6
      000000C8H   SFRSYM    DATA     BYTE      P5
      000000C0H   SFRSYM    DATA     BYTE      P4
      000000B0H   SFRSYM    DATA     BYTE      P3
      000000A0H   SFRSYM    DATA     BYTE      P2
      00000090H   SFRSYM    DATA     BYTE      P1
      00000080H   SFRSYM    DATA     BYTE      P0
      00000C86H   SYMBOL    EDATA    INT       spi_n
      00000C88H   SYMBOL    EDATA    BYTE      mode
      00000C89H   SYMBOL    EDATA    INT       mstr
      00000C8BH   SYMBOL    EDATA    INT       baud
      00000ECBH   SYMBOL    EDATA    BYTE      dat
      00000E69H   SYMBOL    EDATA    INT       spi_n
      00000ECCH   SYMBOL    EDATA    BYTE      mode

      ---         MODULE    ---      ---       zf_tim
      00FF5260H   PUBLIC    CODE     ---       pit_timer_ms
      00FF5931H   PUBLIC    CODE     ---       ctimer_count_init
      00FF5877H   PUBLIC    CODE     ---       ctimer_count_clean
      000000D0H   SFRSYM    DATA     BYTE      PSW
      0000009DH   SFRSYM    DATA     BYTE      IRCBAND
      00000097H   SFRSYM    DATA     BYTE      AUXR2
      000000EFH   SFRSYM    DATA     BYTE      AUXINTIF
      000000FDH   SFRSYM    DATA     BYTE      S4CON
      000000ACH   SFRSYM    DATA     BYTE      S3CON
      0000009AH   SFRSYM    DATA     BYTE      S2CON
      000000B7H   SFRSYM    DATA     BYTE      IPH
      000000CDH   SFRSYM    DATA     BYTE      SPSTAT
      000000DDH   SFRSYM    DATA     BYTE      T4T3M
      000000C1H   SFRSYM    DATA     BYTE      WDT_CONTR
      00000088H.6 SFRSYM    DATA     BIT       TR1
      00000088H.4 SFRSYM    DATA     BIT       TR0
      000000D3H   SFRSYM    DATA     BYTE      T4L
      000000D5H   SFRSYM    DATA     BYTE      T3L
      000000D7H   SFRSYM    DATA     BYTE      T2L
      0000008BH   SFRSYM    DATA     BYTE      TL1
      0000008AH   SFRSYM    DATA     BYTE      TL0
      000000D2H   SFRSYM    DATA     BYTE      T4H
      000000D4H   SFRSYM    DATA     BYTE      T3H
      000000D6H   SFRSYM    DATA     BYTE      T2H
      0000008DH   SFRSYM    DATA     BYTE      TH1
      0000008CH   SFRSYM    DATA     BYTE      TH0
      000000DFH   SFRSYM    DATA     BYTE      IP3
      000000F4H   SFRSYM    DATA     BYTE      USBCON
      000000B5H   SFRSYM    DATA     BYTE      IP2
      000000FFH   SFRSYM    DATA     BYTE      RSTCFG
      000000A8H.3 SFRSYM    DATA     BIT       ET1
      000000A8H.1 SFRSYM    DATA     BIT       ET0
L251 LINKER/LOCATER V4.66.93.0                                                        05/11/2024  21:00:46  PAGE 51


      000000C7H   SFRSYM    DATA     BYTE      IAP_CONTR
      000000F9H   SFRSYM    DATA     BYTE      LINICR
      0000008EH   SFRSYM    DATA     BYTE      AUXR
      000000AFH   SFRSYM    DATA     BYTE      IE2
      00000088H   SFRSYM    DATA     BYTE      TCON
      00000089H   SFRSYM    DATA     BYTE      TMOD
      00000098H   SFRSYM    DATA     BYTE      SCON
      000000F1H   SFRSYM    DATA     BYTE      CANICR
      00000087H   SFRSYM    DATA     BYTE      PCON
      000000BCH   SFRSYM    DATA     BYTE      ADC_CONTR
      000000E7H   SFRSYM    DATA     BYTE      CMPCR2
      000000E6H   SFRSYM    DATA     BYTE      CMPCR1
      000000DEH   SFRSYM    DATA     BYTE      ADCCFG
      000000B8H   SFRSYM    DATA     BYTE      IP
      0000008FH   SFRSYM    DATA     BYTE      INTCLKO
      000000EEH   SFRSYM    DATA     BYTE      IP3H
      000000B6H   SFRSYM    DATA     BYTE      IP2H
      000000A8H   SFRSYM    DATA     BYTE      IE
      000000BBH   SFRSYM    DATA     BYTE      P_SW3
      000000BAH   SFRSYM    DATA     BYTE      P_SW2
      000000A2H   SFRSYM    DATA     BYTE      P_SW1
      000000CEH   SFRSYM    DATA     BYTE      SPCTL
      000000F8H   SFRSYM    DATA     BYTE      P7
      000000E8H   SFRSYM    DATA     BYTE      P6
      000000C8H   SFRSYM    DATA     BYTE      P5
      000000C0H   SFRSYM    DATA     BYTE      P4
      000000B0H   SFRSYM    DATA     BYTE      P3
      000000A0H   SFRSYM    DATA     BYTE      P2
      00000090H   SFRSYM    DATA     BYTE      P1
      00000080H   SFRSYM    DATA     BYTE      P0

      00FF5931H   BLOCK     CODE     ---       LVL=0
      00000E6BH   SYMBOL    EDATA    INT       tim_n
      00FF5931H   LINE      CODE     ---       #39
      00FF5935H   LINE      CODE     ---       #42
      00FF5949H   LINE      CODE     ---       #44
      00FF5949H   LINE      CODE     ---       #46
      00FF594CH   LINE      CODE     ---       #47
      00FF594FH   LINE      CODE     ---       #48
      00FF5952H   LINE      CODE     ---       #49
      00FF5955H   LINE      CODE     ---       #50
      00FF5957H   LINE      CODE     ---       #53
      00FF5957H   LINE      CODE     ---       #55
      00FF595AH   LINE      CODE     ---       #56
      00FF595DH   LINE      CODE     ---       #57
      00FF5960H   LINE      CODE     ---       #58
      00FF5963H   LINE      CODE     ---       #59
      00FF5965H   LINE      CODE     ---       #62
      00FF5965H   LINE      CODE     ---       #64
      00FF5968H   LINE      CODE     ---       #65
      00FF596BH   LINE      CODE     ---       #66
      00FF596EH   LINE      CODE     ---       #67
      00FF5970H   LINE      CODE     ---       #70
      00FF5970H   LINE      CODE     ---       #72
      00FF5973H   LINE      CODE     ---       #73
      00FF5976H   LINE      CODE     ---       #74
      00FF5979H   LINE      CODE     ---       #75
      00FF597BH   LINE      CODE     ---       #78
      00FF597BH   LINE      CODE     ---       #80
      00FF597EH   LINE      CODE     ---       #81
      00FF5981H   LINE      CODE     ---       #82
      00FF5984H   LINE      CODE     ---       #83
      00FF5984H   LINE      CODE     ---       #86
      00FF5984H   LINE      CODE     ---       #87
      ---         BLOCKEND  ---      ---       LVL=0
L251 LINKER/LOCATER V4.66.93.0                                                        05/11/2024  21:00:46  PAGE 52


      00000DC8H   SYMBOL    EDATA    INT       tim_n
      00000DCAH   SYMBOL    EDATA    WORD      dat

      00FF5877H   BLOCK     CODE     ---       LVL=0
      00000E6DH   SYMBOL    EDATA    INT       tim_n
      00FF5877H   LINE      CODE     ---       #143
      00FF587BH   LINE      CODE     ---       #145
      00FF588FH   LINE      CODE     ---       #147
      00FF588FH   LINE      CODE     ---       #149
      00FF5892H   LINE      CODE     ---       #150
      00FF5895H   LINE      CODE     ---       #151
      00FF5898H   LINE      CODE     ---       #152
      00FF589BH   LINE      CODE     ---       #153
      00FF589DH   LINE      CODE     ---       #155
      00FF589DH   LINE      CODE     ---       #157
      00FF58A0H   LINE      CODE     ---       #158
      00FF58A3H   LINE      CODE     ---       #159
      00FF58A6H   LINE      CODE     ---       #160
      00FF58A9H   LINE      CODE     ---       #161
      00FF58ABH   LINE      CODE     ---       #163
      00FF58ABH   LINE      CODE     ---       #165
      00FF58AEH   LINE      CODE     ---       #166
      00FF58B1H   LINE      CODE     ---       #167
      00FF58B4H   LINE      CODE     ---       #168
      00FF58B7H   LINE      CODE     ---       #169
      00FF58B9H   LINE      CODE     ---       #171
      00FF58B9H   LINE      CODE     ---       #173
      00FF58BCH   LINE      CODE     ---       #174
      00FF58BFH   LINE      CODE     ---       #175
      00FF58C2H   LINE      CODE     ---       #176
      00FF58C5H   LINE      CODE     ---       #177
      00FF58C7H   LINE      CODE     ---       #179
      00FF58C7H   LINE      CODE     ---       #181
      00FF58CAH   LINE      CODE     ---       #182
      00FF58CDH   LINE      CODE     ---       #183
      00FF58D0H   LINE      CODE     ---       #184
      00FF58D3H   LINE      CODE     ---       #185
      00FF58D3H   LINE      CODE     ---       #187
      00FF58D3H   LINE      CODE     ---       #188
      ---         BLOCKEND  ---      ---       LVL=0

      00FF5260H   BLOCK     CODE     ---       LVL=0
      00000CC1H   SYMBOL    EDATA    INT       tim_n
      00000CC3H   SYMBOL    EDATA    WORD      time_ms
      00FF5268H   BLOCK     CODE     NEAR LAB  LVL=1
      00000CC5H   SYMBOL    EDATA    WORD      temp
      ---         BLOCKEND  ---      ---       LVL=1
      00FF5260H   LINE      CODE     ---       #198
      00FF5268H   LINE      CODE     ---       #199
      00FF5268H   LINE      CODE     ---       #201
      00FF528BH   LINE      CODE     ---       #203
      00FF5295H   LINE      CODE     ---       #205
      00FF5299H   LINE      CODE     ---       #206
      00FF529FH   LINE      CODE     ---       #207
      00FF52A9H   LINE      CODE     ---       #208
      00FF52ACH   LINE      CODE     ---       #209
      00FF52AFH   LINE      CODE     ---       #210
      00FF52B2H   LINE      CODE     ---       #211
      00FF52BEH   LINE      CODE     ---       #213
      00FF52C2H   LINE      CODE     ---       #214
      00FF52C8H   LINE      CODE     ---       #215
      00FF52D2H   LINE      CODE     ---       #216
      00FF52D5H   LINE      CODE     ---       #217
      00FF52D8H   LINE      CODE     ---       #218
      00FF52DAH   LINE      CODE     ---       #219
L251 LINKER/LOCATER V4.66.93.0                                                        05/11/2024  21:00:46  PAGE 53


      00FF52E6H   LINE      CODE     ---       #221
      00FF52ECH   LINE      CODE     ---       #222
      00FF52F6H   LINE      CODE     ---       #223
      00FF52F9H   LINE      CODE     ---       #224
      00FF52FCH   LINE      CODE     ---       #225
      00FF52FEH   LINE      CODE     ---       #226
      00FF530AH   LINE      CODE     ---       #228
      00FF5310H   LINE      CODE     ---       #229
      00FF531AH   LINE      CODE     ---       #230
      00FF531DH   LINE      CODE     ---       #231
      00FF5320H   LINE      CODE     ---       #232
      00FF5322H   LINE      CODE     ---       #233
      00FF532EH   LINE      CODE     ---       #235
      00FF5334H   LINE      CODE     ---       #236
      00FF533EH   LINE      CODE     ---       #237
      00FF5341H   LINE      CODE     ---       #238
      00FF5344H   LINE      CODE     ---       #239
      ---         BLOCKEND  ---      ---       LVL=0

      ---         MODULE    ---      ---       zf_uart
      00FF5591H   PUBLIC    CODE     ---       uart_putchar
      00FF4CD0H   PUBLIC    CODE     ---       uart_init
      00000D69H   PUBLIC    EDATA    ---       busy
      0000092DH   PUBLIC    EDATA    BYTE      ?uart_init?BYTE
      000000D0H   SFRSYM    DATA     BYTE      PSW
      0000009DH   SFRSYM    DATA     BYTE      IRCBAND
      00000097H   SFRSYM    DATA     BYTE      AUXR2
      000000EFH   SFRSYM    DATA     BYTE      AUXINTIF
      000000FDH   SFRSYM    DATA     BYTE      S4CON
      000000ACH   SFRSYM    DATA     BYTE      S3CON
      0000009AH   SFRSYM    DATA     BYTE      S2CON
      000000FEH   SFRSYM    DATA     BYTE      S4BUF
      000000ADH   SFRSYM    DATA     BYTE      S3BUF
      0000009BH   SFRSYM    DATA     BYTE      S2BUF
      000000B7H   SFRSYM    DATA     BYTE      IPH
      000000CDH   SFRSYM    DATA     BYTE      SPSTAT
      000000DDH   SFRSYM    DATA     BYTE      T4T3M
      000000C1H   SFRSYM    DATA     BYTE      WDT_CONTR
      00000088H.6 SFRSYM    DATA     BIT       TR1
      000000D3H   SFRSYM    DATA     BYTE      T4L
      000000D5H   SFRSYM    DATA     BYTE      T3L
      000000D7H   SFRSYM    DATA     BYTE      T2L
      0000008BH   SFRSYM    DATA     BYTE      TL1
      000000D2H   SFRSYM    DATA     BYTE      T4H
      000000D4H   SFRSYM    DATA     BYTE      T3H
      000000D6H   SFRSYM    DATA     BYTE      T2H
      0000008DH   SFRSYM    DATA     BYTE      TH1
      000000DFH   SFRSYM    DATA     BYTE      IP3
      000000F4H   SFRSYM    DATA     BYTE      USBCON
      000000B5H   SFRSYM    DATA     BYTE      IP2
      000000FFH   SFRSYM    DATA     BYTE      RSTCFG
      000000C7H   SFRSYM    DATA     BYTE      IAP_CONTR
      000000F9H   SFRSYM    DATA     BYTE      LINICR
      0000008EH   SFRSYM    DATA     BYTE      AUXR
      000000AFH   SFRSYM    DATA     BYTE      IE2
      00000088H   SFRSYM    DATA     BYTE      TCON
      00000089H   SFRSYM    DATA     BYTE      TMOD
      00000098H   SFRSYM    DATA     BYTE      SCON
      000000F1H   SFRSYM    DATA     BYTE      CANICR
      00000087H   SFRSYM    DATA     BYTE      PCON
      00000099H   SFRSYM    DATA     BYTE      SBUF
      000000BCH   SFRSYM    DATA     BYTE      ADC_CONTR
      000000E7H   SFRSYM    DATA     BYTE      CMPCR2
      000000E6H   SFRSYM    DATA     BYTE      CMPCR1
      000000DEH   SFRSYM    DATA     BYTE      ADCCFG
L251 LINKER/LOCATER V4.66.93.0                                                        05/11/2024  21:00:46  PAGE 54


      000000B8H   SFRSYM    DATA     BYTE      IP
      000000A8H.4 SFRSYM    DATA     BIT       ES
      0000008FH   SFRSYM    DATA     BYTE      INTCLKO
      000000EEH   SFRSYM    DATA     BYTE      IP3H
      000000B6H   SFRSYM    DATA     BYTE      IP2H
      000000A8H   SFRSYM    DATA     BYTE      IE
      000000BBH   SFRSYM    DATA     BYTE      P_SW3
      000000BAH   SFRSYM    DATA     BYTE      P_SW2
      000000A2H   SFRSYM    DATA     BYTE      P_SW1
      000000CEH   SFRSYM    DATA     BYTE      SPCTL
      000000F8H   SFRSYM    DATA     BYTE      P7
      000000E8H   SFRSYM    DATA     BYTE      P6
      000000C8H   SFRSYM    DATA     BYTE      P5
      000000C0H   SFRSYM    DATA     BYTE      P4
      000000C9H   SFRSYM    DATA     BYTE      P5M1
      000000B0H   SFRSYM    DATA     BYTE      P3
      000000CAH   SFRSYM    DATA     BYTE      P5M0
      000000A0H   SFRSYM    DATA     BYTE      P2
      00000090H   SFRSYM    DATA     BYTE      P1
      00000080H   SFRSYM    DATA     BYTE      P0

      00FF4CD0H   BLOCK     CODE     ---       LVL=0
      0000092DH   SYMBOL    EDATA    INT       uart_n
      0000092FH   SYMBOL    EDATA    INT       uart_rx_pin
      00000931H   SYMBOL    EDATA    INT       uart_tx_pin
      00000933H   SYMBOL    EDATA    DWORD     baud
      00000937H   SYMBOL    EDATA    INT       tim_n
      00FF4CE0H   BLOCK     CODE     NEAR LAB  LVL=1
      00000939H   SYMBOL    EDATA    WORD      brt
      ---         BLOCKEND  ---      ---       LVL=1
      00FF4CD0H   LINE      CODE     ---       #45
      00FF4CE0H   LINE      CODE     ---       #46
      00FF4CE0H   LINE      CODE     ---       #49
      00FF4D07H   LINE      CODE     ---       #52
      00FF4D29H   LINE      CODE     ---       #54
      00FF4D29H   LINE      CODE     ---       #56
      00FF4D35H   LINE      CODE     ---       #58
      00FF4D38H   LINE      CODE     ---       #59
      00FF4D3CH   LINE      CODE     ---       #60
      00FF4D42H   LINE      CODE     ---       #61
      00FF4D4CH   LINE      CODE     ---       #62
      00FF4D4FH   LINE      CODE     ---       #63
      00FF4D52H   LINE      CODE     ---       #64
      00FF4D57H   LINE      CODE     ---       #65
      00FF4D59H   LINE      CODE     ---       #66
      00FF4D65H   LINE      CODE     ---       #68
      00FF4D68H   LINE      CODE     ---       #69
      00FF4D6EH   LINE      CODE     ---       #70
      00FF4D78H   LINE      CODE     ---       #71
      00FF4D7BH   LINE      CODE     ---       #72
      00FF4D7BH   LINE      CODE     ---       #73
      00FF4D7EH   LINE      CODE     ---       #74
      00FF4D94H   LINE      CODE     ---       #76
      00FF4D98H   LINE      CODE     ---       #77
      00FF4D9AH   LINE      CODE     ---       #78
      00FF4DB2H   LINE      CODE     ---       #80
      00FF4DB5H   LINE      CODE     ---       #81
      00FF4DB7H   LINE      CODE     ---       #82
      00FF4DCFH   LINE      CODE     ---       #84
      00FF4DD2H   LINE      CODE     ---       #85
      00FF4DD4H   LINE      CODE     ---       #86
      00FF4DECH   LINE      CODE     ---       #88
      00FF4DEFH   LINE      CODE     ---       #89
      00FF4DEFH   LINE      CODE     ---       #90
      00FF4DF4H   LINE      CODE     ---       #91
L251 LINKER/LOCATER V4.66.93.0                                                        05/11/2024  21:00:46  PAGE 55


      00FF4DF7H   LINE      CODE     ---       #92
      00FF4DFAH   LINE      CODE     ---       #95
      00FF4DFAH   LINE      CODE     ---       #97
      00FF4E06H   LINE      CODE     ---       #99
      00FF4E09H   LINE      CODE     ---       #100
      00FF4E0FH   LINE      CODE     ---       #101
      00FF4E19H   LINE      CODE     ---       #102
      00FF4E1CH   LINE      CODE     ---       #103
      00FF4E1CH   LINE      CODE     ---       #105
      00FF4E1FH   LINE      CODE     ---       #106
      00FF4E37H   LINE      CODE     ---       #108
      00FF4E3BH   LINE      CODE     ---       #109
      00FF4E3DH   LINE      CODE     ---       #110
      00FF4E55H   LINE      CODE     ---       #112
      00FF4E58H   LINE      CODE     ---       #113
      00FF4E58H   LINE      CODE     ---       #115
      00FF4E5BH   LINE      CODE     ---       #116
      00FF4E60H   LINE      CODE     ---       #117
      00FF4E63H   LINE      CODE     ---       #120
      00FF4E63H   LINE      CODE     ---       #122
      00FF4E6FH   LINE      CODE     ---       #124
      00FF4E72H   LINE      CODE     ---       #125
      00FF4E78H   LINE      CODE     ---       #126
      00FF4E82H   LINE      CODE     ---       #127
      00FF4E85H   LINE      CODE     ---       #128
      00FF4E87H   LINE      CODE     ---       #129
      00FF4E93H   LINE      CODE     ---       #131
      00FF4E96H   LINE      CODE     ---       #132
      00FF4E9CH   LINE      CODE     ---       #133
      00FF4EA6H   LINE      CODE     ---       #134
      00FF4EA9H   LINE      CODE     ---       #135
      00FF4EA9H   LINE      CODE     ---       #137
      00FF4EACH   LINE      CODE     ---       #138
      00FF4EC4H   LINE      CODE     ---       #140
      00FF4EC8H   LINE      CODE     ---       #141
      00FF4ECAH   LINE      CODE     ---       #142
      00FF4EE2H   LINE      CODE     ---       #144
      00FF4EE5H   LINE      CODE     ---       #145
      00FF4EE5H   LINE      CODE     ---       #147
      00FF4EE8H   LINE      CODE     ---       #148
      00FF4EEDH   LINE      CODE     ---       #149
      00FF4EF0H   LINE      CODE     ---       #152
      00FF4EF0H   LINE      CODE     ---       #154
      00FF4EFCH   LINE      CODE     ---       #156
      00FF4EFFH   LINE      CODE     ---       #157
      00FF4F05H   LINE      CODE     ---       #158
      00FF4F0FH   LINE      CODE     ---       #159
      00FF4F13H   LINE      CODE     ---       #160
      00FF4F15H   LINE      CODE     ---       #161
      00FF4F21H   LINE      CODE     ---       #163
      00FF4F24H   LINE      CODE     ---       #164
      00FF4F2AH   LINE      CODE     ---       #165
      00FF4F34H   LINE      CODE     ---       #166
      00FF4F37H   LINE      CODE     ---       #167
      00FF4F37H   LINE      CODE     ---       #169
      00FF4F3AH   LINE      CODE     ---       #170
      00FF4F52H   LINE      CODE     ---       #172
      00FF4F56H   LINE      CODE     ---       #173
      00FF4F58H   LINE      CODE     ---       #174
      00FF4F70H   LINE      CODE     ---       #176
      00FF4F73H   LINE      CODE     ---       #177
      00FF4F77H   LINE      CODE     ---       #178
      00FF4F7AH   LINE      CODE     ---       #179
      00FF4F7AH   LINE      CODE     ---       #180
      00FF4F7DH   LINE      CODE     ---       #181
L251 LINKER/LOCATER V4.66.93.0                                                        05/11/2024  21:00:46  PAGE 56


      00FF4F82H   LINE      CODE     ---       #182
      00FF4F82H   LINE      CODE     ---       #185
      00FF4F82H   LINE      CODE     ---       #187
      ---         BLOCKEND  ---      ---       LVL=0

      00FF5591H   BLOCK     CODE     ---       LVL=0
      00000E1CH   SYMBOL    EDATA    INT       uart_n
      00000E1EH   SYMBOL    EDATA    BYTE      dat
      00FF5591H   LINE      CODE     ---       #196
      00FF5599H   LINE      CODE     ---       #198
      00FF55ABH   LINE      CODE     ---       #200
      00FF55ABH   LINE      CODE     ---       #201
      00FF55B4H   LINE      CODE     ---       #202
      00FF55BAH   LINE      CODE     ---       #203
      00FF55C0H   LINE      CODE     ---       #204
      00FF55C2H   LINE      CODE     ---       #205
      00FF55C2H   LINE      CODE     ---       #206
      00FF55CBH   LINE      CODE     ---       #207
      00FF55D1H   LINE      CODE     ---       #208
      00FF55D7H   LINE      CODE     ---       #209
      00FF55D9H   LINE      CODE     ---       #210
      00FF55D9H   LINE      CODE     ---       #211
      00FF55E2H   LINE      CODE     ---       #212
      00FF55E8H   LINE      CODE     ---       #213
      00FF55EEH   LINE      CODE     ---       #214
      00FF55F0H   LINE      CODE     ---       #215
      00FF55F0H   LINE      CODE     ---       #216
      00FF55F9H   LINE      CODE     ---       #217
      00FF55FFH   LINE      CODE     ---       #218
      00FF5605H   LINE      CODE     ---       #219
      00FF5605H   LINE      CODE     ---       #220
      00FF5605H   LINE      CODE     ---       #221
      ---         BLOCKEND  ---      ---       LVL=0
      00000BFFH   SYMBOL    EDATA    INT       uart_n
      00000C01H   SYMBOL    EDATA    ---       p
      00000C05H   SYMBOL    EDATA    WORD      len
      00000CC7H   SYMBOL    EDATA    INT       uart_n
      00000CC9H   SYMBOL    EDATA    ---       str

      ---         MODULE    ---      ---       zf_fifo
      00FF56E2H   PUBLIC    CODE     ---       fifo_head_offset
      00FF5128H   PUBLIC    CODE     ---       fifo_write_buffer
      0000097FH   PUBLIC    EDATA    BYTE      ?fifo_init?BYTE
      000008EFH   PUBLIC    EDATA    BYTE      ?fifo_write_buffer?BYTE
      000008A6H   PUBLIC    EDATA    BYTE      ?fifo_read_buffer?BYTE
      000000D0H   SFRSYM    DATA     BYTE      PSW
      0000009DH   SFRSYM    DATA     BYTE      IRCBAND
      00000097H   SFRSYM    DATA     BYTE      AUXR2
      000000EFH   SFRSYM    DATA     BYTE      AUXINTIF
      000000FDH   SFRSYM    DATA     BYTE      S4CON
      000000ACH   SFRSYM    DATA     BYTE      S3CON
      0000009AH   SFRSYM    DATA     BYTE      S2CON
      000000B7H   SFRSYM    DATA     BYTE      IPH
      000000CDH   SFRSYM    DATA     BYTE      SPSTAT
      000000DDH   SFRSYM    DATA     BYTE      T4T3M
      000000C1H   SFRSYM    DATA     BYTE      WDT_CONTR
      000000DFH   SFRSYM    DATA     BYTE      IP3
      000000F4H   SFRSYM    DATA     BYTE      USBCON
      000000B5H   SFRSYM    DATA     BYTE      IP2
      000000FFH   SFRSYM    DATA     BYTE      RSTCFG
      000000C7H   SFRSYM    DATA     BYTE      IAP_CONTR
      000000F9H   SFRSYM    DATA     BYTE      LINICR
      0000008EH   SFRSYM    DATA     BYTE      AUXR
      000000AFH   SFRSYM    DATA     BYTE      IE2
      00000088H   SFRSYM    DATA     BYTE      TCON
L251 LINKER/LOCATER V4.66.93.0                                                        05/11/2024  21:00:46  PAGE 57


      00000089H   SFRSYM    DATA     BYTE      TMOD
      00000098H   SFRSYM    DATA     BYTE      SCON
      000000F1H   SFRSYM    DATA     BYTE      CANICR
      00000087H   SFRSYM    DATA     BYTE      PCON
      000000BCH   SFRSYM    DATA     BYTE      ADC_CONTR
      000000E7H   SFRSYM    DATA     BYTE      CMPCR2
      000000E6H   SFRSYM    DATA     BYTE      CMPCR1
      000000DEH   SFRSYM    DATA     BYTE      ADCCFG
      000000B8H   SFRSYM    DATA     BYTE      IP
      0000008FH   SFRSYM    DATA     BYTE      INTCLKO
      000000EEH   SFRSYM    DATA     BYTE      IP3H
      000000B6H   SFRSYM    DATA     BYTE      IP2H
      000000A8H   SFRSYM    DATA     BYTE      IE
      000000BBH   SFRSYM    DATA     BYTE      P_SW3
      000000BAH   SFRSYM    DATA     BYTE      P_SW2
      000000A2H   SFRSYM    DATA     BYTE      P_SW1
      000000CEH   SFRSYM    DATA     BYTE      SPCTL
      000000F8H   SFRSYM    DATA     BYTE      P7
      000000E8H   SFRSYM    DATA     BYTE      P6
      000000C8H   SFRSYM    DATA     BYTE      P5
      000000C0H   SFRSYM    DATA     BYTE      P4
      000000B0H   SFRSYM    DATA     BYTE      P3
      000000A0H   SFRSYM    DATA     BYTE      P2
      00000090H   SFRSYM    DATA     BYTE      P1
      00000080H   SFRSYM    DATA     BYTE      P0
      0000097FH   SYMBOL    EDATA    ---       fifo
      00000983H   SYMBOL    EDATA    ---       buffer_addr
      00000987H   SYMBOL    EDATA    DWORD     size

      00FF56E2H   BLOCK     CODE     ---       LVL=0
      00000C07H   SYMBOL    EDATA    ---       fifo
      00000C0BH   SYMBOL    EDATA    DWORD     offset
      00FF56E2H   LINE      CODE     ---       #61
      00FF56EAH   LINE      CODE     ---       #63
      00FF5704H   LINE      CODE     ---       #65
      00FF5706H   LINE      CODE     ---       #67
      00FF572BH   LINE      CODE     ---       #68
      00FF574BH   LINE      CODE     ---       #69
      ---         BLOCKEND  ---      ---       LVL=0
      00000C0FH   SYMBOL    EDATA    ---       fifo
      00000C13H   SYMBOL    EDATA    DWORD     offset
      00000DCCH   SYMBOL    EDATA    ---       fifo
      00000DD0H   SYMBOL    EDATA    ---       fifo

      00FF5128H   BLOCK     CODE     ---       LVL=0
      000008EFH   SYMBOL    EDATA    ---       fifo
      000008F3H   SYMBOL    EDATA    ---       dat
      000008F7H   SYMBOL    EDATA    DWORD     length
      00FF5130H   BLOCK     CODE     NEAR LAB  LVL=1
      000008FBH   SYMBOL    EDATA    DWORD     temp_length
      ---         BLOCKEND  ---      ---       LVL=1
      00FF5128H   LINE      CODE     ---       #120
      00FF5130H   LINE      CODE     ---       #121
      00FF5130H   LINE      CODE     ---       #124
      00FF514AH   LINE      CODE     ---       #126
      00FF516CH   LINE      CODE     ---       #128
      00FF517BH   LINE      CODE     ---       #130
      00FF51A4H   LINE      CODE     ---       #131
      00FF51AFH   LINE      CODE     ---       #132
      00FF51BFH   LINE      CODE     ---       #133
      00FF51F2H   LINE      CODE     ---       #134
      00FF5203H   LINE      CODE     ---       #135
      00FF5205H   LINE      CODE     ---       #138
      00FF522EH   LINE      CODE     ---       #139
      00FF5239H   LINE      CODE     ---       #140
L251 LINKER/LOCATER V4.66.93.0                                                        05/11/2024  21:00:46  PAGE 58


      00FF5239H   LINE      CODE     ---       #142
      00FF5255H   LINE      CODE     ---       #143
      00FF5257H   LINE      CODE     ---       #146
      00FF525DH   LINE      CODE     ---       #147
      00FF525DH   LINE      CODE     ---       #149
      00FF525FH   LINE      CODE     ---       #150
      ---         BLOCKEND  ---      ---       LVL=0
      000008A6H   SYMBOL    EDATA    ---       fifo
      000008AAH   SYMBOL    EDATA    ---       dat
      000008AEH   SYMBOL    EDATA    ---       length
      000008B2H   SYMBOL    EDATA    INT       flag
      000008B4H   SYMBOL    EDATA    BYTE      data_check
      000008B5H   SYMBOL    EDATA    DWORD     temp_length

      ---         MODULE    ---      ---       SEEKFREE_18TFT
      000004BBH   PUBLIC    EDATA    BYTE      ?lcd_showfloat_simspi?BYTE
      000004EBH   PUBLIC    EDATA    BYTE      ?lcd_showfloat?BYTE
      000000D0H   SFRSYM    DATA     BYTE      PSW
      0000009DH   SFRSYM    DATA     BYTE      IRCBAND
      00000097H   SFRSYM    DATA     BYTE      AUXR2
      000000EFH   SFRSYM    DATA     BYTE      AUXINTIF
      000000FDH   SFRSYM    DATA     BYTE      S4CON
      000000ACH   SFRSYM    DATA     BYTE      S3CON
      0000009AH   SFRSYM    DATA     BYTE      S2CON
      000000B7H   SFRSYM    DATA     BYTE      IPH
      000000CDH   SFRSYM    DATA     BYTE      SPSTAT
      000000DDH   SFRSYM    DATA     BYTE      T4T3M
      000000C1H   SFRSYM    DATA     BYTE      WDT_CONTR
      000000DFH   SFRSYM    DATA     BYTE      IP3
      000000F4H   SFRSYM    DATA     BYTE      USBCON
      000000B5H   SFRSYM    DATA     BYTE      IP2
      000000FFH   SFRSYM    DATA     BYTE      RSTCFG
      000000C7H   SFRSYM    DATA     BYTE      IAP_CONTR
      000000F9H   SFRSYM    DATA     BYTE      LINICR
      0000008EH   SFRSYM    DATA     BYTE      AUXR
      000000AFH   SFRSYM    DATA     BYTE      IE2
      000000A0H.5 SFRSYM    DATA     BIT       P25
      00000088H   SFRSYM    DATA     BYTE      TCON
      00000089H   SFRSYM    DATA     BYTE      TMOD
      000000A0H.3 SFRSYM    DATA     BIT       P23
      00000098H   SFRSYM    DATA     BYTE      SCON
      000000A0H.2 SFRSYM    DATA     BIT       P22
      000000A0H.1 SFRSYM    DATA     BIT       P21
      000000A0H.0 SFRSYM    DATA     BIT       P20
      000000F1H   SFRSYM    DATA     BYTE      CANICR
      00000087H   SFRSYM    DATA     BYTE      PCON
      000000BCH   SFRSYM    DATA     BYTE      ADC_CONTR
      000000E7H   SFRSYM    DATA     BYTE      CMPCR2
      000000E6H   SFRSYM    DATA     BYTE      CMPCR1
      000000DEH   SFRSYM    DATA     BYTE      ADCCFG
      000000B8H   SFRSYM    DATA     BYTE      IP
      0000008FH   SFRSYM    DATA     BYTE      INTCLKO
      000000EEH   SFRSYM    DATA     BYTE      IP3H
      000000B6H   SFRSYM    DATA     BYTE      IP2H
      000000A8H   SFRSYM    DATA     BYTE      IE
      000000BBH   SFRSYM    DATA     BYTE      P_SW3
      000000BAH   SFRSYM    DATA     BYTE      P_SW2
      000000A2H   SFRSYM    DATA     BYTE      P_SW1
      000000CEH   SFRSYM    DATA     BYTE      SPCTL
      000000F8H   SFRSYM    DATA     BYTE      P7
      000000E8H   SFRSYM    DATA     BYTE      P6
      000000C8H   SFRSYM    DATA     BYTE      P5
      000000C0H   SFRSYM    DATA     BYTE      P4
      000000B0H   SFRSYM    DATA     BYTE      P3
      000000A0H   SFRSYM    DATA     BYTE      P2
L251 LINKER/LOCATER V4.66.93.0                                                        05/11/2024  21:00:46  PAGE 59


      00000090H   SFRSYM    DATA     BYTE      P1
      00000080H   SFRSYM    DATA     BYTE      P0
      00000E6FH   SYMBOL    EDATA    BYTE      dat
      00000E70H   SYMBOL    EDATA    BYTE      i
      00000E71H   SYMBOL    EDATA    BYTE      dat
      00000E72H   SYMBOL    EDATA    BYTE      i
      00000E1FH   SYMBOL    EDATA    WORD      dat
      00000E21H   SYMBOL    EDATA    BYTE      i
      00000C17H   SYMBOL    EDATA    WORD      x_start
      00000C19H   SYMBOL    EDATA    WORD      y_start
      00000C1BH   SYMBOL    EDATA    WORD      x_end
      00000C1DH   SYMBOL    EDATA    WORD      y_end
      00000DD4H   SYMBOL    EDATA    INT       color
      00000DD6H   SYMBOL    EDATA    BYTE      i
      00000DD7H   SYMBOL    EDATA    BYTE      j
      00000CCDH   SYMBOL    EDATA    WORD      x
      00000CCFH   SYMBOL    EDATA    WORD      y
      00000CD1H   SYMBOL    EDATA    WORD      color
      00000C1FH   SYMBOL    EDATA    WORD      x
      00000C21H   SYMBOL    EDATA    WORD      y
      00000C23H   SYMBOL    EDATA    CHAR      dat
      00000C24H   SYMBOL    EDATA    BYTE      i
      00000C25H   SYMBOL    EDATA    BYTE      j
      00000C26H   SYMBOL    EDATA    BYTE      temp
      00000ADEH   SYMBOL    EDATA    WORD      x
      00000AE0H   SYMBOL    EDATA    WORD      y
      00000AE2H   SYMBOL    EDATA    ---       dat
      00000AE6H   SYMBOL    EDATA    WORD      j
      00000B4CH   SYMBOL    EDATA    WORD      x
      00000B4EH   SYMBOL    EDATA    WORD      y
      00000B50H   SYMBOL    EDATA    CHAR      dat
      00000B51H   SYMBOL    EDATA    ---       a
      00000B54H   SYMBOL    EDATA    BYTE      i
      00000B55H   SYMBOL    EDATA    WORD      x
      00000B57H   SYMBOL    EDATA    WORD      y
      00000B59H   SYMBOL    EDATA    BYTE      dat
      00000B5AH   SYMBOL    EDATA    ---       a
      00000B5DH   SYMBOL    EDATA    BYTE      i
      0000098BH   SYMBOL    EDATA    WORD      x
      0000098DH   SYMBOL    EDATA    WORD      y
      0000098FH   SYMBOL    EDATA    INT       dat
      00000991H   SYMBOL    EDATA    ---       a
      00000996H   SYMBOL    EDATA    BYTE      i
      00000997H   SYMBOL    EDATA    WORD      x
      00000999H   SYMBOL    EDATA    WORD      y
      0000099BH   SYMBOL    EDATA    WORD      dat
      0000099DH   SYMBOL    EDATA    ---       a
      000009A2H   SYMBOL    EDATA    BYTE      i
      0000063AH   SYMBOL    EDATA    WORD      x
      0000063CH   SYMBOL    EDATA    WORD      y
      0000063EH   SYMBOL    EDATA    LONG      dat
      00000642H   SYMBOL    EDATA    BYTE      num
      00000643H   SYMBOL    EDATA    ---       buff
      00000665H   SYMBOL    EDATA    BYTE      length
      000004BBH   SYMBOL    EDATA    WORD      x
      000004BDH   SYMBOL    EDATA    WORD      y
      000004BFH   SYMBOL    EDATA    FLOAT     dat
      000004C3H   SYMBOL    EDATA    BYTE      num
      000004C4H   SYMBOL    EDATA    BYTE      pointnum
      000004C5H   SYMBOL    EDATA    BYTE      length
      000004C6H   SYMBOL    EDATA    ---       buff
      000004E8H   SYMBOL    EDATA    CHAR      start
      000004E9H   SYMBOL    EDATA    CHAR      end
      000004EAH   SYMBOL    EDATA    CHAR      point
      00000ECDH   SYMBOL    EDATA    BYTE      dat
L251 LINKER/LOCATER V4.66.93.0                                                        05/11/2024  21:00:46  PAGE 60


      00000ECEH   SYMBOL    EDATA    BYTE      dat
      00000DD8H   SYMBOL    EDATA    WORD      dat
      00000DDAH   SYMBOL    EDATA    ---       dat1
      00000C27H   SYMBOL    EDATA    WORD      x_start
      00000C29H   SYMBOL    EDATA    WORD      y_start
      00000C2BH   SYMBOL    EDATA    WORD      x_end
      00000C2DH   SYMBOL    EDATA    WORD      y_end
      00000DDCH   SYMBOL    EDATA    INT       color
      00000DDEH   SYMBOL    EDATA    BYTE      i
      00000DDFH   SYMBOL    EDATA    BYTE      j
      00000CD3H   SYMBOL    EDATA    WORD      x
      00000CD5H   SYMBOL    EDATA    WORD      y
      00000CD7H   SYMBOL    EDATA    WORD      color
      00000C2FH   SYMBOL    EDATA    WORD      x
      00000C31H   SYMBOL    EDATA    WORD      y
      00000C33H   SYMBOL    EDATA    CHAR      dat
      00000C34H   SYMBOL    EDATA    BYTE      i
      00000C35H   SYMBOL    EDATA    BYTE      j
      00000C36H   SYMBOL    EDATA    BYTE      temp
      00000AE8H   SYMBOL    EDATA    WORD      x
      00000AEAH   SYMBOL    EDATA    WORD      y
      00000AECH   SYMBOL    EDATA    ---       dat
      00000AF0H   SYMBOL    EDATA    WORD      j
      00000B5EH   SYMBOL    EDATA    WORD      x
      00000B60H   SYMBOL    EDATA    WORD      y
      00000B62H   SYMBOL    EDATA    CHAR      dat
      00000B63H   SYMBOL    EDATA    ---       a
      00000B66H   SYMBOL    EDATA    BYTE      i
      00000B67H   SYMBOL    EDATA    WORD      x
      00000B69H   SYMBOL    EDATA    WORD      y
      00000B6BH   SYMBOL    EDATA    BYTE      dat
      00000B6CH   SYMBOL    EDATA    ---       a
      00000B6FH   SYMBOL    EDATA    BYTE      i
      000009A3H   SYMBOL    EDATA    WORD      x
      000009A5H   SYMBOL    EDATA    WORD      y
      000009A7H   SYMBOL    EDATA    INT       dat
      000009A9H   SYMBOL    EDATA    ---       a
      000009AEH   SYMBOL    EDATA    BYTE      i
      000009AFH   SYMBOL    EDATA    WORD      x
      000009B1H   SYMBOL    EDATA    WORD      y
      000009B3H   SYMBOL    EDATA    WORD      dat
      000009B5H   SYMBOL    EDATA    ---       a
      000009BAH   SYMBOL    EDATA    BYTE      i
      00000666H   SYMBOL    EDATA    WORD      x
      00000668H   SYMBOL    EDATA    WORD      y
      0000066AH   SYMBOL    EDATA    LONG      dat
      0000066EH   SYMBOL    EDATA    BYTE      num
      0000066FH   SYMBOL    EDATA    ---       buff
      00000691H   SYMBOL    EDATA    BYTE      length
      000004EBH   SYMBOL    EDATA    WORD      x
      000004EDH   SYMBOL    EDATA    WORD      y
      000004EFH   SYMBOL    EDATA    FLOAT     dat
      000004F3H   SYMBOL    EDATA    BYTE      num
      000004F4H   SYMBOL    EDATA    BYTE      pointnum
      000004F5H   SYMBOL    EDATA    BYTE      length
      000004F6H   SYMBOL    EDATA    ---       buff
      00000518H   SYMBOL    EDATA    CHAR      start
      00000519H   SYMBOL    EDATA    CHAR      end
      0000051AH   SYMBOL    EDATA    CHAR      point
      000009BBH   SYMBOL    EDATA    ---       p
      000009BFH   SYMBOL    EDATA    INT       i
      000009C1H   SYMBOL    EDATA    INT       j
      000009C3H   SYMBOL    EDATA    INT       k
      000009C5H   SYMBOL    EDATA    BYTE      picH
      000009C6H   SYMBOL    EDATA    BYTE      picL
L251 LINKER/LOCATER V4.66.93.0                                                        05/11/2024  21:00:46  PAGE 61



      ---         MODULE    ---      ---       SEEKFREE_ABSOLUTE_ENCODER
      000000D0H   SFRSYM    DATA     BYTE      PSW
      0000009DH   SFRSYM    DATA     BYTE      IRCBAND
      00000097H   SFRSYM    DATA     BYTE      AUXR2
      000000EFH   SFRSYM    DATA     BYTE      AUXINTIF
      000000FDH   SFRSYM    DATA     BYTE      S4CON
      000000ACH   SFRSYM    DATA     BYTE      S3CON
      0000009AH   SFRSYM    DATA     BYTE      S2CON
      000000B7H   SFRSYM    DATA     BYTE      IPH
      000000CDH   SFRSYM    DATA     BYTE      SPSTAT
      000000DDH   SFRSYM    DATA     BYTE      T4T3M
      000000C1H   SFRSYM    DATA     BYTE      WDT_CONTR
      000000DFH   SFRSYM    DATA     BYTE      IP3
      000000F4H   SFRSYM    DATA     BYTE      USBCON
      000000B5H   SFRSYM    DATA     BYTE      IP2
      000000FFH   SFRSYM    DATA     BYTE      RSTCFG
      000000C7H   SFRSYM    DATA     BYTE      IAP_CONTR
      000000F9H   SFRSYM    DATA     BYTE      LINICR
      0000008EH   SFRSYM    DATA     BYTE      AUXR
      000000AFH   SFRSYM    DATA     BYTE      IE2
      000000A0H.7 SFRSYM    DATA     BIT       P27
      000000A0H.6 SFRSYM    DATA     BIT       P26
      000000A0H.5 SFRSYM    DATA     BIT       P25
      000000A0H.4 SFRSYM    DATA     BIT       P24
      00000088H   SFRSYM    DATA     BYTE      TCON
      00000089H   SFRSYM    DATA     BYTE      TMOD
      00000098H   SFRSYM    DATA     BYTE      SCON
      000000A0H.2 SFRSYM    DATA     BIT       P22
      000000F1H   SFRSYM    DATA     BYTE      CANICR
      00000087H   SFRSYM    DATA     BYTE      PCON
      000000BCH   SFRSYM    DATA     BYTE      ADC_CONTR
      000000E7H   SFRSYM    DATA     BYTE      CMPCR2
      000000E6H   SFRSYM    DATA     BYTE      CMPCR1
      000000DEH   SFRSYM    DATA     BYTE      ADCCFG
      000000B8H   SFRSYM    DATA     BYTE      IP
      0000008FH   SFRSYM    DATA     BYTE      INTCLKO
      000000EEH   SFRSYM    DATA     BYTE      IP3H
      000000B6H   SFRSYM    DATA     BYTE      IP2H
      000000A8H   SFRSYM    DATA     BYTE      IE
      000000BBH   SFRSYM    DATA     BYTE      P_SW3
      000000BAH   SFRSYM    DATA     BYTE      P_SW2
      000000A2H   SFRSYM    DATA     BYTE      P_SW1
      000000CEH   SFRSYM    DATA     BYTE      SPCTL
      000000F8H   SFRSYM    DATA     BYTE      P7
      000000E8H   SFRSYM    DATA     BYTE      P6
      000000C8H   SFRSYM    DATA     BYTE      P5
      000000C0H   SFRSYM    DATA     BYTE      P4
      000000B0H   SFRSYM    DATA     BYTE      P3
      000000A0H   SFRSYM    DATA     BYTE      P2
      00000090H   SFRSYM    DATA     BYTE      P1
      00000080H   SFRSYM    DATA     BYTE      P0
      00000E73H   SYMBOL    EDATA    WORD      x
      00000E75H   SYMBOL    EDATA    BYTE      byte
      00000E76H   SYMBOL    EDATA    BYTE      i
      00000E77H   SYMBOL    EDATA    BYTE      cmd
      00000E78H   SYMBOL    EDATA    BYTE      val
      00000D6EH   SYMBOL    EDATA    BYTE      cmd
      00000D6FH   SYMBOL    EDATA    ---       val
      00000E22H   SYMBOL    EDATA    BYTE      cmd
      00000E23H   SYMBOL    EDATA    BYTE      val
      00000E24H   SYMBOL    EDATA    BYTE      dat
      00000D73H   SYMBOL    EDATA    BYTE      cmd
      00000D74H   SYMBOL    EDATA    ---       val
      00000E79H   SYMBOL    EDATA    WORD      zero_position
L251 LINKER/LOCATER V4.66.93.0                                                        05/11/2024  21:00:46  PAGE 62


      00000E7BH   SYMBOL    EDATA    WORD      angle
      00000ECFH   SYMBOL    EDATA    BYTE      val
      00000ED0H   SYMBOL    EDATA    BYTE      byte
      00000E7DH   SYMBOL    EDATA    BYTE      cmd
      00000E7EH   SYMBOL    EDATA    BYTE      val
      00000D78H   SYMBOL    EDATA    BYTE      cmd
      00000D79H   SYMBOL    EDATA    ---       val
      00000E25H   SYMBOL    EDATA    BYTE      cmd
      00000E26H   SYMBOL    EDATA    BYTE      val
      00000E27H   SYMBOL    EDATA    BYTE      dat
      00000D7DH   SYMBOL    EDATA    BYTE      cmd
      00000D7EH   SYMBOL    EDATA    ---       val
      00000E7FH   SYMBOL    EDATA    WORD      zero_position
      00000E81H   SYMBOL    EDATA    WORD      angle
      00000ED1H   SYMBOL    EDATA    BYTE      val

      ---         MODULE    ---      ---       SEEKFREE_BLUETOOTH_CH9141
      00FF0066H   PUBLIC    CODE     ---       bluetooth_ch9141_uart_callback
      000000D0H   SFRSYM    DATA     BYTE      PSW
      0000009DH   SFRSYM    DATA     BYTE      IRCBAND
      00000097H   SFRSYM    DATA     BYTE      AUXR2
      000000EFH   SFRSYM    DATA     BYTE      AUXINTIF
      000000FDH   SFRSYM    DATA     BYTE      S4CON
      000000ACH   SFRSYM    DATA     BYTE      S3CON
      0000009AH   SFRSYM    DATA     BYTE      S2CON
      000000FEH   SFRSYM    DATA     BYTE      S4BUF
      000000B7H   SFRSYM    DATA     BYTE      IPH
      000000CDH   SFRSYM    DATA     BYTE      SPSTAT
      000000DDH   SFRSYM    DATA     BYTE      T4T3M
      000000C1H   SFRSYM    DATA     BYTE      WDT_CONTR
      000000DFH   SFRSYM    DATA     BYTE      IP3
      000000F4H   SFRSYM    DATA     BYTE      USBCON
      000000B5H   SFRSYM    DATA     BYTE      IP2
      000000FFH   SFRSYM    DATA     BYTE      RSTCFG
      000000C7H   SFRSYM    DATA     BYTE      IAP_CONTR
      000000F9H   SFRSYM    DATA     BYTE      LINICR
      0000008EH   SFRSYM    DATA     BYTE      AUXR
      000000AFH   SFRSYM    DATA     BYTE      IE2
      00000080H.7 SFRSYM    DATA     BIT       P07
      00000088H   SFRSYM    DATA     BYTE      TCON
      00000089H   SFRSYM    DATA     BYTE      TMOD
      00000098H   SFRSYM    DATA     BYTE      SCON
      000000F1H   SFRSYM    DATA     BYTE      CANICR
      00000087H   SFRSYM    DATA     BYTE      PCON
      000000BCH   SFRSYM    DATA     BYTE      ADC_CONTR
      000000E7H   SFRSYM    DATA     BYTE      CMPCR2
      000000E6H   SFRSYM    DATA     BYTE      CMPCR1
      000000DEH   SFRSYM    DATA     BYTE      ADCCFG
      000000B8H   SFRSYM    DATA     BYTE      IP
      0000008FH   SFRSYM    DATA     BYTE      INTCLKO
      000000EEH   SFRSYM    DATA     BYTE      IP3H
      000000B6H   SFRSYM    DATA     BYTE      IP2H
      000000A8H   SFRSYM    DATA     BYTE      IE
      000000BBH   SFRSYM    DATA     BYTE      P_SW3
      000000BAH   SFRSYM    DATA     BYTE      P_SW2
      000000A2H   SFRSYM    DATA     BYTE      P_SW1
      000000CEH   SFRSYM    DATA     BYTE      SPCTL
      000000F8H   SFRSYM    DATA     BYTE      P7
      000000E8H   SFRSYM    DATA     BYTE      P6
      000000C8H   SFRSYM    DATA     BYTE      P5
      000000C0H   SFRSYM    DATA     BYTE      P4
      000000B0H   SFRSYM    DATA     BYTE      P3
      000000A0H   SFRSYM    DATA     BYTE      P2
      00000090H   SFRSYM    DATA     BYTE      P1
      00000080H   SFRSYM    DATA     BYTE      P0
L251 LINKER/LOCATER V4.66.93.0                                                        05/11/2024  21:00:46  PAGE 63


      00000411H   SYMBOL    EDATA    ---       bluetooth_ch9141_buffer
      00000451H   SYMBOL    EDATA    BYTE      bluetooth_ch9141_data
      00000452H   SYMBOL    EDATA    ---       bluetooth_ch9141_fifo

      00FF0066H   BLOCK     CODE     ---       LVL=0
      00FF0066H   LINE      CODE     ---       #67
      00FF0066H   LINE      CODE     ---       #70
      00FF006CH   LINE      CODE     ---       #71
      00FF007FH   LINE      CODE     ---       #72
      ---         BLOCKEND  ---      ---       LVL=0
      00000AF2H   SYMBOL    EDATA    ---       buff
      00000AF6H   SYMBOL    EDATA    DWORD     len
      00000AFAH   SYMBOL    EDATA    WORD      time_count
      000009C7H   SYMBOL    EDATA    ---       buff
      000009CBH   SYMBOL    EDATA    DWORD     len
      000009CFH   SYMBOL    EDATA    DWORD     data_len

      ---         MODULE    ---      ---       SEEKFREE_DL1A
      00000E28H   PUBLIC    EDATA    WORD      dl1a_distance_mm
      00000E2AH   PUBLIC    EDATA    BYTE      dl1a_finsh_flag
      000000D0H   SFRSYM    DATA     BYTE      PSW
      0000009DH   SFRSYM    DATA     BYTE      IRCBAND
      00000097H   SFRSYM    DATA     BYTE      AUXR2
      000000EFH   SFRSYM    DATA     BYTE      AUXINTIF
      000000FDH   SFRSYM    DATA     BYTE      S4CON
      000000ACH   SFRSYM    DATA     BYTE      S3CON
      0000009AH   SFRSYM    DATA     BYTE      S2CON
      000000B7H   SFRSYM    DATA     BYTE      IPH
      000000CDH   SFRSYM    DATA     BYTE      SPSTAT
      000000DDH   SFRSYM    DATA     BYTE      T4T3M
      000000C1H   SFRSYM    DATA     BYTE      WDT_CONTR
      000000DFH   SFRSYM    DATA     BYTE      IP3
      000000F4H   SFRSYM    DATA     BYTE      USBCON
      000000B5H   SFRSYM    DATA     BYTE      IP2
      000000FFH   SFRSYM    DATA     BYTE      RSTCFG
      000000C7H   SFRSYM    DATA     BYTE      IAP_CONTR
      000000F9H   SFRSYM    DATA     BYTE      LINICR
      0000008EH   SFRSYM    DATA     BYTE      AUXR
      000000AFH   SFRSYM    DATA     BYTE      IE2
      00000090H.5 SFRSYM    DATA     BIT       P15
      000000A0H.4 SFRSYM    DATA     BIT       P24
      000000B0H.3 SFRSYM    DATA     BIT       P33
      00000088H   SFRSYM    DATA     BYTE      TCON
      00000089H   SFRSYM    DATA     BYTE      TMOD
      00000098H   SFRSYM    DATA     BYTE      SCON
      000000F1H   SFRSYM    DATA     BYTE      CANICR
      00000087H   SFRSYM    DATA     BYTE      PCON
      000000BCH   SFRSYM    DATA     BYTE      ADC_CONTR
      000000E7H   SFRSYM    DATA     BYTE      CMPCR2
      000000E6H   SFRSYM    DATA     BYTE      CMPCR1
      000000DEH   SFRSYM    DATA     BYTE      ADCCFG
      000000B8H   SFRSYM    DATA     BYTE      IP
      0000008FH   SFRSYM    DATA     BYTE      INTCLKO
      000000EEH   SFRSYM    DATA     BYTE      IP3H
      000000B6H   SFRSYM    DATA     BYTE      IP2H
      000000A8H   SFRSYM    DATA     BYTE      IE
      000000BBH   SFRSYM    DATA     BYTE      P_SW3
      000000BAH   SFRSYM    DATA     BYTE      P_SW2
      000000A2H   SFRSYM    DATA     BYTE      P_SW1
      000000CEH   SFRSYM    DATA     BYTE      SPCTL
      000000F8H   SFRSYM    DATA     BYTE      P7
      000000E8H   SFRSYM    DATA     BYTE      P6
      000000C8H   SFRSYM    DATA     BYTE      P5
      000000C0H   SFRSYM    DATA     BYTE      P4
      000000B0H   SFRSYM    DATA     BYTE      P3
L251 LINKER/LOCATER V4.66.93.0                                                        05/11/2024  21:00:46  PAGE 64


      000000A0H   SFRSYM    DATA     BYTE      P2
      00000090H   SFRSYM    DATA     BYTE      P1
      00000080H   SFRSYM    DATA     BYTE      P0
      00000E83H   SYMBOL    EDATA    WORD      j
      00000ED2H   SYMBOL    EDATA    BYTE      ack_dat
      00000E85H   SYMBOL    EDATA    BYTE      c
      00000E86H   SYMBOL    EDATA    BYTE      i
      00000E2BH   SYMBOL    EDATA    BYTE      ack_x
      00000E2CH   SYMBOL    EDATA    BYTE      i
      00000E2DH   SYMBOL    EDATA    BYTE      c
      00000B70H   SYMBOL    EDATA    BYTE      dev_add
      00000B71H   SYMBOL    EDATA    ---       dat
      00000B75H   SYMBOL    EDATA    DWORD     len
      00000E2EH   SYMBOL    EDATA    BYTE      dev_add
      00000E2FH   SYMBOL    EDATA    BYTE      reg
      00000E30H   SYMBOL    EDATA    BYTE      dat
      00000E31H   SYMBOL    EDATA    BYTE      dev_add
      00000E32H   SYMBOL    EDATA    BYTE      reg
      00000E33H   SYMBOL    EDATA    BYTE      dat
      00000AFCH   SYMBOL    EDATA    BYTE      dev_add
      00000AFDH   SYMBOL    EDATA    BYTE      reg
      00000AFEH   SYMBOL    EDATA    ---       dat_add
      00000B02H   SYMBOL    EDATA    DWORD     num
      00000B06H   SYMBOL    EDATA    BYTE      dev_add
      00000B07H   SYMBOL    EDATA    BYTE      reg
      00000B08H   SYMBOL    EDATA    ---       dat_add
      00000B0CH   SYMBOL    EDATA    DWORD     num
      000009D3H   SYMBOL    EDATA    ---       index
      000009D7H   SYMBOL    EDATA    ---       type_is_aperture
      000009DBH   SYMBOL    EDATA    BYTE      tmp
      000009DCH   SYMBOL    EDATA    BYTE      return_state
      000009DDH   SYMBOL    EDATA    WORD      loop_count
      00000C8DH   SYMBOL    EDATA    WORD      timeout_period_mclks
      00000C8FH   SYMBOL    EDATA    BYTE      vcsel_period_pclks
      00000C90H   SYMBOL    EDATA    DWORD     macro_period_ns
      00000B79H   SYMBOL    EDATA    DWORD     timeout_period_us
      00000B7DH   SYMBOL    EDATA    BYTE      vcsel_period_pclks
      00000B7EH   SYMBOL    EDATA    DWORD     macro_period_ns
      00000E87H   SYMBOL    EDATA    WORD      reg_val
      00000B10H   SYMBOL    EDATA    WORD      timeout_mclks
      00000B12H   SYMBOL    EDATA    DWORD     ls_byte
      00000B16H   SYMBOL    EDATA    WORD      ms_byte
      00000B18H   SYMBOL    EDATA    WORD      return_data
      00000D82H   SYMBOL    EDATA    ---       enables
      00000D86H   SYMBOL    EDATA    BYTE      sequence_config
      00000E34H   SYMBOL    EDATA    INT       type
      00000E36H   SYMBOL    EDATA    BYTE      data_buffer
      000009DFH   SYMBOL    EDATA    ---       enables
      000009E3H   SYMBOL    EDATA    ---       timeouts
      000009E7H   SYMBOL    EDATA    ---       reg_buffer
      000009E9H   SYMBOL    EDATA    WORD      reg16_buffer
      00000D87H   SYMBOL    EDATA    BYTE      vhv_init_byte
      00000D88H   SYMBOL    EDATA    BYTE      return_state
      00000D89H   SYMBOL    EDATA    BYTE      data_buffer
      00000D8AH   SYMBOL    EDATA    WORD      loop_count
      0000060BH   SYMBOL    EDATA    DWORD     budget_us
      0000060FH   SYMBOL    EDATA    BYTE      return_state
      00000610H   SYMBOL    EDATA    ---       data_buffer
      00000613H   SYMBOL    EDATA    WORD      dat
      00000615H   SYMBOL    EDATA    DWORD     used_budget_us
      00000619H   SYMBOL    EDATA    DWORD     final_range_timeout_us
      0000061DH   SYMBOL    EDATA    WORD      final_range_timeout_mclks
      0000061FH   SYMBOL    EDATA    ---       enables
      00000624H   SYMBOL    EDATA    ---       timeouts
      000007BEH   SYMBOL    EDATA    ---       enables
L251 LINKER/LOCATER V4.66.93.0                                                        05/11/2024  21:00:46  PAGE 65


      000007C3H   SYMBOL    EDATA    ---       timeouts
      000007D9H   SYMBOL    EDATA    DWORD     budget_us
      00000B82H   SYMBOL    EDATA    FLOAT     limit_mcps
      00000B86H   SYMBOL    EDATA    ---       data_buffer
      00000B89H   SYMBOL    EDATA    WORD      limit_mcps_16bit
      00000E37H   SYMBOL    EDATA    ---       reg_databuffer
      00000841H   SYMBOL    EDATA    DWORD     measurement_timing_budget_us
      00000845H   SYMBOL    EDATA    BYTE      stop_variable
      00000846H   SYMBOL    EDATA    BYTE      return_state
      00000847H   SYMBOL    EDATA    BYTE      reg_data_buffer
      00000848H   SYMBOL    EDATA    ---       ref_spad_map
      0000084EH   SYMBOL    EDATA    ---       data_buffer
      00000855H   SYMBOL    EDATA    BYTE      i

      ---         MODULE    ---      ---       SEEKFREE_FONT
      00FF212DH   PUBLIC    CODE     ---       oled_8x16
      00FF271DH   PUBLIC    CODE     ---       tft_ascii
      00FF2D0DH   PUBLIC    CODE     ---       oled_6x8
      000000D0H   SFRSYM    DATA     BYTE      PSW
      0000009DH   SFRSYM    DATA     BYTE      IRCBAND
      00000097H   SFRSYM    DATA     BYTE      AUXR2
      000000EFH   SFRSYM    DATA     BYTE      AUXINTIF
      000000FDH   SFRSYM    DATA     BYTE      S4CON
      000000ACH   SFRSYM    DATA     BYTE      S3CON
      0000009AH   SFRSYM    DATA     BYTE      S2CON
      000000B7H   SFRSYM    DATA     BYTE      IPH
      000000CDH   SFRSYM    DATA     BYTE      SPSTAT
      000000DDH   SFRSYM    DATA     BYTE      T4T3M
      000000C1H   SFRSYM    DATA     BYTE      WDT_CONTR
      000000DFH   SFRSYM    DATA     BYTE      IP3
      000000F4H   SFRSYM    DATA     BYTE      USBCON
      000000B5H   SFRSYM    DATA     BYTE      IP2
      000000FFH   SFRSYM    DATA     BYTE      RSTCFG
      000000C7H   SFRSYM    DATA     BYTE      IAP_CONTR
      000000F9H   SFRSYM    DATA     BYTE      LINICR
      0000008EH   SFRSYM    DATA     BYTE      AUXR
      000000AFH   SFRSYM    DATA     BYTE      IE2
      00000088H   SFRSYM    DATA     BYTE      TCON
      00000089H   SFRSYM    DATA     BYTE      TMOD
      00000098H   SFRSYM    DATA     BYTE      SCON
      000000F1H   SFRSYM    DATA     BYTE      CANICR
      00000087H   SFRSYM    DATA     BYTE      PCON
      000000BCH   SFRSYM    DATA     BYTE      ADC_CONTR
      000000E7H   SFRSYM    DATA     BYTE      CMPCR2
      000000E6H   SFRSYM    DATA     BYTE      CMPCR1
      000000DEH   SFRSYM    DATA     BYTE      ADCCFG
      000000B8H   SFRSYM    DATA     BYTE      IP
      0000008FH   SFRSYM    DATA     BYTE      INTCLKO
      000000EEH   SFRSYM    DATA     BYTE      IP3H
      000000B6H   SFRSYM    DATA     BYTE      IP2H
      000000A8H   SFRSYM    DATA     BYTE      IE
      000000BBH   SFRSYM    DATA     BYTE      P_SW3
      000000BAH   SFRSYM    DATA     BYTE      P_SW2
      000000A2H   SFRSYM    DATA     BYTE      P_SW1
      000000CEH   SFRSYM    DATA     BYTE      SPCTL
      000000F8H   SFRSYM    DATA     BYTE      P7
      000000E8H   SFRSYM    DATA     BYTE      P6
      000000C8H   SFRSYM    DATA     BYTE      P5
      000000C0H   SFRSYM    DATA     BYTE      P4
      000000B0H   SFRSYM    DATA     BYTE      P3
      000000A0H   SFRSYM    DATA     BYTE      P2
      00000090H   SFRSYM    DATA     BYTE      P1
      00000080H   SFRSYM    DATA     BYTE      P0

      ---         MODULE    ---      ---       SEEKFREE_ICM20602
L251 LINKER/LOCATER V4.66.93.0                                                        05/11/2024  21:00:46  PAGE 66


      000009EBH   PUBLIC    EDATA    INT       icm20602_acc_x
      000009EDH   PUBLIC    EDATA    INT       icm20602_acc_y
      000009EFH   PUBLIC    EDATA    INT       icm20602_acc_z
      000009F1H   PUBLIC    EDATA    INT       icm20602_gyro_x
      000009F3H   PUBLIC    EDATA    INT       icm20602_gyro_y
      000009F5H   PUBLIC    EDATA    INT       icm20602_gyro_z
      000000D0H   SFRSYM    DATA     BYTE      PSW
      0000009DH   SFRSYM    DATA     BYTE      IRCBAND
      00000097H   SFRSYM    DATA     BYTE      AUXR2
      000000EFH   SFRSYM    DATA     BYTE      AUXINTIF
      000000FDH   SFRSYM    DATA     BYTE      S4CON
      000000ACH   SFRSYM    DATA     BYTE      S3CON
      0000009AH   SFRSYM    DATA     BYTE      S2CON
      000000B7H   SFRSYM    DATA     BYTE      IPH
      000000CDH   SFRSYM    DATA     BYTE      SPSTAT
      000000DDH   SFRSYM    DATA     BYTE      T4T3M
      000000C1H   SFRSYM    DATA     BYTE      WDT_CONTR
      000000DFH   SFRSYM    DATA     BYTE      IP3
      000000F4H   SFRSYM    DATA     BYTE      USBCON
      000000B5H   SFRSYM    DATA     BYTE      IP2
      000000FFH   SFRSYM    DATA     BYTE      RSTCFG
      000000C7H   SFRSYM    DATA     BYTE      IAP_CONTR
      000000F9H   SFRSYM    DATA     BYTE      LINICR
      0000008EH   SFRSYM    DATA     BYTE      AUXR
      000000AFH   SFRSYM    DATA     BYTE      IE2
      000000C0H.3 SFRSYM    DATA     BIT       P43
      000000C0H.2 SFRSYM    DATA     BIT       P42
      00000088H   SFRSYM    DATA     BYTE      TCON
      00000089H   SFRSYM    DATA     BYTE      TMOD
      000000C0H.1 SFRSYM    DATA     BIT       P41
      00000098H   SFRSYM    DATA     BYTE      SCON
      000000C0H.0 SFRSYM    DATA     BIT       P40
      000000F1H   SFRSYM    DATA     BYTE      CANICR
      00000087H   SFRSYM    DATA     BYTE      PCON
      000000BCH   SFRSYM    DATA     BYTE      ADC_CONTR
      000000E7H   SFRSYM    DATA     BYTE      CMPCR2
      000000E6H   SFRSYM    DATA     BYTE      CMPCR1
      000000DEH   SFRSYM    DATA     BYTE      ADCCFG
      000000B8H   SFRSYM    DATA     BYTE      IP
      0000008FH   SFRSYM    DATA     BYTE      INTCLKO
      000000EEH   SFRSYM    DATA     BYTE      IP3H
      000000B6H   SFRSYM    DATA     BYTE      IP2H
      000000A8H   SFRSYM    DATA     BYTE      IE
      000000BBH   SFRSYM    DATA     BYTE      P_SW3
      000000BAH   SFRSYM    DATA     BYTE      P_SW2
      000000A2H   SFRSYM    DATA     BYTE      P_SW1
      000000CEH   SFRSYM    DATA     BYTE      SPCTL
      000000F8H   SFRSYM    DATA     BYTE      P7
      000000E8H   SFRSYM    DATA     BYTE      P6
      000000C8H   SFRSYM    DATA     BYTE      P5
      000000C0H   SFRSYM    DATA     BYTE      P4
      000000B0H   SFRSYM    DATA     BYTE      P3
      000000A0H   SFRSYM    DATA     BYTE      P2
      00000090H   SFRSYM    DATA     BYTE      P1
      00000080H   SFRSYM    DATA     BYTE      P0
      00000E89H   SYMBOL    EDATA    BYTE      byte
      00000E8AH   SYMBOL    EDATA    BYTE      i
      00000E8BH   SYMBOL    EDATA    BYTE      cmd
      00000E8CH   SYMBOL    EDATA    BYTE      val
      00000D8CH   SYMBOL    EDATA    BYTE      cmd
      00000D8DH   SYMBOL    EDATA    ---       val
      00000965H   SYMBOL    EDATA    BYTE      cmd
      00000966H   SYMBOL    EDATA    ---       val
      0000096AH   SYMBOL    EDATA    DWORD     num
      0000096EH   SYMBOL    EDATA    DWORD     i
L251 LINKER/LOCATER V4.66.93.0                                                        05/11/2024  21:00:46  PAGE 67


      00000E8DH   SYMBOL    EDATA    BYTE      reg
      00000E8EH   SYMBOL    EDATA    BYTE      dat
      00000E8FH   SYMBOL    EDATA    BYTE      reg
      00000E90H   SYMBOL    EDATA    BYTE      dat
      00000B8BH   SYMBOL    EDATA    BYTE      reg
      00000B8CH   SYMBOL    EDATA    ---       dat
      00000B90H   SYMBOL    EDATA    DWORD     len
      00000DE0H   SYMBOL    EDATA    BYTE      dat
      00000DE1H   SYMBOL    EDATA    BYTE      return_state
      00000DE2H   SYMBOL    EDATA    WORD      timeout_count
      00000CD9H   SYMBOL    EDATA    ---       dat
      00000CDFH   SYMBOL    EDATA    ---       dat
      00000CE5H   SYMBOL    EDATA    INT       acc_value
      00000CE7H   SYMBOL    EDATA    FLOAT     acc_data
      00000CEBH   SYMBOL    EDATA    INT       gyro_value
      00000CEDH   SYMBOL    EDATA    FLOAT     gyro_data
      00000DE4H   SYMBOL    EDATA    BYTE      val
      00000DE5H   SYMBOL    EDATA    BYTE      return_state
      00000DE6H   SYMBOL    EDATA    WORD      timeout_count

      ---         MODULE    ---      ---       SEEKFREE_IMU660RA
      000009F7H   PUBLIC    EDATA    INT       imu660ra_acc_x
      000009F9H   PUBLIC    EDATA    INT       imu660ra_acc_y
      000009FBH   PUBLIC    EDATA    INT       imu660ra_acc_z
      000009FDH   PUBLIC    EDATA    INT       imu660ra_gyro_x
      000009FFH   PUBLIC    EDATA    INT       imu660ra_gyro_y
      00000A01H   PUBLIC    EDATA    INT       imu660ra_gyro_z
      000000D0H   SFRSYM    DATA     BYTE      PSW
      0000009DH   SFRSYM    DATA     BYTE      IRCBAND
      00000097H   SFRSYM    DATA     BYTE      AUXR2
      000000EFH   SFRSYM    DATA     BYTE      AUXINTIF
      000000FDH   SFRSYM    DATA     BYTE      S4CON
      000000ACH   SFRSYM    DATA     BYTE      S3CON
      0000009AH   SFRSYM    DATA     BYTE      S2CON
      000000B7H   SFRSYM    DATA     BYTE      IPH
      000000CDH   SFRSYM    DATA     BYTE      SPSTAT
      000000DDH   SFRSYM    DATA     BYTE      T4T3M
      000000C1H   SFRSYM    DATA     BYTE      WDT_CONTR
      000000DFH   SFRSYM    DATA     BYTE      IP3
      000000F4H   SFRSYM    DATA     BYTE      USBCON
      000000B5H   SFRSYM    DATA     BYTE      IP2
      000000FFH   SFRSYM    DATA     BYTE      RSTCFG
      000000C7H   SFRSYM    DATA     BYTE      IAP_CONTR
      000000F9H   SFRSYM    DATA     BYTE      LINICR
      0000008EH   SFRSYM    DATA     BYTE      AUXR
      000000AFH   SFRSYM    DATA     BYTE      IE2
      00000088H   SFRSYM    DATA     BYTE      TCON
      00000089H   SFRSYM    DATA     BYTE      TMOD
      000000C0H.1 SFRSYM    DATA     BIT       P41
      00000098H   SFRSYM    DATA     BYTE      SCON
      000000C0H.0 SFRSYM    DATA     BIT       P40
      000000F1H   SFRSYM    DATA     BYTE      CANICR
      00000087H   SFRSYM    DATA     BYTE      PCON
      000000BCH   SFRSYM    DATA     BYTE      ADC_CONTR
      000000E7H   SFRSYM    DATA     BYTE      CMPCR2
      000000E6H   SFRSYM    DATA     BYTE      CMPCR1
      000000DEH   SFRSYM    DATA     BYTE      ADCCFG
      000000B8H   SFRSYM    DATA     BYTE      IP
      0000008FH   SFRSYM    DATA     BYTE      INTCLKO
      000000EEH   SFRSYM    DATA     BYTE      IP3H
      000000B6H   SFRSYM    DATA     BYTE      IP2H
      000000A8H   SFRSYM    DATA     BYTE      IE
      000000BBH   SFRSYM    DATA     BYTE      P_SW3
      000000BAH   SFRSYM    DATA     BYTE      P_SW2
      000000A2H   SFRSYM    DATA     BYTE      P_SW1
L251 LINKER/LOCATER V4.66.93.0                                                        05/11/2024  21:00:46  PAGE 68


      000000CEH   SFRSYM    DATA     BYTE      SPCTL
      000000F8H   SFRSYM    DATA     BYTE      P7
      000000E8H   SFRSYM    DATA     BYTE      P6
      000000C8H   SFRSYM    DATA     BYTE      P5
      000000C0H   SFRSYM    DATA     BYTE      P4
      000000B0H   SFRSYM    DATA     BYTE      P3
      000000A0H   SFRSYM    DATA     BYTE      P2
      00000090H   SFRSYM    DATA     BYTE      P1
      00000080H   SFRSYM    DATA     BYTE      P0
      00000E91H   SYMBOL    EDATA    WORD      j
      00000ED3H   SYMBOL    EDATA    BYTE      ack_dat
      00000E93H   SYMBOL    EDATA    BYTE      c
      00000E94H   SYMBOL    EDATA    BYTE      i
      00000E3AH   SYMBOL    EDATA    BYTE      ack_x
      00000E3BH   SYMBOL    EDATA    BYTE      i
      00000E3CH   SYMBOL    EDATA    BYTE      c
      00000E3DH   SYMBOL    EDATA    BYTE      dev_add
      00000E3EH   SYMBOL    EDATA    BYTE      reg
      00000E3FH   SYMBOL    EDATA    BYTE      dat
      00000A03H   SYMBOL    EDATA    BYTE      dev_add
      00000A04H   SYMBOL    EDATA    BYTE      reg
      00000A05H   SYMBOL    EDATA    ---       dat
      00000A09H   SYMBOL    EDATA    DWORD     len
      00000A0DH   SYMBOL    EDATA    WORD      i
      00000E40H   SYMBOL    EDATA    BYTE      dev_add
      00000E41H   SYMBOL    EDATA    BYTE      reg
      00000E42H   SYMBOL    EDATA    BYTE      dat
      00000B1AH   SYMBOL    EDATA    BYTE      dev_add
      00000B1BH   SYMBOL    EDATA    BYTE      reg
      00000B1CH   SYMBOL    EDATA    ---       dat_add
      00000B20H   SYMBOL    EDATA    DWORD     num
      00000DE8H   SYMBOL    EDATA    BYTE      dat
      00000DE9H   SYMBOL    EDATA    BYTE      return_state
      00000DEAH   SYMBOL    EDATA    WORD      timeout_count
      00000CF1H   SYMBOL    EDATA    ---       dat
      00000CF7H   SYMBOL    EDATA    ---       dat
      00000CFDH   SYMBOL    EDATA    INT       acc_value
      00000CFFH   SYMBOL    EDATA    FLOAT     acc_dat
      00000D03H   SYMBOL    EDATA    INT       gyro_value
      00000D05H   SYMBOL    EDATA    FLOAT     gyro_dat
      00000ED4H   SYMBOL    EDATA    BYTE      return_state

      ---         MODULE    ---      ---       SEEKFREE_IMU963RA
      000008B9H   PUBLIC    EDATA    INT       imu963ra_acc_x
      000008BBH   PUBLIC    EDATA    INT       imu963ra_acc_y
      000008BDH   PUBLIC    EDATA    INT       imu963ra_acc_z
      000008BFH   PUBLIC    EDATA    INT       imu963ra_mag_x
      000008C1H   PUBLIC    EDATA    INT       imu963ra_mag_y
      000008C3H   PUBLIC    EDATA    INT       imu963ra_mag_z
      000008C5H   PUBLIC    EDATA    INT       imu963ra_gyro_x
      000008C7H   PUBLIC    EDATA    INT       imu963ra_gyro_y
      000008C9H   PUBLIC    EDATA    INT       imu963ra_gyro_z
      000000D0H   SFRSYM    DATA     BYTE      PSW
      0000009DH   SFRSYM    DATA     BYTE      IRCBAND
      00000097H   SFRSYM    DATA     BYTE      AUXR2
      000000EFH   SFRSYM    DATA     BYTE      AUXINTIF
      000000FDH   SFRSYM    DATA     BYTE      S4CON
      000000ACH   SFRSYM    DATA     BYTE      S3CON
      0000009AH   SFRSYM    DATA     BYTE      S2CON
      000000B7H   SFRSYM    DATA     BYTE      IPH
      000000CDH   SFRSYM    DATA     BYTE      SPSTAT
      000000DDH   SFRSYM    DATA     BYTE      T4T3M
      000000C1H   SFRSYM    DATA     BYTE      WDT_CONTR
      000000DFH   SFRSYM    DATA     BYTE      IP3
      000000F4H   SFRSYM    DATA     BYTE      USBCON
L251 LINKER/LOCATER V4.66.93.0                                                        05/11/2024  21:00:46  PAGE 69


      000000B5H   SFRSYM    DATA     BYTE      IP2
      000000FFH   SFRSYM    DATA     BYTE      RSTCFG
      000000C7H   SFRSYM    DATA     BYTE      IAP_CONTR
      000000F9H   SFRSYM    DATA     BYTE      LINICR
      0000008EH   SFRSYM    DATA     BYTE      AUXR
      000000AFH   SFRSYM    DATA     BYTE      IE2
      000000C0H.3 SFRSYM    DATA     BIT       P43
      000000C0H.2 SFRSYM    DATA     BIT       P42
      00000088H   SFRSYM    DATA     BYTE      TCON
      00000089H   SFRSYM    DATA     BYTE      TMOD
      000000C0H.1 SFRSYM    DATA     BIT       P41
      00000098H   SFRSYM    DATA     BYTE      SCON
      000000C0H.0 SFRSYM    DATA     BIT       P40
      000000F1H   SFRSYM    DATA     BYTE      CANICR
      00000087H   SFRSYM    DATA     BYTE      PCON
      000000BCH   SFRSYM    DATA     BYTE      ADC_CONTR
      000000E7H   SFRSYM    DATA     BYTE      CMPCR2
      000000E6H   SFRSYM    DATA     BYTE      CMPCR1
      000000DEH   SFRSYM    DATA     BYTE      ADCCFG
      000000B8H   SFRSYM    DATA     BYTE      IP
      0000008FH   SFRSYM    DATA     BYTE      INTCLKO
      000000EEH   SFRSYM    DATA     BYTE      IP3H
      000000B6H   SFRSYM    DATA     BYTE      IP2H
      000000A8H   SFRSYM    DATA     BYTE      IE
      000000BBH   SFRSYM    DATA     BYTE      P_SW3
      000000BAH   SFRSYM    DATA     BYTE      P_SW2
      000000A2H   SFRSYM    DATA     BYTE      P_SW1
      000000CEH   SFRSYM    DATA     BYTE      SPCTL
      000000F8H   SFRSYM    DATA     BYTE      P7
      000000E8H   SFRSYM    DATA     BYTE      P6
      000000C8H   SFRSYM    DATA     BYTE      P5
      000000C0H   SFRSYM    DATA     BYTE      P4
      000000B0H   SFRSYM    DATA     BYTE      P3
      000000A0H   SFRSYM    DATA     BYTE      P2
      00000090H   SFRSYM    DATA     BYTE      P1
      00000080H   SFRSYM    DATA     BYTE      P0
      00000E95H   SYMBOL    EDATA    BYTE      byte
      00000E96H   SYMBOL    EDATA    BYTE      i
      00000E97H   SYMBOL    EDATA    BYTE      cmd
      00000E98H   SYMBOL    EDATA    BYTE      val
      00000D91H   SYMBOL    EDATA    BYTE      cmd
      00000D92H   SYMBOL    EDATA    ---       val
      00000B94H   SYMBOL    EDATA    BYTE      cmd
      00000B95H   SYMBOL    EDATA    ---       val
      00000B99H   SYMBOL    EDATA    DWORD     num
      00000E99H   SYMBOL    EDATA    BYTE      reg
      00000E9AH   SYMBOL    EDATA    BYTE      dat
      00000E9BH   SYMBOL    EDATA    BYTE      reg
      00000E9CH   SYMBOL    EDATA    BYTE      dat
      00000B9DH   SYMBOL    EDATA    BYTE      reg
      00000B9EH   SYMBOL    EDATA    ---       dat
      00000BA2H   SYMBOL    EDATA    DWORD     len
      00000D09H   SYMBOL    EDATA    BYTE      addr
      00000D0AH   SYMBOL    EDATA    BYTE      reg
      00000D0BH   SYMBOL    EDATA    BYTE      dat
      00000D0CH   SYMBOL    EDATA    BYTE      return_state
      00000D0DH   SYMBOL    EDATA    WORD      timeout_count
      00000DECH   SYMBOL    EDATA    BYTE      addr
      00000DEDH   SYMBOL    EDATA    BYTE      reg
      00000DEEH   SYMBOL    EDATA    WORD      timeout_count
      00000E9DH   SYMBOL    EDATA    BYTE      addr
      00000E9EH   SYMBOL    EDATA    BYTE      reg
      00000DF0H   SYMBOL    EDATA    BYTE      return_state
      00000DF1H   SYMBOL    EDATA    BYTE      dat
      00000DF2H   SYMBOL    EDATA    WORD      timeout_count
L251 LINKER/LOCATER V4.66.93.0                                                        05/11/2024  21:00:46  PAGE 70


      00000DF4H   SYMBOL    EDATA    BYTE      return_state
      00000DF5H   SYMBOL    EDATA    BYTE      dat
      00000DF6H   SYMBOL    EDATA    WORD      timeout_count
      00000D0FH   SYMBOL    EDATA    ---       dat
      00000D15H   SYMBOL    EDATA    ---       dat
      00000C94H   SYMBOL    EDATA    BYTE      temp_status
      00000C95H   SYMBOL    EDATA    ---       dat
      00000D1BH   SYMBOL    EDATA    INT       acc_value
      00000D1DH   SYMBOL    EDATA    FLOAT     acc_dat
      00000D21H   SYMBOL    EDATA    INT       gyro_value
      00000D23H   SYMBOL    EDATA    FLOAT     gyro_dat
      00000D27H   SYMBOL    EDATA    INT       mag_value
      00000D29H   SYMBOL    EDATA    FLOAT     mag_dat
      00000ED5H   SYMBOL    EDATA    BYTE      return_state

      ---         MODULE    ---      ---       SEEKFREE_IPS114_SPI
      0000051BH   PUBLIC    EDATA    BYTE      ?ips114_showfloat_simspi?BYTE
      0000054BH   PUBLIC    EDATA    BYTE      ?ips114_showfloat?BYTE
      000000D0H   SFRSYM    DATA     BYTE      PSW
      0000009DH   SFRSYM    DATA     BYTE      IRCBAND
      00000097H   SFRSYM    DATA     BYTE      AUXR2
      000000EFH   SFRSYM    DATA     BYTE      AUXINTIF
      000000FDH   SFRSYM    DATA     BYTE      S4CON
      000000ACH   SFRSYM    DATA     BYTE      S3CON
      0000009AH   SFRSYM    DATA     BYTE      S2CON
      000000B7H   SFRSYM    DATA     BYTE      IPH
      000000CDH   SFRSYM    DATA     BYTE      SPSTAT
      000000DDH   SFRSYM    DATA     BYTE      T4T3M
      000000C1H   SFRSYM    DATA     BYTE      WDT_CONTR
      000000DFH   SFRSYM    DATA     BYTE      IP3
      000000F4H   SFRSYM    DATA     BYTE      USBCON
      000000B5H   SFRSYM    DATA     BYTE      IP2
      000000FFH   SFRSYM    DATA     BYTE      RSTCFG
      000000C7H   SFRSYM    DATA     BYTE      IAP_CONTR
      000000F9H   SFRSYM    DATA     BYTE      LINICR
      0000008EH   SFRSYM    DATA     BYTE      AUXR
      000000AFH   SFRSYM    DATA     BYTE      IE2
      000000A0H.7 SFRSYM    DATA     BIT       P27
      000000A0H.5 SFRSYM    DATA     BIT       P25
      00000088H   SFRSYM    DATA     BYTE      TCON
      00000089H   SFRSYM    DATA     BYTE      TMOD
      000000A0H.3 SFRSYM    DATA     BIT       P23
      00000098H   SFRSYM    DATA     BYTE      SCON
      000000A0H.2 SFRSYM    DATA     BIT       P22
      000000A0H.1 SFRSYM    DATA     BIT       P21
      000000A0H.0 SFRSYM    DATA     BIT       P20
      000000F1H   SFRSYM    DATA     BYTE      CANICR
      00000087H   SFRSYM    DATA     BYTE      PCON
      000000BCH   SFRSYM    DATA     BYTE      ADC_CONTR
      000000E7H   SFRSYM    DATA     BYTE      CMPCR2
      000000E6H   SFRSYM    DATA     BYTE      CMPCR1
      000000DEH   SFRSYM    DATA     BYTE      ADCCFG
      000000B8H   SFRSYM    DATA     BYTE      IP
      0000008FH   SFRSYM    DATA     BYTE      INTCLKO
      000000EEH   SFRSYM    DATA     BYTE      IP3H
      000000B6H   SFRSYM    DATA     BYTE      IP2H
      000000A8H   SFRSYM    DATA     BYTE      IE
      000000BBH   SFRSYM    DATA     BYTE      P_SW3
      000000BAH   SFRSYM    DATA     BYTE      P_SW2
      000000A2H   SFRSYM    DATA     BYTE      P_SW1
      000000CEH   SFRSYM    DATA     BYTE      SPCTL
      000000F8H   SFRSYM    DATA     BYTE      P7
      000000E8H   SFRSYM    DATA     BYTE      P6
      000000C8H   SFRSYM    DATA     BYTE      P5
      000000C0H   SFRSYM    DATA     BYTE      P4
L251 LINKER/LOCATER V4.66.93.0                                                        05/11/2024  21:00:46  PAGE 71


      000000B0H   SFRSYM    DATA     BYTE      P3
      000000A0H   SFRSYM    DATA     BYTE      P2
      00000090H   SFRSYM    DATA     BYTE      P1
      00000080H   SFRSYM    DATA     BYTE      P0
      00000E9FH   SYMBOL    EDATA    BYTE      dat
      00000EA0H   SYMBOL    EDATA    BYTE      i
      00000EA1H   SYMBOL    EDATA    BYTE      dat
      00000EA2H   SYMBOL    EDATA    BYTE      i
      00000E43H   SYMBOL    EDATA    WORD      dat
      00000E45H   SYMBOL    EDATA    BYTE      i
      00000C37H   SYMBOL    EDATA    WORD      x1
      00000C39H   SYMBOL    EDATA    WORD      y1
      00000C3BH   SYMBOL    EDATA    WORD      x2
      00000C3DH   SYMBOL    EDATA    WORD      y2
      00000D2DH   SYMBOL    EDATA    WORD      color
      00000D2FH   SYMBOL    EDATA    WORD      i
      00000D31H   SYMBOL    EDATA    WORD      j
      00000D33H   SYMBOL    EDATA    WORD      x
      00000D35H   SYMBOL    EDATA    WORD      y
      00000D37H   SYMBOL    EDATA    WORD      color
      00000C3FH   SYMBOL    EDATA    WORD      x
      00000C41H   SYMBOL    EDATA    WORD      y
      00000C43H   SYMBOL    EDATA    CHAR      dat
      00000C44H   SYMBOL    EDATA    BYTE      i
      00000C45H   SYMBOL    EDATA    BYTE      j
      00000C46H   SYMBOL    EDATA    BYTE      temp
      00000B24H   SYMBOL    EDATA    WORD      x
      00000B26H   SYMBOL    EDATA    WORD      y
      00000B28H   SYMBOL    EDATA    ---       dat
      00000B2CH   SYMBOL    EDATA    WORD      j
      00000BA6H   SYMBOL    EDATA    WORD      x
      00000BA8H   SYMBOL    EDATA    WORD      y
      00000BAAH   SYMBOL    EDATA    CHAR      dat
      00000BABH   SYMBOL    EDATA    ---       a
      00000BAEH   SYMBOL    EDATA    BYTE      i
      00000BAFH   SYMBOL    EDATA    WORD      x
      00000BB1H   SYMBOL    EDATA    WORD      y
      00000BB3H   SYMBOL    EDATA    BYTE      dat
      00000BB4H   SYMBOL    EDATA    ---       a
      00000BB7H   SYMBOL    EDATA    BYTE      i
      00000A0FH   SYMBOL    EDATA    WORD      x
      00000A11H   SYMBOL    EDATA    WORD      y
      00000A13H   SYMBOL    EDATA    INT       dat
      00000A15H   SYMBOL    EDATA    ---       a
      00000A1AH   SYMBOL    EDATA    BYTE      i
      00000A1BH   SYMBOL    EDATA    WORD      x
      00000A1DH   SYMBOL    EDATA    WORD      y
      00000A1FH   SYMBOL    EDATA    WORD      dat
      00000A21H   SYMBOL    EDATA    ---       a
      00000A26H   SYMBOL    EDATA    BYTE      i
      00000692H   SYMBOL    EDATA    WORD      x
      00000694H   SYMBOL    EDATA    WORD      y
      00000696H   SYMBOL    EDATA    LONG      dat
      0000069AH   SYMBOL    EDATA    BYTE      num
      0000069BH   SYMBOL    EDATA    ---       buff
      000006BDH   SYMBOL    EDATA    BYTE      length
      0000051BH   SYMBOL    EDATA    WORD      x
      0000051DH   SYMBOL    EDATA    WORD      y
      0000051FH   SYMBOL    EDATA    FLOAT     dat
      00000523H   SYMBOL    EDATA    BYTE      num
      00000524H   SYMBOL    EDATA    BYTE      pointnum
      00000525H   SYMBOL    EDATA    BYTE      length
      00000526H   SYMBOL    EDATA    ---       buff
      00000548H   SYMBOL    EDATA    CHAR      start
      00000549H   SYMBOL    EDATA    CHAR      end
L251 LINKER/LOCATER V4.66.93.0                                                        05/11/2024  21:00:46  PAGE 72


      0000054AH   SYMBOL    EDATA    CHAR      point
      00000ED6H   SYMBOL    EDATA    BYTE      dat
      00000ED7H   SYMBOL    EDATA    BYTE      dat
      00000DF8H   SYMBOL    EDATA    WORD      dat
      00000DFAH   SYMBOL    EDATA    ---       dat1
      00000C47H   SYMBOL    EDATA    WORD      x1
      00000C49H   SYMBOL    EDATA    WORD      y1
      00000C4BH   SYMBOL    EDATA    WORD      x2
      00000C4DH   SYMBOL    EDATA    WORD      y2
      00000D39H   SYMBOL    EDATA    WORD      color
      00000D3BH   SYMBOL    EDATA    WORD      i
      00000D3DH   SYMBOL    EDATA    WORD      j
      00000D3FH   SYMBOL    EDATA    WORD      x
      00000D41H   SYMBOL    EDATA    WORD      y
      00000D43H   SYMBOL    EDATA    WORD      color
      00000C4FH   SYMBOL    EDATA    WORD      x
      00000C51H   SYMBOL    EDATA    WORD      y
      00000C53H   SYMBOL    EDATA    CHAR      dat
      00000C54H   SYMBOL    EDATA    BYTE      i
      00000C55H   SYMBOL    EDATA    BYTE      j
      00000C56H   SYMBOL    EDATA    BYTE      temp
      00000B2EH   SYMBOL    EDATA    WORD      x
      00000B30H   SYMBOL    EDATA    WORD      y
      00000B32H   SYMBOL    EDATA    ---       dat
      00000B36H   SYMBOL    EDATA    WORD      j
      00000BB8H   SYMBOL    EDATA    WORD      x
      00000BBAH   SYMBOL    EDATA    WORD      y
      00000BBCH   SYMBOL    EDATA    CHAR      dat
      00000BBDH   SYMBOL    EDATA    ---       a
      00000BC0H   SYMBOL    EDATA    BYTE      i
      00000BC1H   SYMBOL    EDATA    WORD      x
      00000BC3H   SYMBOL    EDATA    WORD      y
      00000BC5H   SYMBOL    EDATA    BYTE      dat
      00000BC6H   SYMBOL    EDATA    ---       a
      00000BC9H   SYMBOL    EDATA    BYTE      i
      00000A27H   SYMBOL    EDATA    WORD      x
      00000A29H   SYMBOL    EDATA    WORD      y
      00000A2BH   SYMBOL    EDATA    INT       dat
      00000A2DH   SYMBOL    EDATA    ---       a
      00000A32H   SYMBOL    EDATA    BYTE      i
      00000A33H   SYMBOL    EDATA    WORD      x
      00000A35H   SYMBOL    EDATA    WORD      y
      00000A37H   SYMBOL    EDATA    WORD      dat
      00000A39H   SYMBOL    EDATA    ---       a
      00000A3EH   SYMBOL    EDATA    BYTE      i
      000006BEH   SYMBOL    EDATA    WORD      x
      000006C0H   SYMBOL    EDATA    WORD      y
      000006C2H   SYMBOL    EDATA    LONG      dat
      000006C6H   SYMBOL    EDATA    BYTE      num
      000006C7H   SYMBOL    EDATA    ---       buff
      000006E9H   SYMBOL    EDATA    BYTE      length
      0000054BH   SYMBOL    EDATA    WORD      x
      0000054DH   SYMBOL    EDATA    WORD      y
      0000054FH   SYMBOL    EDATA    FLOAT     dat
      00000553H   SYMBOL    EDATA    BYTE      num
      00000554H   SYMBOL    EDATA    BYTE      pointnum
      00000555H   SYMBOL    EDATA    BYTE      length
      00000556H   SYMBOL    EDATA    ---       buff
      00000578H   SYMBOL    EDATA    CHAR      start
      00000579H   SYMBOL    EDATA    CHAR      end
      0000057AH   SYMBOL    EDATA    CHAR      point

      ---         MODULE    ---      ---       SEEKFREE_MPU6050
      00FF5676H   PUBLIC    CODE     ---       mpu6050_simiic_read_regs
      00FF5C9EH   PUBLIC    CODE     ---       mpu6050_simiic_read_reg
L251 LINKER/LOCATER V4.66.93.0                                                        05/11/2024  21:00:46  PAGE 73


      00FF5817H   PUBLIC    CODE     ---       mpu6050_init
      00FF5985H   PUBLIC    CODE     ---       mpu6050_get_gyro
      00000A3FH   PUBLIC    EDATA    INT       mpu6050_acc_x
      00000A41H   PUBLIC    EDATA    INT       mpu6050_acc_y
      00000A43H   PUBLIC    EDATA    INT       mpu6050_acc_z
      00000A45H   PUBLIC    EDATA    INT       mpu6050_gyro_x
      00000A47H   PUBLIC    EDATA    INT       mpu6050_gyro_y
      00000A49H   PUBLIC    EDATA    INT       mpu6050_gyro_z
      000000D0H   SFRSYM    DATA     BYTE      PSW
      0000009DH   SFRSYM    DATA     BYTE      IRCBAND
      00000097H   SFRSYM    DATA     BYTE      AUXR2
      000000EFH   SFRSYM    DATA     BYTE      AUXINTIF
      000000FDH   SFRSYM    DATA     BYTE      S4CON
      000000ACH   SFRSYM    DATA     BYTE      S3CON
      0000009AH   SFRSYM    DATA     BYTE      S2CON
      000000B7H   SFRSYM    DATA     BYTE      IPH
      000000CDH   SFRSYM    DATA     BYTE      SPSTAT
      000000DDH   SFRSYM    DATA     BYTE      T4T3M
      000000C1H   SFRSYM    DATA     BYTE      WDT_CONTR
      000000DFH   SFRSYM    DATA     BYTE      IP3
      000000F4H   SFRSYM    DATA     BYTE      USBCON
      000000B5H   SFRSYM    DATA     BYTE      IP2
      000000FFH   SFRSYM    DATA     BYTE      RSTCFG
      000000C7H   SFRSYM    DATA     BYTE      IAP_CONTR
      000000F9H   SFRSYM    DATA     BYTE      LINICR
      0000008EH   SFRSYM    DATA     BYTE      AUXR
      000000AFH   SFRSYM    DATA     BYTE      IE2
      000000C0H.6 SFRSYM    DATA     BIT       P46
      000000C0H.5 SFRSYM    DATA     BIT       P45
      00000088H   SFRSYM    DATA     BYTE      TCON
      00000089H   SFRSYM    DATA     BYTE      TMOD
      00000098H   SFRSYM    DATA     BYTE      SCON
      000000F1H   SFRSYM    DATA     BYTE      CANICR
      00000087H   SFRSYM    DATA     BYTE      PCON
      000000BCH   SFRSYM    DATA     BYTE      ADC_CONTR
      000000E7H   SFRSYM    DATA     BYTE      CMPCR2
      000000E6H   SFRSYM    DATA     BYTE      CMPCR1
      000000DEH   SFRSYM    DATA     BYTE      ADCCFG
      000000B8H   SFRSYM    DATA     BYTE      IP
      0000008FH   SFRSYM    DATA     BYTE      INTCLKO
      000000EEH   SFRSYM    DATA     BYTE      IP3H
      000000B6H   SFRSYM    DATA     BYTE      IP2H
      000000A8H   SFRSYM    DATA     BYTE      IE
      000000BBH   SFRSYM    DATA     BYTE      P_SW3
      000000BAH   SFRSYM    DATA     BYTE      P_SW2
      000000A2H   SFRSYM    DATA     BYTE      P_SW1
      000000CEH   SFRSYM    DATA     BYTE      SPCTL
      000000F8H   SFRSYM    DATA     BYTE      P7
      000000E8H   SFRSYM    DATA     BYTE      P6
      000000C8H   SFRSYM    DATA     BYTE      P5
      000000C0H   SFRSYM    DATA     BYTE      P4
      000000B0H   SFRSYM    DATA     BYTE      P3
      000000A0H   SFRSYM    DATA     BYTE      P2
      00000090H   SFRSYM    DATA     BYTE      P1
      00000080H   SFRSYM    DATA     BYTE      P0
      00FF5F45H   SYMBOL    CODE     ---       mpu6050_simiic_start
      00FF5F1BH   SYMBOL    CODE     ---       mpu6050_simiic_stop
      00FF5DD8H   SYMBOL    CODE     ---       mpu6050_simiic_write_reg
      00FF5D43H   SYMBOL    CODE     ---       mpu6050_self1_check
      00FF5E02H   SYMBOL    CODE     ---       mpu6050_simiic_sendack
      00FF574CH   SYMBOL    CODE     ---       mpu6050_read_ch
      00FF5B05H   SYMBOL    CODE     ---       mpu6050_send_ch
      00FF5E95H   SYMBOL    CODE     ---       mpu6050_sccb_waitack
      00FF0026H   SYMBOL    CODE     ---       mpu6050_simiic_delay

L251 LINKER/LOCATER V4.66.93.0                                                        05/11/2024  21:00:46  PAGE 74


      00FF0026H   BLOCK     CODE     ---       LVL=0
      00000EA3H   SYMBOL    EDATA    WORD      j
      00FF0026H   LINE      CODE     ---       #52
      00FF0026H   LINE      CODE     ---       #53
      00FF0026H   LINE      CODE     ---       #54
      00FF002CH   LINE      CODE     ---       #55
      00FF0042H   LINE      CODE     ---       #56
      ---         BLOCKEND  ---      ---       LVL=0

      00FF5F45H   BLOCK     CODE     ---       LVL=0
      00FF5F45H   LINE      CODE     ---       #59
      00FF5F45H   LINE      CODE     ---       #61
      00FF5F48H   LINE      CODE     ---       #62
      00FF5F4BH   LINE      CODE     ---       #63
      00FF5F4EH   LINE      CODE     ---       #64
      00FF5F51H   LINE      CODE     ---       #65
      00FF5F54H   LINE      CODE     ---       #66
      00FF5F57H   LINE      CODE     ---       #67
      ---         BLOCKEND  ---      ---       LVL=0

      00FF5F1BH   BLOCK     CODE     ---       LVL=0
      00FF5F1BH   LINE      CODE     ---       #70
      00FF5F1BH   LINE      CODE     ---       #72
      00FF5F1EH   LINE      CODE     ---       #73
      00FF5F21H   LINE      CODE     ---       #74
      00FF5F24H   LINE      CODE     ---       #75
      00FF5F27H   LINE      CODE     ---       #76
      00FF5F2AH   LINE      CODE     ---       #77
      00FF5F2DH   LINE      CODE     ---       #78
      00FF5F30H   LINE      CODE     ---       #79
      ---         BLOCKEND  ---      ---       LVL=0

      00FF5E02H   BLOCK     CODE     ---       LVL=0
      00000ED8H   SYMBOL    EDATA    BYTE      ack_dat
      00FF5E02H   LINE      CODE     ---       #83
      00FF5E06H   LINE      CODE     ---       #85
      00FF5E09H   LINE      CODE     ---       #86
      00FF5E0CH   LINE      CODE     ---       #87
      00FF5E1AH   LINE      CODE     ---       #88
      00FF5E1DH   LINE      CODE     ---       #90
      00FF5E20H   LINE      CODE     ---       #91
      00FF5E23H   LINE      CODE     ---       #92
      00FF5E26H   LINE      CODE     ---       #93
      00FF5E29H   LINE      CODE     ---       #94
      ---         BLOCKEND  ---      ---       LVL=0

      00FF5E95H   BLOCK     CODE     ---       LVL=0
      00FF5E95H   LINE      CODE     ---       #97
      00FF5E95H   LINE      CODE     ---       #99
      00FF5E98H   LINE      CODE     ---       #101
      00FF5E9BH   LINE      CODE     ---       #103
      00FF5E9EH   LINE      CODE     ---       #104
      00FF5EA1H   LINE      CODE     ---       #106
      00FF5EA4H   LINE      CODE     ---       #109
      00FF5EA7H   LINE      CODE     ---       #110
      00FF5EABH   LINE      CODE     ---       #111
      00FF5EABH   LINE      CODE     ---       #113
      00FF5EAEH   LINE      CODE     ---       #114
      00FF5EB1H   LINE      CODE     ---       #115
      00FF5EB5H   LINE      CODE     ---       #116
      ---         BLOCKEND  ---      ---       LVL=0

      00FF5B05H   BLOCK     CODE     ---       LVL=0
      00000EA5H   SYMBOL    EDATA    BYTE      c
      00FF5B09H   BLOCK     CODE     NEAR LAB  LVL=1
L251 LINKER/LOCATER V4.66.93.0                                                        05/11/2024  21:00:46  PAGE 75


      00000EA6H   SYMBOL    EDATA    BYTE      i
      ---         BLOCKEND  ---      ---       LVL=1
      00FF5B05H   LINE      CODE     ---       #122
      00FF5B09H   LINE      CODE     ---       #123
      00FF5B09H   LINE      CODE     ---       #124
      00FF5B0FH   LINE      CODE     ---       #125
      00FF5B11H   LINE      CODE     ---       #127
      00FF5B1DH   LINE      CODE     ---       #128
      00FF5B20H   LINE      CODE     ---       #129
      00FF5B2AH   LINE      CODE     ---       #130
      00FF5B2DH   LINE      CODE     ---       #131
      00FF5B30H   LINE      CODE     ---       #132
      00FF5B33H   LINE      CODE     ---       #133
      00FF5B36H   LINE      CODE     ---       #134
      00FF5B4AH   LINE      CODE     ---       #135
      00FF5B4DH   LINE      CODE     ---       #136
      ---         BLOCKEND  ---      ---       LVL=0

      00FF574CH   BLOCK     CODE     ---       LVL=0
      00000E46H   SYMBOL    EDATA    BYTE      ack_x
      00FF5750H   BLOCK     CODE     NEAR LAB  LVL=1
      00000E47H   SYMBOL    EDATA    BYTE      i
      00000E48H   SYMBOL    EDATA    BYTE      c
      ---         BLOCKEND  ---      ---       LVL=1
      00FF574CH   LINE      CODE     ---       #142
      00FF5750H   LINE      CODE     ---       #143
      00FF5750H   LINE      CODE     ---       #146
      00FF5755H   LINE      CODE     ---       #147
      00FF5758H   LINE      CODE     ---       #148
      00FF575BH   LINE      CODE     ---       #149
      00FF575EH   LINE      CODE     ---       #151
      00FF5765H   LINE      CODE     ---       #153
      00FF5768H   LINE      CODE     ---       #154
      00FF576BH   LINE      CODE     ---       #155
      00FF576EH   LINE      CODE     ---       #156
      00FF5771H   LINE      CODE     ---       #157
      00FF5774H   LINE      CODE     ---       #158
      00FF577EH   LINE      CODE     ---       #159
      00FF5781H   LINE      CODE     ---       #161
      00FF578DH   LINE      CODE     ---       #162
      00FF57A4H   LINE      CODE     ---       #165
      00FF57A7H   LINE      CODE     ---       #166
      00FF57AAH   LINE      CODE     ---       #167
      00FF57B1H   LINE      CODE     ---       #169
      00FF57B5H   LINE      CODE     ---       #170
      ---         BLOCKEND  ---      ---       LVL=0

      00FF5DD8H   BLOCK     CODE     ---       LVL=0
      00000E49H   SYMBOL    EDATA    BYTE      dev_add
      00000E4AH   SYMBOL    EDATA    BYTE      reg
      00000E4BH   SYMBOL    EDATA    BYTE      dat
      00FF5DD8H   LINE      CODE     ---       #182
      00FF5DE4H   LINE      CODE     ---       #184
      00FF5DE7H   LINE      CODE     ---       #185
      00FF5DF0H   LINE      CODE     ---       #186
      00FF5DF7H   LINE      CODE     ---       #187
      00FF5DFEH   LINE      CODE     ---       #188
      00FF5E01H   LINE      CODE     ---       #189
      ---         BLOCKEND  ---      ---       LVL=0

      00FF5C9EH   BLOCK     CODE     ---       LVL=0
      00000E4CH   SYMBOL    EDATA    BYTE      dev_add
      00000E4DH   SYMBOL    EDATA    BYTE      reg
      00FF5CA6H   BLOCK     CODE     NEAR LAB  LVL=1
      00000E4EH   SYMBOL    EDATA    BYTE      dat
L251 LINKER/LOCATER V4.66.93.0                                                        05/11/2024  21:00:46  PAGE 76


      ---         BLOCKEND  ---      ---       LVL=1
      00FF5C9EH   LINE      CODE     ---       #200
      00FF5CA6H   LINE      CODE     ---       #201
      00FF5CA6H   LINE      CODE     ---       #203
      00FF5CA9H   LINE      CODE     ---       #204
      00FF5CB2H   LINE      CODE     ---       #205
      00FF5CB9H   LINE      CODE     ---       #208
      00FF5CBCH   LINE      CODE     ---       #209
      00FF5CC9H   LINE      CODE     ---       #210
      00FF5CD1H   LINE      CODE     ---       #211
      00FF5CD4H   LINE      CODE     ---       #213
      00FF5CD8H   LINE      CODE     ---       #214
      ---         BLOCKEND  ---      ---       LVL=0

      00FF5676H   BLOCK     CODE     ---       LVL=0
      00000C9BH   SYMBOL    EDATA    BYTE      dev_add
      00000C9CH   SYMBOL    EDATA    BYTE      reg
      00000C9DH   SYMBOL    EDATA    ---       dat_add
      00000CA1H   SYMBOL    EDATA    BYTE      num
      00FF5676H   LINE      CODE     ---       #227
      00FF5686H   LINE      CODE     ---       #229
      00FF5689H   LINE      CODE     ---       #230
      00FF5692H   LINE      CODE     ---       #231
      00FF5699H   LINE      CODE     ---       #234
      00FF569CH   LINE      CODE     ---       #235
      00FF56A9H   LINE      CODE     ---       #236
      00FF56ABH   LINE      CODE     ---       #238
      00FF56B7H   LINE      CODE     ---       #239
      00FF56C1H   LINE      CODE     ---       #240
      00FF56D3H   LINE      CODE     ---       #241
      00FF56DEH   LINE      CODE     ---       #242
      00FF56E1H   LINE      CODE     ---       #243
      ---         BLOCKEND  ---      ---       LVL=0

      00FF5D43H   BLOCK     CODE     ---       LVL=0
      00FF5D43H   LINE      CODE     ---       #252
      00FF5D43H   LINE      CODE     ---       #254
      00FF5D4DH   LINE      CODE     ---       #255
      00FF5D58H   LINE      CODE     ---       #256
      00FF5D65H   LINE      CODE     ---       #258
      00FF5D70H   LINE      CODE     ---       #259
      00FF5D74H   LINE      CODE     ---       #265
      00FF5D74H   LINE      CODE     ---       #267
      00FF5D75H   LINE      CODE     ---       #269
      ---         BLOCKEND  ---      ---       LVL=0

      00FF5817H   BLOCK     CODE     ---       LVL=0
      00FF5817H   LINE      CODE     ---       #279
      00FF5817H   LINE      CODE     ---       #281
      00FF581EH   LINE      CODE     ---       #283
      00FF5826H   LINE      CODE     ---       #285
      00FF582AH   LINE      CODE     ---       #286
      00FF582AH   LINE      CODE     ---       #287
      00FF5834H   LINE      CODE     ---       #288
      00FF583FH   LINE      CODE     ---       #289
      00FF584AH   LINE      CODE     ---       #290
      00FF5855H   LINE      CODE     ---       #291
      00FF5860H   LINE      CODE     ---       #292
      00FF586AH   LINE      CODE     ---       #293
      00FF5875H   LINE      CODE     ---       #294
      00FF5876H   LINE      CODE     ---       #295
      ---         BLOCKEND  ---      ---       LVL=0
      00000D45H   SYMBOL    EDATA    ---       dat

      00FF5985H   BLOCK     CODE     ---       LVL=0
L251 LINKER/LOCATER V4.66.93.0                                                        05/11/2024  21:00:46  PAGE 77


      00000D4BH   SYMBOL    EDATA    ---       dat
      00FF5985H   LINE      CODE     ---       #323
      00FF5985H   LINE      CODE     ---       #324
      00FF5985H   LINE      CODE     ---       #326
      00FF5994H   LINE      CODE     ---       #327
      00FF59AAH   LINE      CODE     ---       #328
      00FF59C0H   LINE      CODE     ---       #329
      00FF59D6H   LINE      CODE     ---       #330
      ---         BLOCKEND  ---      ---       LVL=0

      ---         MODULE    ---      ---       SEEKFREE_OLED
      00FF5D0EH   PUBLIC    CODE     ---       oled_set_pos
      00FF59D7H   PUBLIC    CODE     ---       oled_wrcmd
      00FF5A23H   PUBLIC    CODE     ---       oled_wrdat
      00FF58D4H   PUBLIC    CODE     ---       oled_fill
      00FF53FAH   PUBLIC    CODE     ---       oled_init
      0000057BH   PUBLIC    EDATA    BYTE      ?oled_printf_float_px8?BYTE
      000005ABH   PUBLIC    EDATA    BYTE      ?oled_printf_float?BYTE
      000005DBH   PUBLIC    EDATA    BYTE      ?oled_printf_float_spi?BYTE
      000000D0H   SFRSYM    DATA     BYTE      PSW
      0000009DH   SFRSYM    DATA     BYTE      IRCBAND
      00000097H   SFRSYM    DATA     BYTE      AUXR2
      000000EFH   SFRSYM    DATA     BYTE      AUXINTIF
      000000FDH   SFRSYM    DATA     BYTE      S4CON
      000000ACH   SFRSYM    DATA     BYTE      S3CON
      0000009AH   SFRSYM    DATA     BYTE      S2CON
      000000B7H   SFRSYM    DATA     BYTE      IPH
      000000CDH   SFRSYM    DATA     BYTE      SPSTAT
      000000DDH   SFRSYM    DATA     BYTE      T4T3M
      000000C1H   SFRSYM    DATA     BYTE      WDT_CONTR
      000000DFH   SFRSYM    DATA     BYTE      IP3
      000000F4H   SFRSYM    DATA     BYTE      USBCON
      000000B5H   SFRSYM    DATA     BYTE      IP2
      000000FFH   SFRSYM    DATA     BYTE      RSTCFG
      000000C7H   SFRSYM    DATA     BYTE      IAP_CONTR
      000000F9H   SFRSYM    DATA     BYTE      LINICR
      0000008EH   SFRSYM    DATA     BYTE      AUXR
      000000AFH   SFRSYM    DATA     BYTE      IE2
      000000A0H.7 SFRSYM    DATA     BIT       P27
      000000A0H.6 SFRSYM    DATA     BIT       P26
      000000A0H.5 SFRSYM    DATA     BIT       P25
      000000A0H.4 SFRSYM    DATA     BIT       P24
      00000088H   SFRSYM    DATA     BYTE      TCON
      00000089H   SFRSYM    DATA     BYTE      TMOD
      00000098H   SFRSYM    DATA     BYTE      SCON
      000000A0H.2 SFRSYM    DATA     BIT       P22
      000000A0H.1 SFRSYM    DATA     BIT       P21
      000000A0H.0 SFRSYM    DATA     BIT       P20
      000000F1H   SFRSYM    DATA     BYTE      CANICR
      00000087H   SFRSYM    DATA     BYTE      PCON
      000000BCH   SFRSYM    DATA     BYTE      ADC_CONTR
      000000E7H   SFRSYM    DATA     BYTE      CMPCR2
      000000E6H   SFRSYM    DATA     BYTE      CMPCR1
      000000DEH   SFRSYM    DATA     BYTE      ADCCFG
      000000B8H   SFRSYM    DATA     BYTE      IP
      0000008FH   SFRSYM    DATA     BYTE      INTCLKO
      000000EEH   SFRSYM    DATA     BYTE      IP3H
      000000B6H   SFRSYM    DATA     BYTE      IP2H
      000000A8H   SFRSYM    DATA     BYTE      IE
      000000BBH   SFRSYM    DATA     BYTE      P_SW3
      000000BAH   SFRSYM    DATA     BYTE      P_SW2
      000000A2H   SFRSYM    DATA     BYTE      P_SW1
      000000CEH   SFRSYM    DATA     BYTE      SPCTL
      000000F8H   SFRSYM    DATA     BYTE      P7
      000000E8H   SFRSYM    DATA     BYTE      P6
L251 LINKER/LOCATER V4.66.93.0                                                        05/11/2024  21:00:46  PAGE 78


      000000C8H   SFRSYM    DATA     BYTE      P5
      000000C0H   SFRSYM    DATA     BYTE      P4
      000000B0H   SFRSYM    DATA     BYTE      P3
      000000A0H   SFRSYM    DATA     BYTE      P2
      00000090H   SFRSYM    DATA     BYTE      P1
      00000080H   SFRSYM    DATA     BYTE      P0

      00FF5A23H   BLOCK     CODE     ---       LVL=0
      00000EA7H   SYMBOL    EDATA    BYTE      dat
      00FF5A27H   BLOCK     CODE     NEAR LAB  LVL=1
      00000EA8H   SYMBOL    EDATA    BYTE      i
      ---         BLOCKEND  ---      ---       LVL=1
      00FF5A23H   LINE      CODE     ---       #47
      00FF5A27H   LINE      CODE     ---       #48
      00FF5A27H   LINE      CODE     ---       #49
      00FF5A2DH   LINE      CODE     ---       #51
      00FF5A30H   LINE      CODE     ---       #52
      00FF5A33H   LINE      CODE     ---       #53
      00FF5A36H   LINE      CODE     ---       #54
      00FF5A38H   LINE      CODE     ---       #56
      00FF5A44H   LINE      CODE     ---       #57
      00FF5A47H   LINE      CODE     ---       #58
      00FF5A4AH   LINE      CODE     ---       #60
      00FF5A4DH   LINE      CODE     ---       #61
      00FF5A57H   LINE      CODE     ---       #62
      00FF5A6BH   LINE      CODE     ---       #63
      00FF5A6EH   LINE      CODE     ---       #64
      ---         BLOCKEND  ---      ---       LVL=0

      00FF59D7H   BLOCK     CODE     ---       LVL=0
      00000EA9H   SYMBOL    EDATA    BYTE      cmd
      00FF59DBH   BLOCK     CODE     NEAR LAB  LVL=1
      00000EAAH   SYMBOL    EDATA    BYTE      i
      ---         BLOCKEND  ---      ---       LVL=1
      00FF59D7H   LINE      CODE     ---       #98
      00FF59DBH   LINE      CODE     ---       #99
      00FF59DBH   LINE      CODE     ---       #100
      00FF59E1H   LINE      CODE     ---       #102
      00FF59E4H   LINE      CODE     ---       #103
      00FF59E7H   LINE      CODE     ---       #104
      00FF59EAH   LINE      CODE     ---       #106
      00FF59ECH   LINE      CODE     ---       #108
      00FF59F8H   LINE      CODE     ---       #109
      00FF59FBH   LINE      CODE     ---       #110
      00FF59FEH   LINE      CODE     ---       #112
      00FF5A01H   LINE      CODE     ---       #113
      00FF5A0BH   LINE      CODE     ---       #114
      00FF5A1FH   LINE      CODE     ---       #115
      00FF5A22H   LINE      CODE     ---       #116
      ---         BLOCKEND  ---      ---       LVL=0
      00000C57H   SYMBOL    EDATA    WORD      hex
      00000C59H   SYMBOL    EDATA    ---       Print
      00000C5DH   SYMBOL    EDATA    BYTE      hexcheck
      00000C5EH   SYMBOL    EDATA    BYTE      TEMP

      00FF53FAH   BLOCK     CODE     ---       LVL=0
      00FF53FAH   LINE      CODE     ---       #148
      00FF53FAH   LINE      CODE     ---       #151
      00FF53FDH   LINE      CODE     ---       #152
      00FF5400H   LINE      CODE     ---       #154
      00FF5403H   LINE      CODE     ---       #155
      00FF540AH   LINE      CODE     ---       #156
      00FF540DH   LINE      CODE     ---       #158
      00FF5412H   LINE      CODE     ---       #159
      00FF5416H   LINE      CODE     ---       #160
L251 LINKER/LOCATER V4.66.93.0                                                        05/11/2024  21:00:46  PAGE 79


      00FF541BH   LINE      CODE     ---       #161
      00FF5420H   LINE      CODE     ---       #162
      00FF5425H   LINE      CODE     ---       #163
      00FF542AH   LINE      CODE     ---       #166
      00FF542FH   LINE      CODE     ---       #167
      00FF5434H   LINE      CODE     ---       #173
      00FF5439H   LINE      CODE     ---       #174
      00FF543EH   LINE      CODE     ---       #175
      00FF5443H   LINE      CODE     ---       #176
      00FF5448H   LINE      CODE     ---       #177
      00FF544CH   LINE      CODE     ---       #178
      00FF5451H   LINE      CODE     ---       #179
      00FF5456H   LINE      CODE     ---       #180
      00FF545BH   LINE      CODE     ---       #181
      00FF5460H   LINE      CODE     ---       #182
      00FF5465H   LINE      CODE     ---       #183
      00FF546AH   LINE      CODE     ---       #184
      00FF546FH   LINE      CODE     ---       #185
      00FF5474H   LINE      CODE     ---       #186
      00FF5479H   LINE      CODE     ---       #187
      00FF547EH   LINE      CODE     ---       #188
      00FF5483H   LINE      CODE     ---       #189
      00FF5488H   LINE      CODE     ---       #190
      00FF548DH   LINE      CODE     ---       #191
      00FF5492H   LINE      CODE     ---       #192
      00FF5497H   LINE      CODE     ---       #193
      00FF549BH   LINE      CODE     ---       #194
      00FF54A1H   LINE      CODE     ---       #195
      ---         BLOCKEND  ---      ---       LVL=0

      00FF5D0EH   BLOCK     CODE     ---       LVL=0
      00000EABH   SYMBOL    EDATA    BYTE      x
      00000EACH   SYMBOL    EDATA    BYTE      y
      00FF5D0EH   LINE      CODE     ---       #205
      00FF5D16H   LINE      CODE     ---       #207
      00FF5D21H   LINE      CODE     ---       #208
      00FF5D37H   LINE      CODE     ---       #209
      00FF5D42H   LINE      CODE     ---       #210
      ---         BLOCKEND  ---      ---       LVL=0

      00FF58D4H   BLOCK     CODE     ---       LVL=0
      00000E4FH   SYMBOL    EDATA    BYTE      bmp_data
      00FF58D8H   BLOCK     CODE     NEAR LAB  LVL=1
      00000E50H   SYMBOL    EDATA    BYTE      y
      00000E51H   SYMBOL    EDATA    BYTE      x
      ---         BLOCKEND  ---      ---       LVL=1
      00FF58D4H   LINE      CODE     ---       #219
      00FF58D8H   LINE      CODE     ---       #220
      00FF58D8H   LINE      CODE     ---       #223
      00FF58DFH   LINE      CODE     ---       #225
      00FF58EAH   LINE      CODE     ---       #226
      00FF58EFH   LINE      CODE     ---       #227
      00FF58F4H   LINE      CODE     ---       #228
      00FF5919H   LINE      CODE     ---       #229
      00FF5930H   LINE      CODE     ---       #230
      ---         BLOCKEND  ---      ---       LVL=0
      00000E52H   SYMBOL    EDATA    BYTE      x
      00000E53H   SYMBOL    EDATA    BYTE      y
      00000E54H   SYMBOL    EDATA    BYTE      data1
      00000EADH   SYMBOL    EDATA    BYTE      x
      00000EAEH   SYMBOL    EDATA    BYTE      y
      00000BCAH   SYMBOL    EDATA    BYTE      x
      00000BCBH   SYMBOL    EDATA    BYTE      y
      00000BCCH   SYMBOL    EDATA    ---       ch
      00000BD0H   SYMBOL    EDATA    BYTE      c
L251 LINKER/LOCATER V4.66.93.0                                                        05/11/2024  21:00:46  PAGE 80


      00000BD1H   SYMBOL    EDATA    BYTE      i
      00000BD2H   SYMBOL    EDATA    BYTE      j
      00000BD3H   SYMBOL    EDATA    BYTE      x
      00000BD4H   SYMBOL    EDATA    BYTE      y
      00000BD5H   SYMBOL    EDATA    ---       ch
      00000BD9H   SYMBOL    EDATA    BYTE      c
      00000BDAH   SYMBOL    EDATA    BYTE      i
      00000BDBH   SYMBOL    EDATA    BYTE      j
      00000A93H   SYMBOL    EDATA    BYTE      x
      00000A94H   SYMBOL    EDATA    BYTE      y
      00000A95H   SYMBOL    EDATA    WORD      num
      00000A97H   SYMBOL    EDATA    ---       ch
      00000A9EH   SYMBOL    EDATA    BYTE      x
      00000A9FH   SYMBOL    EDATA    BYTE      y
      00000AA0H   SYMBOL    EDATA    WORD      num
      00000AA2H   SYMBOL    EDATA    ---       ch
      00000AA9H   SYMBOL    EDATA    BYTE      x
      00000AAAH   SYMBOL    EDATA    BYTE      y
      00000AABH   SYMBOL    EDATA    INT       num
      00000AADH   SYMBOL    EDATA    ---       ch
      000006EAH   SYMBOL    EDATA    WORD      x
      000006ECH   SYMBOL    EDATA    WORD      y
      000006EEH   SYMBOL    EDATA    LONG      dat
      000006F2H   SYMBOL    EDATA    BYTE      num
      000006F3H   SYMBOL    EDATA    ---       buff
      00000715H   SYMBOL    EDATA    BYTE      length
      0000057BH   SYMBOL    EDATA    WORD      x
      0000057DH   SYMBOL    EDATA    WORD      y
      0000057FH   SYMBOL    EDATA    FLOAT     dat
      00000583H   SYMBOL    EDATA    BYTE      num
      00000584H   SYMBOL    EDATA    BYTE      pointnum
      00000585H   SYMBOL    EDATA    BYTE      length
      00000586H   SYMBOL    EDATA    ---       buff
      000005A8H   SYMBOL    EDATA    CHAR      start
      000005A9H   SYMBOL    EDATA    CHAR      end
      000005AAH   SYMBOL    EDATA    CHAR      point
      000005ABH   SYMBOL    EDATA    WORD      x
      000005ADH   SYMBOL    EDATA    WORD      y
      000005AFH   SYMBOL    EDATA    FLOAT     dat
      000005B3H   SYMBOL    EDATA    BYTE      num
      000005B4H   SYMBOL    EDATA    BYTE      pointnum
      000005B5H   SYMBOL    EDATA    BYTE      length
      000005B6H   SYMBOL    EDATA    ---       buff
      000005D8H   SYMBOL    EDATA    CHAR      start
      000005D9H   SYMBOL    EDATA    CHAR      end
      000005DAH   SYMBOL    EDATA    CHAR      point
      000008CBH   SYMBOL    EDATA    WORD      high
      000008CDH   SYMBOL    EDATA    WORD      width
      000008CFH   SYMBOL    EDATA    ---       p
      000008D3H   SYMBOL    EDATA    BYTE      value
      000008D4H   SYMBOL    EDATA    WORD      i
      000008D6H   SYMBOL    EDATA    WORD      j
      000008D8H   SYMBOL    EDATA    WORD      temp
      000008DAH   SYMBOL    EDATA    WORD      temp1
      000008DCH   SYMBOL    EDATA    BYTE      dat
      0000093BH   SYMBOL    EDATA    BYTE      x
      0000093CH   SYMBOL    EDATA    BYTE      y
      0000093DH   SYMBOL    EDATA    BYTE      size
      0000093EH   SYMBOL    EDATA    ---       p
      00000942H   SYMBOL    EDATA    BYTE      len
      00000943H   SYMBOL    EDATA    WORD      i
      00000945H   SYMBOL    EDATA    WORD      j
      00000947H   SYMBOL    EDATA    WORD      k
      00000ED9H   SYMBOL    EDATA    BYTE      dat
      00000EDAH   SYMBOL    EDATA    BYTE      cmd
L251 LINKER/LOCATER V4.66.93.0                                                        05/11/2024  21:00:46  PAGE 81


      00000C5FH   SYMBOL    EDATA    WORD      hex
      00000C61H   SYMBOL    EDATA    ---       Print
      00000C65H   SYMBOL    EDATA    BYTE      hexcheck
      00000C66H   SYMBOL    EDATA    BYTE      TEMP
      00000EAFH   SYMBOL    EDATA    BYTE      x
      00000EB0H   SYMBOL    EDATA    BYTE      y
      00000E55H   SYMBOL    EDATA    BYTE      bmp_data
      00000E56H   SYMBOL    EDATA    BYTE      y
      00000E57H   SYMBOL    EDATA    BYTE      x
      00000E58H   SYMBOL    EDATA    BYTE      x
      00000E59H   SYMBOL    EDATA    BYTE      y
      00000E5AH   SYMBOL    EDATA    BYTE      data1
      00000EB1H   SYMBOL    EDATA    BYTE      x
      00000EB2H   SYMBOL    EDATA    BYTE      y
      00000BDCH   SYMBOL    EDATA    BYTE      x
      00000BDDH   SYMBOL    EDATA    BYTE      y
      00000BDEH   SYMBOL    EDATA    ---       ch
      00000BE2H   SYMBOL    EDATA    BYTE      c
      00000BE3H   SYMBOL    EDATA    BYTE      i
      00000BE4H   SYMBOL    EDATA    BYTE      j
      00000BE5H   SYMBOL    EDATA    BYTE      x
      00000BE6H   SYMBOL    EDATA    BYTE      y
      00000BE7H   SYMBOL    EDATA    ---       ch
      00000BEBH   SYMBOL    EDATA    BYTE      c
      00000BECH   SYMBOL    EDATA    BYTE      i
      00000BEDH   SYMBOL    EDATA    BYTE      j
      00000AB4H   SYMBOL    EDATA    BYTE      x
      00000AB5H   SYMBOL    EDATA    BYTE      y
      00000AB6H   SYMBOL    EDATA    WORD      num
      00000AB8H   SYMBOL    EDATA    ---       ch
      00000ABFH   SYMBOL    EDATA    BYTE      x
      00000AC0H   SYMBOL    EDATA    BYTE      y
      00000AC1H   SYMBOL    EDATA    INT       num
      00000AC3H   SYMBOL    EDATA    ---       ch
      00000716H   SYMBOL    EDATA    WORD      x
      00000718H   SYMBOL    EDATA    WORD      y
      0000071AH   SYMBOL    EDATA    LONG      dat
      0000071EH   SYMBOL    EDATA    BYTE      num
      0000071FH   SYMBOL    EDATA    ---       buff
      00000741H   SYMBOL    EDATA    BYTE      length
      000005DBH   SYMBOL    EDATA    WORD      x
      000005DDH   SYMBOL    EDATA    WORD      y
      000005DFH   SYMBOL    EDATA    FLOAT     dat
      000005E3H   SYMBOL    EDATA    BYTE      num
      000005E4H   SYMBOL    EDATA    BYTE      pointnum
      000005E5H   SYMBOL    EDATA    BYTE      length
      000005E6H   SYMBOL    EDATA    ---       buff
      00000608H   SYMBOL    EDATA    CHAR      start
      00000609H   SYMBOL    EDATA    CHAR      end
      0000060AH   SYMBOL    EDATA    CHAR      point
      000008DDH   SYMBOL    EDATA    WORD      high
      000008DFH   SYMBOL    EDATA    WORD      width
      000008E1H   SYMBOL    EDATA    ---       p
      000008E5H   SYMBOL    EDATA    BYTE      value
      000008E6H   SYMBOL    EDATA    WORD      i
      000008E8H   SYMBOL    EDATA    WORD      j
      000008EAH   SYMBOL    EDATA    WORD      temp
      000008ECH   SYMBOL    EDATA    WORD      temp1
      000008EEH   SYMBOL    EDATA    BYTE      dat
      00000949H   SYMBOL    EDATA    BYTE      x
      0000094AH   SYMBOL    EDATA    BYTE      y
      0000094BH   SYMBOL    EDATA    BYTE      size
      0000094CH   SYMBOL    EDATA    ---       p
      00000950H   SYMBOL    EDATA    BYTE      len
      00000951H   SYMBOL    EDATA    WORD      i
L251 LINKER/LOCATER V4.66.93.0                                                        05/11/2024  21:00:46  PAGE 82


      00000953H   SYMBOL    EDATA    WORD      j
      00000955H   SYMBOL    EDATA    WORD      k

      ---         MODULE    ---      ---       SEEKFREE_PRINTF
      0000087EH   PUBLIC    EDATA    BYTE      ?number_conversion_ascii?BYTE
      000002D2H   PUBLIC    EDATA    BYTE      ?zf_sprintf?BYTE
      000000D0H   SFRSYM    DATA     BYTE      PSW
      0000009DH   SFRSYM    DATA     BYTE      IRCBAND
      00000097H   SFRSYM    DATA     BYTE      AUXR2
      000000EFH   SFRSYM    DATA     BYTE      AUXINTIF
      000000FDH   SFRSYM    DATA     BYTE      S4CON
      000000ACH   SFRSYM    DATA     BYTE      S3CON
      0000009AH   SFRSYM    DATA     BYTE      S2CON
      000000B7H   SFRSYM    DATA     BYTE      IPH
      000000CDH   SFRSYM    DATA     BYTE      SPSTAT
      000000DDH   SFRSYM    DATA     BYTE      T4T3M
      000000C1H   SFRSYM    DATA     BYTE      WDT_CONTR
      000000DFH   SFRSYM    DATA     BYTE      IP3
      000000F4H   SFRSYM    DATA     BYTE      USBCON
      000000B5H   SFRSYM    DATA     BYTE      IP2
      000000FFH   SFRSYM    DATA     BYTE      RSTCFG
      000000C7H   SFRSYM    DATA     BYTE      IAP_CONTR
      000000F9H   SFRSYM    DATA     BYTE      LINICR
      0000008EH   SFRSYM    DATA     BYTE      AUXR
      000000AFH   SFRSYM    DATA     BYTE      IE2
      00000088H   SFRSYM    DATA     BYTE      TCON
      00000089H   SFRSYM    DATA     BYTE      TMOD
      00000098H   SFRSYM    DATA     BYTE      SCON
      000000F1H   SFRSYM    DATA     BYTE      CANICR
      00000087H   SFRSYM    DATA     BYTE      PCON
      000000BCH   SFRSYM    DATA     BYTE      ADC_CONTR
      000000E7H   SFRSYM    DATA     BYTE      CMPCR2
      000000E6H   SFRSYM    DATA     BYTE      CMPCR1
      000000DEH   SFRSYM    DATA     BYTE      ADCCFG
      000000B8H   SFRSYM    DATA     BYTE      IP
      0000008FH   SFRSYM    DATA     BYTE      INTCLKO
      000000EEH   SFRSYM    DATA     BYTE      IP3H
      000000B6H   SFRSYM    DATA     BYTE      IP2H
      000000A8H   SFRSYM    DATA     BYTE      IE
      000000BBH   SFRSYM    DATA     BYTE      P_SW3
      000000BAH   SFRSYM    DATA     BYTE      P_SW2
      000000A2H   SFRSYM    DATA     BYTE      P_SW1
      000000CEH   SFRSYM    DATA     BYTE      SPCTL
      000000F8H   SFRSYM    DATA     BYTE      P7
      000000E8H   SFRSYM    DATA     BYTE      P6
      000000C8H   SFRSYM    DATA     BYTE      P5
      000000C0H   SFRSYM    DATA     BYTE      P4
      000000B0H   SFRSYM    DATA     BYTE      P3
      000000A0H   SFRSYM    DATA     BYTE      P2
      00000090H   SFRSYM    DATA     BYTE      P1
      00000080H   SFRSYM    DATA     BYTE      P0
      0000087EH   SYMBOL    EDATA    DWORD     dat
      00000882H   SYMBOL    EDATA    ---       p
      00000886H   SYMBOL    EDATA    BYTE      neg_type
      00000887H   SYMBOL    EDATA    BYTE      radix
      00000888H   SYMBOL    EDATA    LONG      neg_dat
      0000088CH   SYMBOL    EDATA    DWORD     pos_dat
      00000890H   SYMBOL    EDATA    BYTE      temp_data
      00000891H   SYMBOL    EDATA    BYTE      valid_num
      00000972H   SYMBOL    EDATA    ---       d_buff
      00000976H   SYMBOL    EDATA    DWORD     len
      0000097AH   SYMBOL    EDATA    DWORD     i
      0000097EH   SYMBOL    EDATA    CHAR      temp_data
      000002D2H   SYMBOL    EDATA    ---       buff
      000002D6H   SYMBOL    EDATA    ---       format
L251 LINKER/LOCATER V4.66.93.0                                                        05/11/2024  21:00:46  PAGE 83


      000002DAH   SYMBOL    EDATA    DWORD     buff_len
      000002DEH   SYMBOL    EDATA    ---       arg
      000002E2H   SYMBOL    EDATA    CHAR      ret
      000002E3H   SYMBOL    EDATA    CHAR      ch
      000002E3H   SYMBOL    EDATA    ---       vstr
      00000304H   SYMBOL    EDATA    LONG      ival
      00000308H   SYMBOL    EDATA    BYTE      vlen
      000002E3H   SYMBOL    EDATA    ---       vstr
      00000304H   SYMBOL    EDATA    FLOAT     ival
      00000308H   SYMBOL    EDATA    BYTE      vlen
      000002E3H   SYMBOL    EDATA    ---       vstr
      00000304H   SYMBOL    EDATA    DWORD     ival
      00000308H   SYMBOL    EDATA    BYTE      vlen
      000002E3H   SYMBOL    EDATA    ---       vstr
      00000304H   SYMBOL    EDATA    DWORD     ival
      00000308H   SYMBOL    EDATA    BYTE      vlen
      000002E3H   SYMBOL    EDATA    ---       vstr
      00000304H   SYMBOL    EDATA    DWORD     ival
      00000308H   SYMBOL    EDATA    BYTE      vlen
      000002E3H   SYMBOL    EDATA    ---       pc
      000002E3H   SYMBOL    EDATA    ---       vstr
      00000304H   SYMBOL    EDATA    DWORD     ival

      ---         MODULE    ---      ---       SEEKFREE_TSL1401
      00000129H   PUBLIC    EDATA    BYTE      tsl1401_finish_flag
      0000012AH   PUBLIC    EDATA    ---       ccd_data
      000000D0H   SFRSYM    DATA     BYTE      PSW
      0000009DH   SFRSYM    DATA     BYTE      IRCBAND
      00000097H   SFRSYM    DATA     BYTE      AUXR2
      000000EFH   SFRSYM    DATA     BYTE      AUXINTIF
      000000FDH   SFRSYM    DATA     BYTE      S4CON
      000000ACH   SFRSYM    DATA     BYTE      S3CON
      0000009AH   SFRSYM    DATA     BYTE      S2CON
      000000B7H   SFRSYM    DATA     BYTE      IPH
      000000CDH   SFRSYM    DATA     BYTE      SPSTAT
      000000DDH   SFRSYM    DATA     BYTE      T4T3M
      000000C1H   SFRSYM    DATA     BYTE      WDT_CONTR
      000000DFH   SFRSYM    DATA     BYTE      IP3
      000000F4H   SFRSYM    DATA     BYTE      USBCON
      000000B5H   SFRSYM    DATA     BYTE      IP2
      000000FFH   SFRSYM    DATA     BYTE      RSTCFG
      000000C7H   SFRSYM    DATA     BYTE      IAP_CONTR
      000000F9H   SFRSYM    DATA     BYTE      LINICR
      0000008EH   SFRSYM    DATA     BYTE      AUXR
      000000AFH   SFRSYM    DATA     BYTE      IE2
      000000B0H.3 SFRSYM    DATA     BIT       P33
      00000088H   SFRSYM    DATA     BYTE      TCON
      00000089H   SFRSYM    DATA     BYTE      TMOD
      000000B0H.2 SFRSYM    DATA     BIT       P32
      00000098H   SFRSYM    DATA     BYTE      SCON
      000000F1H   SFRSYM    DATA     BYTE      CANICR
      00000087H   SFRSYM    DATA     BYTE      PCON
      000000BCH   SFRSYM    DATA     BYTE      ADC_CONTR
      000000E7H   SFRSYM    DATA     BYTE      CMPCR2
      000000E6H   SFRSYM    DATA     BYTE      CMPCR1
      000000DEH   SFRSYM    DATA     BYTE      ADCCFG
      000000B8H   SFRSYM    DATA     BYTE      IP
      0000008FH   SFRSYM    DATA     BYTE      INTCLKO
      000000EEH   SFRSYM    DATA     BYTE      IP3H
      000000B6H   SFRSYM    DATA     BYTE      IP2H
      000000A8H   SFRSYM    DATA     BYTE      IE
      000000BBH   SFRSYM    DATA     BYTE      P_SW3
      000000BAH   SFRSYM    DATA     BYTE      P_SW2
      000000A2H   SFRSYM    DATA     BYTE      P_SW1
      000000CEH   SFRSYM    DATA     BYTE      SPCTL
L251 LINKER/LOCATER V4.66.93.0                                                        05/11/2024  21:00:46  PAGE 84


      000000F8H   SFRSYM    DATA     BYTE      P7
      000000E8H   SFRSYM    DATA     BYTE      P6
      000000C8H   SFRSYM    DATA     BYTE      P5
      000000C0H   SFRSYM    DATA     BYTE      P4
      000000B0H   SFRSYM    DATA     BYTE      P3
      000000A0H   SFRSYM    DATA     BYTE      P2
      00000090H   SFRSYM    DATA     BYTE      P1
      00000080H   SFRSYM    DATA     BYTE      P0
      00000CA2H   SYMBOL    EDATA    INT       uart_n
      00000CA4H   SYMBOL    EDATA    ---       dat
      00000CA8H   SYMBOL    EDATA    BYTE      i
      00000EDBH   SYMBOL    EDATA    BYTE      i

      ---         MODULE    ---      ---       SEEKFREE_VIRSCO
      00000B38H   PUBLIC    EDATA    ---       virtual_scope_data
      00000957H   PUBLIC    EDATA    BYTE      ?data_conversion?BYTE
      000000D0H   SFRSYM    DATA     BYTE      PSW
      0000009DH   SFRSYM    DATA     BYTE      IRCBAND
      00000097H   SFRSYM    DATA     BYTE      AUXR2
      000000EFH   SFRSYM    DATA     BYTE      AUXINTIF
      000000FDH   SFRSYM    DATA     BYTE      S4CON
      000000ACH   SFRSYM    DATA     BYTE      S3CON
      0000009AH   SFRSYM    DATA     BYTE      S2CON
      000000B7H   SFRSYM    DATA     BYTE      IPH
      000000CDH   SFRSYM    DATA     BYTE      SPSTAT
      000000DDH   SFRSYM    DATA     BYTE      T4T3M
      000000C1H   SFRSYM    DATA     BYTE      WDT_CONTR
      000000DFH   SFRSYM    DATA     BYTE      IP3
      000000F4H   SFRSYM    DATA     BYTE      USBCON
      000000B5H   SFRSYM    DATA     BYTE      IP2
      000000FFH   SFRSYM    DATA     BYTE      RSTCFG
      000000C7H   SFRSYM    DATA     BYTE      IAP_CONTR
      000000F9H   SFRSYM    DATA     BYTE      LINICR
      0000008EH   SFRSYM    DATA     BYTE      AUXR
      000000AFH   SFRSYM    DATA     BYTE      IE2
      00000088H   SFRSYM    DATA     BYTE      TCON
      00000089H   SFRSYM    DATA     BYTE      TMOD
      00000098H   SFRSYM    DATA     BYTE      SCON
      000000F1H   SFRSYM    DATA     BYTE      CANICR
      00000087H   SFRSYM    DATA     BYTE      PCON
      000000BCH   SFRSYM    DATA     BYTE      ADC_CONTR
      000000E7H   SFRSYM    DATA     BYTE      CMPCR2
      000000E6H   SFRSYM    DATA     BYTE      CMPCR1
      000000DEH   SFRSYM    DATA     BYTE      ADCCFG
      000000B8H   SFRSYM    DATA     BYTE      IP
      0000008FH   SFRSYM    DATA     BYTE      INTCLKO
      000000EEH   SFRSYM    DATA     BYTE      IP3H
      000000B6H   SFRSYM    DATA     BYTE      IP2H
      000000A8H   SFRSYM    DATA     BYTE      IE
      000000BBH   SFRSYM    DATA     BYTE      P_SW3
      000000BAH   SFRSYM    DATA     BYTE      P_SW2
      000000A2H   SFRSYM    DATA     BYTE      P_SW1
      000000CEH   SFRSYM    DATA     BYTE      SPCTL
      000000F8H   SFRSYM    DATA     BYTE      P7
      000000E8H   SFRSYM    DATA     BYTE      P6
      000000C8H   SFRSYM    DATA     BYTE      P5
      000000C0H   SFRSYM    DATA     BYTE      P4
      000000B0H   SFRSYM    DATA     BYTE      P3
      000000A0H   SFRSYM    DATA     BYTE      P2
      00000090H   SFRSYM    DATA     BYTE      P1
      00000080H   SFRSYM    DATA     BYTE      P0
      00000BEEH   SYMBOL    EDATA    ---       Buf
      00000BF2H   SYMBOL    EDATA    BYTE      CRC_CNT
      00000BF3H   SYMBOL    EDATA    WORD      CRC_Temp
      00000BF5H   SYMBOL    EDATA    BYTE      i
L251 LINKER/LOCATER V4.66.93.0                                                        05/11/2024  21:00:46  PAGE 85


      00000BF6H   SYMBOL    EDATA    BYTE      j
      00000957H   SYMBOL    EDATA    INT       data1
      00000959H   SYMBOL    EDATA    INT       data2
      0000095BH   SYMBOL    EDATA    INT       data3
      0000095DH   SYMBOL    EDATA    INT       data4
      0000095FH   SYMBOL    EDATA    ---       dat
      00000963H   SYMBOL    EDATA    WORD      CRC16

      ---         MODULE    ---      ---       SEEKFREE_WIRELESS
      00FF5EB6H   PUBLIC    CODE     ---       wireless_uart_callback
      000000D0H   SFRSYM    DATA     BYTE      PSW
      0000009DH   SFRSYM    DATA     BYTE      IRCBAND
      00000097H   SFRSYM    DATA     BYTE      AUXR2
      000000EFH   SFRSYM    DATA     BYTE      AUXINTIF
      000000FDH   SFRSYM    DATA     BYTE      S4CON
      000000ACH   SFRSYM    DATA     BYTE      S3CON
      0000009AH   SFRSYM    DATA     BYTE      S2CON
      000000FEH   SFRSYM    DATA     BYTE      S4BUF
      000000B7H   SFRSYM    DATA     BYTE      IPH
      000000CDH   SFRSYM    DATA     BYTE      SPSTAT
      000000DDH   SFRSYM    DATA     BYTE      T4T3M
      000000C1H   SFRSYM    DATA     BYTE      WDT_CONTR
      000000DFH   SFRSYM    DATA     BYTE      IP3
      000000F4H   SFRSYM    DATA     BYTE      USBCON
      000000B5H   SFRSYM    DATA     BYTE      IP2
      000000FFH   SFRSYM    DATA     BYTE      RSTCFG
      000000C7H   SFRSYM    DATA     BYTE      IAP_CONTR
      000000F9H   SFRSYM    DATA     BYTE      LINICR
      0000008EH   SFRSYM    DATA     BYTE      AUXR
      000000AFH   SFRSYM    DATA     BYTE      IE2
      00000080H.7 SFRSYM    DATA     BIT       P07
      00000088H   SFRSYM    DATA     BYTE      TCON
      00000089H   SFRSYM    DATA     BYTE      TMOD
      00000098H   SFRSYM    DATA     BYTE      SCON
      000000F1H   SFRSYM    DATA     BYTE      CANICR
      00000087H   SFRSYM    DATA     BYTE      PCON
      000000BCH   SFRSYM    DATA     BYTE      ADC_CONTR
      000000E7H   SFRSYM    DATA     BYTE      CMPCR2
      000000E6H   SFRSYM    DATA     BYTE      CMPCR1
      000000DEH   SFRSYM    DATA     BYTE      ADCCFG
      000000B8H   SFRSYM    DATA     BYTE      IP
      0000008FH   SFRSYM    DATA     BYTE      INTCLKO
      000000EEH   SFRSYM    DATA     BYTE      IP3H
      000000B6H   SFRSYM    DATA     BYTE      IP2H
      000000A8H   SFRSYM    DATA     BYTE      IE
      000000BBH   SFRSYM    DATA     BYTE      P_SW3
      000000BAH   SFRSYM    DATA     BYTE      P_SW2
      000000A2H   SFRSYM    DATA     BYTE      P_SW1
      000000CEH   SFRSYM    DATA     BYTE      SPCTL
      000000F8H   SFRSYM    DATA     BYTE      P7
      000000E8H   SFRSYM    DATA     BYTE      P6
      000000C8H   SFRSYM    DATA     BYTE      P5
      000000C0H   SFRSYM    DATA     BYTE      P4
      000000B0H   SFRSYM    DATA     BYTE      P3
      000000A0H   SFRSYM    DATA     BYTE      P2
      00000090H   SFRSYM    DATA     BYTE      P1
      00000080H   SFRSYM    DATA     BYTE      P0
      00000466H   SYMBOL    EDATA    BYTE      wireless_uart_data
      00000467H   SYMBOL    EDATA    ---       wireless_uart_fifo
      0000047BH   SYMBOL    EDATA    ---       wireless_uart_buffer

      00FF5EB6H   BLOCK     CODE     ---       LVL=0
      00FF5EB6H   LINE      CODE     ---       #48
      00FF5EB6H   LINE      CODE     ---       #51
      00FF5EBCH   LINE      CODE     ---       #52
L251 LINKER/LOCATER V4.66.93.0                                                        05/11/2024  21:00:46  PAGE 86


      00FF5ECFH   LINE      CODE     ---       #53
      ---         BLOCKEND  ---      ---       LVL=0
      00000EDCH   SYMBOL    EDATA    BYTE      dat
      00000D51H   SYMBOL    EDATA    ---       buff
      00000D55H   SYMBOL    EDATA    WORD      len
      00000A4BH   SYMBOL    EDATA    ---       buff
      00000A4FH   SYMBOL    EDATA    DWORD     len
      00000A53H   SYMBOL    EDATA    DWORD     data_len

      ---         MODULE    ---      ---       isr
      00FF5C1DH   PUBLIC    CODE     ---       UART1_Isr
      00FF5ED0H   PUBLIC    CODE     ---       UART2_Isr
      00FF5EEAH   PUBLIC    CODE     ---       UART3_Isr
      00FF57B6H   PUBLIC    CODE     ---       UART4_Isr
      00FF005EH   PUBLIC    CODE     ---       INT0_Isr
      00FF000AH   PUBLIC    CODE     ---       INT1_Isr
      00FF0086H   PUBLIC    CODE     ---       INT2_Isr
      00FF008EH   PUBLIC    CODE     ---       INT3_Isr
      00FF0096H   PUBLIC    CODE     ---       INT4_Isr
      00FF5F04H   PUBLIC    CODE     ---       TM0_Isr
      00FF0046H   PUBLIC    CODE     ---       TM1_Isr
      00FF009EH   PUBLIC    CODE     ---       TM2_Isr
      00FF5F87H   PUBLIC    CODE     ---       TM3_Isr
      00000D96H   PUBLIC    EDATA    DWORD     SysTickFlag
      000000D0H   SFRSYM    DATA     BYTE      PSW
      0000009DH   SFRSYM    DATA     BYTE      IRCBAND
      00000097H   SFRSYM    DATA     BYTE      AUXR2
      000000EFH   SFRSYM    DATA     BYTE      AUXINTIF
      000000FDH   SFRSYM    DATA     BYTE      S4CON
      000000ACH   SFRSYM    DATA     BYTE      S3CON
      0000009AH   SFRSYM    DATA     BYTE      S2CON
      000000B7H   SFRSYM    DATA     BYTE      IPH
      000000CDH   SFRSYM    DATA     BYTE      SPSTAT
      000000DDH   SFRSYM    DATA     BYTE      T4T3M
      000000C1H   SFRSYM    DATA     BYTE      WDT_CONTR
      000000DFH   SFRSYM    DATA     BYTE      IP3
      000000F4H   SFRSYM    DATA     BYTE      USBCON
      000000B5H   SFRSYM    DATA     BYTE      IP2
      000000FFH   SFRSYM    DATA     BYTE      RSTCFG
      000000C7H   SFRSYM    DATA     BYTE      IAP_CONTR
      000000F9H   SFRSYM    DATA     BYTE      LINICR
      0000008EH   SFRSYM    DATA     BYTE      AUXR
      000000AFH   SFRSYM    DATA     BYTE      IE2
      000000C8H.2 SFRSYM    DATA     BIT       P52
      00000088H   SFRSYM    DATA     BYTE      TCON
      00000089H   SFRSYM    DATA     BYTE      TMOD
      00000080H.4 SFRSYM    DATA     BIT       P04
      00000098H   SFRSYM    DATA     BYTE      SCON
      000000F1H   SFRSYM    DATA     BYTE      CANICR
      00000087H   SFRSYM    DATA     BYTE      PCON
      00000099H   SFRSYM    DATA     BYTE      SBUF
      000000BCH   SFRSYM    DATA     BYTE      ADC_CONTR
      000000E7H   SFRSYM    DATA     BYTE      CMPCR2
      000000E6H   SFRSYM    DATA     BYTE      CMPCR1
      000000DEH   SFRSYM    DATA     BYTE      ADCCFG
      000000B8H   SFRSYM    DATA     BYTE      IP
      0000008FH   SFRSYM    DATA     BYTE      INTCLKO
      000000EEH   SFRSYM    DATA     BYTE      IP3H
      000000B6H   SFRSYM    DATA     BYTE      IP2H
      000000A8H   SFRSYM    DATA     BYTE      IE
      000000BBH   SFRSYM    DATA     BYTE      P_SW3
      000000BAH   SFRSYM    DATA     BYTE      P_SW2
      000000A2H   SFRSYM    DATA     BYTE      P_SW1
      000000CEH   SFRSYM    DATA     BYTE      SPCTL
      000000F8H   SFRSYM    DATA     BYTE      P7
L251 LINKER/LOCATER V4.66.93.0                                                        05/11/2024  21:00:46  PAGE 87


      000000E8H   SFRSYM    DATA     BYTE      P6
      000000C8H   SFRSYM    DATA     BYTE      P5
      000000C0H   SFRSYM    DATA     BYTE      P4
      000000B0H   SFRSYM    DATA     BYTE      P3
      000000A0H   SFRSYM    DATA     BYTE      P2
      00000090H   SFRSYM    DATA     BYTE      P1
      00000080H   SFRSYM    DATA     BYTE      P0

      00FF5C1DH   BLOCK     CODE     ---       LVL=0
      00FF5C1FH   BLOCK     CODE     NEAR LAB  LVL=1
      00000EDDH   SYMBOL    EDATA    BYTE      res
      00000D9AH   SYMBOL    EDATA    BYTE      dwon_count
      ---         BLOCKEND  ---      ---       LVL=1
      00FF5C1DH   LINE      CODE     ---       #22
      00FF5C1FH   LINE      CODE     ---       #23
      00FF5C1FH   LINE      CODE     ---       #26
      00FF5C24H   LINE      CODE     ---       #28
      00FF5C27H   LINE      CODE     ---       #29
      00FF5C2CH   LINE      CODE     ---       #30
      00FF5C2CH   LINE      CODE     ---       #31
      00FF5C31H   LINE      CODE     ---       #33
      00FF5C34H   LINE      CODE     ---       #34
      00FF5C3AH   LINE      CODE     ---       #36
      00FF5C3FH   LINE      CODE     ---       #38
      00FF5C51H   LINE      CODE     ---       #39
      00FF5C55H   LINE      CODE     ---       #40
      00FF5C57H   LINE      CODE     ---       #43
      00FF5C5CH   LINE      CODE     ---       #44
      00FF5C5CH   LINE      CODE     ---       #45
      ---         BLOCKEND  ---      ---       LVL=0

      00FF5ED0H   BLOCK     CODE     ---       LVL=0
      00FF5ED0H   LINE      CODE     ---       #49
      00FF5ED2H   LINE      CODE     ---       #51
      00FF5ED7H   LINE      CODE     ---       #53
      00FF5EDAH   LINE      CODE     ---       #54
      00FF5EDFH   LINE      CODE     ---       #55
      00FF5EDFH   LINE      CODE     ---       #56
      00FF5EE4H   LINE      CODE     ---       #58
      00FF5EE7H   LINE      CODE     ---       #61
      ---         BLOCKEND  ---      ---       LVL=0

      00FF5EEAH   BLOCK     CODE     ---       LVL=0
      00FF5EEAH   LINE      CODE     ---       #66
      00FF5EECH   LINE      CODE     ---       #68
      00FF5EF1H   LINE      CODE     ---       #70
      00FF5EF4H   LINE      CODE     ---       #71
      00FF5EF9H   LINE      CODE     ---       #72
      00FF5EF9H   LINE      CODE     ---       #73
      00FF5EFEH   LINE      CODE     ---       #75
      00FF5F01H   LINE      CODE     ---       #78
      ---         BLOCKEND  ---      ---       LVL=0

      00FF57B6H   BLOCK     CODE     ---       LVL=0
      00FF57B6H   LINE      CODE     ---       #83
      00FF57CAH   LINE      CODE     ---       #85
      00FF57CDH   LINE      CODE     ---       #86
      00FF57D2H   LINE      CODE     ---       #88
      00FF57D5H   LINE      CODE     ---       #89
      00FF57DAH   LINE      CODE     ---       #90
      00FF57DAH   LINE      CODE     ---       #91
      00FF57DFH   LINE      CODE     ---       #93
      00FF57E2H   LINE      CODE     ---       #95
      00FF57EEH   LINE      CODE     ---       #97
      00FF57F1H   LINE      CODE     ---       #98
L251 LINKER/LOCATER V4.66.93.0                                                        05/11/2024  21:00:46  PAGE 88


      00FF57F3H   LINE      CODE     ---       #99
      00FF57FFH   LINE      CODE     ---       #101
      00FF5802H   LINE      CODE     ---       #102
      00FF5802H   LINE      CODE     ---       #105
      ---         BLOCKEND  ---      ---       LVL=0

      00FF005EH   BLOCK     CODE     ---       LVL=0
      00FF005EH   LINE      CODE     ---       #108
      00FF005EH   LINE      CODE     ---       #110
      00FF0061H   LINE      CODE     ---       #111
      ---         BLOCKEND  ---      ---       LVL=0

      00FF000AH   BLOCK     CODE     ---       LVL=0
      00FF000AH   LINE      CODE     ---       #112
      00FF000AH   LINE      CODE     ---       #115
      ---         BLOCKEND  ---      ---       LVL=0

      00FF0086H   BLOCK     CODE     ---       LVL=0
      00FF0086H   LINE      CODE     ---       #116
      00FF0086H   LINE      CODE     ---       #118
      00FF0089H   LINE      CODE     ---       #119
      ---         BLOCKEND  ---      ---       LVL=0

      00FF008EH   BLOCK     CODE     ---       LVL=0
      00FF008EH   LINE      CODE     ---       #120
      00FF008EH   LINE      CODE     ---       #122
      00FF0091H   LINE      CODE     ---       #123
      ---         BLOCKEND  ---      ---       LVL=0

      00FF0096H   BLOCK     CODE     ---       LVL=0
      00FF0096H   LINE      CODE     ---       #125
      00FF0096H   LINE      CODE     ---       #127
      00FF0099H   LINE      CODE     ---       #128
      ---         BLOCKEND  ---      ---       LVL=0

      00FF5F04H   BLOCK     CODE     ---       LVL=0
      00FF5F04H   LINE      CODE     ---       #130
      00FF5F08H   LINE      CODE     ---       #132
      00FF5F16H   LINE      CODE     ---       #133
      ---         BLOCKEND  ---      ---       LVL=0

      00FF0046H   BLOCK     CODE     ---       LVL=0
      00FF0046H   LINE      CODE     ---       #134
      00FF0046H   LINE      CODE     ---       #136
      00FF004FH   LINE      CODE     ---       #137
      ---         BLOCKEND  ---      ---       LVL=0

      00FF009EH   BLOCK     CODE     ---       LVL=0
      00FF009EH   LINE      CODE     ---       #138
      00FF009EH   LINE      CODE     ---       #140
      00FF00A1H   LINE      CODE     ---       #142
      ---         BLOCKEND  ---      ---       LVL=0

      00FF5F87H   BLOCK     CODE     ---       LVL=0
      00FF5F87H   LINE      CODE     ---       #143
      00FF5F87H   LINE      CODE     ---       #145
      00FF5F8AH   LINE      CODE     ---       #147
      ---         BLOCKEND  ---      ---       LVL=0

      ---         MODULE    ---      ---       main
      00FF5B95H   PUBLIC    CODE     ---       main
      00000A57H   PUBLIC    EDATA    FLOAT     Gyro_Diff
      00000A5BH   PUBLIC    EDATA    INT       flag
      00000A5DH   PUBLIC    EDATA    INT       menu
      00000A5FH   PUBLIC    EDATA    INT       Car_Start_Flag
L251 LINKER/LOCATER V4.66.93.0                                                        05/11/2024  21:00:46  PAGE 89


      00000A61H   PUBLIC    EDATA    INT       Car_Stop_Flag
      000000D0H   SFRSYM    DATA     BYTE      PSW
      0000009DH   SFRSYM    DATA     BYTE      IRCBAND
      00000097H   SFRSYM    DATA     BYTE      AUXR2
      000000EFH   SFRSYM    DATA     BYTE      AUXINTIF
      000000FDH   SFRSYM    DATA     BYTE      S4CON
      000000ACH   SFRSYM    DATA     BYTE      S3CON
      0000009AH   SFRSYM    DATA     BYTE      S2CON
      000000B7H   SFRSYM    DATA     BYTE      IPH
      000000CDH   SFRSYM    DATA     BYTE      SPSTAT
      000000DDH   SFRSYM    DATA     BYTE      T4T3M
      000000C1H   SFRSYM    DATA     BYTE      WDT_CONTR
      000000DFH   SFRSYM    DATA     BYTE      IP3
      000000F4H   SFRSYM    DATA     BYTE      USBCON
      000000B5H   SFRSYM    DATA     BYTE      IP2
      000000FFH   SFRSYM    DATA     BYTE      RSTCFG
      000000C7H   SFRSYM    DATA     BYTE      IAP_CONTR
      000000F9H   SFRSYM    DATA     BYTE      LINICR
      0000008EH   SFRSYM    DATA     BYTE      AUXR
      000000AFH   SFRSYM    DATA     BYTE      IE2
      00000088H   SFRSYM    DATA     BYTE      TCON
      00000089H   SFRSYM    DATA     BYTE      TMOD
      00000098H   SFRSYM    DATA     BYTE      SCON
      000000F1H   SFRSYM    DATA     BYTE      CANICR
      00000087H   SFRSYM    DATA     BYTE      PCON
      000000BCH   SFRSYM    DATA     BYTE      ADC_CONTR
      000000E7H   SFRSYM    DATA     BYTE      CMPCR2
      000000E6H   SFRSYM    DATA     BYTE      CMPCR1
      000000DEH   SFRSYM    DATA     BYTE      ADCCFG
      000000B8H   SFRSYM    DATA     BYTE      IP
      0000008FH   SFRSYM    DATA     BYTE      INTCLKO
      000000EEH   SFRSYM    DATA     BYTE      IP3H
      000000B6H   SFRSYM    DATA     BYTE      IP2H
      000000A8H   SFRSYM    DATA     BYTE      IE
      000000BBH   SFRSYM    DATA     BYTE      P_SW3
      000000BAH   SFRSYM    DATA     BYTE      P_SW2
      000000A2H   SFRSYM    DATA     BYTE      P_SW1
      000000CEH   SFRSYM    DATA     BYTE      SPCTL
      000000F8H   SFRSYM    DATA     BYTE      P7
      000000E8H   SFRSYM    DATA     BYTE      P6
      000000C8H   SFRSYM    DATA     BYTE      P5
      000000C0H   SFRSYM    DATA     BYTE      P4
      000000B0H   SFRSYM    DATA     BYTE      P3
      000000A0H   SFRSYM    DATA     BYTE      P2
      00000090H   SFRSYM    DATA     BYTE      P1
      00000080H   SFRSYM    DATA     BYTE      P0

      00FF5B95H   BLOCK     CODE     ---       LVL=0
      00000D57H   SYMBOL    EDATA    INT       i
      00000D59H   SYMBOL    EDATA    LONG      ns_delay
      00FF5B95H   LINE      CODE     ---       #37
      00FF5B95H   LINE      CODE     ---       #38
      00FF5B95H   LINE      CODE     ---       #39
      00FF5B9BH   LINE      CODE     ---       #40
      00FF5BA3H   LINE      CODE     ---       #41
      00FF5BAEH   LINE      CODE     ---       #42
      00FF5BB1H   LINE      CODE     ---       #44
      00FF5BB4H   LINE      CODE     ---       #45
      00FF5BB7H   LINE      CODE     ---       #46
      00FF5BBEH   LINE      CODE     ---       #47
      00FF5BC5H   LINE      CODE     ---       #48
      00FF5BCFH   LINE      CODE     ---       #49
      00FF5BCFH   LINE      CODE     ---       #58
      00FF5BD7H   LINE      CODE     ---       #60
      00FF5BD9H   LINE      CODE     ---       #61
L251 LINKER/LOCATER V4.66.93.0                                                        05/11/2024  21:00:46  PAGE 90


      ---         BLOCKEND  ---      ---       LVL=0

      ---         MODULE    ---      ---       Inductance
      00FF5B4EH   PUBLIC    CODE     ---       Inductance_Init
      00000021H   PUBLIC    EDATA    WORD      R3_NOR_ADC
      00000023H   PUBLIC    EDATA    WORD      L3
      00000025H   PUBLIC    EDATA    WORD      R1
      00000027H   PUBLIC    EDATA    WORD      R2
      00000029H   PUBLIC    EDATA    WORD      R3
      0000002BH   PUBLIC    EDATA    WORD      Right_Val
      0000002DH   PUBLIC    EDATA    ---       ADC_MIN
      0000003BH   PUBLIC    EDATA    ---       ADC_MAX
      00000049H   PUBLIC    EDATA    WORD      Left_Val
      0000004BH   PUBLIC    EDATA    ---       AD_NOR_VAL
      00000067H   PUBLIC    EDATA    ---       NOR_VAL
      00000083H   PUBLIC    EDATA    INT       bug
      00000085H   PUBLIC    EDATA    INT       ad_diff
      00000087H   PUBLIC    EDATA    ---       ad_value
      00000113H   PUBLIC    EDATA    INT       Inductance_Error
      00000115H   PUBLIC    EDATA    WORD      L1_NOR_ADC
      00000117H   PUBLIC    EDATA    WORD      M1_NOR_ADC
      00000119H   PUBLIC    EDATA    WORD      L2_NOR_ADC
      0000011BH   PUBLIC    EDATA    WORD      L3_NOR_ADC
      0000011DH   PUBLIC    EDATA    INT       ad_sum
      0000011FH   PUBLIC    EDATA    WORD      R1_NOR_ADC
      00000121H   PUBLIC    EDATA    WORD      L1
      00000123H   PUBLIC    EDATA    WORD      R2_NOR_ADC
      00000125H   PUBLIC    EDATA    WORD      M1
      00000127H   PUBLIC    EDATA    WORD      L2
      000000D0H   SFRSYM    DATA     BYTE      PSW
      0000009DH   SFRSYM    DATA     BYTE      IRCBAND
      00000097H   SFRSYM    DATA     BYTE      AUXR2
      000000EFH   SFRSYM    DATA     BYTE      AUXINTIF
      000000FDH   SFRSYM    DATA     BYTE      S4CON
      000000ACH   SFRSYM    DATA     BYTE      S3CON
      0000009AH   SFRSYM    DATA     BYTE      S2CON
      000000B7H   SFRSYM    DATA     BYTE      IPH
      000000CDH   SFRSYM    DATA     BYTE      SPSTAT
      000000DDH   SFRSYM    DATA     BYTE      T4T3M
      000000C1H   SFRSYM    DATA     BYTE      WDT_CONTR
      000000DFH   SFRSYM    DATA     BYTE      IP3
      000000F4H   SFRSYM    DATA     BYTE      USBCON
      000000B5H   SFRSYM    DATA     BYTE      IP2
      000000FFH   SFRSYM    DATA     BYTE      RSTCFG
      000000C7H   SFRSYM    DATA     BYTE      IAP_CONTR
      000000F9H   SFRSYM    DATA     BYTE      LINICR
      0000008EH   SFRSYM    DATA     BYTE      AUXR
      000000AFH   SFRSYM    DATA     BYTE      IE2
      00000088H   SFRSYM    DATA     BYTE      TCON
      00000089H   SFRSYM    DATA     BYTE      TMOD
      00000098H   SFRSYM    DATA     BYTE      SCON
      000000F1H   SFRSYM    DATA     BYTE      CANICR
      00000087H   SFRSYM    DATA     BYTE      PCON
      000000BCH   SFRSYM    DATA     BYTE      ADC_CONTR
      000000E7H   SFRSYM    DATA     BYTE      CMPCR2
      000000E6H   SFRSYM    DATA     BYTE      CMPCR1
      000000DEH   SFRSYM    DATA     BYTE      ADCCFG
      000000B8H   SFRSYM    DATA     BYTE      IP
      0000008FH   SFRSYM    DATA     BYTE      INTCLKO
      000000EEH   SFRSYM    DATA     BYTE      IP3H
      000000B6H   SFRSYM    DATA     BYTE      IP2H
      000000A8H   SFRSYM    DATA     BYTE      IE
      000000BBH   SFRSYM    DATA     BYTE      P_SW3
      000000BAH   SFRSYM    DATA     BYTE      P_SW2
      000000A2H   SFRSYM    DATA     BYTE      P_SW1
L251 LINKER/LOCATER V4.66.93.0                                                        05/11/2024  21:00:46  PAGE 91


      000000CEH   SFRSYM    DATA     BYTE      SPCTL
      000000F8H   SFRSYM    DATA     BYTE      P7
      000000E8H   SFRSYM    DATA     BYTE      P6
      000000C8H   SFRSYM    DATA     BYTE      P5
      000000C0H   SFRSYM    DATA     BYTE      P4
      000000B0H   SFRSYM    DATA     BYTE      P3
      000000A0H   SFRSYM    DATA     BYTE      P2
      00000090H   SFRSYM    DATA     BYTE      P1
      00000080H   SFRSYM    DATA     BYTE      P0
      00FF6558H   SYMBOL    HCONST   ---       ?tpl?0001
      00FF6566H   SYMBOL    HCONST   ---       ?tpl?0002

      00FF5B4EH   BLOCK     CODE     ---       LVL=0
      00FF5B4EH   LINE      CODE     ---       #32
      00FF5B4EH   LINE      CODE     ---       #34
      00FF5B55H   LINE      CODE     ---       #35
      00FF5B5EH   LINE      CODE     ---       #36
      00FF5B67H   LINE      CODE     ---       #37
      00FF5B70H   LINE      CODE     ---       #38
      00FF5B79H   LINE      CODE     ---       #39
      00FF5B82H   LINE      CODE     ---       #40
      00FF5B8BH   LINE      CODE     ---       #41
      00FF5B94H   LINE      CODE     ---       #42
      ---         BLOCKEND  ---      ---       LVL=0
      00000892H   SYMBOL    EDATA    FLOAT     number
      00000896H   SYMBOL    EDATA    LONG      i
      0000089AH   SYMBOL    EDATA    FLOAT     x
      0000089EH   SYMBOL    EDATA    FLOAT     y
      000008A2H   SYMBOL    EDATA    FLOAT     f
      0000076EH   SYMBOL    EDATA    FLOAT     I1
      00000772H   SYMBOL    EDATA    INT       i
      00000774H   SYMBOL    EDATA    INT       j
      00000776H   SYMBOL    EDATA    INT       k
      00000778H   SYMBOL    EDATA    INT       temp
      0000077AH   SYMBOL    EDATA    ---       ad_sum1
      00000788H   SYMBOL    EDATA    ---       ad_valu1

      ---         MODULE    ---      ---       Motor
      00FF5E72H   PUBLIC    CODE     ---       Motor_Init
      00FF5A6FH   PUBLIC    CODE     ---       Motor_SET_PID
      00000309H   PUBLIC    EDATA    ---       Motor_pid
      00000331H   PUBLIC    EDATA    FLOAT     Motor_I
      00000335H   PUBLIC    EDATA    FLOAT     Motor_P
      00000339H   PUBLIC    EDATA    FLOAT     Speed_Ring
      00000A63H   PUBLIC    EDATA    BYTE      ?Motor_SET_PID?BYTE
      000000D0H   SFRSYM    DATA     BYTE      PSW
      0000009DH   SFRSYM    DATA     BYTE      IRCBAND
      00000097H   SFRSYM    DATA     BYTE      AUXR2
      000000EFH   SFRSYM    DATA     BYTE      AUXINTIF
      000000FDH   SFRSYM    DATA     BYTE      S4CON
      000000ACH   SFRSYM    DATA     BYTE      S3CON
      0000009AH   SFRSYM    DATA     BYTE      S2CON
      000000B7H   SFRSYM    DATA     BYTE      IPH
      000000CDH   SFRSYM    DATA     BYTE      SPSTAT
      000000DDH   SFRSYM    DATA     BYTE      T4T3M
      000000C1H   SFRSYM    DATA     BYTE      WDT_CONTR
      000000DFH   SFRSYM    DATA     BYTE      IP3
      000000F4H   SFRSYM    DATA     BYTE      USBCON
      000000B5H   SFRSYM    DATA     BYTE      IP2
      000000FFH   SFRSYM    DATA     BYTE      RSTCFG
      000000C7H   SFRSYM    DATA     BYTE      IAP_CONTR
      000000F9H   SFRSYM    DATA     BYTE      LINICR
      0000008EH   SFRSYM    DATA     BYTE      AUXR
      000000AFH   SFRSYM    DATA     BYTE      IE2
      000000C0H.4 SFRSYM    DATA     BIT       P44
L251 LINKER/LOCATER V4.66.93.0                                                        05/11/2024  21:00:46  PAGE 92


      000000C8H.2 SFRSYM    DATA     BIT       P52
      000000C0H.2 SFRSYM    DATA     BIT       P42
      00000088H   SFRSYM    DATA     BYTE      TCON
      00000089H   SFRSYM    DATA     BYTE      TMOD
      00000098H   SFRSYM    DATA     BYTE      SCON
      000000F1H   SFRSYM    DATA     BYTE      CANICR
      00000087H   SFRSYM    DATA     BYTE      PCON
      000000BCH   SFRSYM    DATA     BYTE      ADC_CONTR
      000000E7H   SFRSYM    DATA     BYTE      CMPCR2
      000000E6H   SFRSYM    DATA     BYTE      CMPCR1
      000000DEH   SFRSYM    DATA     BYTE      ADCCFG
      000000B8H   SFRSYM    DATA     BYTE      IP
      0000008FH   SFRSYM    DATA     BYTE      INTCLKO
      000000EEH   SFRSYM    DATA     BYTE      IP3H
      000000B6H   SFRSYM    DATA     BYTE      IP2H
      000000A8H   SFRSYM    DATA     BYTE      IE
      000000BBH   SFRSYM    DATA     BYTE      P_SW3
      000000BAH   SFRSYM    DATA     BYTE      P_SW2
      000000A2H   SFRSYM    DATA     BYTE      P_SW1
      000000CEH   SFRSYM    DATA     BYTE      SPCTL
      000000F8H   SFRSYM    DATA     BYTE      P7
      000000E8H   SFRSYM    DATA     BYTE      P6
      000000C8H   SFRSYM    DATA     BYTE      P5
      000000C0H   SFRSYM    DATA     BYTE      P4
      000000B0H   SFRSYM    DATA     BYTE      P3
      000000A0H   SFRSYM    DATA     BYTE      P2
      00000090H   SFRSYM    DATA     BYTE      P1
      00000080H   SFRSYM    DATA     BYTE      P0
      00000DFCH   SYMBOL    EDATA    INT       In
      00000DFEH   SYMBOL    EDATA    INT       limit

      00FF5E72H   BLOCK     CODE     ---       LVL=0
      00FF5E72H   LINE      CODE     ---       #34
      00FF5E72H   LINE      CODE     ---       #36
      00FF5E83H   LINE      CODE     ---       #37
      00FF5E94H   LINE      CODE     ---       #38
      ---         BLOCKEND  ---      ---       LVL=0
      00000E00H   SYMBOL    EDATA    INT       L_PWM
      00000E02H   SYMBOL    EDATA    INT       R_PWM

      00FF5A6FH   BLOCK     CODE     ---       LVL=0
      00000A63H   SYMBOL    EDATA    FLOAT     Kp
      00000A67H   SYMBOL    EDATA    FLOAT     Ki
      00000A6BH   SYMBOL    EDATA    FLOAT     Kd
      00FF5A6FH   LINE      CODE     ---       #75
      00FF5A77H   LINE      CODE     ---       #77
      00FF5A7DH   LINE      CODE     ---       #78
      00FF5A83H   LINE      CODE     ---       #79
      00FF5A89H   LINE      CODE     ---       #80
      00FF5A8FH   LINE      CODE     ---       #81
      00FF5A95H   LINE      CODE     ---       #82
      00FF5A9DH   LINE      CODE     ---       #83
      00FF5AA5H   LINE      CODE     ---       #84
      00FF5AADH   LINE      CODE     ---       #85
      00FF5AB3H   LINE      CODE     ---       #86
      00FF5AB9H   LINE      CODE     ---       #87
      ---         BLOCKEND  ---      ---       LVL=0
      00000D9BH   SYMBOL    EDATA    CHAR      NEW_DATA
      00000D9CH   SYMBOL    EDATA    CHAR      OLD_DATA
      00000D9DH   SYMBOL    EDATA    CHAR      k
      00000D9EH   SYMBOL    EDATA    INT       result
      00000D5DH   SYMBOL    EDATA    INT       Target_Value
      00000D5FH   SYMBOL    EDATA    INT       Actual_Value
      00000D61H   SYMBOL    EDATA    INT       error
      0000033DH   SYMBOL    EDATA    FLOAT     last_err
L251 LINKER/LOCATER V4.66.93.0                                                        05/11/2024  21:00:46  PAGE 93


      00000341H   SYMBOL    EDATA    FLOAT     speed_out
      00000345H   SYMBOL    EDATA    FLOAT     P_out
      00000349H   SYMBOL    EDATA    FLOAT     I_out
      0000034DH   SYMBOL    EDATA    FLOAT     out
      00000D63H   SYMBOL    EDATA    INT       Target_Value
      00000D65H   SYMBOL    EDATA    INT       Actual_Value
      00000D67H   SYMBOL    EDATA    INT       error
      00000351H   SYMBOL    EDATA    FLOAT     last_err
      00000355H   SYMBOL    EDATA    FLOAT     speed_out
      00000359H   SYMBOL    EDATA    FLOAT     P_out
      0000035DH   SYMBOL    EDATA    FLOAT     I_out
      00000361H   SYMBOL    EDATA    FLOAT     out
      00000EB3H   SYMBOL    EDATA    INT       time

      ---         MODULE    ---      ---       encoder
      00FF5DA9H   PUBLIC    CODE     ---       Encoder_Time_Init
      00FF5ABAH   PUBLIC    CODE     ---       TM4_Isr
      00000742H   PUBLIC    EDATA    INT       nh_out
      00000744H   PUBLIC    EDATA    INT       speed
      00000746H   PUBLIC    EDATA    FLOAT     Ang
      0000074AH   PUBLIC    EDATA    INT       Sum_Pulse
      0000074CH   PUBLIC    EDATA    INT       L_Pulse
      0000074EH   PUBLIC    EDATA    FLOAT     angle1
      00000752H   PUBLIC    EDATA    INT       R_Pulse
      00000754H   PUBLIC    EDATA    FLOAT     L
      00000758H   PUBLIC    EDATA    FLOAT     R
      0000075CH   PUBLIC    EDATA    INT       dir_out
      000000D0H   SFRSYM    DATA     BYTE      PSW
      0000009DH   SFRSYM    DATA     BYTE      IRCBAND
      00000097H   SFRSYM    DATA     BYTE      AUXR2
      000000EFH   SFRSYM    DATA     BYTE      AUXINTIF
      000000FDH   SFRSYM    DATA     BYTE      S4CON
      000000ACH   SFRSYM    DATA     BYTE      S3CON
      0000009AH   SFRSYM    DATA     BYTE      S2CON
      000000B7H   SFRSYM    DATA     BYTE      IPH
      000000CDH   SFRSYM    DATA     BYTE      SPSTAT
      000000DDH   SFRSYM    DATA     BYTE      T4T3M
      000000C1H   SFRSYM    DATA     BYTE      WDT_CONTR
      000000DFH   SFRSYM    DATA     BYTE      IP3
      000000F4H   SFRSYM    DATA     BYTE      USBCON
      000000B5H   SFRSYM    DATA     BYTE      IP2
      000000FFH   SFRSYM    DATA     BYTE      RSTCFG
      000000C7H   SFRSYM    DATA     BYTE      IAP_CONTR
      000000F9H   SFRSYM    DATA     BYTE      LINICR
      0000008EH   SFRSYM    DATA     BYTE      AUXR
      000000AFH   SFRSYM    DATA     BYTE      IE2
      00000090H.6 SFRSYM    DATA     BIT       P16
      00000088H   SFRSYM    DATA     BYTE      TCON
      00000089H   SFRSYM    DATA     BYTE      TMOD
      000000C8H.0 SFRSYM    DATA     BIT       P50
      00000098H   SFRSYM    DATA     BYTE      SCON
      000000F1H   SFRSYM    DATA     BYTE      CANICR
      00000087H   SFRSYM    DATA     BYTE      PCON
      000000BCH   SFRSYM    DATA     BYTE      ADC_CONTR
      000000E7H   SFRSYM    DATA     BYTE      CMPCR2
      000000E6H   SFRSYM    DATA     BYTE      CMPCR1
      000000DEH   SFRSYM    DATA     BYTE      ADCCFG
      000000B8H   SFRSYM    DATA     BYTE      IP
      0000008FH   SFRSYM    DATA     BYTE      INTCLKO
      000000EEH   SFRSYM    DATA     BYTE      IP3H
      000000B6H   SFRSYM    DATA     BYTE      IP2H
      000000A8H   SFRSYM    DATA     BYTE      IE
      000000BBH   SFRSYM    DATA     BYTE      P_SW3
      000000BAH   SFRSYM    DATA     BYTE      P_SW2
      000000A2H   SFRSYM    DATA     BYTE      P_SW1
L251 LINKER/LOCATER V4.66.93.0                                                        05/11/2024  21:00:46  PAGE 94


      000000CEH   SFRSYM    DATA     BYTE      SPCTL
      000000F8H   SFRSYM    DATA     BYTE      P7
      000000E8H   SFRSYM    DATA     BYTE      P6
      000000C8H   SFRSYM    DATA     BYTE      P5
      000000C0H   SFRSYM    DATA     BYTE      P4
      000000B0H   SFRSYM    DATA     BYTE      P3
      000000A0H   SFRSYM    DATA     BYTE      P2
      00000090H   SFRSYM    DATA     BYTE      P1
      00000080H   SFRSYM    DATA     BYTE      P0

      00FF5DA9H   BLOCK     CODE     ---       LVL=0
      00FF5DA9H   LINE      CODE     ---       #17
      00FF5DA9H   LINE      CODE     ---       #19
      00FF5DB4H   LINE      CODE     ---       #20
      00FF5DBDH   LINE      CODE     ---       #21
      00FF5DC8H   LINE      CODE     ---       #22
      00FF5DCDH   LINE      CODE     ---       #23
      00FF5DD4H   LINE      CODE     ---       #24
      00FF5DD7H   LINE      CODE     ---       #25
      ---         BLOCKEND  ---      ---       LVL=0
      00000EB5H   SYMBOL    EDATA    INT       L_target
      0000075EH   SYMBOL    EDATA    INT       L
      00000760H   SYMBOL    EDATA    INT       L_flag
      00000EB7H   SYMBOL    EDATA    INT       R_target
      00000762H   SYMBOL    EDATA    INT       R
      00000764H   SYMBOL    EDATA    INT       R_flag

      00FF5ABAH   BLOCK     CODE     ---       LVL=0
      00FF5ACEH   BLOCK     CODE     NEAR LAB  LVL=1
      00000766H   SYMBOL    EDATA    INT       count
      0000076CH   SYMBOL    EDATA    INT       groy
      00000EB9H   SYMBOL    EDATA    INT       nh
      ---         BLOCKEND  ---      ---       LVL=1
      00FF5ABAH   LINE      CODE     ---       #113
      00FF5ACEH   LINE      CODE     ---       #114
      00FF5ACEH   LINE      CODE     ---       #116
      00FF5AD4H   LINE      CODE     ---       #117
      00FF5ADEH   LINE      CODE     ---       #119
      00FF5AE1H   LINE      CODE     ---       #134
      00FF5AE6H   LINE      CODE     ---       #135
      00FF5AEDH   LINE      CODE     ---       #136
      00FF5AF0H   LINE      CODE     ---       #137
      ---         BLOCKEND  ---      ---       LVL=0

      ---         MODULE    ---      ---       direction
      00000365H   PUBLIC    EDATA    INT       Speed_Ring_Flag
      00000367H   PUBLIC    EDATA    FLOAT     gyro_z3
      0000036BH   PUBLIC    EDATA    FLOAT     Nh_D
      0000036FH   PUBLIC    EDATA    FLOAT     Wh_D
      00000373H   PUBLIC    EDATA    FLOAT     Nh_P
      00000377H   PUBLIC    EDATA    FLOAT     Wh_P
      0000082BH   PUBLIC    EDATA    BYTE      ?wh_Turn_Out?BYTE
      00000A6FH   PUBLIC    EDATA    BYTE      ?nh_Turn_Out?BYTE
      00000008H   PUBLIC    EDATA    BYTE      ?Angle_Ring?BYTE
      00000A7BH   PUBLIC    EDATA    BYTE      ?Angle_Speed_Ring?BYTE
      000007DDH   PUBLIC    EDATA    BYTE      ?DirControl_2?BYTE
      000000D0H   SFRSYM    DATA     BYTE      PSW
      0000009DH   SFRSYM    DATA     BYTE      IRCBAND
      00000097H   SFRSYM    DATA     BYTE      AUXR2
      000000EFH   SFRSYM    DATA     BYTE      AUXINTIF
      000000FDH   SFRSYM    DATA     BYTE      S4CON
      000000ACH   SFRSYM    DATA     BYTE      S3CON
      0000009AH   SFRSYM    DATA     BYTE      S2CON
      000000B7H   SFRSYM    DATA     BYTE      IPH
      000000CDH   SFRSYM    DATA     BYTE      SPSTAT
L251 LINKER/LOCATER V4.66.93.0                                                        05/11/2024  21:00:46  PAGE 95


      000000DDH   SFRSYM    DATA     BYTE      T4T3M
      000000C1H   SFRSYM    DATA     BYTE      WDT_CONTR
      000000DFH   SFRSYM    DATA     BYTE      IP3
      000000F4H   SFRSYM    DATA     BYTE      USBCON
      000000B5H   SFRSYM    DATA     BYTE      IP2
      000000FFH   SFRSYM    DATA     BYTE      RSTCFG
      000000C7H   SFRSYM    DATA     BYTE      IAP_CONTR
      000000F9H   SFRSYM    DATA     BYTE      LINICR
      0000008EH   SFRSYM    DATA     BYTE      AUXR
      000000AFH   SFRSYM    DATA     BYTE      IE2
      00000088H   SFRSYM    DATA     BYTE      TCON
      00000089H   SFRSYM    DATA     BYTE      TMOD
      00000098H   SFRSYM    DATA     BYTE      SCON
      000000F1H   SFRSYM    DATA     BYTE      CANICR
      00000087H   SFRSYM    DATA     BYTE      PCON
      000000BCH   SFRSYM    DATA     BYTE      ADC_CONTR
      000000E7H   SFRSYM    DATA     BYTE      CMPCR2
      000000E6H   SFRSYM    DATA     BYTE      CMPCR1
      000000DEH   SFRSYM    DATA     BYTE      ADCCFG
      000000B8H   SFRSYM    DATA     BYTE      IP
      0000008FH   SFRSYM    DATA     BYTE      INTCLKO
      000000EEH   SFRSYM    DATA     BYTE      IP3H
      000000B6H   SFRSYM    DATA     BYTE      IP2H
      000000A8H   SFRSYM    DATA     BYTE      IE
      000000BBH   SFRSYM    DATA     BYTE      P_SW3
      000000BAH   SFRSYM    DATA     BYTE      P_SW2
      000000A2H   SFRSYM    DATA     BYTE      P_SW1
      000000CEH   SFRSYM    DATA     BYTE      SPCTL
      000000F8H   SFRSYM    DATA     BYTE      P7
      000000E8H   SFRSYM    DATA     BYTE      P6
      000000C8H   SFRSYM    DATA     BYTE      P5
      000000C0H   SFRSYM    DATA     BYTE      P4
      000000B0H   SFRSYM    DATA     BYTE      P3
      000000A0H   SFRSYM    DATA     BYTE      P2
      00000090H   SFRSYM    DATA     BYTE      P1
      00000080H   SFRSYM    DATA     BYTE      P0
      0000082BH   SYMBOL    EDATA    INT       chazhi
      0000082DH   SYMBOL    EDATA    FLOAT     dir_p
      00000831H   SYMBOL    EDATA    FLOAT     dir_d
      00000835H   SYMBOL    EDATA    FLOAT     error
      0000037BH   SYMBOL    EDATA    FLOAT     last_error
      00000839H   SYMBOL    EDATA    FLOAT     Output
      0000083DH   SYMBOL    EDATA    FLOAT     error_derivative
      00000A6FH   SYMBOL    EDATA    INT       err
      00000A71H   SYMBOL    EDATA    FLOAT     dir_p
      00000A75H   SYMBOL    EDATA    FLOAT     dir_i
      00000A79H   SYMBOL    EDATA    INT       error1
      0000037FH   SYMBOL    EDATA    FLOAT     last_err
      00000383H   SYMBOL    EDATA    FLOAT     nh_out
      00000387H   SYMBOL    EDATA    FLOAT     P_out
      0000038BH   SYMBOL    EDATA    FLOAT     I_out
      0000038FH   SYMBOL    EDATA    FLOAT     out
      00000393H   SYMBOL    EDATA    INT       count
      00000395H   SYMBOL    EDATA    INT       wh_out
      00000008H   SYMBOL    EDATA    FLOAT     target
      0000000CH   SYMBOL    EDATA    FLOAT     p
      00000010H   SYMBOL    EDATA    FLOAT     d
      00000014H   SYMBOL    EDATA    FLOAT     error
      00000397H   SYMBOL    EDATA    FLOAT     last_error
      0000039BH   SYMBOL    EDATA    FLOAT     Ki_val
      00000018H   SYMBOL    EDATA    INT       Output
      0000001AH   SYMBOL    EDATA    INT       Angle_Speed
      0000001CH   SYMBOL    EDATA    FLOAT     error_derivative
      00000A7BH   SYMBOL    EDATA    INT       err
      00000A7DH   SYMBOL    EDATA    FLOAT     dir_p
L251 LINKER/LOCATER V4.66.93.0                                                        05/11/2024  21:00:46  PAGE 96


      00000A81H   SYMBOL    EDATA    FLOAT     dir_i
      00000A85H   SYMBOL    EDATA    INT       error1
      0000039FH   SYMBOL    EDATA    FLOAT     last_err
      000003A3H   SYMBOL    EDATA    FLOAT     nh_out
      000003A7H   SYMBOL    EDATA    FLOAT     P_out
      000003ABH   SYMBOL    EDATA    FLOAT     I_out
      000003AFH   SYMBOL    EDATA    FLOAT     out
      000007DDH   SYMBOL    EDATA    INT       chazhi
      000007DFH   SYMBOL    EDATA    FLOAT     dir_p
      000007E3H   SYMBOL    EDATA    FLOAT     dir_d
      000007E7H   SYMBOL    EDATA    FLOAT     dir_d2
      000007EBH   SYMBOL    EDATA    FLOAT     error
      000003B3H   SYMBOL    EDATA    FLOAT     last_error
      000007EFH   SYMBOL    EDATA    FLOAT     Output
      000007F3H   SYMBOL    EDATA    FLOAT     error_derivative
      00000EBBH   SYMBOL    EDATA    INT       L_Distanc
      000003B7H   SYMBOL    EDATA    INT       L_Dis
      000003B9H   SYMBOL    EDATA    INT       R_Dis

      ---         MODULE    ---      ---       vofa
      0000022AH   PUBLIC    EDATA    ---       DataToSend
      000007F7H   PUBLIC    EDATA    BYTE      ?Send4DataToVofa?BYTE
      000000D0H   SFRSYM    DATA     BYTE      PSW
      0000009DH   SFRSYM    DATA     BYTE      IRCBAND
      00000097H   SFRSYM    DATA     BYTE      AUXR2
      000000EFH   SFRSYM    DATA     BYTE      AUXINTIF
      000000FDH   SFRSYM    DATA     BYTE      S4CON
      000000ACH   SFRSYM    DATA     BYTE      S3CON
      0000009AH   SFRSYM    DATA     BYTE      S2CON
      000000B7H   SFRSYM    DATA     BYTE      IPH
      000000CDH   SFRSYM    DATA     BYTE      SPSTAT
      000000DDH   SFRSYM    DATA     BYTE      T4T3M
      000000C1H   SFRSYM    DATA     BYTE      WDT_CONTR
      000000DFH   SFRSYM    DATA     BYTE      IP3
      000000F4H   SFRSYM    DATA     BYTE      USBCON
      000000B5H   SFRSYM    DATA     BYTE      IP2
      000000FFH   SFRSYM    DATA     BYTE      RSTCFG
      000000C7H   SFRSYM    DATA     BYTE      IAP_CONTR
      000000F9H   SFRSYM    DATA     BYTE      LINICR
      0000008EH   SFRSYM    DATA     BYTE      AUXR
      000000AFH   SFRSYM    DATA     BYTE      IE2
      00000088H   SFRSYM    DATA     BYTE      TCON
      00000089H   SFRSYM    DATA     BYTE      TMOD
      00000098H   SFRSYM    DATA     BYTE      SCON
      000000F1H   SFRSYM    DATA     BYTE      CANICR
      00000087H   SFRSYM    DATA     BYTE      PCON
      000000BCH   SFRSYM    DATA     BYTE      ADC_CONTR
      000000E7H   SFRSYM    DATA     BYTE      CMPCR2
      000000E6H   SFRSYM    DATA     BYTE      CMPCR1
      000000DEH   SFRSYM    DATA     BYTE      ADCCFG
      000000B8H   SFRSYM    DATA     BYTE      IP
      0000008FH   SFRSYM    DATA     BYTE      INTCLKO
      000000EEH   SFRSYM    DATA     BYTE      IP3H
      000000B6H   SFRSYM    DATA     BYTE      IP2H
      000000A8H   SFRSYM    DATA     BYTE      IE
      000000BBH   SFRSYM    DATA     BYTE      P_SW3
      000000BAH   SFRSYM    DATA     BYTE      P_SW2
      000000A2H   SFRSYM    DATA     BYTE      P_SW1
      000000CEH   SFRSYM    DATA     BYTE      SPCTL
      000000F8H   SFRSYM    DATA     BYTE      P7
      000000E8H   SFRSYM    DATA     BYTE      P6
      000000C8H   SFRSYM    DATA     BYTE      P5
      000000C0H   SFRSYM    DATA     BYTE      P4
      000000B0H   SFRSYM    DATA     BYTE      P3
      000000A0H   SFRSYM    DATA     BYTE      P2
L251 LINKER/LOCATER V4.66.93.0                                                        05/11/2024  21:00:46  PAGE 97


      00000090H   SFRSYM    DATA     BYTE      P1
      00000080H   SFRSYM    DATA     BYTE      P0
      000007F7H   SYMBOL    EDATA    FLOAT     _a
      000007FBH   SYMBOL    EDATA    FLOAT     _b
      0000080FH   SYMBOL    EDATA    BYTE      i
      00000810H   SYMBOL    EDATA    BYTE      _cnt

      ---         MODULE    ---      ---       mpu6050
      00FF5606H   PUBLIC    CODE     ---       gyro_zero_wander
      00000A87H   PUBLIC    EDATA    BYTE      ?lowPassFilter?BYTE
      000000D0H   SFRSYM    DATA     BYTE      PSW
      0000009DH   SFRSYM    DATA     BYTE      IRCBAND
      00000097H   SFRSYM    DATA     BYTE      AUXR2
      000000EFH   SFRSYM    DATA     BYTE      AUXINTIF
      000000FDH   SFRSYM    DATA     BYTE      S4CON
      000000ACH   SFRSYM    DATA     BYTE      S3CON
      0000009AH   SFRSYM    DATA     BYTE      S2CON
      000000B7H   SFRSYM    DATA     BYTE      IPH
      000000CDH   SFRSYM    DATA     BYTE      SPSTAT
      000000DDH   SFRSYM    DATA     BYTE      T4T3M
      000000C1H   SFRSYM    DATA     BYTE      WDT_CONTR
      000000DFH   SFRSYM    DATA     BYTE      IP3
      000000F4H   SFRSYM    DATA     BYTE      USBCON
      000000B5H   SFRSYM    DATA     BYTE      IP2
      000000FFH   SFRSYM    DATA     BYTE      RSTCFG
      000000C7H   SFRSYM    DATA     BYTE      IAP_CONTR
      000000F9H   SFRSYM    DATA     BYTE      LINICR
      0000008EH   SFRSYM    DATA     BYTE      AUXR
      000000AFH   SFRSYM    DATA     BYTE      IE2
      00000088H   SFRSYM    DATA     BYTE      TCON
      00000089H   SFRSYM    DATA     BYTE      TMOD
      00000098H   SFRSYM    DATA     BYTE      SCON
      000000F1H   SFRSYM    DATA     BYTE      CANICR
      00000087H   SFRSYM    DATA     BYTE      PCON
      000000BCH   SFRSYM    DATA     BYTE      ADC_CONTR
      000000E7H   SFRSYM    DATA     BYTE      CMPCR2
      000000E6H   SFRSYM    DATA     BYTE      CMPCR1
      000000DEH   SFRSYM    DATA     BYTE      ADCCFG
      000000B8H   SFRSYM    DATA     BYTE      IP
      0000008FH   SFRSYM    DATA     BYTE      INTCLKO
      000000EEH   SFRSYM    DATA     BYTE      IP3H
      000000B6H   SFRSYM    DATA     BYTE      IP2H
      000000A8H   SFRSYM    DATA     BYTE      IE
      000000BBH   SFRSYM    DATA     BYTE      P_SW3
      000000BAH   SFRSYM    DATA     BYTE      P_SW2
      000000A2H   SFRSYM    DATA     BYTE      P_SW1
      000000CEH   SFRSYM    DATA     BYTE      SPCTL
      000000F8H   SFRSYM    DATA     BYTE      P7
      000000E8H   SFRSYM    DATA     BYTE      P6
      000000C8H   SFRSYM    DATA     BYTE      P5
      000000C0H   SFRSYM    DATA     BYTE      P4
      000000B0H   SFRSYM    DATA     BYTE      P3
      000000A0H   SFRSYM    DATA     BYTE      P2
      00000090H   SFRSYM    DATA     BYTE      P1
      00000080H   SFRSYM    DATA     BYTE      P0

      00FF5606H   BLOCK     CODE     ---       LVL=0
      00000C67H   SYMBOL    EDATA    FLOAT     sum
      00000C6BH   SYMBOL    EDATA    INT       flag
      00000EBDH   SYMBOL    EDATA    INT       i
      00FF5606H   LINE      CODE     ---       #14
      00FF5606H   LINE      CODE     ---       #17
      00FF560CH   LINE      CODE     ---       #18
      00FF5618H   LINE      CODE     ---       #19
      00FF5620H   LINE      CODE     ---       #20
L251 LINKER/LOCATER V4.66.93.0                                                        05/11/2024  21:00:46  PAGE 98


      00FF5623H   LINE      CODE     ---       #21
      00FF5639H   LINE      CODE     ---       #22
      00FF5653H   LINE      CODE     ---       #23
      00FF5659H   LINE      CODE     ---       #24
      00FF5668H   LINE      CODE     ---       #25
      00FF5668H   LINE      CODE     ---       #26
      00FF5675H   LINE      CODE     ---       #27
      ---         BLOCKEND  ---      ---       LVL=0
      00000B42H   SYMBOL    EDATA    FLOAT     val
      00000B46H   SYMBOL    EDATA    INT       i
      00000B48H   SYMBOL    EDATA    FLOAT     sum
      00000A87H   SYMBOL    EDATA    FLOAT     current
      00000A8BH   SYMBOL    EDATA    FLOAT     previous
      00000A8FH   SYMBOL    EDATA    FLOAT     alpha
      00000C6DH   SYMBOL    EDATA    INT       last_Val
      00000E04H   SYMBOL    EDATA    FLOAT     groy_z

      ---         MODULE    ---      ---       TrackElement
      000003BBH   PUBLIC    EDATA    FLOAT     Sub_motor_i
      000003BFH   PUBLIC    EDATA    FLOAT     Angle_D
      000003C3H   PUBLIC    EDATA    FLOAT     Sub_motor_p
      000003C7H   PUBLIC    EDATA    FLOAT     Angle_I
      000003CBH   PUBLIC    EDATA    INT       Speed_Plan1
      000003CDH   PUBLIC    EDATA    INT       RAngle_Flag
      000003CFH   PUBLIC    EDATA    FLOAT     Angle_P
      000003D3H   PUBLIC    EDATA    FLOAT     Angle4
      000003D7H   PUBLIC    EDATA    INT       Err_speed
      000003D9H   PUBLIC    EDATA    INT       Sub_speed
      000003DBH   PUBLIC    EDATA    INT       shizi_flag
      000003DDH   PUBLIC    EDATA    ---       Element_Order
      000003E5H   PUBLIC    EDATA    INT       ring_flag
      000003E7H   PUBLIC    EDATA    FLOAT     Sub_wh_d
      000003EBH   PUBLIC    EDATA    LONG      Distance
      000003EFH   PUBLIC    EDATA    LONG      bmq_jifen
      000003F3H   PUBLIC    EDATA    FLOAT     Sub_wh_p
      000003F7H   PUBLIC    EDATA    INT       set_speed
      000003F9H   PUBLIC    EDATA    INT       DISTANCE_FLAG
      000003FBH   PUBLIC    EDATA    INT       RING_FLAG1
      000003FDH   PUBLIC    EDATA    INT       RING_FLAG2
      000003FFH   PUBLIC    EDATA    INT       RING_FLAG3
      00000401H   PUBLIC    EDATA    INT       RING_FLAG4
      00000403H   PUBLIC    EDATA    INT       ANGLE_FLAG
      00000405H   PUBLIC    EDATA    INT       Track_flag
      00000407H   PUBLIC    EDATA    FLOAT     angle_jifen
      000000D0H   SFRSYM    DATA     BYTE      PSW
      0000009DH   SFRSYM    DATA     BYTE      IRCBAND
      00000097H   SFRSYM    DATA     BYTE      AUXR2
      000000EFH   SFRSYM    DATA     BYTE      AUXINTIF
      000000FDH   SFRSYM    DATA     BYTE      S4CON
      000000ACH   SFRSYM    DATA     BYTE      S3CON
      0000009AH   SFRSYM    DATA     BYTE      S2CON
      000000B7H   SFRSYM    DATA     BYTE      IPH
      000000CDH   SFRSYM    DATA     BYTE      SPSTAT
      000000DDH   SFRSYM    DATA     BYTE      T4T3M
      000000C1H   SFRSYM    DATA     BYTE      WDT_CONTR
      000000DFH   SFRSYM    DATA     BYTE      IP3
      000000F4H   SFRSYM    DATA     BYTE      USBCON
      000000B5H   SFRSYM    DATA     BYTE      IP2
      000000FFH   SFRSYM    DATA     BYTE      RSTCFG
      000000C7H   SFRSYM    DATA     BYTE      IAP_CONTR
      000000F9H   SFRSYM    DATA     BYTE      LINICR
      0000008EH   SFRSYM    DATA     BYTE      AUXR
      000000AFH   SFRSYM    DATA     BYTE      IE2
      00000088H   SFRSYM    DATA     BYTE      TCON
      00000089H   SFRSYM    DATA     BYTE      TMOD
L251 LINKER/LOCATER V4.66.93.0                                                        05/11/2024  21:00:46  PAGE 99


      00000098H   SFRSYM    DATA     BYTE      SCON
      000000F1H   SFRSYM    DATA     BYTE      CANICR
      00000087H   SFRSYM    DATA     BYTE      PCON
      000000BCH   SFRSYM    DATA     BYTE      ADC_CONTR
      000000E7H   SFRSYM    DATA     BYTE      CMPCR2
      000000E6H   SFRSYM    DATA     BYTE      CMPCR1
      000000DEH   SFRSYM    DATA     BYTE      ADCCFG
      000000B8H   SFRSYM    DATA     BYTE      IP
      0000008FH   SFRSYM    DATA     BYTE      INTCLKO
      000000EEH   SFRSYM    DATA     BYTE      IP3H
      000000B6H   SFRSYM    DATA     BYTE      IP2H
      000000A8H   SFRSYM    DATA     BYTE      IE
      000000BBH   SFRSYM    DATA     BYTE      P_SW3
      000000BAH   SFRSYM    DATA     BYTE      P_SW2
      000000A2H   SFRSYM    DATA     BYTE      P_SW1
      000000CEH   SFRSYM    DATA     BYTE      SPCTL
      000000F8H   SFRSYM    DATA     BYTE      P7
      000000E8H   SFRSYM    DATA     BYTE      P6
      000000C8H   SFRSYM    DATA     BYTE      P5
      000000C0H   SFRSYM    DATA     BYTE      P4
      000000B0H   SFRSYM    DATA     BYTE      P3
      000000A0H   SFRSYM    DATA     BYTE      P2
      00000090H   SFRSYM    DATA     BYTE      P1
      00000080H   SFRSYM    DATA     BYTE      P0
      00000EBFH   SYMBOL    EDATA    INT       flag
      00000EC1H   SYMBOL    EDATA    INT       speed_flag
      00000C6FH   SYMBOL    EDATA    FLOAT     error
      00000C73H   SYMBOL    EDATA    FLOAT     err
      00000EC3H   SYMBOL    EDATA    INT       Set_speed
      0000040BH   SYMBOL    EDATA    INT       count
      0000040DH   SYMBOL    EDATA    INT       Lpwm
      0000040FH   SYMBOL    EDATA    INT       Rpwm

      ---         MODULE    ---      ---       menu
      000000D0H   SFRSYM    DATA     BYTE      PSW
      0000009DH   SFRSYM    DATA     BYTE      IRCBAND
      00000097H   SFRSYM    DATA     BYTE      AUXR2
      000000EFH   SFRSYM    DATA     BYTE      AUXINTIF
      000000FDH   SFRSYM    DATA     BYTE      S4CON
      000000ACH   SFRSYM    DATA     BYTE      S3CON
      0000009AH   SFRSYM    DATA     BYTE      S2CON
      000000B7H   SFRSYM    DATA     BYTE      IPH
      000000CDH   SFRSYM    DATA     BYTE      SPSTAT
      000000DDH   SFRSYM    DATA     BYTE      T4T3M
      000000C1H   SFRSYM    DATA     BYTE      WDT_CONTR
      000000DFH   SFRSYM    DATA     BYTE      IP3
      000000F4H   SFRSYM    DATA     BYTE      USBCON
      000000B5H   SFRSYM    DATA     BYTE      IP2
      000000FFH   SFRSYM    DATA     BYTE      RSTCFG
      000000C7H   SFRSYM    DATA     BYTE      IAP_CONTR
      000000F9H   SFRSYM    DATA     BYTE      LINICR
      0000008EH   SFRSYM    DATA     BYTE      AUXR
      000000AFH   SFRSYM    DATA     BYTE      IE2
      000000B0H.7 SFRSYM    DATA     BIT       P37
      000000C0H.3 SFRSYM    DATA     BIT       P43
      00000088H   SFRSYM    DATA     BYTE      TCON
      00000089H   SFRSYM    DATA     BYTE      TMOD
      00000098H   SFRSYM    DATA     BYTE      SCON
      000000A0H.1 SFRSYM    DATA     BIT       P21
      000000A0H.0 SFRSYM    DATA     BIT       P20
      000000F1H   SFRSYM    DATA     BYTE      CANICR
      00000087H   SFRSYM    DATA     BYTE      PCON
      000000BCH   SFRSYM    DATA     BYTE      ADC_CONTR
      000000E7H   SFRSYM    DATA     BYTE      CMPCR2
      000000E6H   SFRSYM    DATA     BYTE      CMPCR1
L251 LINKER/LOCATER V4.66.93.0                                                        05/11/2024  21:00:46  PAGE 100


      000000DEH   SFRSYM    DATA     BYTE      ADCCFG
      000000B8H   SFRSYM    DATA     BYTE      IP
      0000008FH   SFRSYM    DATA     BYTE      INTCLKO
      000000EEH   SFRSYM    DATA     BYTE      IP3H
      000000B6H   SFRSYM    DATA     BYTE      IP2H
      000000A8H   SFRSYM    DATA     BYTE      IE
      000000BBH   SFRSYM    DATA     BYTE      P_SW3
      000000BAH   SFRSYM    DATA     BYTE      P_SW2
      000000A2H   SFRSYM    DATA     BYTE      P_SW1
      000000CEH   SFRSYM    DATA     BYTE      SPCTL
      000000F8H   SFRSYM    DATA     BYTE      P7
      000000E8H   SFRSYM    DATA     BYTE      P6
      000000C8H   SFRSYM    DATA     BYTE      P5
      000000C0H   SFRSYM    DATA     BYTE      P4
      000000B0H   SFRSYM    DATA     BYTE      P3
      000000A0H   SFRSYM    DATA     BYTE      P2
      00000090H   SFRSYM    DATA     BYTE      P1
      00000080H   SFRSYM    DATA     BYTE      P0
      00FF6484H   SYMBOL    HCONST   ---       ?tpl?0001
      00000E08H   SYMBOL    EDATA    INT       flag1
      00000E0AH   SYMBOL    EDATA    INT       flag
      00000E0CH   SYMBOL    EDATA    INT       flag
      00000E0EH   SYMBOL    EDATA    INT       a
      000008FFH   SYMBOL    EDATA    INT       flag
      00000901H   SYMBOL    EDATA    INT       i
      00000903H   SYMBOL    EDATA    INT       Order
      00000905H   SYMBOL    EDATA    INT       k
      00000907H   SYMBOL    EDATA    ---       menu_order
      0000090FH   SYMBOL    EDATA    INT       flag
      00000911H   SYMBOL    EDATA    INT       Val_add_lose
      00000913H   SYMBOL    EDATA    INT       i
      00000915H   SYMBOL    EDATA    INT       count
      00000917H   SYMBOL    EDATA    INT       long_press_delay
      00000919H   SYMBOL    EDATA    INT       pree_delay
      0000091BH   SYMBOL    EDATA    FLOAT     x
      00000811H   SYMBOL    EDATA    INT       flag
      00000813H   SYMBOL    EDATA    INT       i
      00000815H   SYMBOL    EDATA    INT       Val_add_lose
      00000817H   SYMBOL    EDATA    INT       count
      00000819H   SYMBOL    EDATA    INT       flag1
      0000081BH   SYMBOL    EDATA    FLOAT     x
      0000081FH   SYMBOL    EDATA    FLOAT     x1
      00000823H   SYMBOL    EDATA    WORD      long_press_delay
      00000825H   SYMBOL    EDATA    WORD      pree_delay
      00000827H   SYMBOL    EDATA    INT       page
      00000829H   SYMBOL    EDATA    INT       page1

      ---         MODULE    ---      ---       ALLInit
      00FF5D76H   PUBLIC    CODE     ---       GPIO_Init
      00FF5BDAH   PUBLIC    CODE     ---       ALL_Peripheral_Init
      000000D0H   SFRSYM    DATA     BYTE      PSW
      0000009DH   SFRSYM    DATA     BYTE      IRCBAND
      00000097H   SFRSYM    DATA     BYTE      AUXR2
      000000EFH   SFRSYM    DATA     BYTE      AUXINTIF
      000000FDH   SFRSYM    DATA     BYTE      S4CON
      000000ACH   SFRSYM    DATA     BYTE      S3CON
      0000009AH   SFRSYM    DATA     BYTE      S2CON
      000000B7H   SFRSYM    DATA     BYTE      IPH
      000000CDH   SFRSYM    DATA     BYTE      SPSTAT
      000000DDH   SFRSYM    DATA     BYTE      T4T3M
      000000C1H   SFRSYM    DATA     BYTE      WDT_CONTR
      000000DFH   SFRSYM    DATA     BYTE      IP3
      000000F4H   SFRSYM    DATA     BYTE      USBCON
      000000B5H   SFRSYM    DATA     BYTE      IP2
      000000FFH   SFRSYM    DATA     BYTE      RSTCFG
L251 LINKER/LOCATER V4.66.93.0                                                        05/11/2024  21:00:46  PAGE 101


      000000C7H   SFRSYM    DATA     BYTE      IAP_CONTR
      000000F9H   SFRSYM    DATA     BYTE      LINICR
      0000008EH   SFRSYM    DATA     BYTE      AUXR
      000000AFH   SFRSYM    DATA     BYTE      IE2
      000000C0H.4 SFRSYM    DATA     BIT       P44
      00000088H   SFRSYM    DATA     BYTE      TCON
      00000089H   SFRSYM    DATA     BYTE      TMOD
      000000C0H.1 SFRSYM    DATA     BIT       P41
      00000098H   SFRSYM    DATA     BYTE      SCON
      000000F1H   SFRSYM    DATA     BYTE      CANICR
      00000087H   SFRSYM    DATA     BYTE      PCON
      000000BCH   SFRSYM    DATA     BYTE      ADC_CONTR
      000000E7H   SFRSYM    DATA     BYTE      CMPCR2
      000000E6H   SFRSYM    DATA     BYTE      CMPCR1
      000000DEH   SFRSYM    DATA     BYTE      ADCCFG
      000000B8H   SFRSYM    DATA     BYTE      IP
      0000008FH   SFRSYM    DATA     BYTE      INTCLKO
      000000EEH   SFRSYM    DATA     BYTE      IP3H
      000000B6H   SFRSYM    DATA     BYTE      IP2H
      000000A8H   SFRSYM    DATA     BYTE      IE
      000000BBH   SFRSYM    DATA     BYTE      P_SW3
      000000BAH   SFRSYM    DATA     BYTE      P_SW2
      000000A2H   SFRSYM    DATA     BYTE      P_SW1
      000000CEH   SFRSYM    DATA     BYTE      SPCTL
      000000F8H   SFRSYM    DATA     BYTE      P7
      000000E8H   SFRSYM    DATA     BYTE      P6
      000000C8H   SFRSYM    DATA     BYTE      P5
      000000C0H   SFRSYM    DATA     BYTE      P4
      000000B0H   SFRSYM    DATA     BYTE      P3
      000000A0H   SFRSYM    DATA     BYTE      P2
      00000090H   SFRSYM    DATA     BYTE      P1
      00000080H   SFRSYM    DATA     BYTE      P0

      00FF5D76H   BLOCK     CODE     ---       LVL=0
      00FF5D76H   LINE      CODE     ---       #7
      00FF5D76H   LINE      CODE     ---       #10
      00FF5D81H   LINE      CODE     ---       #11
      00FF5D8CH   LINE      CODE     ---       #13
      00FF5D97H   LINE      CODE     ---       #14
      00FF5DA2H   LINE      CODE     ---       #15
      00FF5DA5H   LINE      CODE     ---       #16
      00FF5DA8H   LINE      CODE     ---       #17
      ---         BLOCKEND  ---      ---       LVL=0

      00FF5BDAH   BLOCK     CODE     ---       LVL=0
      00FF5BDAH   LINE      CODE     ---       #23
      00FF5BDAH   LINE      CODE     ---       #25
      00FF5BDDH   LINE      CODE     ---       #26
      00FF5BF8H   LINE      CODE     ---       #27
      00FF5BFBH   LINE      CODE     ---       #28
      00FF5BFFH   LINE      CODE     ---       #29
      00FF5C02H   LINE      CODE     ---       #30
      00FF5C05H   LINE      CODE     ---       #31
      00FF5C08H   LINE      CODE     ---       #32
      00FF5C19H   LINE      CODE     ---       #33
      00FF5C1CH   LINE      CODE     ---       #34
      ---         BLOCKEND  ---      ---       LVL=0

      ---         MODULE    ---      ---       RGB
      00FF54A2H   PUBLIC    CODE     ---       WS2812_bit
      00FF4F83H   PUBLIC    CODE     ---       RGB_Color
      00000020H.0 PUBLIC    BIT      BIT       ?WS2812_bit?BIT
      000000D0H   SFRSYM    DATA     BYTE      PSW
      0000009DH   SFRSYM    DATA     BYTE      IRCBAND
      00000097H   SFRSYM    DATA     BYTE      AUXR2
L251 LINKER/LOCATER V4.66.93.0                                                        05/11/2024  21:00:46  PAGE 102


      000000EFH   SFRSYM    DATA     BYTE      AUXINTIF
      000000FDH   SFRSYM    DATA     BYTE      S4CON
      000000ACH   SFRSYM    DATA     BYTE      S3CON
      0000009AH   SFRSYM    DATA     BYTE      S2CON
      000000B7H   SFRSYM    DATA     BYTE      IPH
      000000CDH   SFRSYM    DATA     BYTE      SPSTAT
      000000DDH   SFRSYM    DATA     BYTE      T4T3M
      000000C1H   SFRSYM    DATA     BYTE      WDT_CONTR
      000000DFH   SFRSYM    DATA     BYTE      IP3
      000000F4H   SFRSYM    DATA     BYTE      USBCON
      000000B5H   SFRSYM    DATA     BYTE      IP2
      000000FFH   SFRSYM    DATA     BYTE      RSTCFG
      000000C7H   SFRSYM    DATA     BYTE      IAP_CONTR
      000000F9H   SFRSYM    DATA     BYTE      LINICR
      0000008EH   SFRSYM    DATA     BYTE      AUXR
      000000AFH   SFRSYM    DATA     BYTE      IE2
      00000088H   SFRSYM    DATA     BYTE      TCON
      00000089H   SFRSYM    DATA     BYTE      TMOD
      000000C0H.1 SFRSYM    DATA     BIT       P41
      00000098H   SFRSYM    DATA     BYTE      SCON
      000000F1H   SFRSYM    DATA     BYTE      CANICR
      00000087H   SFRSYM    DATA     BYTE      PCON
      000000BCH   SFRSYM    DATA     BYTE      ADC_CONTR
      000000E7H   SFRSYM    DATA     BYTE      CMPCR2
      000000E6H   SFRSYM    DATA     BYTE      CMPCR1
      000000DEH   SFRSYM    DATA     BYTE      ADCCFG
      000000B8H   SFRSYM    DATA     BYTE      IP
      0000008FH   SFRSYM    DATA     BYTE      INTCLKO
      000000EEH   SFRSYM    DATA     BYTE      IP3H
      000000B6H   SFRSYM    DATA     BYTE      IP2H
      000000A8H   SFRSYM    DATA     BYTE      IE
      000000BBH   SFRSYM    DATA     BYTE      P_SW3
      000000BAH   SFRSYM    DATA     BYTE      P_SW2
      000000A2H   SFRSYM    DATA     BYTE      P_SW1
      000000CEH   SFRSYM    DATA     BYTE      SPCTL
      000000F8H   SFRSYM    DATA     BYTE      P7
      000000E8H   SFRSYM    DATA     BYTE      P6
      000000C8H   SFRSYM    DATA     BYTE      P5
      000000C0H   SFRSYM    DATA     BYTE      P4
      000000B0H   SFRSYM    DATA     BYTE      P3
      000000A0H   SFRSYM    DATA     BYTE      P2
      00000090H   SFRSYM    DATA     BYTE      P1
      00000080H   SFRSYM    DATA     BYTE      P0
      00000C77H   SYMBOL    EDATA    BYTE      R
      00000C78H   SYMBOL    EDATA    BYTE      G
      00000C79H   SYMBOL    EDATA    BYTE      B
      00000C7AH   SYMBOL    EDATA    BYTE      i
      00000C7BH   SYMBOL    EDATA    BYTE      j
      00000C7CH   SYMBOL    EDATA    ---       temp

      00FF54A2H   BLOCK     CODE     ---       LVL=0
      00000020H.0 SYMBOL    BIT      BIT       data_bit
      00FF54A2H   LINE      CODE     ---       #33
      00FF54A2H   LINE      CODE     ---       #35
      00FF54A5H   LINE      CODE     ---       #37
      00FF54A8H   LINE      CODE     ---       #38
      00FF54A9H   LINE      CODE     ---       #39
      00FF54AAH   LINE      CODE     ---       #40
      00FF54ABH   LINE      CODE     ---       #41
      00FF54ACH   LINE      CODE     ---       #42
      00FF54ADH   LINE      CODE     ---       #43
      00FF54AEH   LINE      CODE     ---       #44
      00FF54AFH   LINE      CODE     ---       #45
      00FF54B0H   LINE      CODE     ---       #46
      00FF54B1H   LINE      CODE     ---       #47
L251 LINKER/LOCATER V4.66.93.0                                                        05/11/2024  21:00:46  PAGE 103


      00FF54B2H   LINE      CODE     ---       #48
      00FF54B3H   LINE      CODE     ---       #49
      00FF54B4H   LINE      CODE     ---       #50
      00FF54B5H   LINE      CODE     ---       #51
      00FF54B6H   LINE      CODE     ---       #52
      00FF54B7H   LINE      CODE     ---       #53
      00FF54B8H   LINE      CODE     ---       #54
      00FF54B9H   LINE      CODE     ---       #55
      00FF54BAH   LINE      CODE     ---       #56
      00FF54BBH   LINE      CODE     ---       #57
      00FF54BCH   LINE      CODE     ---       #58
      00FF54BDH   LINE      CODE     ---       #59
      00FF54BEH   LINE      CODE     ---       #60
      00FF54BFH   LINE      CODE     ---       #61
      00FF54C0H   LINE      CODE     ---       #62
      00FF54C1H   LINE      CODE     ---       #63
      00FF54C2H   LINE      CODE     ---       #64
      00FF54C3H   LINE      CODE     ---       #65
      00FF54C4H   LINE      CODE     ---       #66
      00FF54C5H   LINE      CODE     ---       #67
      00FF54C6H   LINE      CODE     ---       #68
      00FF54C7H   LINE      CODE     ---       #69
      00FF54C8H   LINE      CODE     ---       #70
      00FF54C9H   LINE      CODE     ---       #71
      00FF54CAH   LINE      CODE     ---       #72
      00FF54CBH   LINE      CODE     ---       #73
      00FF54CCH   LINE      CODE     ---       #74
      00FF54CFH   LINE      CODE     ---       #75
      00FF54D0H   LINE      CODE     ---       #76
      00FF54D1H   LINE      CODE     ---       #77
      00FF54D2H   LINE      CODE     ---       #78
      00FF54D3H   LINE      CODE     ---       #79
      00FF54D4H   LINE      CODE     ---       #80
      00FF54D5H   LINE      CODE     ---       #81
      00FF54D6H   LINE      CODE     ---       #82
      00FF54D7H   LINE      CODE     ---       #83
      00FF54D8H   LINE      CODE     ---       #84
      00FF54D9H   LINE      CODE     ---       #85
      00FF54DAH   LINE      CODE     ---       #86
      00FF54DBH   LINE      CODE     ---       #87
      00FF54DCH   LINE      CODE     ---       #88
      00FF54DEH   LINE      CODE     ---       #91
      00FF54E1H   LINE      CODE     ---       #92
      00FF54E2H   LINE      CODE     ---       #93
      00FF54E3H   LINE      CODE     ---       #94
      00FF54E4H   LINE      CODE     ---       #95
      00FF54E5H   LINE      CODE     ---       #96
      00FF54E6H   LINE      CODE     ---       #97
      00FF54E7H   LINE      CODE     ---       #98
      00FF54E8H   LINE      CODE     ---       #99
      00FF54E9H   LINE      CODE     ---       #100
      00FF54EAH   LINE      CODE     ---       #101
      00FF54EBH   LINE      CODE     ---       #102
      00FF54ECH   LINE      CODE     ---       #103
      00FF54EFH   LINE      CODE     ---       #104
      00FF54F0H   LINE      CODE     ---       #105
      00FF54F1H   LINE      CODE     ---       #106
      00FF54F2H   LINE      CODE     ---       #107
      00FF54F3H   LINE      CODE     ---       #108
      00FF54F4H   LINE      CODE     ---       #109
      00FF54F5H   LINE      CODE     ---       #110
      00FF54F6H   LINE      CODE     ---       #111
      00FF54F7H   LINE      CODE     ---       #112
      00FF54F8H   LINE      CODE     ---       #113
      00FF54F9H   LINE      CODE     ---       #114
L251 LINKER/LOCATER V4.66.93.0                                                        05/11/2024  21:00:46  PAGE 104


      00FF54FAH   LINE      CODE     ---       #115
      00FF54FBH   LINE      CODE     ---       #116
      00FF54FCH   LINE      CODE     ---       #117
      00FF54FDH   LINE      CODE     ---       #118
      00FF54FEH   LINE      CODE     ---       #119
      00FF54FFH   LINE      CODE     ---       #120
      00FF5500H   LINE      CODE     ---       #121
      00FF5501H   LINE      CODE     ---       #122
      00FF5502H   LINE      CODE     ---       #123
      00FF5503H   LINE      CODE     ---       #124
      00FF5504H   LINE      CODE     ---       #125
      00FF5505H   LINE      CODE     ---       #126
      00FF5506H   LINE      CODE     ---       #127
      00FF5507H   LINE      CODE     ---       #128
      00FF5508H   LINE      CODE     ---       #129
      00FF5509H   LINE      CODE     ---       #130
      00FF550AH   LINE      CODE     ---       #131
      00FF550BH   LINE      CODE     ---       #132
      00FF550CH   LINE      CODE     ---       #133
      00FF550DH   LINE      CODE     ---       #134
      00FF550EH   LINE      CODE     ---       #135
      00FF550FH   LINE      CODE     ---       #136
      00FF5510H   LINE      CODE     ---       #137
      00FF5511H   LINE      CODE     ---       #138
      00FF5512H   LINE      CODE     ---       #139
      00FF5513H   LINE      CODE     ---       #140
      00FF5514H   LINE      CODE     ---       #141
      00FF5515H   LINE      CODE     ---       #142
      00FF5516H   LINE      CODE     ---       #143
      00FF5517H   LINE      CODE     ---       #144
      00FF5518H   LINE      CODE     ---       #145
      00FF5519H   LINE      CODE     ---       #146
      00FF5519H   LINE      CODE     ---       #147
      ---         BLOCKEND  ---      ---       LVL=0

      00FF4F83H   BLOCK     CODE     ---       LVL=0
      00000E5BH   SYMBOL    EDATA    BYTE      R
      00000E5CH   SYMBOL    EDATA    BYTE      G
      00000E5DH   SYMBOL    EDATA    BYTE      B
      00FF4F83H   LINE      CODE     ---       #149
      00FF4F8FH   LINE      CODE     ---       #151
      00FF4FA0H   LINE      CODE     ---       #152
      00FF4FB1H   LINE      CODE     ---       #153
      00FF4FC2H   LINE      CODE     ---       #154
      00FF4FD3H   LINE      CODE     ---       #155
      00FF4FE4H   LINE      CODE     ---       #156
      00FF4FF5H   LINE      CODE     ---       #157
      00FF5006H   LINE      CODE     ---       #158
      00FF5017H   LINE      CODE     ---       #160
      00FF5028H   LINE      CODE     ---       #161
      00FF5039H   LINE      CODE     ---       #162
      00FF504AH   LINE      CODE     ---       #163
      00FF505BH   LINE      CODE     ---       #164
      00FF506CH   LINE      CODE     ---       #165
      00FF507DH   LINE      CODE     ---       #166
      00FF508EH   LINE      CODE     ---       #167
      00FF509FH   LINE      CODE     ---       #169
      00FF50B0H   LINE      CODE     ---       #170
      00FF50C1H   LINE      CODE     ---       #171
      00FF50D2H   LINE      CODE     ---       #172
      00FF50E3H   LINE      CODE     ---       #173
      00FF50F4H   LINE      CODE     ---       #174
      00FF5105H   LINE      CODE     ---       #175
      00FF5116H   LINE      CODE     ---       #176
      00FF5127H   LINE      CODE     ---       #177
L251 LINKER/LOCATER V4.66.93.0                                                        05/11/2024  21:00:46  PAGE 105


      ---         BLOCKEND  ---      ---       LVL=0
      00000E5EH   SYMBOL    EDATA    BYTE      i
      00000E5FH   SYMBOL    EDATA    BYTE      j
      00000E60H   SYMBOL    EDATA    BYTE      k

      ---         MODULE    ---      ---       SEEKFREE_CONFIG
      00FF00A6H   PUBLIC    CODE     ---       dl1b_default_configuration
      00FF012DH   PUBLIC    CODE     ---       imu660ra_config_file

      ---         MODULE    ---      ---       PRINTF
      000007BEH   PUBLIC    EDATA    ---       ?PRINTF?BYTE
      00FF3842H   PUBLIC    CODE     NEAR LAB  PRINTF

      ---         MODULE    ---      ---       ?C?PRNFMT
      00FF389BH   PUBLIC    CODE     ---       ?C?PRNFMT

      ---         MODULE    ---      ---       ?C?FPCONVERT
      00FF3CB8H   PUBLIC    CODE     ---       ?C?FPCONVERT
      00FF3D70H   PUBLIC    CODE     ---       ?C?FPROUND

      ---         MODULE    ---      ---       ?C?FTNPWR
      00FF3DE3H   PUBLIC    CODE     ---       ?C?FTNPWR

      ---         MODULE    ---      ---       ?C_START
      00FF0000H   PUBLIC    CODE     ---       ?C?STARTUP
      00FF0000H   PUBLIC    CODE     ---       ?C_STARTUP

      ---         MODULE    ---      ---       ?C?INITEDATA
      00FF5C72H   PUBLIC    CODE     ---       ?C?INITEDATA

      ---         MODULE    ---      ---       ?C?SIDIV
      00FF3E1AH   PUBLIC    CODE     ---       ?C?SIDIV

      ---         MODULE    ---      ---       ?C?LMUL
      00FF3E4CH   PUBLIC    CODE     ---       ?C?LMUL

      ---         MODULE    ---      ---       ?C?LIMUL
      00FF3E5DH   PUBLIC    CODE     ---       ?C?LIMUL

      ---         MODULE    ---      ---       ?C?ULDIV
      00FF3E68H   PUBLIC    CODE     NEAR LAB  ?C?ULDIV
      00FF3E66H   PUBLIC    CODE     NEAR LAB  ?C?ULIDIV

      ---         MODULE    ---      ---       ?C?SLDIV
      00FF3EB9H   PUBLIC    CODE     NEAR LAB  ?C?SLDIV

      ---         MODULE    ---      ---       ?C?BMOVENP
      00FF3EEFH   PUBLIC    CODE     ---       ?C?BMOVENP
      00FF3EEDH   PUBLIC    CODE     ---       ?C?BMOVENP8

      ---         MODULE    ---      ---       ABS

      ---         MODULE    ---      ---       memcpy
      00FF5E2AH   PUBLIC    CODE     ---       memcpy?_

      ---         MODULE    ---      ---       memset

      ---         MODULE    ---      ---       ?C?INITEDATA_END
      00FF63CEH   PUBLIC    HCONST   WORD      ?C?INITEDATA_END

Program Size: data=8.1 edata+hdata=4053 xdata=0 const=1681 code=24444
L251 RUN COMPLETE.  0 WARNING(S),  0 ERROR(S)
