L251 LINKER/LOCATER V4.66.93.0                                                          05/17/2024  20:59:59  PAGE 1


L251 LINKER/LOCATER V4.66.93.0, INVOKED BY:
F:\KEIL_C251\C251\BIN\L251.EXE .\Out_File\board.obj, .\Out_File\common.obj, ..\..\Libraries\libraries\STC32_FPMU_LARGE_V
>> 1.0.LIB (STC32F_FPMU), .\Out_File\zf_adc.obj, .\Out_File\zf_delay.obj, .\Out_File\zf_eeprom.obj, .\Out_File\zf_exti.o
>> bj, .\Out_File\zf_gpio.obj, .\Out_File\zf_iic.obj, .\Out_File\zf_nvic.obj, .\Out_File\zf_pwm.obj, .\Out_File\zf_spi.o
>> bj, .\Out_File\zf_tim.obj, .\Out_File\zf_uart.obj, .\Out_File\zf_fifo.obj, .\Out_File\SEEKFREE_18TFT.obj, .\Out_File\
>> SEEKFREE_ABSOLUTE_ENCODER.obj, .\Out_File\SEEKFREE_BLUETOOTH_CH9141.obj, ..\..\Libraries\seekfree_peripheral\SEEKFREE
>> _CONFIG.LIB, .\Out_File\SEEKFREE_DL1A.obj, .\Out_File\SEEKFREE_FONT.obj, .\Out_File\SEEKFREE_ICM20602.obj, .\Out_File
>> \SEEKFREE_IMU660RA.obj, .\Out_File\SEEKFREE_IMU963RA.obj, .\Out_File\SEEKFREE_IPS114_SPI.obj, .\Out_File\SEEKFREE_MPU
>> 6050.obj, .\Out_File\SEEKFREE_OLED.obj, .\Out_File\SEEKFREE_PRINTF.obj, .\Out_File\SEEKFREE_TSL1401.obj, .\Out_File\S
>> EEKFREE_VIRSCO.obj, .\Out_File\SEEKFREE_WIRELESS.obj, .\Out_File\isr.obj, .\Out_File\main.obj, .\Out_File\Inductance.
>> obj, .\Out_File\Motor.obj, .\Out_File\encoder.obj, .\Out_File\direction.obj, .\Out_File\vofa.obj, .\Out_File\mpu6050.
>> obj, .\Out_File\TrackElement.obj, .\Out_File\menu.obj, .\Out_File\ALLInit.obj, .\Out_File\RGB.obj TO .\Out_File\SEEKF
>> REE PRINT (.\Out_File\SEEKFREE.map) CASE DISABLEWARNING (16, 57) REMOVEUNUSED CLASSES (EDATA (0X0-0X1FFF), HDATA (0X0
>> -0X1FFF, 0XFE0000-0XFFFFFF))


CPU MODE:     251 SOURCE MODE
INTR FRAME:   4 BYTES SAVED ON INTERRUPT
MEMORY MODEL: XSMALL WITH FLOATING POINT ARITHMETIC


INPUT MODULES INCLUDED:
  .\Out_File\board.obj (board)
         COMMENT TYPE 0: C251 V5.60.0
  .\Out_File\common.obj (common)
         COMMENT TYPE 0: C251 V5.60.0
  ..\..\Libraries\libraries\STC32_FPMU_LARGE_V1.0.LIB (STC32F_FPMU)
         COMMENT TYPE 0: A251 V4.69.13.0
  .\Out_File\zf_adc.obj (zf_adc)
         COMMENT TYPE 0: C251 V5.60.0
  .\Out_File\zf_delay.obj (zf_delay)
         COMMENT TYPE 0: C251 V5.60.0
  .\Out_File\zf_eeprom.obj (zf_eeprom)
         COMMENT TYPE 0: C251 V5.60.0
  .\Out_File\zf_exti.obj (zf_exti)
         COMMENT TYPE 0: C251 V5.60.0
  .\Out_File\zf_gpio.obj (zf_gpio)
         COMMENT TYPE 0: C251 V5.60.0
  .\Out_File\zf_iic.obj (zf_iic)
         COMMENT TYPE 0: C251 V5.60.0
  .\Out_File\zf_nvic.obj (zf_nvic)
         COMMENT TYPE 0: C251 V5.60.0
  .\Out_File\zf_pwm.obj (zf_pwm)
         COMMENT TYPE 0: C251 V5.60.0
  .\Out_File\zf_spi.obj (zf_spi)
         COMMENT TYPE 0: C251 V5.60.0
  .\Out_File\zf_tim.obj (zf_tim)
         COMMENT TYPE 0: C251 V5.60.0
  .\Out_File\zf_uart.obj (zf_uart)
         COMMENT TYPE 0: C251 V5.60.0
  .\Out_File\zf_fifo.obj (zf_fifo)
         COMMENT TYPE 0: C251 V5.60.0
  .\Out_File\SEEKFREE_18TFT.obj (SEEKFREE_18TFT)
         COMMENT TYPE 0: C251 V5.60.0
  .\Out_File\SEEKFREE_ABSOLUTE_ENCODER.obj (SEEKFREE_ABSOLUTE_ENCODER)
         COMMENT TYPE 0: C251 V5.60.0
  .\Out_File\SEEKFREE_BLUETOOTH_CH9141.obj (SEEKFREE_BLUETOOTH_CH9141)
         COMMENT TYPE 0: C251 V5.60.0
  .\Out_File\SEEKFREE_DL1A.obj (SEEKFREE_DL1A)
         COMMENT TYPE 0: C251 V5.60.0
  .\Out_File\SEEKFREE_FONT.obj (SEEKFREE_FONT)
         COMMENT TYPE 0: C251 V5.60.0
  .\Out_File\SEEKFREE_ICM20602.obj (SEEKFREE_ICM20602)
         COMMENT TYPE 0: C251 V5.60.0
  .\Out_File\SEEKFREE_IMU660RA.obj (SEEKFREE_IMU660RA)
         COMMENT TYPE 0: C251 V5.60.0
L251 LINKER/LOCATER V4.66.93.0                                                        05/17/2024  20:59:59  PAGE 2


  .\Out_File\SEEKFREE_IMU963RA.obj (SEEKFREE_IMU963RA)
         COMMENT TYPE 0: C251 V5.60.0
  .\Out_File\SEEKFREE_IPS114_SPI.obj (SEEKFREE_IPS114_SPI)
         COMMENT TYPE 0: C251 V5.60.0
  .\Out_File\SEEKFREE_MPU6050.obj (SEEKFREE_MPU6050)
         COMMENT TYPE 0: C251 V5.60.0
  .\Out_File\SEEKFREE_OLED.obj (SEEKFREE_OLED)
         COMMENT TYPE 0: C251 V5.60.0
  .\Out_File\SEEKFREE_PRINTF.obj (SEEKFREE_PRINTF)
         COMMENT TYPE 0: C251 V5.60.0
  .\Out_File\SEEKFREE_TSL1401.obj (SEEKFREE_TSL1401)
         COMMENT TYPE 0: C251 V5.60.0
  .\Out_File\SEEKFREE_VIRSCO.obj (SEEKFREE_VIRSCO)
         COMMENT TYPE 0: C251 V5.60.0
  .\Out_File\SEEKFREE_WIRELESS.obj (SEEKFREE_WIRELESS)
         COMMENT TYPE 0: C251 V5.60.0
  .\Out_File\isr.obj (isr)
         COMMENT TYPE 0: C251 V5.60.0
  .\Out_File\main.obj (main)
         COMMENT TYPE 0: C251 V5.60.0
  .\Out_File\Inductance.obj (Inductance)
         COMMENT TYPE 0: C251 V5.60.0
  .\Out_File\Motor.obj (Motor)
         COMMENT TYPE 0: C251 V5.60.0
  .\Out_File\encoder.obj (encoder)
         COMMENT TYPE 0: C251 V5.60.0
  .\Out_File\direction.obj (direction)
         COMMENT TYPE 0: C251 V5.60.0
  .\Out_File\vofa.obj (vofa)
         COMMENT TYPE 0: C251 V5.60.0
  .\Out_File\mpu6050.obj (mpu6050)
         COMMENT TYPE 0: C251 V5.60.0
  .\Out_File\TrackElement.obj (TrackElement)
         COMMENT TYPE 0: C251 V5.60.0
  .\Out_File\menu.obj (menu)
         COMMENT TYPE 0: C251 V5.60.0
  .\Out_File\ALLInit.obj (ALLInit)
         COMMENT TYPE 0: C251 V5.60.0
  .\Out_File\RGB.obj (RGB)
         COMMENT TYPE 0: C251 V5.60.0
  ..\..\Libraries\seekfree_peripheral\SEEKFREE_CONFIG.LIB (SEEKFREE_CONFIG)
         COMMENT TYPE 0: C251 V5.60.0
  F:\KEIL_C251\C251\LIB\C2SFPXS.LIB (PRINTF)
         COMMENT TYPE 0: A251 V4.69.6.0
  F:\KEIL_C251\C251\LIB\C2SFPXS.LIB (?C?PRNFMT)
         COMMENT TYPE 0: A251 V4.69.6.0
  F:\KEIL_C251\C251\LIB\C2SFPXS.LIB (?C?FPCONVERT)
         COMMENT TYPE 0: A251 V4.69.6.0
  F:\KEIL_C251\C251\LIB\C2SFPXS.LIB (?C?FTNPWR)
         COMMENT TYPE 0: A251 V4.69.6.0
  F:\KEIL_C251\C251\LIB\C2SXS.LIB (?C_START)
         COMMENT TYPE 0: A251 V4.69.6.0
  F:\KEIL_C251\C251\LIB\C2SXS.LIB (?C?INITEDATA)
         COMMENT TYPE 0: A251 V4.69.6.0
  F:\KEIL_C251\C251\LIB\C2SXS.LIB (?C?SIDIV)
         COMMENT TYPE 0: A251 V4.69.6.0
  F:\KEIL_C251\C251\LIB\C2SXS.LIB (?C?LMUL)
         COMMENT TYPE 0: A251 V4.69.6.0
  F:\KEIL_C251\C251\LIB\C2SXS.LIB (?C?LIMUL)
         COMMENT TYPE 0: A251 V4.69.6.0
  F:\KEIL_C251\C251\LIB\C2SXS.LIB (?C?ULDIV)
         COMMENT TYPE 0: A251 V4.69.6.0
  F:\KEIL_C251\C251\LIB\C2SXS.LIB (?C?SLDIV)
         COMMENT TYPE 0: A251 V4.69.6.0
  F:\KEIL_C251\C251\LIB\C2SXS.LIB (?C?BMOVENP)
L251 LINKER/LOCATER V4.66.93.0                                                        05/17/2024  20:59:59  PAGE 3


         COMMENT TYPE 0: A251 V4.69.6.0
  F:\KEIL_C251\C251\LIB\C2SXS.LIB (ABS)
         COMMENT TYPE 0: C251 V5.58.7
  F:\KEIL_C251\C251\LIB\C2SXS.LIB (memcpy)
         COMMENT TYPE 0: C251 V5.58.7
  F:\KEIL_C251\C251\LIB\C2SXS.LIB (memset)
         COMMENT TYPE 0: C251 V5.58.7
  F:\KEIL_C251\C251\LIB\C2SXS.LIB (?C?INITEDATA_END)
         COMMENT TYPE 0: A251 V4.69.6.0


ACTIVE MEMORY CLASSES OF MODULE:  .\Out_File\SEEKFREE (board)

BASE        START       END         USED      MEMORY CLASS
==========================================================
000000H     000000H     001FFFH     000FD7H   EDATA
000000H     000000H     001FFFH               HDATA
            FE0000H     FFFFFFH                 
FF0000H     FF0000H     FFFFFFH     008C23H   CODE
000000H     FF0000H     FFFFFFH     000687H   HCONST
000020H.0   000020H.0   00002FH.7   000000H.1 BIT
FF0000H     FF0000H     FFFFFFH     000004H   CONST
000000H     000000H     00007FH     000008H   DATA


MEMORY MAP OF MODULE:  .\Out_File\SEEKFREE (board)


START     STOP      LENGTH    ALIGN  RELOC    MEMORY CLASS   SEGMENT NAME
=========================================================================
000000H   000007H   000008H   ---    AT..     DATA           "REG BANK 0"
000008H   00001DH   000016H   BYTE   UNIT     EDATA          ?ED?WH_TURN_OUT?DIRECTION
00001EH   00001FH   000002H   BYTE   UNIT     EDATA          ?ED?COMMON
000020H.0 000020H.0 000000H.1 BIT    UNIT     BIT            ?BI?WS2812_BIT?RGB
000020H.1 000020H   000000H.7 ---    ---      **GAP**
000021H   000128H   000108H   BYTE   UNIT     EDATA          ?ED?INDUCTANCE
000129H   000229H   000101H   BYTE   UNIT     EDATA          ?ED?SEEKFREE_TSL1401
00022AH   0002A9H   000080H   BYTE   UNIT     EDATA          ?ED?VOFA
0002AAH   00030DH   000064H   BYTE   UNIT     EDATA          ?ED?MOTOR
00030EH   00036CH   00005FH   BYTE   UNIT     EDATA          ?ED?ZF_SPRINTF?SEEKFREE_PRINTF
00036DH   0003C2H   000056H   BYTE   UNIT     EDATA          ?ED?TRACKELEMENT
0003C3H   000417H   000055H   BYTE   UNIT     EDATA          ?ED?SEEKFREE_BLUETOOTH_CH9141
000418H   00046CH   000055H   BYTE   UNIT     EDATA          ?ED?SEEKFREE_WIRELESS
00046DH   0004BEH   000052H   BYTE   UNIT     EDATA          ?ED?DIRECTION
0004BFH   0004EEH   000030H   BYTE   UNIT     EDATA          ?ED?LCD_SHOWFLOAT_SIMSPI?SEEKFREE_18TFT
0004EFH   00051EH   000030H   BYTE   UNIT     EDATA          ?ED?LCD_SHOWFLOAT?SEEKFREE_18TFT
00051FH   00054EH   000030H   BYTE   UNIT     EDATA          ?ED?IPS114_SHOWFLOAT_SIMSPI?SEEKFREE_IPS114_SPI
00054FH   00057EH   000030H   BYTE   UNIT     EDATA          ?ED?IPS114_SHOWFLOAT?SEEKFREE_IPS114_SPI
00057FH   0005AEH   000030H   BYTE   UNIT     EDATA          ?ED?OLED_PRINTF_FLOAT_PX8?SEEKFREE_OLED
0005AFH   0005DEH   000030H   BYTE   UNIT     EDATA          ?ED?OLED_PRINTF_FLOAT?SEEKFREE_OLED
0005DFH   00060EH   000030H   BYTE   UNIT     EDATA          ?ED?OLED_PRINTF_FLOAT_SPI?SEEKFREE_OLED
00060FH   00063DH   00002FH   BYTE   UNIT     EDATA          ?ED?DL1A_SET_MEASUREMENT_TIMING_BUDGET?SEEKFREE_DL1A
00063EH   000669H   00002CH   BYTE   UNIT     EDATA          ?ED?LCD_SHOWINT32_SIMSPI?SEEKFREE_18TFT
00066AH   000695H   00002CH   BYTE   UNIT     EDATA          ?ED?LCD_SHOWINT32?SEEKFREE_18TFT
000696H   0006C1H   00002CH   BYTE   UNIT     EDATA          ?ED?IPS114_SHOWINT32_SIMSPI?SEEKFREE_IPS114_SPI
0006C2H   0006EDH   00002CH   BYTE   UNIT     EDATA          ?ED?IPS114_SHOWINT32?SEEKFREE_IPS114_SPI
0006EEH   000719H   00002CH   BYTE   UNIT     EDATA          ?ED?OLED_PRINTF_INT32?SEEKFREE_OLED
00071AH   000745H   00002CH   BYTE   UNIT     EDATA          ?ED?OLED_PRINTF_INT32_SPI?SEEKFREE_OLED
000746H   000771H   00002CH   BYTE   UNIT     EDATA          ?ED?ENCODER
000772H   000799H   000028H   BYTE   UNIT     EDATA          ?ED?NORMALIZATION_TRACKING_ADC?INDUCTANCE
00079AH   0007C1H   000028H   BYTE   UNIT     EDATA          _EDATA_GROUP_
0007C2H   0007E0H   00001FH   BYTE   UNIT     EDATA          ?ED?DL1A_GET_MEASUREMENT_TIMING_BUDGET?SEEKFREE_DL1A
0007E1H   0007FAH   00001AH   BYTE   UNIT     EDATA          ?ED?DIRCONTROL_2?DIRECTION
0007FBH   000814H   00001AH   BYTE   UNIT     EDATA          ?ED?SEND4DATATOVOFA?VOFA
000815H   00082EH   00001AH   BYTE   UNIT     EDATA          ?ED?SECOND__NWHUAN_MENU?MENU
L251 LINKER/LOCATER V4.66.93.0                                                        05/17/2024  20:59:59  PAGE 4


00082FH   000843H   000015H   BYTE   UNIT     EDATA          ?ED?DL1A_INIT?SEEKFREE_DL1A
000844H   000857H   000014H   BYTE   UNIT     EDATA          ?ED?PWM_INIT?ZF_PWM
000858H   00086BH   000014H   BYTE   UNIT     EDATA          ?ED?PWM_FREQ?ZF_PWM
00086CH   00087FH   000014H   BYTE   UNIT     EDATA          ?ED?NUMBER_CONVERSION_ASCII?SEEKFREE_PRINTF
000880H   000893H   000014H   BYTE   UNIT     EDATA          ?ED?SQ?INDUCTANCE
000894H   0008A6H   000013H   BYTE   UNIT     EDATA          ?ED?FIFO_READ_BUFFER?ZF_FIFO
0008A7H   0008B8H   000012H   BYTE   UNIT     EDATA          ?ED?SEEKFREE_IMU963RA
0008B9H   0008CAH   000012H   BYTE   UNIT     EDATA          ?ED?OLED_DIS_BMP?SEEKFREE_OLED
0008CBH   0008DCH   000012H   BYTE   UNIT     EDATA          ?ED?OLED_DIS_BMP_SPI?SEEKFREE_OLED
0008DDH   0008EEH   000012H   BYTE   UNIT     EDATA          ?ED?ANGLE_RING1?DIRECTION
0008EFH   0008FEH   000010H   BYTE   UNIT     EDATA          ?ED?FIFO_WRITE_BUFFER?ZF_FIFO
0008FFH   00090EH   000010H   BYTE   UNIT     EDATA          ?ED?SECOND_ELEMENT_MENU?MENU
00090FH   00091EH   000010H   BYTE   UNIT     EDATA          ?ED?SECOND_MOTOR_MENU?MENU
00091FH   00092CH   00000EH   BYTE   UNIT     EDATA          ?ED?PWM_DUTY?ZF_PWM
00092DH   00093AH   00000EH   BYTE   UNIT     EDATA          ?ED?UART_INIT?ZF_UART
00093BH   000948H   00000EH   BYTE   UNIT     EDATA          ?ED?OLED_PRINT_CHINESE?SEEKFREE_OLED
000949H   000956H   00000EH   BYTE   UNIT     EDATA          ?ED?OLED_PRINT_CHINESE_SPI?SEEKFREE_OLED
000957H   000964H   00000EH   BYTE   UNIT     EDATA          ?ED?DATA_CONVERSION?SEEKFREE_VIRSCO
000965H   000971H   00000DH   BYTE   UNIT     EDATA          ?ED?ICM20602_SIMSPI_R_REG_BYTES?SEEKFREE_ICM20602
000972H   00097EH   00000DH   BYTE   UNIT     EDATA          ?ED?PRINTF_REVERSE_ORDER?SEEKFREE_PRINTF
00097FH   00098AH   00000CH   BYTE   UNIT     EDATA          ?ED?FIFO_INIT?ZF_FIFO
00098BH   000996H   00000CH   BYTE   UNIT     EDATA          ?ED?LCD_SHOWINT16_SIMSPI?SEEKFREE_18TFT
000997H   0009A2H   00000CH   BYTE   UNIT     EDATA          ?ED?LCD_SHOWUINT16_SIMSPI?SEEKFREE_18TFT
0009A3H   0009AEH   00000CH   BYTE   UNIT     EDATA          ?ED?LCD_SHOWINT16?SEEKFREE_18TFT
0009AFH   0009BAH   00000CH   BYTE   UNIT     EDATA          ?ED?LCD_SHOWUINT16?SEEKFREE_18TFT
0009BBH   0009C6H   00000CH   BYTE   UNIT     EDATA          ?ED?SHOWIMAGE?SEEKFREE_18TFT
0009C7H   0009D2H   00000CH   BYTE   UNIT     EDATA          ?ED?BLUETOOTH_CH9141_READ_BUFF?SEEKFREE_BLUETOOTH_CH9141
0009D3H   0009DEH   00000CH   BYTE   UNIT     EDATA          ?ED?DL1A_GET_SPAD_INFO?SEEKFREE_DL1A
0009DFH   0009EAH   00000CH   BYTE   UNIT     EDATA          ?ED?DL1A_GET_SEQUENCE_STEP_TIMEOUTS?SEEKFREE_DL1A
0009EBH   0009F6H   00000CH   BYTE   UNIT     EDATA          ?ED?SEEKFREE_ICM20602
0009F7H   000A02H   00000CH   BYTE   UNIT     EDATA          ?ED?SEEKFREE_IMU660RA
000A03H   000A0EH   00000CH   BYTE   UNIT     EDATA          ?ED?IMU660RA_SIMIIC_WRITE_REGS?SEEKFREE_IMU660RA
000A0FH   000A1AH   00000CH   BYTE   UNIT     EDATA          ?ED?IPS114_SHOWINT16_SIMSPI?SEEKFREE_IPS114_SPI
000A1BH   000A26H   00000CH   BYTE   UNIT     EDATA          ?ED?IPS114_SHOWUINT16_SIMSPI?SEEKFREE_IPS114_SPI
000A27H   000A32H   00000CH   BYTE   UNIT     EDATA          ?ED?IPS114_SHOWINT16?SEEKFREE_IPS114_SPI
000A33H   000A3EH   00000CH   BYTE   UNIT     EDATA          ?ED?IPS114_SHOWUINT16?SEEKFREE_IPS114_SPI
000A3FH   000A4AH   00000CH   BYTE   UNIT     EDATA          ?ED?SEEKFREE_MPU6050
000A4BH   000A56H   00000CH   BYTE   UNIT     EDATA          ?ED?WIRELESS_UART_READ_BUFF?SEEKFREE_WIRELESS
000A57H   000A62H   00000CH   BYTE   UNIT     EDATA          ?ED?MAIN
000A63H   000A6EH   00000CH   BYTE   UNIT     EDATA          ?ED?MOTOR_SET_PID?MOTOR
000A6FH   000A7AH   00000CH   BYTE   UNIT     EDATA          ?ED?NH_TURN_OUT?DIRECTION
000A7BH   000A86H   00000CH   BYTE   UNIT     EDATA          ?ED?ANGLE_SPEED_RING?DIRECTION
000A87H   000A92H   00000CH   BYTE   UNIT     EDATA          ?ED?LOWPASSFILTER?MPU6050
000A93H   000A9DH   00000BH   BYTE   UNIT     EDATA          ?ED?OLED_UINT16_PX8?SEEKFREE_OLED
000A9EH   000AA8H   00000BH   BYTE   UNIT     EDATA          ?ED?OLED_UINT16?SEEKFREE_OLED
000AA9H   000AB3H   00000BH   BYTE   UNIT     EDATA          ?ED?OLED_INT16?SEEKFREE_OLED
000AB4H   000ABEH   00000BH   BYTE   UNIT     EDATA          ?ED?OLED_UINT16_SPI?SEEKFREE_OLED
000ABFH   000AC9H   00000BH   BYTE   UNIT     EDATA          ?ED?OLED_INT16_SPI?SEEKFREE_OLED
000ACAH   000AD3H   00000AH   BYTE   UNIT     EDATA          ?ED?IAP_READ_BYTES?ZF_EEPROM
000AD4H   000ADDH   00000AH   BYTE   UNIT     EDATA          ?ED?IAP_WRITE_BYTES?ZF_EEPROM
000ADEH   000AE7H   00000AH   BYTE   UNIT     EDATA          ?ED?LCD_SHOWSTR_SIMSPI?SEEKFREE_18TFT
000AE8H   000AF1H   00000AH   BYTE   UNIT     EDATA          ?ED?LCD_SHOWSTR?SEEKFREE_18TFT
000AF2H   000AFBH   00000AH   BYTE   UNIT     EDATA          ?ED?BLUETOOTH_CH9141_SEND_BUFF?SEEKFREE_BLUETOOTH_CH9141
000AFCH   000B05H   00000AH   BYTE   UNIT     EDATA          ?ED?DL1A_SIMIIC_READ_REGS?SEEKFREE_DL1A
000B06H   000B0FH   00000AH   BYTE   UNIT     EDATA          ?ED?DL1A_SIMIIC_READ_REGS_1?SEEKFREE_DL1A
000B10H   000B19H   00000AH   BYTE   UNIT     EDATA          ?ED?DL1A_ENCODE_TIMEOUT?SEEKFREE_DL1A
000B1AH   000B23H   00000AH   BYTE   UNIT     EDATA          ?ED?IMU660RA_SIMIIC_READ_REGS?SEEKFREE_IMU660RA
000B24H   000B2DH   00000AH   BYTE   UNIT     EDATA          ?ED?IPS114_SHOWSTR_SIMSPI?SEEKFREE_IPS114_SPI
000B2EH   000B37H   00000AH   BYTE   UNIT     EDATA          ?ED?IPS114_SHOWSTR?SEEKFREE_IPS114_SPI
000B38H   000B41H   00000AH   BYTE   UNIT     EDATA          ?ED?SEEKFREE_VIRSCO
000B42H   000B4BH   00000AH   BYTE   UNIT     EDATA          ?ED?GYRO_FILTER?MPU6050
000B4CH   000B54H   000009H   BYTE   UNIT     EDATA          ?ED?LCD_SHOWINT8_SIMSPI?SEEKFREE_18TFT
000B55H   000B5DH   000009H   BYTE   UNIT     EDATA          ?ED?LCD_SHOWUINT8_SIMSPI?SEEKFREE_18TFT
000B5EH   000B66H   000009H   BYTE   UNIT     EDATA          ?ED?LCD_SHOWINT8?SEEKFREE_18TFT
000B67H   000B6FH   000009H   BYTE   UNIT     EDATA          ?ED?LCD_SHOWUINT8?SEEKFREE_18TFT
L251 LINKER/LOCATER V4.66.93.0                                                        05/17/2024  20:59:59  PAGE 5


000B70H   000B78H   000009H   BYTE   UNIT     EDATA          ?ED?DL1A_SIMIIC_WRITE_DATS?SEEKFREE_DL1A
000B79H   000B81H   000009H   BYTE   UNIT     EDATA          ?ED?DL1A_TIMEOUT_MICROSECONDS_TO_MCLKS?SEEKFREE_DL1A
000B82H   000B8AH   000009H   BYTE   UNIT     EDATA          ?ED?DL1A_SET_SIGNAL_RATE_LIMIT?SEEKFREE_DL1A
000B8BH   000B93H   000009H   BYTE   UNIT     EDATA          ?ED?ICM20602_READ_REGISTERS?SEEKFREE_ICM20602
000B94H   000B9CH   000009H   BYTE   UNIT     EDATA          ?ED?IMU963RA_SIMSPI_R_REG_BYTES?SEEKFREE_IMU963RA
000B9DH   000BA5H   000009H   BYTE   UNIT     EDATA          ?ED?IMU963RA_READ_ACC_GYRO_REGISTERS?SEEKFREE_IMU963RA
000BA6H   000BAEH   000009H   BYTE   UNIT     EDATA          ?ED?IPS114_SHOWINT8_SIMSPI?SEEKFREE_IPS114_SPI
000BAFH   000BB7H   000009H   BYTE   UNIT     EDATA          ?ED?IPS114_SHOWUINT8_SIMSPI?SEEKFREE_IPS114_SPI
000BB8H   000BC0H   000009H   BYTE   UNIT     EDATA          ?ED?IPS114_SHOWINT8?SEEKFREE_IPS114_SPI
000BC1H   000BC9H   000009H   BYTE   UNIT     EDATA          ?ED?IPS114_SHOWUINT8?SEEKFREE_IPS114_SPI
000BCAH   000BD2H   000009H   BYTE   UNIT     EDATA          ?ED?OLED_P6X8STR?SEEKFREE_OLED
000BD3H   000BDBH   000009H   BYTE   UNIT     EDATA          ?ED?OLED_P8X16STR?SEEKFREE_OLED
000BDCH   000BE4H   000009H   BYTE   UNIT     EDATA          ?ED?OLED_P6X8STR_SPI?SEEKFREE_OLED
000BE5H   000BEDH   000009H   BYTE   UNIT     EDATA          ?ED?OLED_P8X16STR_SPI?SEEKFREE_OLED
000BEEH   000BF6H   000009H   BYTE   UNIT     EDATA          ?ED?CRC_CHECK?SEEKFREE_VIRSCO
000BF7H   000BFEH   000008H   BYTE   UNIT     EDATA          ?ED?SET_CLK?BOARD
000BFFH   000C06H   000008H   BYTE   UNIT     EDATA          ?ED?UART_PUTBUFF?ZF_UART
000C07H   000C0EH   000008H   BYTE   UNIT     EDATA          ?ED?FIFO_HEAD_OFFSET?ZF_FIFO
000C0FH   000C16H   000008H   BYTE   UNIT     EDATA          ?ED?FIFO_END_OFFSET?ZF_FIFO
000C17H   000C1EH   000008H   BYTE   UNIT     EDATA          ?ED?LCD_SET_REGION_SIMSPI?SEEKFREE_18TFT
000C1FH   000C26H   000008H   BYTE   UNIT     EDATA          ?ED?LCD_SHOWCHAR_SIMSPI?SEEKFREE_18TFT
000C27H   000C2EH   000008H   BYTE   UNIT     EDATA          ?ED?LCD_SET_REGION?SEEKFREE_18TFT
000C2FH   000C36H   000008H   BYTE   UNIT     EDATA          ?ED?LCD_SHOWCHAR?SEEKFREE_18TFT
000C37H   000C3EH   000008H   BYTE   UNIT     EDATA          ?ED?IPS114_SET_REGION_SIMSPI?SEEKFREE_IPS114_SPI
000C3FH   000C46H   000008H   BYTE   UNIT     EDATA          ?ED?IPS114_SHOWCHAR_SIMSPI?SEEKFREE_IPS114_SPI
000C47H   000C4EH   000008H   BYTE   UNIT     EDATA          ?ED?IPS114_SET_REGION?SEEKFREE_IPS114_SPI
000C4FH   000C56H   000008H   BYTE   UNIT     EDATA          ?ED?IPS114_SHOWCHAR?SEEKFREE_IPS114_SPI
000C57H   000C5EH   000008H   BYTE   UNIT     EDATA          ?ED?OLED_HEXASCII?SEEKFREE_OLED
000C5FH   000C66H   000008H   BYTE   UNIT     EDATA          ?ED?OLED_HEXASCII_SPI?SEEKFREE_OLED
000C67H   000C6EH   000008H   BYTE   UNIT     EDATA          ?ED?MPU6050
000C6FH   000C76H   000008H   BYTE   UNIT     EDATA          ?ED?SUB_PID?TRACKELEMENT
000C77H   000C7EH   000008H   BYTE   UNIT     EDATA          ?ED?WS2812_SENDDATA?RGB
000C7FH   000C85H   000007H   BYTE   UNIT     EDATA          ?ED?IIC_READ_REG_BYTES?ZF_IIC
000C86H   000C8CH   000007H   BYTE   UNIT     EDATA          ?ED?SPI_INIT?ZF_SPI
000C8DH   000C93H   000007H   BYTE   UNIT     EDATA          ?ED?DL1A_TIMEOUT_MCLKS_TO_MICROSECONDS?SEEKFREE_DL1A
000C94H   000C9AH   000007H   BYTE   UNIT     EDATA          ?ED?IMU963RA_GET_MAG?SEEKFREE_IMU963RA
000C9BH   000CA1H   000007H   BYTE   UNIT     EDATA          ?ED?MPU6050_SIMIIC_READ_REGS?SEEKFREE_MPU6050
000CA2H   000CA8H   000007H   BYTE   UNIT     EDATA          ?ED?CCD_SEND_DATA?SEEKFREE_TSL1401
000CA9H   000CAEH   000006H   BYTE   UNIT     EDATA          ?ED?ADC_ONCE?ZF_ADC
000CAFH   000CB4H   000006H   BYTE   UNIT     EDATA          ?ED?DELAY_US?ZF_DELAY
000CB5H   000CBAH   000006H   BYTE   UNIT     EDATA          ?ED?IIC_INIT?ZF_IIC
000CBBH   000CC0H   000006H   BYTE   UNIT     EDATA          ?ED?IIC_READ_REG?ZF_IIC
000CC1H   000CC6H   000006H   BYTE   UNIT     EDATA          ?ED?PIT_TIMER_MS?ZF_TIM
000CC7H   000CCCH   000006H   BYTE   UNIT     EDATA          ?ED?UART_PUTSTR?ZF_UART
000CCDH   000CD2H   000006H   BYTE   UNIT     EDATA          ?ED?LCD_DRAWPOINT_SIMSPI?SEEKFREE_18TFT
000CD3H   000CD8H   000006H   BYTE   UNIT     EDATA          ?ED?LCD_DRAWPOINT?SEEKFREE_18TFT
000CD9H   000CDEH   000006H   BYTE   UNIT     EDATA          ?ED?ICM20602_GET_ACC?SEEKFREE_ICM20602
000CDFH   000CE4H   000006H   BYTE   UNIT     EDATA          ?ED?ICM20602_GET_GYRO?SEEKFREE_ICM20602
000CE5H   000CEAH   000006H   BYTE   UNIT     EDATA          ?ED?ICM20602_ACC_TRANSITION?SEEKFREE_ICM20602
000CEBH   000CF0H   000006H   BYTE   UNIT     EDATA          ?ED?ICM20602_GYRO_TRANSITION?SEEKFREE_ICM20602
000CF1H   000CF6H   000006H   BYTE   UNIT     EDATA          ?ED?IMU660RA_GET_ACC?SEEKFREE_IMU660RA
000CF7H   000CFCH   000006H   BYTE   UNIT     EDATA          ?ED?IMU660RA_GET_GYRO?SEEKFREE_IMU660RA
000CFDH   000D02H   000006H   BYTE   UNIT     EDATA          ?ED?IMU660RA_ACC_TRANSITION?SEEKFREE_IMU660RA
000D03H   000D08H   000006H   BYTE   UNIT     EDATA          ?ED?IMU660RA_GYRO_TRANSITION?SEEKFREE_IMU660RA
000D09H   000D0EH   000006H   BYTE   UNIT     EDATA          ?ED?IMU963RA_WRITE_MAG_REGISTER?SEEKFREE_IMU963RA
000D0FH   000D14H   000006H   BYTE   UNIT     EDATA          ?ED?IMU963RA_GET_ACC?SEEKFREE_IMU963RA
000D15H   000D1AH   000006H   BYTE   UNIT     EDATA          ?ED?IMU963RA_GET_GYRO?SEEKFREE_IMU963RA
000D1BH   000D20H   000006H   BYTE   UNIT     EDATA          ?ED?IMU963RA_ACC_TRANSITION?SEEKFREE_IMU963RA
000D21H   000D26H   000006H   BYTE   UNIT     EDATA          ?ED?IMU963RA_GYRO_TRANSITION?SEEKFREE_IMU963RA
000D27H   000D2CH   000006H   BYTE   UNIT     EDATA          ?ED?IMU963RA_MAG_TRANSITION?SEEKFREE_IMU963RA
000D2DH   000D32H   000006H   BYTE   UNIT     EDATA          ?ED?IPS114_CLEAR_SIMSPI?SEEKFREE_IPS114_SPI
000D33H   000D38H   000006H   BYTE   UNIT     EDATA          ?ED?IPS114_DRAWPOINT_SIMSPI?SEEKFREE_IPS114_SPI
000D39H   000D3EH   000006H   BYTE   UNIT     EDATA          ?ED?IPS114_CLEAR?SEEKFREE_IPS114_SPI
000D3FH   000D44H   000006H   BYTE   UNIT     EDATA          ?ED?IPS114_DRAWPOINT?SEEKFREE_IPS114_SPI
000D45H   000D4AH   000006H   BYTE   UNIT     EDATA          ?ED?MPU6050_GET_ACCDATA?SEEKFREE_MPU6050
L251 LINKER/LOCATER V4.66.93.0                                                        05/17/2024  20:59:59  PAGE 6


000D4BH   000D50H   000006H   BYTE   UNIT     EDATA          ?ED?MPU6050_GET_GYRO?SEEKFREE_MPU6050
000D51H   000D56H   000006H   BYTE   UNIT     EDATA          ?ED?WIRELESS_UART_SEND_BUFF?SEEKFREE_WIRELESS
000D57H   000D5CH   000006H   BYTE   UNIT     EDATA          ?ED?MAIN?MAIN
000D5DH   000D62H   000006H   BYTE   UNIT     EDATA          ?ED?LSPEED_PID_OUT?MOTOR
000D63H   000D68H   000006H   BYTE   UNIT     EDATA          ?ED?RSPEED_PID_OUT?MOTOR
000D69H   000D6DH   000005H   BYTE   UNIT     EDATA          ?ED?ZF_UART
000D6EH   000D72H   000005H   BYTE   UNIT     EDATA          ?ED?SIMSPI_R_REG_BYTE?SEEKFREE_ABSOLUTE_ENCODER
000D73H   000D77H   000005H   BYTE   UNIT     EDATA          ?ED?ENCODER_SIMSPI_R_REG_BYTE?SEEKFREE_ABSOLUTE_ENCODER
000D78H   000D7CH   000005H   BYTE   UNIT     EDATA          ?ED?SPI_R_REG_BYTE?SEEKFREE_ABSOLUTE_ENCODER
000D7DH   000D81H   000005H   BYTE   UNIT     EDATA          ?ED?ENCODER_SPI_R_REG_BYTE?SEEKFREE_ABSOLUTE_ENCODER
000D82H   000D86H   000005H   BYTE   UNIT     EDATA          ?ED?DL1A_GET_SEQUENCE_STEP_ENABLES?SEEKFREE_DL1A
000D87H   000D8BH   000005H   BYTE   UNIT     EDATA          ?ED?DL1A_PERFORM_SINGLE_REF_CALIBRATION?SEEKFREE_DL1A
000D8CH   000D90H   000005H   BYTE   UNIT     EDATA          ?ED?ICM20602_SIMSPI_R_REG_BYTE?SEEKFREE_ICM20602
000D91H   000D95H   000005H   BYTE   UNIT     EDATA          ?ED?IMU963RA_SIMSPI_R_REG_BYTE?SEEKFREE_IMU963RA
000D96H   000D9AH   000005H   BYTE   UNIT     EDATA          ?ED?ISR
000D9BH   000D9FH   000005H   BYTE   UNIT     EDATA          ?ED?FILTER_1?MOTOR
000DA0H   000DA3H   000004H   BYTE   UNIT     EDATA          ?ED?BOARD
000DA4H   000DA7H   000004H   BYTE   UNIT     EDATA          ?ED?CLOCK_INIT?BOARD
000DA8H   000DABH   000004H   BYTE   UNIT     EDATA          ?ED?ADC_INIT?ZF_ADC
000DACH   000DAFH   000004H   BYTE   UNIT     EDATA          ?ED?ZF_DELAY
000DB0H   000DB3H   000004H   BYTE   UNIT     EDATA          ?ED?DELAY_MS?ZF_DELAY
000DB4H   000DB7H   000004H   BYTE   UNIT     EDATA          ?ED?DELAY_NS?ZF_DELAY
000DB8H   000DBBH   000004H   BYTE   UNIT     EDATA          ?ED?IAP_ERASE_PAGE?ZF_EEPROM
000DBCH   000DBFH   000004H   BYTE   UNIT     EDATA          ?ED?EXIT_INIT?ZF_EXTI
000DC0H   000DC3H   000004H   BYTE   UNIT     EDATA          ?ED?GPIO_PULL_SET?ZF_GPIO
000DC4H   000DC7H   000004H   BYTE   UNIT     EDATA          ?ED?GPIO_MODE?ZF_GPIO
000DC8H   000DCBH   000004H   BYTE   UNIT     EDATA          ?ED?CTIMER_COUNT_READ?ZF_TIM
000DCCH   000DCFH   000004H   BYTE   UNIT     EDATA          ?ED?FIFO_CLEAR?ZF_FIFO
000DD0H   000DD3H   000004H   BYTE   UNIT     EDATA          ?ED?FIFO_USED?ZF_FIFO
000DD4H   000DD7H   000004H   BYTE   UNIT     EDATA          ?ED?LCD_CLEAR_SIMSPI?SEEKFREE_18TFT
000DD8H   000DDBH   000004H   BYTE   UNIT     EDATA          ?ED?LCD_WRITEDATA_16BIT?SEEKFREE_18TFT
000DDCH   000DDFH   000004H   BYTE   UNIT     EDATA          ?ED?LCD_CLEAR?SEEKFREE_18TFT
000DE0H   000DE3H   000004H   BYTE   UNIT     EDATA          ?ED?ICM20602_SELF_CHECK?SEEKFREE_ICM20602
000DE4H   000DE7H   000004H   BYTE   UNIT     EDATA          ?ED?ICM20602_INIT?SEEKFREE_ICM20602
000DE8H   000DEBH   000004H   BYTE   UNIT     EDATA          ?ED?IMU660RA_SELF_CHECK?SEEKFREE_IMU660RA
000DECH   000DEFH   000004H   BYTE   UNIT     EDATA          ?ED?IMU963RA_READ_MAG_REGISTER?SEEKFREE_IMU963RA
000DF0H   000DF3H   000004H   BYTE   UNIT     EDATA          ?ED?IMU963RA_ACC_GYRO_SELF_CHECK?SEEKFREE_IMU963RA
000DF4H   000DF7H   000004H   BYTE   UNIT     EDATA          ?ED?IMU963RA_MAG_SELF_CHECK?SEEKFREE_IMU963RA
000DF8H   000DFBH   000004H   BYTE   UNIT     EDATA          ?ED?IPS114_WRITEDATA_16BIT?SEEKFREE_IPS114_SPI
000DFCH   000DFFH   000004H   BYTE   UNIT     EDATA          ?ED?LIMIT?MOTOR
000E00H   000E03H   000004H   BYTE   UNIT     EDATA          ?ED?MOTOR_PWM?MOTOR
000E04H   000E07H   000004H   BYTE   UNIT     EDATA          ?ED?ANGLE_RING?DIRECTION
000E08H   000E0BH   000004H   BYTE   UNIT     EDATA          ?ED?GET_ANGLE?MPU6050
000E0CH   000E0FH   000004H   BYTE   UNIT     EDATA          ?ED?SHOW_ALLVAL?MENU
000E10H   000E13H   000004H   BYTE   UNIT     EDATA          ?ED?FIRST_MENU?MENU
000E14H   000E16H   000003H   BYTE   UNIT     EDATA          ?ED?IIC_DELAY_US?ZF_IIC
000E17H   000E19H   000003H   BYTE   UNIT     EDATA          ?ED?WAIT?ZF_IIC
000E1AH   000E1CH   000003H   BYTE   UNIT     EDATA          ?ED?IIC_WRITE_REG?ZF_IIC
000E1DH   000E1FH   000003H   BYTE   UNIT     EDATA          ?ED?NVIC_SETPRIORITY?ZF_NVIC
000E20H   000E22H   000003H   BYTE   UNIT     EDATA          ?ED?UART_PUTCHAR?ZF_UART
000E23H   000E25H   000003H   BYTE   UNIT     EDATA          ?ED?LCD_WRITEDATA_16BIT_SIMSPI?SEEKFREE_18TFT
000E26H   000E28H   000003H   BYTE   UNIT     EDATA          ?ED?ENCODER_SIMSPI_W_REG_BYTE?SEEKFREE_ABSOLUTE_ENCODER
000E29H   000E2BH   000003H   BYTE   UNIT     EDATA          ?ED?ENCODER_SPI_W_REG_BYTE?SEEKFREE_ABSOLUTE_ENCODER
000E2CH   000E2EH   000003H   BYTE   UNIT     EDATA          ?ED?SEEKFREE_DL1A
000E2FH   000E31H   000003H   BYTE   UNIT     EDATA          ?ED?DL1A_READ_CH?SEEKFREE_DL1A
000E32H   000E34H   000003H   BYTE   UNIT     EDATA          ?ED?DL1A_SIMIIC_WRITE_REG?SEEKFREE_DL1A
000E35H   000E37H   000003H   BYTE   UNIT     EDATA          ?ED?DL1A_SIMIIC_READ_REG?SEEKFREE_DL1A
000E38H   000E3AH   000003H   BYTE   UNIT     EDATA          ?ED?DL1A_GET_VCSEL_PULSE_PERIOD?SEEKFREE_DL1A
000E3BH   000E3DH   000003H   BYTE   UNIT     EDATA          ?ED?DL1A_GET_DISTANCE?SEEKFREE_DL1A
000E3EH   000E40H   000003H   BYTE   UNIT     EDATA          ?ED?IMU660RA_READ_CH?SEEKFREE_IMU660RA
000E41H   000E43H   000003H   BYTE   UNIT     EDATA          ?ED?IMU660RA_SIMIIC_WRITE_REG?SEEKFREE_IMU660RA
000E44H   000E46H   000003H   BYTE   UNIT     EDATA          ?ED?IMU660RA_SIMIIC_READ_REG?SEEKFREE_IMU660RA
000E47H   000E49H   000003H   BYTE   UNIT     EDATA          ?ED?IPS114_WRITEDATAI_16BIT_SIMSPI?SEEKFREE_IPS114_SPI
000E4AH   000E4CH   000003H   BYTE   UNIT     EDATA          ?ED?MPU6050_READ_CH?SEEKFREE_MPU6050
000E4DH   000E4FH   000003H   BYTE   UNIT     EDATA          ?ED?MPU6050_SIMIIC_WRITE_REG?SEEKFREE_MPU6050
L251 LINKER/LOCATER V4.66.93.0                                                        05/17/2024  20:59:59  PAGE 7


000E50H   000E52H   000003H   BYTE   UNIT     EDATA          ?ED?MPU6050_SIMIIC_READ_REG?SEEKFREE_MPU6050
000E53H   000E55H   000003H   BYTE   UNIT     EDATA          ?ED?OLED_FILL?SEEKFREE_OLED
000E56H   000E58H   000003H   BYTE   UNIT     EDATA          ?ED?OLED_PUTPIXEL?SEEKFREE_OLED
000E59H   000E5BH   000003H   BYTE   UNIT     EDATA          ?ED?OLED_FILL_SPI?SEEKFREE_OLED
000E5CH   000E5EH   000003H   BYTE   UNIT     EDATA          ?ED?OLED_PUTPIXEL_SPI?SEEKFREE_OLED
000E5FH   000E61H   000003H   BYTE   UNIT     EDATA          ?ED?RGB_COLOR?RGB
000E62H   000E64H   000003H   BYTE   UNIT     EDATA          ?ED?RGB_SHOW?RGB
000E65H   000E66H   000002H   BYTE   UNIT     EDATA          ?ED?SEND_DATA?ZF_IIC
000E67H   000E68H   000002H   BYTE   UNIT     EDATA          ?ED?IIC_CHANGE_PIN?ZF_IIC
000E69H   000E6AH   000002H   BYTE   UNIT     EDATA          ?ED?PWM_SET_GPIO?ZF_PWM
000E6BH   000E6CH   000002H   BYTE   UNIT     EDATA          ?ED?SPI_CHANGE_PIN?ZF_SPI
000E6DH   000E6EH   000002H   BYTE   UNIT     EDATA          ?ED?CTIMER_COUNT_INIT?ZF_TIM
000E6FH   000E70H   000002H   BYTE   UNIT     EDATA          ?ED?CTIMER_COUNT_CLEAN?ZF_TIM
000E71H   000E72H   000002H   BYTE   UNIT     EDATA          ?ED?LCD_WRITEINDEX_SIMSPI?SEEKFREE_18TFT
000E73H   000E74H   000002H   BYTE   UNIT     EDATA          ?ED?LCD_WRITEDATA_SIMSPI?SEEKFREE_18TFT
000E75H   000E76H   000002H   BYTE   UNIT     EDATA          ?ED?ENCODER_DELAY_US?SEEKFREE_ABSOLUTE_ENCODER
000E77H   000E78H   000002H   BYTE   UNIT     EDATA          ?ED?SIMSPI_WR_BYTE?SEEKFREE_ABSOLUTE_ENCODER
000E79H   000E7AH   000002H   BYTE   UNIT     EDATA          ?ED?SIMSPI_W_REG_BYTE?SEEKFREE_ABSOLUTE_ENCODER
000E7BH   000E7CH   000002H   BYTE   UNIT     EDATA          ?ED?SET_ZERO_POSITION_SIMSPI?SEEKFREE_ABSOLUTE_ENCODER
000E7DH   000E7EH   000002H   BYTE   UNIT     EDATA          ?ED?ENCODER_ANGLE_SIMSPI?SEEKFREE_ABSOLUTE_ENCODER
000E7FH   000E80H   000002H   BYTE   UNIT     EDATA          ?ED?SPI_W_REG_BYTE?SEEKFREE_ABSOLUTE_ENCODER
000E81H   000E82H   000002H   BYTE   UNIT     EDATA          ?ED?SET_ZERO_POSITION_SPI?SEEKFREE_ABSOLUTE_ENCODER
000E83H   000E84H   000002H   BYTE   UNIT     EDATA          ?ED?ENCODER_ANGLE_SPI?SEEKFREE_ABSOLUTE_ENCODER
000E85H   000E86H   000002H   BYTE   UNIT     EDATA          ?ED?DL1A_SIMIIC_DELAY?SEEKFREE_DL1A
000E87H   000E88H   000002H   BYTE   UNIT     EDATA          ?ED?DL1A_SEND_CH?SEEKFREE_DL1A
000E89H   000E8AH   000002H   BYTE   UNIT     EDATA          ?ED?DL1A_DECODE_TIMEOUT?SEEKFREE_DL1A
000E8BH   000E8CH   000002H   BYTE   UNIT     EDATA          ?ED?ICM20602_SIMSPI_WR_BYTE?SEEKFREE_ICM20602
000E8DH   000E8EH   000002H   BYTE   UNIT     EDATA          ?ED?ICM20602_SIMSPI_W_REG_BYTE?SEEKFREE_ICM20602
000E8FH   000E90H   000002H   BYTE   UNIT     EDATA          ?ED?ICM20602_WRITE_REGISTER?SEEKFREE_ICM20602
000E91H   000E92H   000002H   BYTE   UNIT     EDATA          ?ED?ICM20602_READ_REGISTER?SEEKFREE_ICM20602
000E93H   000E94H   000002H   BYTE   UNIT     EDATA          ?ED?IMU660RA_SIMIIC_DELAY?SEEKFREE_IMU660RA
000E95H   000E96H   000002H   BYTE   UNIT     EDATA          ?ED?IMU660RA_SEND_CH?SEEKFREE_IMU660RA
000E97H   000E98H   000002H   BYTE   UNIT     EDATA          ?ED?IMU963RA_SIMSPI_WR_BYTE?SEEKFREE_IMU963RA
000E99H   000E9AH   000002H   BYTE   UNIT     EDATA          ?ED?IMU963RA_SIMSPI_W_REG_BYTE?SEEKFREE_IMU963RA
000E9BH   000E9CH   000002H   BYTE   UNIT     EDATA          ?ED?IMU963RA_WRITE_ACC_GYRO_REGISTER?SEEKFREE_IMU963RA
000E9DH   000E9EH   000002H   BYTE   UNIT     EDATA          ?ED?IMU963RA_READ_ACC_GYRO_REGISTER?SEEKFREE_IMU963RA
000E9FH   000EA0H   000002H   BYTE   UNIT     EDATA          ?ED?IMU963RA_CONNECT_MAG?SEEKFREE_IMU963RA
000EA1H   000EA2H   000002H   BYTE   UNIT     EDATA          ?ED?IPS114_WRITEINDEX_SIMSPI?SEEKFREE_IPS114_SPI
000EA3H   000EA4H   000002H   BYTE   UNIT     EDATA          ?ED?IPS114_WRITEDATA_SIMSPI?SEEKFREE_IPS114_SPI
000EA5H   000EA6H   000002H   BYTE   UNIT     EDATA          ?ED?MPU6050_SIMIIC_DELAY?SEEKFREE_MPU6050
000EA7H   000EA8H   000002H   BYTE   UNIT     EDATA          ?ED?MPU6050_SEND_CH?SEEKFREE_MPU6050
000EA9H   000EAAH   000002H   BYTE   UNIT     EDATA          ?ED?OLED_WRDAT?SEEKFREE_OLED
000EABH   000EACH   000002H   BYTE   UNIT     EDATA          ?ED?OLED_WRCMD?SEEKFREE_OLED
000EADH   000EAEH   000002H   BYTE   UNIT     EDATA          ?ED?OLED_SET_POS?SEEKFREE_OLED
000EAFH   000EB0H   000002H   BYTE   UNIT     EDATA          ?ED?OLED_CLRPIXEL?SEEKFREE_OLED
000EB1H   000EB2H   000002H   BYTE   UNIT     EDATA          ?ED?OLED_SET_POS_SPI?SEEKFREE_OLED
000EB3H   000EB4H   000002H   BYTE   UNIT     EDATA          ?ED?OLED_CLRPIXEL_SPI?SEEKFREE_OLED
000EB5H   000EB6H   000002H   BYTE   UNIT     EDATA          ?ED?BUZZER?MOTOR
000EB7H   000EB8H   000002H   BYTE   UNIT     EDATA          ?ED?L_ENC_INTEGRAL?ENCODER
000EB9H   000EBAH   000002H   BYTE   UNIT     EDATA          ?ED?R_ENC_INTEGRAL?ENCODER
000EBBH   000EBCH   000002H   BYTE   UNIT     EDATA          ?ED?TM4_ISR?ENCODER
000EBDH   000EBEH   000002H   BYTE   UNIT     EDATA          ?ED?CAR_DISTANCE?DIRECTION
000EBFH   000EC0H   000002H   BYTE   UNIT     EDATA          ?ED?GYRO_ZERO_WANDER?MPU6050
000EC1H   000EC2H   000002H   BYTE   UNIT     EDATA          ?ED?DISTACE?TRACKELEMENT
000EC3H   000EC4H   000002H   BYTE   UNIT     EDATA          ?ED?SPEED_PLAN?TRACKELEMENT
000EC5H   000EC6H   000002H   BYTE   UNIT     EDATA          ?ED?TRACKING?TRACKELEMENT
000EC7H   000EC7H   000001H   BYTE   UNIT     EDATA          ?ED?PUTCHAR?BOARD
000EC8H   000EC8H   000001H   BYTE   UNIT     EDATA          ?ED?IAP_SET_TPS?ZF_EEPROM
000EC9H   000EC9H   000001H   BYTE   UNIT     EDATA          ?ED?START?ZF_IIC
000ECAH   000ECAH   000001H   BYTE   UNIT     EDATA          ?ED?RECV_ACK?ZF_IIC
000ECBH   000ECBH   000001H   BYTE   UNIT     EDATA          ?ED?SEND_ACK?ZF_IIC
000ECCH   000ECCH   000001H   BYTE   UNIT     EDATA          ?ED?STOP?ZF_IIC
000ECDH   000ECDH   000001H   BYTE   UNIT     EDATA          ?ED?SPI_MOSI?ZF_SPI
000ECEH   000ECEH   000001H   BYTE   UNIT     EDATA          ?ED?SPI_CHANGE_MODE?ZF_SPI
000ECFH   000ECFH   000001H   BYTE   UNIT     EDATA          ?ED?LCD_WRITEINDEX?SEEKFREE_18TFT
L251 LINKER/LOCATER V4.66.93.0                                                        05/17/2024  20:59:59  PAGE 8


000ED0H   000ED0H   000001H   BYTE   UNIT     EDATA          ?ED?LCD_WRITEDATA?SEEKFREE_18TFT
000ED1H   000ED1H   000001H   BYTE   UNIT     EDATA          ?ED?ENCODER_SELF4_CHECK?SEEKFREE_ABSOLUTE_ENCODER
000ED2H   000ED2H   000001H   BYTE   UNIT     EDATA          ?ED?SPI_WR_BYTE?SEEKFREE_ABSOLUTE_ENCODER
000ED3H   000ED3H   000001H   BYTE   UNIT     EDATA          ?ED?ENCODER_SELF5_CHECK?SEEKFREE_ABSOLUTE_ENCODER
000ED4H   000ED4H   000001H   BYTE   UNIT     EDATA          ?ED?DL1A_SIMIIC_SENDACK?SEEKFREE_DL1A
000ED5H   000ED5H   000001H   BYTE   UNIT     EDATA          ?ED?IMU660RA_SIMIIC_SENDACK?SEEKFREE_IMU660RA
000ED6H   000ED6H   000001H   BYTE   UNIT     EDATA          ?ED?IMU660RA_INIT?SEEKFREE_IMU660RA
000ED7H   000ED7H   000001H   BYTE   UNIT     EDATA          ?ED?IMU963RA_INIT?SEEKFREE_IMU963RA
000ED8H   000ED8H   000001H   BYTE   UNIT     EDATA          ?ED?IPS114_WRITEINDEX?SEEKFREE_IPS114_SPI
000ED9H   000ED9H   000001H   BYTE   UNIT     EDATA          ?ED?IPS114_WRITEDATA?SEEKFREE_IPS114_SPI
000EDAH   000EDAH   000001H   BYTE   UNIT     EDATA          ?ED?MPU6050_SIMIIC_SENDACK?SEEKFREE_MPU6050
000EDBH   000EDBH   000001H   BYTE   UNIT     EDATA          ?ED?OLED_WRDAT_SPI?SEEKFREE_OLED
000EDCH   000EDCH   000001H   BYTE   UNIT     EDATA          ?ED?OLED_WRCMD_SPI?SEEKFREE_OLED
000EDDH   000EDDH   000001H   BYTE   UNIT     EDATA          ?ED?CCD_COLLECT?SEEKFREE_TSL1401
000EDEH   000EDEH   000001H   BYTE   UNIT     EDATA          ?ED?WIRELESS_UART_SEND_BYTE?SEEKFREE_WIRELESS
000EDFH   000EDFH   000001H   BYTE   UNIT     EDATA          ?ED?UART1_ISR?ISR
000EE0H   000FDFH   000100H   BYTE   UNIT     EDATA          ?STACK
000FE0H   FEFFFFH   FEF020H   ---    ---      **GAP**
FF0000H   FF0002H   000003H   ---    OFFS..   CODE           ?CO?start251?4
FF0003H   FF0005H   000003H   ---    OFFS..   CODE           ?PR?IV?0
FF0006H   FF0009H   000004H   BYTE   INSEG    CODE           ?PR?ENABLEGLOBALIRQ?BOARD
FF000AH   FF000AH   000001H   BYTE   INSEG    CODE           ?PR?INT1_ISR?ISR
FF000BH   FF000DH   000003H   ---    OFFS..   CODE           ?PR?IV?1
FF000EH   FF0011H   000004H   BYTE   UNIT     CODE           ?PR?FPADD?STC32F_FPMU
FF0012H   FF0012H   000001H   ---    ---      **GAP**
FF0013H   FF0015H   000003H   ---    OFFS..   CODE           ?PR?IV?2
FF0016H   FF0019H   000004H   BYTE   UNIT     CODE           ?PR?FPSUB?STC32F_FPMU
FF001AH   FF001AH   000001H   ---    ---      **GAP**
FF001BH   FF001DH   000003H   ---    OFFS..   CODE           ?PR?IV?3
FF001EH   FF0021H   000004H   BYTE   UNIT     CODE           ?PR?FPMUL?STC32F_FPMU
FF0022H   FF0022H   000001H   ---    ---      **GAP**
FF0023H   FF0025H   000003H   ---    OFFS..   CODE           ?PR?IV?4
FF0026H   FF0042H   00001DH   BYTE   INSEG    CODE           ?PR?MPU6050_SIMIIC_DELAY?SEEKFREE_MPU6050
FF0043H   FF0045H   000003H   ---    OFFS..   CODE           ?PR?IV?8
FF0046H   FF0051H   00000CH   BYTE   UNIT     CODE           ?PR?FPCMP?STC32F_FPMU
FF0052H   FF0052H   000001H   ---    ---      **GAP**
FF0053H   FF0055H   000003H   ---    OFFS..   CODE           ?PR?IV?10
FF0056H   FF0059H   000004H   BYTE   UNIT     CODE           ?PR?FPDIV?STC32F_FPMU
FF005AH   FF005AH   000001H   ---    ---      **GAP**
FF005BH   FF005DH   000003H   ---    OFFS..   CODE           ?PR?IV?11
FF005EH   FF0061H   000004H   BYTE   UNIT     CODE           ?PR?FCASTL?STC32F_FPMU
FF0062H   FF0062H   000001H   ---    ---      **GAP**
FF0063H   FF0065H   000003H   ---    OFFS..   CODE           ?PR?IV?12
FF0066H   FF007FH   00001AH   BYTE   INSEG    CODE           ?PR?BLUETOOTH_CH9141_UART_CALLBACK?SEEKFREE_BLUETOOTH_CH91
                                                             -41
FF0080H   FF0082H   000003H   ---    ---      **GAP**
FF0083H   FF0085H   000003H   ---    OFFS..   CODE           ?PR?IV?16
FF0086H   FF0089H   000004H   BYTE   INSEG    CODE           ?PR?INT0_ISR?ISR
FF008AH   FF008AH   000001H   ---    ---      **GAP**
FF008BH   FF008DH   000003H   ---    OFFS..   CODE           ?PR?IV?17
FF008EH   FF0091H   000004H   BYTE   INSEG    CODE           ?PR?INT2_ISR?ISR
FF0092H   FF0092H   000001H   ---    ---      **GAP**
FF0093H   FF0095H   000003H   ---    OFFS..   CODE           ?PR?IV?18
FF0096H   FF0099H   000004H   BYTE   INSEG    CODE           ?PR?INT3_ISR?ISR
FF009AH   FF009AH   000001H   ---    ---      **GAP**
FF009BH   FF009DH   000003H   ---    OFFS..   CODE           ?PR?IV?19
FF009EH   FF00A1H   000004H   BYTE   INSEG    CODE           ?PR?INT4_ISR?ISR
FF00A2H   FF00A2H   000001H   ---    ---      **GAP**
FF00A3H   FF00A5H   000003H   ---    OFFS..   CODE           ?PR?IV?20
FF00A6H   FF212CH   002087H   BYTE   UNIT     CODE           ?CO?SEEKFREE_CONFIG
FF212DH   FF2F34H   000E08H   BYTE   UNIT     CODE           ?CO?SEEKFREE_FONT
FF2F35H   FF3841H   00090DH   BYTE   INSEG    CODE           ?PR?GPIO_MODE?ZF_GPIO
FF3842H   FF3F1CH   0006DBH   BYTE   INSEG    CODE           ?PR?SECOND__NWHUAN_MENU?MENU
FF3F1DH   FF45ECH   0006D0H   BYTE   UNIT     CODE           ?C?LIB_CODE
FF45EDH   FF4C4DH   000661H   BYTE   INSEG    CODE           ?PR?ZF_SPRINTF?SEEKFREE_PRINTF
L251 LINKER/LOCATER V4.66.93.0                                                        05/17/2024  20:59:59  PAGE 9


FF4C4EH   FF5279H   00062CH   BYTE   INSEG    CODE           ?PR?SET_CLK?BOARD
FF527AH   FF5875H   0005FCH   BYTE   INSEG    CODE           ?PR?NORMALIZATION_TRACKING_ADC?INDUCTANCE
FF5876H   FF5C7CH   000407H   BYTE   INSEG    CODE           ?PR?SECOND_MOTOR_MENU?MENU
FF5C7DH   FF6056H   0003DAH   BYTE   INSEG    CODE           ?PR?PWM_INIT?ZF_PWM
FF6057H   FF640EH   0003B8H   BYTE   INSEG    CODE           ?PR?PWM_SET_GPIO?ZF_PWM
FF640FH   FF67AAH   00039CH   BYTE   INSEG    CODE           ?PR?FIRST_MENU?MENU
FF67ABH   FF6A5DH   0002B3H   BYTE   INSEG    CODE           ?PR?UART_INIT?ZF_UART
FF6A5EH   FF6C82H   000225H   BYTE   INSEG    CODE           ?PR?SECOND_ELEMENT_MENU?MENU
FF6C83H   FF6DD6H   000154H   BYTE   INSEG    CODE           ?PR?SHOW_VAL?INDUCTANCE
FF6DD7H   FF6F1BH   000145H   BYTE   INSEG    CODE           ?PR?OLED_PRINTF_FLOAT?SEEKFREE_OLED
FF6F1CH   FF7060H   000145H   BYTE   INSEG    CODE           ?PR?OLED_PRINTF_FLOAT_PX8?SEEKFREE_OLED
FF7061H   FF7198H   000138H   BYTE   INSEG    CODE           ?PR?FIFO_WRITE_BUFFER?ZF_FIFO
FF7199H   FF72B9H   000121H   BYTE   INSEG    CODE           ?PR?OLED_P8X16STR?SEEKFREE_OLED
FF72BAH   FF73D1H   000118H   BYTE   INSEG    CODE           ?PR?PWM_DUTY?ZF_PWM
FF73D2H   FF74E8H   000117H   BYTE   INSEG    CODE           ?PR?NUMBER_CONVERSION_ASCII?SEEKFREE_PRINTF
FF74E9H   FF75CDH   0000E5H   BYTE   INSEG    CODE           ?PR?PIT_TIMER_MS?ZF_TIM
FF75CEH   FF769EH   0000D1H   BYTE   INSEG    CODE           ?PR?OLED_P6X8STR?SEEKFREE_OLED
FF769FH   FF7767H   0000C9H   BYTE   INSEG    CODE           ?PR?RSPEED_PID_OUT?MOTOR
FF7768H   FF7830H   0000C9H   BYTE   INSEG    CODE           ?PR?LSPEED_PID_OUT?MOTOR
FF7831H   FF78F1H   0000C1H   BYTE   INSEG    CODE           ?PR?NH_TURN_OUT?DIRECTION
FF78F2H   FF79ABH   0000BAH   BYTE   INSEG    CODE           ?PR?SQ?INDUCTANCE
FF79ACH   FF7A61H   0000B6H   BYTE   INSEG    CODE           ?PR?SECOND__SPEED_MENU?MENU
FF7A62H   FF7B16H   0000B5H   BYTE   INSEG    CODE           ?PR?ADC_INIT?ZF_ADC
FF7B17H   FF7BCAH   0000B4H   BYTE   INSEG    CODE           ?PR?CTIMER_COUNT_READ?ZF_TIM
FF7BCBH   FF7C72H   0000A8H   BYTE   INSEG    CODE           ?PR?OLED_INIT?SEEKFREE_OLED
FF7C73H   FF7D0BH   000099H   BYTE   INSEG    CODE           ?PR?MAIN?MAIN
FF7D0CH   FF7DA4H   000099H   BYTE   INSEG    CODE           ?PR?TM4_ISR?ENCODER
FF7DA5H   FF7E39H   000095H   BYTE   INSEG    CODE           ?PR?PRINTF_REVERSE_ORDER?SEEKFREE_PRINTF
FF7E3AH   FF7EB0H   000077H   BYTE   INSEG    CODE           ?PR?BOARD_INIT?BOARD
FF7EB1H   FF7F26H   000076H   BYTE   INSEG    CODE           ?PR?TRACKING?TRACKELEMENT
FF7F27H   FF7F9BH   000075H   BYTE   INSEG    CODE           ?PR?UART_PUTCHAR?ZF_UART
FF7F9CH   FF800EH   000073H   BYTE   INSEG    CODE           ?PR?OLED_INT16?SEEKFREE_OLED
FF800FH   FF8081H   000073H   BYTE   INSEG    CODE           ?PR?MOTOR_PWM?MOTOR
FF8082H   FF80F1H   000070H   BYTE   INSEG    CODE           ?PR?GYRO_ZERO_WANDER?MPU6050
FF80F2H   FF8160H   00006FH   BYTE   INSEG    CODE           ?PR?OLED_HEXASCII?SEEKFREE_OLED
FF8161H   FF81CCH   00006CH   BYTE   INSEG    CODE           ?PR?MPU6050_SIMIIC_READ_REGS?SEEKFREE_MPU6050
FF81CDH   FF8236H   00006AH   BYTE   INSEG    CODE           ?PR?FIFO_HEAD_OFFSET?ZF_FIFO
FF8237H   FF82A0H   00006AH   BYTE   INSEG    CODE           ?PR?MPU6050_READ_CH?SEEKFREE_MPU6050
FF82A1H   FF830AH   00006AH   BYTE   INSEG    CODE           ?PR?WH_TURN_OUT?DIRECTION
FF830BH   FF836BH   000061H   BYTE   INSEG    CODE           ?PR?UART4_ISR?ISR
FF836CH   FF83CBH   000060H   BYTE   INSEG    CODE           ?PR?MPU6050_INIT?SEEKFREE_MPU6050
FF83CCH   FF8428H   00005DH   BYTE   INSEG    CODE           ?PR?CTIMER_COUNT_CLEAN?ZF_TIM
FF8429H   FF8485H   00005DH   BYTE   INSEG    CODE           ?PR?OLED_FILL?SEEKFREE_OLED
FF8486H   FF84DBH   000056H   BYTE   INSEG    CODE           ?PR?ADC_ONCE?ZF_ADC
FF84DCH   FF8530H   000055H   BYTE   INSEG    CODE           ?PR?LIMIT?MOTOR
FF8531H   FF8584H   000054H   BYTE   INSEG    CODE           ?PR?CTIMER_COUNT_INIT?ZF_TIM
FF8585H   FF85D6H   000052H   BYTE   INSEG    CODE           ?PR?MPU6050_GET_GYRO?SEEKFREE_MPU6050
FF85D7H   FF8622H   00004CH   BYTE   INSEG    CODE           ?PR?OLED_WRCMD?SEEKFREE_OLED
FF8623H   FF866EH   00004CH   BYTE   INSEG    CODE           ?PR?OLED_WRDAT?SEEKFREE_OLED
FF866FH   FF86B9H   00004BH   BYTE   INSEG    CODE           ?PR?MOTOR_SET_PID?MOTOR
FF86BAH   FF8704H   00004BH   BYTE   INSEG    CODE           ?PR?DIRCONTROL?DIRECTION
FF8705H   FF874DH   000049H   BYTE   INSEG    CODE           ?PR?MPU6050_SEND_CH?SEEKFREE_MPU6050
FF874EH   FF8794H   000047H   BYTE   INSEG    CODE           ?PR?INDUCTANCE_INIT?INDUCTANCE
FF8795H   FF87D7H   000043H   BYTE   INSEG    CODE           ?PR?ALL_PERIPHERAL_INIT?ALLINIT
FF87D8H   FF8819H   000042H   BYTE   INSEG    CODE           ?PR?UART1_ISR?ISR
FF881AH   FF882CH   000013H   BYTE   UNIT     CODE           ?C_C51STARTUP
FF882DH   FF8855H   000029H   BYTE   UNIT     CODE           ?C_C51STARTUP?2
FF8856H   FF8858H   000003H   BYTE   UNIT     CODE           ?C_C51STARTUP?3
FF8859H   FF8893H   00003BH   BYTE   INSEG    CODE           ?PR?MPU6050_SIMIIC_READ_REG?SEEKFREE_MPU6050
FF8894H   FF88C8H   000035H   BYTE   INSEG    CODE           ?PR?DELAY_MS?ZF_DELAY
FF88C9H   FF88FDH   000035H   BYTE   INSEG    CODE           ?PR?OLED_SET_POS?SEEKFREE_OLED
FF88FEH   FF8930H   000033H   BYTE   INSEG    CODE           ?PR?MPU6050_SELF1_CHECK?SEEKFREE_MPU6050
FF8931H   FF8963H   000033H   BYTE   INSEG    CODE           ?PR?GPIO_INIT?ALLINIT
FF8964H   FF8992H   00002FH   BYTE   INSEG    CODE           ?PR?ENCODER_TIME_INIT?ENCODER
FF8993H   FF89BEH   00002CH   BYTE   INSEG    CODE           ?PR?R_ENCODER_PULSE?ENCODER
L251 LINKER/LOCATER V4.66.93.0                                                        05/17/2024  20:59:59  PAGE 10


FF89BFH   FF89E8H   00002AH   BYTE   INSEG    CODE           ?PR?MPU6050_SIMIIC_WRITE_REG?SEEKFREE_MPU6050
FF89E9H   FF8A12H   00002AH   BYTE   INSEG    CODE           ?PR?SHOW_VAL_MENU?MENU
FF8A13H   FF8A3AH   000028H   BYTE   INSEG    CODE           ?PR?MPU6050_SIMIIC_SENDACK?SEEKFREE_MPU6050
FF8A3BH   FF8A62H   000028H   BYTE   INSEG    CODE           ?PR?L_ENCODER_PULSE?ENCODER
FF8A63H   FF8A89H   000027H   BYTE   INSEG    CODE           ?PR?OLED_UINT16?SEEKFREE_OLED
FF8A8AH   FF8AB0H   000027H   BYTE   INSEG    CODE           ?PR?OLED_UINT16_PX8?SEEKFREE_OLED
FF8AB1H   FF8AD5H   000025H   BYTE   INSEG    CODE           ?PR?MEMCPY?_?MEMCPY
FF8AD6H   FF8AF8H   000023H   BYTE   INSEG    CODE           ?PR?DELAY_INIT?ZF_DELAY
FF8AF9H   FF8B1BH   000023H   BYTE   INSEG    CODE           ?PR?MOTOR_INIT?MOTOR
FF8B1CH   FF8B3CH   000021H   BYTE   INSEG    CODE           ?PR?MPU6050_SCCB_WAITACK?SEEKFREE_MPU6050
FF8B3DH   FF8B56H   00001AH   BYTE   INSEG    CODE           ?PR?WIRELESS_UART_CALLBACK?SEEKFREE_WIRELESS
FF8B57H   FF8B70H   00001AH   BYTE   INSEG    CODE           ?PR?UART2_ISR?ISR
FF8B71H   FF8B8AH   00001AH   BYTE   INSEG    CODE           ?PR?UART3_ISR?ISR
FF8B8BH   FF8BA1H   000017H   BYTE   INSEG    CODE           ?PR?TM0_ISR?ISR
FF8BA2H   FF8BB7H   000016H   BYTE   INSEG    CODE           ?PR?MPU6050_SIMIIC_STOP?SEEKFREE_MPU6050
FF8BB8H   FF8BCBH   000014H   BYTE   INSEG    CODE           ?PR?CLOCK_INIT?BOARD
FF8BCCH   FF8BDEH   000013H   BYTE   INSEG    CODE           ?PR?MPU6050_SIMIIC_START?SEEKFREE_MPU6050
FF8BDFH   FF8BF0H   000012H   BYTE   INSEG    CODE           ?PR?PUTCHAR?BOARD
FF8BF1H   FF8C01H   000011H   BYTE   INSEG    CODE           ?PR?ICACHEON?BOARD
FF8C02H   FF8C11H   000010H   BYTE   INSEG    CODE           ?PR?ABS?_?ABS
FF8C12H   FF8C1BH   00000AH   BYTE   INSEG    CODE           ?PR?TM1_ISR?ISR
FF8C1CH   FF8C21H   000006H   BYTE   UNIT     CODE           ?PR?CASTF?STC32F_FPMU
FF8C22H   FF8C27H   000006H   BYTE   UNIT     CODE           ?PR?FCASTI?STC32F_FPMU
FF8C28H   FF8C2BH   000004H   BYTE   INSEG    CODE           ?PR?TM2_ISR?ISR
FF8C2CH   FF8C2FH   000004H   BYTE   INSEG    CODE           ?PR?TM3_ISR?ISR
FF8C30H   FF8C33H   000004H   BYTE   UNIT     CONST          ?CO?PRINTF
FF8C34H   FF906EH   00043BH   BYTE   UNIT     HCONST         ?C_INITEDATA
FF906FH   FF912AH   0000BCH   BYTE   UNIT     HCONST         ?HC?MENU
FF912BH   FF9182H   000058H   BYTE   UNIT     HCONST         ?HC?ZF_PWM
FF9183H   FF91CDH   00004BH   BYTE   UNIT     HCONST         ?HC?SEEKFREE_IMU963RA
FF91CEH   FF9212H   000045H   BYTE   UNIT     HCONST         ?HC?INDUCTANCE
FF9213H   FF9247H   000035H   BYTE   UNIT     HCONST         ?HC?SEEKFREE_ICM20602
FF9248H   FF927BH   000034H   BYTE   UNIT     HCONST         ?HC?SEEKFREE_IMU660RA
FF927CH   FF9291H   000016H   BYTE   UNIT     HCONST         ?HC?SEEKFREE_MPU6050
FF9292H   FF92A4H   000013H   BYTE   UNIT     HCONST         ?HC?SEEKFREE_DL1A
FF92A5H   FF92AEH   00000AH   BYTE   UNIT     HCONST         ?HC?SEEKFREE_OLED
FF92AFH   FF92B4H   000006H   BYTE   UNIT     HCONST         ?HC?SEEKFREE_18TFT
FF92B5H   FF92BAH   000006H   BYTE   UNIT     HCONST         ?HC?SEEKFREE_IPS114_SPI

* * * * * * * * *   R E M O V E D     S E G M E N T S   * * * * * * * *
   *DEL*:           000016H   BYTE   INSEG    CODE           ?PR?DISALBE_ICACHE?BOARD
   *DEL*:           000017H   BYTE   INSEG    CODE           ?PR?ENALBE_ICACHE?BOARD
   *DEL*:           000004H   BYTE   INSEG    CODE           ?PR?DISABLEGLOBALIRQ?BOARD
   *DEL*:           000004H   BYTE   UNIT     CODE           ?PR?SQRT?STC32F_FPMU
   *DEL*:           000006H   BYTE   UNIT     CODE           ?PR?FXAM?STC32F_FPMU
   *DEL*:           000007H   BYTE   UNIT     CODE           ?PR?FCHS?STC32F_FPMU
   *DEL*:           000007H   BYTE   UNIT     CODE           ?PR?FABS?STC32F_FPMU
   *DEL*:           000004H   BYTE   UNIT     CODE           ?PR?SIN?STC32F_FPMU
   *DEL*:           000004H   BYTE   UNIT     CODE           ?PR?COS?STC32F_FPMU
   *DEL*:           000004H   BYTE   UNIT     CODE           ?PR?TAN?STC32F_FPMU
   *DEL*:           00000AH   BYTE   UNIT     CODE           ?PR?ATAN?STC32F_FPMU
   *DEL*:           000006H   BYTE   UNIT     CODE           ?PR?FCASTC?STC32F_FPMU
   *DEL*:           000004H   BYTE   UNIT     CODE           ?PR?FCLEX?STC32F_FPMU
   *DEL*:           000004H   BYTE   UNIT     CODE           ?PR?FINIT?STC32F_FPMU
   *DEL*:           000006H   BYTE   UNIT     CODE           ?PR?FPSRR?STC32F_FPMU
   *DEL*:           000006H   BYTE   UNIT     CODE           ?PR?FPSRW?STC32F_FPMU
   *DEL*:           000006H   BYTE   UNIT     CODE           ?PR?FPCRR?STC32F_FPMU
   *DEL*:           000006H   BYTE   UNIT     CODE           ?PR?FPCRW?STC32F_FPMU
   *DEL*:           000019H   BYTE   INSEG    CODE           ?PR?DELAY_NS?ZF_DELAY
   *DEL*:           000033H   BYTE   INSEG    CODE           ?PR?DELAY_US?ZF_DELAY
   *DEL*:           00001AH   BYTE   INSEG    CODE           ?PR?IAP_SET_TPS?ZF_EEPROM
   *DEL*:           000015H   BYTE   INSEG    CODE           ?PR?EEPROM_TRIG?ZF_EEPROM
   *DEL*:           000029H   BYTE   INSEG    CODE           ?PR?IAP_ERASE_PAGE?ZF_EEPROM
   *DEL*:           000004H   BYTE   INSEG    CODE           ?PR?IAP_IDLE?ZF_EEPROM
   *DEL*:           00005FH   BYTE   INSEG    CODE           ?PR?IAP_READ_BYTES?ZF_EEPROM
L251 LINKER/LOCATER V4.66.93.0                                                        05/17/2024  20:59:59  PAGE 11


   *DEL*:           000008H   BYTE   INSEG    CODE           ?PR?IAP_INIT?ZF_EEPROM
   *DEL*:           00005BH   BYTE   INSEG    CODE           ?PR?IAP_WRITE_BYTES?ZF_EEPROM
   *DEL*:           000012H   BYTE   INSEG    CODE           ?PR?IAP_GET_CMD_STATE?ZF_EEPROM
   *DEL*:           000066H   BYTE   INSEG    CODE           ?PR?EXIT_INIT?ZF_EXTI
   *DEL*:           000095H   BYTE   INSEG    CODE           ?PR?GPIO_PULL_SET?ZF_GPIO
   *DEL*:           000028H   BYTE   INSEG    CODE           ?PR?SEND_DATA?ZF_IIC
   *DEL*:           000037H   BYTE   INSEG    CODE           ?PR?IIC_CHANGE_PIN?ZF_IIC
   *DEL*:           00001CH   BYTE   INSEG    CODE           ?PR?RECV_DATA?ZF_IIC
   *DEL*:           000015H   BYTE   INSEG    CODE           ?PR?START?ZF_IIC
   *DEL*:           000057H   BYTE   INSEG    CODE           ?PR?WAIT?ZF_IIC
   *DEL*:           000021H   BYTE   INSEG    CODE           ?PR?SEND_ACK?ZF_IIC
   *DEL*:           000015H   BYTE   INSEG    CODE           ?PR?RECV_ACK?ZF_IIC
   *DEL*:           000015H   BYTE   INSEG    CODE           ?PR?STOP?ZF_IIC
   *DEL*:           00001EH   BYTE   INSEG    CODE           ?PR?SEND_NAK?ZF_IIC
   *DEL*:           00007AH   BYTE   INSEG    CODE           ?PR?IIC_INIT?ZF_IIC
   *DEL*:           000099H   BYTE   INSEG    CODE           ?PR?IIC_READ_REG?ZF_IIC
   *DEL*:           0000D4H   BYTE   INSEG    CODE           ?PR?IIC_READ_REG_BYTES?ZF_IIC
   *DEL*:           00007CH   BYTE   INSEG    CODE           ?PR?IIC_WRITE_REG?ZF_IIC
   *DEL*:           000035H   BYTE   INSEG    CODE           ?PR?IIC_DELAY_US?ZF_IIC
   *DEL*:           0000B9H   BYTE   INSEG    CODE           ?PR?NVIC_SETPRIORITY?ZF_NVIC
   *DEL*:           0001ABH   BYTE   INSEG    CODE           ?PR?PWM_FREQ?ZF_PWM
   *DEL*:           000026H   BYTE   INSEG    CODE           ?PR?SPI_CHANGE_MODE?ZF_SPI
   *DEL*:           0000CCH   BYTE   INSEG    CODE           ?PR?SPI_CHANGE_PIN?ZF_SPI
   *DEL*:           0000F5H   BYTE   INSEG    CODE           ?PR?SPI_INIT?ZF_SPI
   *DEL*:           000012H   BYTE   INSEG    CODE           ?PR?SPI_MOSI?ZF_SPI
   *DEL*:           000039H   BYTE   INSEG    CODE           ?PR?UART_PUTBUFF?ZF_UART
   *DEL*:           00002BH   BYTE   INSEG    CODE           ?PR?UART_PUTSTR?ZF_UART
   *DEL*:           000183H   BYTE   INSEG    CODE           ?PR?FIFO_READ_BUFFER?ZF_FIFO
   *DEL*:           000043H   BYTE   INSEG    CODE           ?PR?FIFO_CLEAR?ZF_FIFO
   *DEL*:           000070H   BYTE   INSEG    CODE           ?PR?FIFO_END_OFFSET?ZF_FIFO
   *DEL*:           000025H   BYTE   INSEG    CODE           ?PR?FIFO_USED?ZF_FIFO
   *DEL*:           00006EH   BYTE   INSEG    CODE           ?PR?FIFO_INIT?ZF_FIFO
   *DEL*:           0000CDH   BYTE   INSEG    CODE           ?PR?LCD_SHOWUINT16?SEEKFREE_18TFT
   *DEL*:           0000CEH   BYTE   INSEG    CODE           ?PR?LCD_SHOWINT32_SIMSPI?SEEKFREE_18TFT
   *DEL*:           000119H   BYTE   INSEG    CODE           ?PR?LCD_SHOWINT16_SIMSPI?SEEKFREE_18TFT
   *DEL*:           0000CEH   BYTE   INSEG    CODE           ?PR?LCD_SHOWINT32?SEEKFREE_18TFT
   *DEL*:           000119H   BYTE   INSEG    CODE           ?PR?LCD_SHOWINT16?SEEKFREE_18TFT
   *DEL*:           000057H   BYTE   INSEG    CODE           ?PR?LCD_CLEAR_SIMSPI?SEEKFREE_18TFT
   *DEL*:           000057H   BYTE   INSEG    CODE           ?PR?LCD_CLEAR?SEEKFREE_18TFT
   *DEL*:           00005DH   BYTE   INSEG    CODE           ?PR?LCD_SHOWSTR_SIMSPI?SEEKFREE_18TFT
   *DEL*:           00005DH   BYTE   INSEG    CODE           ?PR?LCD_SHOWSTR?SEEKFREE_18TFT
   *DEL*:           00004CH   BYTE   INSEG    CODE           ?PR?LCD_WRITEINDEX_SIMSPI?SEEKFREE_18TFT
   *DEL*:           00004CH   BYTE   INSEG    CODE           ?PR?LCD_WRITEDATA_SIMSPI?SEEKFREE_18TFT
   *DEL*:           000015H   BYTE   INSEG    CODE           ?PR?LCD_WRITEINDEX?SEEKFREE_18TFT
   *DEL*:           000015H   BYTE   INSEG    CODE           ?PR?LCD_WRITEDATA?SEEKFREE_18TFT
   *DEL*:           000055H   BYTE   INSEG    CODE           ?PR?LCD_WRITEDATA_16BIT_SIMSPI?SEEKFREE_18TFT
   *DEL*:           000064H   BYTE   INSEG    CODE           ?PR?LCD_SET_REGION_SIMSPI?SEEKFREE_18TFT
   *DEL*:           0001FDH   BYTE   INSEG    CODE           ?PR?LCD_INIT_SIMSPI?SEEKFREE_18TFT
   *DEL*:           0000ECH   BYTE   INSEG    CODE           ?PR?SHOWIMAGE?SEEKFREE_18TFT
   *DEL*:           000064H   BYTE   INSEG    CODE           ?PR?LCD_SET_REGION?SEEKFREE_18TFT
   *DEL*:           0001F3H   BYTE   INSEG    CODE           ?PR?LCD_INIT?SEEKFREE_18TFT
   *DEL*:           0000A9H   BYTE   INSEG    CODE           ?PR?LCD_SHOWUINT8_SIMSPI?SEEKFREE_18TFT
   *DEL*:           0000A9H   BYTE   INSEG    CODE           ?PR?LCD_SHOWUINT8?SEEKFREE_18TFT
   *DEL*:           0000EBH   BYTE   INSEG    CODE           ?PR?LCD_SHOWINT8_SIMSPI?SEEKFREE_18TFT
   *DEL*:           0000EBH   BYTE   INSEG    CODE           ?PR?LCD_SHOWINT8?SEEKFREE_18TFT
   *DEL*:           00002AH   BYTE   INSEG    CODE           ?PR?LCD_WRITEDATA_16BIT?SEEKFREE_18TFT
   *DEL*:           000145H   BYTE   INSEG    CODE           ?PR?LCD_SHOWFLOAT_SIMSPI?SEEKFREE_18TFT
   *DEL*:           000023H   BYTE   INSEG    CODE           ?PR?LCD_DRAWPOINT_SIMSPI?SEEKFREE_18TFT
   *DEL*:           000145H   BYTE   INSEG    CODE           ?PR?LCD_SHOWFLOAT?SEEKFREE_18TFT
   *DEL*:           000023H   BYTE   INSEG    CODE           ?PR?LCD_DRAWPOINT?SEEKFREE_18TFT
   *DEL*:           0000BFH   BYTE   INSEG    CODE           ?PR?LCD_SHOWCHAR_SIMSPI?SEEKFREE_18TFT
   *DEL*:           0000BFH   BYTE   INSEG    CODE           ?PR?LCD_SHOWCHAR?SEEKFREE_18TFT
   *DEL*:           0000CDH   BYTE   INSEG    CODE           ?PR?LCD_SHOWUINT16_SIMSPI?SEEKFREE_18TFT
   *DEL*:           000013H   BYTE   INSEG    CODE           ?PR?ENCODER_SELF4_CHECK?SEEKFREE_ABSOLUTE_ENCODER
   *DEL*:           000013H   BYTE   INSEG    CODE           ?PR?ENCODER_SELF5_CHECK?SEEKFREE_ABSOLUTE_ENCODER
L251 LINKER/LOCATER V4.66.93.0                                                        05/17/2024  20:59:59  PAGE 12


   *DEL*:           000042H   BYTE   INSEG    CODE           ?PR?ENCODER_SPI_R_REG_BYTE?SEEKFREE_ABSOLUTE_ENCODER
   *DEL*:           00000AH   BYTE   INSEG    CODE           ?PR?ENCODER_DELAY_US?SEEKFREE_ABSOLUTE_ENCODER
   *DEL*:           000053H   BYTE   INSEG    CODE           ?PR?ENCODER_SPI_W_REG_BYTE?SEEKFREE_ABSOLUTE_ENCODER
   *DEL*:           00002DH   BYTE   INSEG    CODE           ?PR?SIMSPI_R_REG_BYTE?SEEKFREE_ABSOLUTE_ENCODER
   *DEL*:           000029H   BYTE   INSEG    CODE           ?PR?SIMSPI_W_REG_BYTE?SEEKFREE_ABSOLUTE_ENCODER
   *DEL*:           000030H   BYTE   INSEG    CODE           ?PR?ENCODER_INIT_SPI?SEEKFREE_ABSOLUTE_ENCODER
   *DEL*:           00000CH   BYTE   INSEG    CODE           ?PR?SPI_WR_BYTE?SEEKFREE_ABSOLUTE_ENCODER
   *DEL*:           000032H   BYTE   INSEG    CODE           ?PR?SET_ZERO_POSITION_SIMSPI?SEEKFREE_ABSOLUTE_ENCODER
   *DEL*:           000035H   BYTE   INSEG    CODE           ?PR?ENCODER_ANGLE_SIMSPI?SEEKFREE_ABSOLUTE_ENCODER
   *DEL*:           00002DH   BYTE   INSEG    CODE           ?PR?SPI_R_REG_BYTE?SEEKFREE_ABSOLUTE_ENCODER
   *DEL*:           000029H   BYTE   INSEG    CODE           ?PR?SPI_W_REG_BYTE?SEEKFREE_ABSOLUTE_ENCODER
   *DEL*:           000042H   BYTE   INSEG    CODE           ?PR?ENCODER_SIMSPI_R_REG_BYTE?SEEKFREE_ABSOLUTE_ENCODER
   *DEL*:           000053H   BYTE   INSEG    CODE           ?PR?ENCODER_SIMSPI_W_REG_BYTE?SEEKFREE_ABSOLUTE_ENCODER
   *DEL*:           000010H   BYTE   INSEG    CODE           ?PR?ENCODER_INIT_SIMSPI?SEEKFREE_ABSOLUTE_ENCODER
   *DEL*:           000032H   BYTE   INSEG    CODE           ?PR?SET_ZERO_POSITION_SPI?SEEKFREE_ABSOLUTE_ENCODER
   *DEL*:           000053H   BYTE   INSEG    CODE           ?PR?SIMSPI_WR_BYTE?SEEKFREE_ABSOLUTE_ENCODER
   *DEL*:           000035H   BYTE   INSEG    CODE           ?PR?ENCODER_ANGLE_SPI?SEEKFREE_ABSOLUTE_ENCODER
   *DEL*:           00002EH   BYTE   INSEG    CODE           ?PR?BLUETOOTH_CH9141_READ_BUFF?SEEKFREE_BLUETOOTH_CH9141
   *DEL*:           0000CCH   BYTE   INSEG    CODE           ?PR?BLUETOOTH_CH9141_SEND_BUFF?SEEKFREE_BLUETOOTH_CH9141
   *DEL*:           00003FH   BYTE   INSEG    CODE           ?PR?BLUETOOTH_CH9141_INIT?SEEKFREE_BLUETOOTH_CH9141
   *DEL*:           000028H   BYTE   INSEG    CODE           ?PR?DL1A_SIMIIC_SENDACK?SEEKFREE_DL1A
   *DEL*:           000051H   BYTE   INSEG    CODE           ?PR?DL1A_TIMEOUT_MICROSECONDS_TO_MCLKS?SEEKFREE_DL1A
   *DEL*:           000053H   BYTE   INSEG    CODE           ?PR?DL1A_TIMEOUT_MCLKS_TO_MICROSECONDS?SEEKFREE_DL1A
   *DEL*:           00003EH   BYTE   INSEG    CODE           ?PR?DL1A_SET_SIGNAL_RATE_LIMIT?SEEKFREE_DL1A
   *DEL*:           00006AH   BYTE   INSEG    CODE           ?PR?DL1A_READ_CH?SEEKFREE_DL1A
   *DEL*:           00002AH   BYTE   INSEG    CODE           ?PR?DL1A_DECODE_TIMEOUT?SEEKFREE_DL1A
   *DEL*:           000049H   BYTE   INSEG    CODE           ?PR?DL1A_SEND_CH?SEEKFREE_DL1A
   *DEL*:           000195H   BYTE   INSEG    CODE           ?PR?DL1A_GET_SPAD_INFO?SEEKFREE_DL1A
   *DEL*:           00007FH   BYTE   INSEG    CODE           ?PR?DL1A_ENCODE_TIMEOUT?SEEKFREE_DL1A
   *DEL*:           00008EH   BYTE   INSEG    CODE           ?PR?DL1A_GET_SEQUENCE_STEP_ENABLES?SEEKFREE_DL1A
   *DEL*:           000021H   BYTE   INSEG    CODE           ?PR?DL1A_SCCB_WAITACK?SEEKFREE_DL1A
   *DEL*:           00006CH   BYTE   INSEG    CODE           ?PR?DL1A_GET_DISTANCE?SEEKFREE_DL1A
   *DEL*:           00001FH   BYTE   INSEG    CODE           ?PR?DL1A_SIMIIC_DELAY?SEEKFREE_DL1A
   *DEL*:           0000ABH   BYTE   INSEG    CODE           ?PR?DL1A_PERFORM_SINGLE_REF_CALIBRATION?SEEKFREE_DL1A
   *DEL*:           000169H   BYTE   INSEG    CODE           ?PR?DL1A_GET_SEQUENCE_STEP_TIMEOUTS?SEEKFREE_DL1A
   *DEL*:           000013H   BYTE   INSEG    CODE           ?PR?DL1A_SIMIIC_START?SEEKFREE_DL1A
   *DEL*:           000068H   BYTE   INSEG    CODE           ?PR?DL1A_SIMIIC_READ_REGS?SEEKFREE_DL1A
   *DEL*:           0000B6H   BYTE   INSEG    CODE           ?PR?DL1A_GET_MEASUREMENT_TIMING_BUDGET?SEEKFREE_DL1A
   *DEL*:           000042H   BYTE   INSEG    CODE           ?PR?DL1A_SIMIIC_WRITE_DATS?SEEKFREE_DL1A
   *DEL*:           00003BH   BYTE   INSEG    CODE           ?PR?DL1A_SIMIIC_READ_REG?SEEKFREE_DL1A
   *DEL*:           000068H   BYTE   INSEG    CODE           ?PR?DL1A_SIMIIC_READ_REGS_1?SEEKFREE_DL1A
   *DEL*:           000149H   BYTE   INSEG    CODE           ?PR?DL1A_SET_MEASUREMENT_TIMING_BUDGET?SEEKFREE_DL1A
   *DEL*:           000016H   BYTE   INSEG    CODE           ?PR?DL1A_SIMIIC_STOP?SEEKFREE_DL1A
   *DEL*:           00002AH   BYTE   INSEG    CODE           ?PR?DL1A_SIMIIC_WRITE_REG?SEEKFREE_DL1A
   *DEL*:           0006AEH   BYTE   INSEG    CODE           ?PR?DL1A_INIT?SEEKFREE_DL1A
   *DEL*:           00007AH   BYTE   INSEG    CODE           ?PR?DL1A_GET_VCSEL_PULSE_PERIOD?SEEKFREE_DL1A
   *DEL*:           00001EH   BYTE   INSEG    CODE           ?PR?ICM20602_READ_REGISTER?SEEKFREE_ICM20602
   *DEL*:           00008DH   BYTE   INSEG    CODE           ?PR?ICM20602_GYRO_TRANSITION?SEEKFREE_ICM20602
   *DEL*:           00001AH   BYTE   INSEG    CODE           ?PR?ICM20602_WRITE_REGISTER?SEEKFREE_ICM20602
   *DEL*:           000059H   BYTE   INSEG    CODE           ?PR?ICM20602_SIMSPI_WR_BYTE?SEEKFREE_ICM20602
   *DEL*:           00004EH   BYTE   INSEG    CODE           ?PR?ICM20602_SELF_CHECK?SEEKFREE_ICM20602
   *DEL*:           000051H   BYTE   INSEG    CODE           ?PR?ICM20602_SIMSPI_R_REG_BYTES?SEEKFREE_ICM20602
   *DEL*:           000027H   BYTE   INSEG    CODE           ?PR?ICM20602_SIMSPI_R_REG_BYTE?SEEKFREE_ICM20602
   *DEL*:           00001BH   BYTE   INSEG    CODE           ?PR?ICM20602_SIMSPI_W_REG_BYTE?SEEKFREE_ICM20602
   *DEL*:           0000C2H   BYTE   INSEG    CODE           ?PR?ICM20602_INIT?SEEKFREE_ICM20602
   *DEL*:           000050H   BYTE   INSEG    CODE           ?PR?ICM20602_GET_ACC?SEEKFREE_ICM20602
   *DEL*:           000089H   BYTE   INSEG    CODE           ?PR?ICM20602_ACC_TRANSITION?SEEKFREE_ICM20602
   *DEL*:           000026H   BYTE   INSEG    CODE           ?PR?ICM20602_READ_REGISTERS?SEEKFREE_ICM20602
   *DEL*:           000050H   BYTE   INSEG    CODE           ?PR?ICM20602_GET_GYRO?SEEKFREE_ICM20602
   *DEL*:           000057H   BYTE   INSEG    CODE           ?PR?IMU660RA_GET_GYRO?SEEKFREE_IMU660RA
   *DEL*:           000021H   BYTE   INSEG    CODE           ?PR?IMU660RA_SCCB_WAITACK?SEEKFREE_IMU660RA
   *DEL*:           00001DH   BYTE   INSEG    CODE           ?PR?IMU660RA_SIMIIC_DELAY?SEEKFREE_IMU660RA
   *DEL*:           0000A8H   BYTE   INSEG    CODE           ?PR?IMU660RA_GYRO_TRANSITION?SEEKFREE_IMU660RA
   *DEL*:           00004EH   BYTE   INSEG    CODE           ?PR?IMU660RA_SELF_CHECK?SEEKFREE_IMU660RA
   *DEL*:           000013H   BYTE   INSEG    CODE           ?PR?IMU660RA_SIMIIC_START?SEEKFREE_IMU660RA
L251 LINKER/LOCATER V4.66.93.0                                                        05/17/2024  20:59:59  PAGE 13


   *DEL*:           000068H   BYTE   INSEG    CODE           ?PR?IMU660RA_SIMIIC_READ_REGS?SEEKFREE_IMU660RA
   *DEL*:           00003BH   BYTE   INSEG    CODE           ?PR?IMU660RA_SIMIIC_READ_REG?SEEKFREE_IMU660RA
   *DEL*:           00004FH   BYTE   INSEG    CODE           ?PR?IMU660RA_SIMIIC_WRITE_REGS?SEEKFREE_IMU660RA
   *DEL*:           000016H   BYTE   INSEG    CODE           ?PR?IMU660RA_SIMIIC_STOP?SEEKFREE_IMU660RA
   *DEL*:           00002AH   BYTE   INSEG    CODE           ?PR?IMU660RA_SIMIIC_WRITE_REG?SEEKFREE_IMU660RA
   *DEL*:           0000CCH   BYTE   INSEG    CODE           ?PR?IMU660RA_INIT?SEEKFREE_IMU660RA
   *DEL*:           000028H   BYTE   INSEG    CODE           ?PR?IMU660RA_SIMIIC_SENDACK?SEEKFREE_IMU660RA
   *DEL*:           00006AH   BYTE   INSEG    CODE           ?PR?IMU660RA_READ_CH?SEEKFREE_IMU660RA
   *DEL*:           000057H   BYTE   INSEG    CODE           ?PR?IMU660RA_GET_ACC?SEEKFREE_IMU660RA
   *DEL*:           000049H   BYTE   INSEG    CODE           ?PR?IMU660RA_SEND_CH?SEEKFREE_IMU660RA
   *DEL*:           00007CH   BYTE   INSEG    CODE           ?PR?IMU660RA_ACC_TRANSITION?SEEKFREE_IMU660RA
   *DEL*:           00008DH   BYTE   INSEG    CODE           ?PR?IMU963RA_ACC_TRANSITION?SEEKFREE_IMU963RA
   *DEL*:           000050H   BYTE   INSEG    CODE           ?PR?IMU963RA_GET_GYRO?SEEKFREE_IMU963RA
   *DEL*:           000051H   BYTE   INSEG    CODE           ?PR?IMU963RA_MAG_TRANSITION?SEEKFREE_IMU963RA
   *DEL*:           0000D2H   BYTE   INSEG    CODE           ?PR?IMU963RA_GYRO_TRANSITION?SEEKFREE_IMU963RA
   *DEL*:           000059H   BYTE   INSEG    CODE           ?PR?IMU963RA_SIMSPI_WR_BYTE?SEEKFREE_IMU963RA
   *DEL*:           00006CH   BYTE   INSEG    CODE           ?PR?IMU963RA_READ_MAG_REGISTER?SEEKFREE_IMU963RA
   *DEL*:           00003AH   BYTE   INSEG    CODE           ?PR?IMU963RA_CONNECT_MAG?SEEKFREE_IMU963RA
   *DEL*:           000026H   BYTE   INSEG    CODE           ?PR?IMU963RA_READ_ACC_GYRO_REGISTERS?SEEKFREE_IMU963RA
   *DEL*:           00007FH   BYTE   INSEG    CODE           ?PR?IMU963RA_WRITE_MAG_REGISTER?SEEKFREE_IMU963RA
   *DEL*:           000023H   BYTE   INSEG    CODE           ?PR?IMU963RA_READ_ACC_GYRO_REGISTER?SEEKFREE_IMU963RA
   *DEL*:           00004BH   BYTE   INSEG    CODE           ?PR?IMU963RA_SIMSPI_R_REG_BYTES?SEEKFREE_IMU963RA
   *DEL*:           00002DH   BYTE   INSEG    CODE           ?PR?IMU963RA_SIMSPI_R_REG_BYTE?SEEKFREE_IMU963RA
   *DEL*:           000051H   BYTE   INSEG    CODE           ?PR?IMU963RA_MAG_SELF_CHECK?SEEKFREE_IMU963RA
   *DEL*:           00001AH   BYTE   INSEG    CODE           ?PR?IMU963RA_WRITE_ACC_GYRO_REGISTER?SEEKFREE_IMU963RA
   *DEL*:           000021H   BYTE   INSEG    CODE           ?PR?IMU963RA_SIMSPI_W_REG_BYTE?SEEKFREE_IMU963RA
   *DEL*:           00011DH   BYTE   INSEG    CODE           ?PR?IMU963RA_INIT?SEEKFREE_IMU963RA
   *DEL*:           00004EH   BYTE   INSEG    CODE           ?PR?IMU963RA_ACC_GYRO_SELF_CHECK?SEEKFREE_IMU963RA
   *DEL*:           000050H   BYTE   INSEG    CODE           ?PR?IMU963RA_GET_ACC?SEEKFREE_IMU963RA
   *DEL*:           00006BH   BYTE   INSEG    CODE           ?PR?IMU963RA_GET_MAG?SEEKFREE_IMU963RA
   *DEL*:           0000A9H   BYTE   INSEG    CODE           ?PR?IPS114_SHOWUINT8_SIMSPI?SEEKFREE_IPS114_SPI
   *DEL*:           0000A5H   BYTE   INSEG    CODE           ?PR?IPS114_SHOWUINT8?SEEKFREE_IPS114_SPI
   *DEL*:           0000EBH   BYTE   INSEG    CODE           ?PR?IPS114_SHOWINT8_SIMSPI?SEEKFREE_IPS114_SPI
   *DEL*:           0000E7H   BYTE   INSEG    CODE           ?PR?IPS114_SHOWINT8?SEEKFREE_IPS114_SPI
   *DEL*:           00002AH   BYTE   INSEG    CODE           ?PR?IPS114_WRITEDATA_16BIT?SEEKFREE_IPS114_SPI
   *DEL*:           000145H   BYTE   INSEG    CODE           ?PR?IPS114_SHOWFLOAT_SIMSPI?SEEKFREE_IPS114_SPI
   *DEL*:           000023H   BYTE   INSEG    CODE           ?PR?IPS114_DRAWPOINT_SIMSPI?SEEKFREE_IPS114_SPI
   *DEL*:           000145H   BYTE   INSEG    CODE           ?PR?IPS114_SHOWFLOAT?SEEKFREE_IPS114_SPI
   *DEL*:           000023H   BYTE   INSEG    CODE           ?PR?IPS114_DRAWPOINT?SEEKFREE_IPS114_SPI
   *DEL*:           0000BFH   BYTE   INSEG    CODE           ?PR?IPS114_SHOWCHAR_SIMSPI?SEEKFREE_IPS114_SPI
   *DEL*:           0000BFH   BYTE   INSEG    CODE           ?PR?IPS114_SHOWCHAR?SEEKFREE_IPS114_SPI
   *DEL*:           0000CDH   BYTE   INSEG    CODE           ?PR?IPS114_SHOWUINT16_SIMSPI?SEEKFREE_IPS114_SPI
   *DEL*:           0000CDH   BYTE   INSEG    CODE           ?PR?IPS114_SHOWUINT16?SEEKFREE_IPS114_SPI
   *DEL*:           0000CEH   BYTE   INSEG    CODE           ?PR?IPS114_SHOWINT32_SIMSPI?SEEKFREE_IPS114_SPI
   *DEL*:           000119H   BYTE   INSEG    CODE           ?PR?IPS114_SHOWINT16_SIMSPI?SEEKFREE_IPS114_SPI
   *DEL*:           0000CEH   BYTE   INSEG    CODE           ?PR?IPS114_SHOWINT32?SEEKFREE_IPS114_SPI
   *DEL*:           000115H   BYTE   INSEG    CODE           ?PR?IPS114_SHOWINT16?SEEKFREE_IPS114_SPI
   *DEL*:           00005FH   BYTE   INSEG    CODE           ?PR?IPS114_CLEAR_SIMSPI?SEEKFREE_IPS114_SPI
   *DEL*:           00005FH   BYTE   INSEG    CODE           ?PR?IPS114_CLEAR?SEEKFREE_IPS114_SPI
   *DEL*:           000055H   BYTE   INSEG    CODE           ?PR?IPS114_WRITEDATAI_16BIT_SIMSPI?SEEKFREE_IPS114_SPI
   *DEL*:           00005DH   BYTE   INSEG    CODE           ?PR?IPS114_SHOWSTR_SIMSPI?SEEKFREE_IPS114_SPI
   *DEL*:           00005DH   BYTE   INSEG    CODE           ?PR?IPS114_SHOWSTR?SEEKFREE_IPS114_SPI
   *DEL*:           00004CH   BYTE   INSEG    CODE           ?PR?IPS114_WRITEINDEX_SIMSPI?SEEKFREE_IPS114_SPI
   *DEL*:           00004CH   BYTE   INSEG    CODE           ?PR?IPS114_WRITEDATA_SIMSPI?SEEKFREE_IPS114_SPI
   *DEL*:           000015H   BYTE   INSEG    CODE           ?PR?IPS114_WRITEINDEX?SEEKFREE_IPS114_SPI
   *DEL*:           000015H   BYTE   INSEG    CODE           ?PR?IPS114_WRITEDATA?SEEKFREE_IPS114_SPI
   *DEL*:           000054H   BYTE   INSEG    CODE           ?PR?IPS114_SET_REGION_SIMSPI?SEEKFREE_IPS114_SPI
   *DEL*:           000154H   BYTE   INSEG    CODE           ?PR?IPS114_INIT_SIMSPI?SEEKFREE_IPS114_SPI
   *DEL*:           000054H   BYTE   INSEG    CODE           ?PR?IPS114_SET_REGION?SEEKFREE_IPS114_SPI
   *DEL*:           000176H   BYTE   INSEG    CODE           ?PR?IPS114_INIT?SEEKFREE_IPS114_SPI
   *DEL*:           000052H   BYTE   INSEG    CODE           ?PR?MPU6050_GET_ACCDATA?SEEKFREE_MPU6050
   *DEL*:           000047H   BYTE   INSEG    CODE           ?PR?OLED_PUTPIXEL?SEEKFREE_OLED
   *DEL*:           00006FH   BYTE   INSEG    CODE           ?PR?OLED_HEXASCII_SPI?SEEKFREE_OLED
   *DEL*:           00044DH   BYTE   INSEG    CODE           ?PR?OLED_DIS_BMP_SPI?SEEKFREE_OLED
   *DEL*:           000121H   BYTE   INSEG    CODE           ?PR?OLED_P8X16STR_SPI?SEEKFREE_OLED
L251 LINKER/LOCATER V4.66.93.0                                                        05/17/2024  20:59:59  PAGE 14


   *DEL*:           000041H   BYTE   INSEG    CODE           ?PR?OLED_CLRPIXEL_SPI?SEEKFREE_OLED
   *DEL*:           0000C0H   BYTE   INSEG    CODE           ?PR?OLED_PRINT_CHINESE_SPI?SEEKFREE_OLED
   *DEL*:           0000CEH   BYTE   INSEG    CODE           ?PR?OLED_PRINTF_INT32?SEEKFREE_OLED
   *DEL*:           000048H   BYTE   INSEG    CODE           ?PR?OLED_PUTPIXEL_SPI?SEEKFREE_OLED
   *DEL*:           000036H   BYTE   INSEG    CODE           ?PR?OLED_SET_POS_SPI?SEEKFREE_OLED
   *DEL*:           000145H   BYTE   INSEG    CODE           ?PR?OLED_PRINTF_FLOAT_SPI?SEEKFREE_OLED
   *DEL*:           000015H   BYTE   INSEG    CODE           ?PR?OLED_WRCMD_SPI?SEEKFREE_OLED
   *DEL*:           000015H   BYTE   INSEG    CODE           ?PR?OLED_WRDAT_SPI?SEEKFREE_OLED
   *DEL*:           00005DH   BYTE   INSEG    CODE           ?PR?OLED_FILL_SPI?SEEKFREE_OLED
   *DEL*:           0000CEH   BYTE   INSEG    CODE           ?PR?OLED_PRINTF_INT32_SPI?SEEKFREE_OLED
   *DEL*:           000027H   BYTE   INSEG    CODE           ?PR?OLED_UINT16_SPI?SEEKFREE_OLED
   *DEL*:           0000D1H   BYTE   INSEG    CODE           ?PR?OLED_P6X8STR_SPI?SEEKFREE_OLED
   *DEL*:           000073H   BYTE   INSEG    CODE           ?PR?OLED_INT16_SPI?SEEKFREE_OLED
   *DEL*:           00046AH   BYTE   INSEG    CODE           ?PR?OLED_DIS_BMP?SEEKFREE_OLED
   *DEL*:           0000C8H   BYTE   INSEG    CODE           ?PR?OLED_INIT_SPI?SEEKFREE_OLED
   *DEL*:           000040H   BYTE   INSEG    CODE           ?PR?OLED_CLRPIXEL?SEEKFREE_OLED
   *DEL*:           0000C0H   BYTE   INSEG    CODE           ?PR?OLED_PRINT_CHINESE?SEEKFREE_OLED
   *DEL*:           00008AH   BYTE   INSEG    CODE           ?PR?CCD_SEND_DATA?SEEKFREE_TSL1401
   *DEL*:           000017H   BYTE   INSEG    CODE           ?PR?CCD_INIT?SEEKFREE_TSL1401
   *DEL*:           00005FH   BYTE   INSEG    CODE           ?PR?CCD_COLLECT?SEEKFREE_TSL1401
   *DEL*:           00009AH   BYTE   INSEG    CODE           ?PR?CRC_CHECK?SEEKFREE_VIRSCO
   *DEL*:           0000DCH   BYTE   INSEG    CODE           ?PR?DATA_CONVERSION?SEEKFREE_VIRSCO
   *DEL*:           00002EH   BYTE   INSEG    CODE           ?PR?WIRELESS_UART_READ_BUFF?SEEKFREE_WIRELESS
   *DEL*:           000073H   BYTE   INSEG    CODE           ?PR?WIRELESS_UART_SEND_BUFF?SEEKFREE_WIRELESS
   *DEL*:           00003EH   BYTE   INSEG    CODE           ?PR?WIRELESS_UART_INIT?SEEKFREE_WIRELESS
   *DEL*:           00001DH   BYTE   INSEG    CODE           ?PR?WIRELESS_UART_SEND_BYTE?SEEKFREE_WIRELESS
   *DEL*:           000012H   BYTE   INSEG    CODE           ?PR?BUZZER?MOTOR
   *DEL*:           0000D5H   BYTE   INSEG    CODE           ?PR?FILTER_1?MOTOR
   *DEL*:           000048H   BYTE   INSEG    CODE           ?PR?L_ENC_INTEGRAL?ENCODER
   *DEL*:           000048H   BYTE   INSEG    CODE           ?PR?R_ENC_INTEGRAL?ENCODER
   *DEL*:           000007H   BYTE   INSEG    CODE           ?PR?ENCODER_READ_PULSE?ENCODER
   *DEL*:           0000A3H   BYTE   INSEG    CODE           ?PR?ANGLE_RING1?DIRECTION
   *DEL*:           000083H   BYTE   INSEG    CODE           ?PR?DIRCONTROL_2?DIRECTION
   *DEL*:           0000A8H   BYTE   INSEG    CODE           ?PR?CAR_DISTANCE?DIRECTION
   *DEL*:           0000F7H   BYTE   INSEG    CODE           ?PR?ANGLE_SPEED_RING?DIRECTION
   *DEL*:           00002DH   BYTE   INSEG    CODE           ?PR?ANGLE_RING?DIRECTION
   *DEL*:           0001C1H   BYTE   INSEG    CODE           ?PR?SEND4DATATOVOFA?VOFA
   *DEL*:           00005CH   BYTE   INSEG    CODE           ?PR?GYRO_FILTER?MPU6050
   *DEL*:           00002FH   BYTE   INSEG    CODE           ?PR?LOWPASSFILTER?MPU6050
   *DEL*:           000017H   BYTE   INSEG    CODE           ?PR?GET_ANGLE?MPU6050
   *DEL*:           000040H   BYTE   INSEG    CODE           ?PR?SUB_PID?TRACKELEMENT
   *DEL*:           000099H   BYTE   INSEG    CODE           ?PR?CROSSROAD?TRACKELEMENT
   *DEL*:           000038H   BYTE   INSEG    CODE           ?PR?DISTACE?TRACKELEMENT
   *DEL*:           0000FCH   BYTE   INSEG    CODE           ?PR?ERROR_SPEED?TRACKELEMENT
   *DEL*:           00008CH   BYTE   INSEG    CODE           ?PR?SPEED_PLAN?TRACKELEMENT
   *DEL*:           00005DH   BYTE   INSEG    CODE           ?PR?CARSTART_MENU?MENU
   *DEL*:           00005DH   BYTE   INSEG    CODE           ?PR?SHOW_ALLVAL?MENU
   *DEL*:           000078H   BYTE   INSEG    CODE           ?PR?WS2812_BIT?RGB
   *DEL*:           0001A5H   BYTE   INSEG    CODE           ?PR?RGB_COLOR?RGB
   *DEL*:           000080H   BYTE   INSEG    CODE           ?PR?RGB_SHOW?RGB
   *DEL*:           000061H   BYTE   INSEG    CODE           ?PR?WS2812_SENDDATA?RGB
   *DEL*:           00001AH   BYTE   INSEG    CODE           ?PR?MEMSET?_?MEMSET



OVERLAY MAP OF MODULE:   .\Out_File\SEEKFREE (board)


FUNCTION/MODULE                               EDATA_GROUP
--> CALLED FUNCTION/MODULE                    START  STOP
=========================================================
UART1_Isr/isr                                 ----- -----

*** NEW ROOT ********************************

L251 LINKER/LOCATER V4.66.93.0                                                        05/17/2024  20:59:59  PAGE 15


UART2_Isr/isr                                 ----- -----

*** NEW ROOT ********************************

UART3_Isr/isr                                 ----- -----

*** NEW ROOT ********************************

UART4_Isr/isr                                 ----- -----
  +--> wireless_uart_callback/SEEKFREE_WIRELESS
  +--> bluetooth_ch9141_uart_callback/SEEKFREE_BLUETOOTH_CH9141

wireless_uart_callback/SEEKFREE_WIRELESS      ----- -----
  +--> fifo_write_buffer/zf_fifo

fifo_write_buffer/zf_fifo                     ----- -----
  +--> memcpy?_/memcpy
  +--> fifo_head_offset/zf_fifo

memcpy?_/memcpy                               ----- -----

fifo_head_offset/zf_fifo                      ----- -----

bluetooth_ch9141_uart_callback/SEEKFREE_+     ----- -----
... BLUETOOTH_CH9141
  +--> fifo_write_buffer/zf_fifo

*** NEW ROOT ********************************

INT0_Isr/isr                                  ----- -----

*** NEW ROOT ********************************

INT1_Isr/isr                                  ----- -----

*** NEW ROOT ********************************

INT2_Isr/isr                                  ----- -----

*** NEW ROOT ********************************

INT3_Isr/isr                                  ----- -----

*** NEW ROOT ********************************

INT4_Isr/isr                                  ----- -----

*** NEW ROOT ********************************

TM0_Isr/isr                                   ----- -----

*** NEW ROOT ********************************

TM1_Isr/isr                                   ----- -----

*** NEW ROOT ********************************

TM2_Isr/isr                                   ----- -----

*** NEW ROOT ********************************

TM3_Isr/isr                                   ----- -----

*** NEW ROOT ********************************

L251 LINKER/LOCATER V4.66.93.0                                                        05/17/2024  20:59:59  PAGE 16


TM4_Isr/encoder                               ----- -----
  +--> mpu6050_get_gyro/SEEKFREE_MPU6050
  +--> L_Encoder_Pulse/encoder
  +--> FCASTI/STC32F_FPMU
  +--> FPMUL/STC32F_FPMU
  +--> CASTF/STC32F_FPMU
  +--> R_Encoder_Pulse/encoder
  +--> NORMALIZATION_TRACKING_ADC/Inductance
  +--> Tracking/TrackElement
  +--> ctimer_count_clean/zf_tim

mpu6050_get_gyro/SEEKFREE_MPU6050             ----- -----
  +--> mpu6050_simiic_read_regs/SEEKFREE_MPU6050

mpu6050_simiic_read_regs/SEEKFREE_MPU605+     ----- -----
... 0
  +--> mpu6050_simiic_start/SEEKFREE_MPU6050
  +--> mpu6050_send_ch/SEEKFREE_MPU6050
  +--> mpu6050_read_ch/SEEKFREE_MPU6050
  +--> mpu6050_simiic_stop/SEEKFREE_MPU6050

mpu6050_simiic_start/SEEKFREE_MPU6050         ----- -----
  +--> mpu6050_simiic_delay/SEEKFREE_MPU6050

mpu6050_simiic_delay/SEEKFREE_MPU6050         ----- -----

mpu6050_send_ch/SEEKFREE_MPU6050              ----- -----
  +--> mpu6050_simiic_delay/SEEKFREE_MPU6050
  +--> mpu6050_sccb_waitack/SEEKFREE_MPU6050

mpu6050_sccb_waitack/SEEKFREE_MPU6050         ----- -----
  +--> mpu6050_simiic_delay/SEEKFREE_MPU6050

mpu6050_read_ch/SEEKFREE_MPU6050              ----- -----
  +--> mpu6050_simiic_delay/SEEKFREE_MPU6050
  +--> mpu6050_simiic_sendack/SEEKFREE_MPU6050

mpu6050_simiic_sendack/SEEKFREE_MPU6050       ----- -----
  +--> mpu6050_simiic_delay/SEEKFREE_MPU6050

mpu6050_simiic_stop/SEEKFREE_MPU6050          ----- -----
  +--> mpu6050_simiic_delay/SEEKFREE_MPU6050

L_Encoder_Pulse/encoder                       ----- -----
  +--> ctimer_count_read/zf_tim

ctimer_count_read/zf_tim                      ----- -----

FCASTI/STC32F_FPMU                            ----- -----

FPMUL/STC32F_FPMU                             ----- -----

CASTF/STC32F_FPMU                             ----- -----

R_Encoder_Pulse/encoder                       ----- -----
  +--> ctimer_count_read/zf_tim

NORMALIZATION_TRACKING_ADC/Inductance         ----- -----
  +--> adc_once/zf_adc
  +--> FCASTI/STC32F_FPMU
  +--> FPDIV/STC32F_FPMU
  +--> FPCMP/STC32F_FPMU
  +--> FPMUL/STC32F_FPMU
  +--> CASTF/STC32F_FPMU
  +--> sq/Inductance
L251 LINKER/LOCATER V4.66.93.0                                                        05/17/2024  20:59:59  PAGE 17



adc_once/zf_adc                               ----- -----

FPDIV/STC32F_FPMU                             ----- -----

FPCMP/STC32F_FPMU                             ----- -----

sq/Inductance                                 ----- -----
  +--> FPMUL/STC32F_FPMU
  +--> FPSUB/STC32F_FPMU

FPSUB/STC32F_FPMU                             ----- -----

Tracking/TrackElement                         ----- -----
  +--> DirControl/direction
  +--> LSpeed_pid_Out/Motor
  +--> RSpeed_pid_Out/Motor
  +--> Motor_PWM/Motor

DirControl/direction                          ----- -----
  +--> wh_Turn_Out/direction
  +--> nh_Turn_Out/direction

wh_Turn_Out/direction                         ----- -----
  +--> FCASTI/STC32F_FPMU
  +--> FPSUB/STC32F_FPMU
  +--> FPMUL/STC32F_FPMU
  +--> FPADD/STC32F_FPMU
  +--> CASTF/STC32F_FPMU
  +--> limit/Motor

FPADD/STC32F_FPMU                             ----- -----

limit/Motor                                   ----- -----

nh_Turn_Out/direction                         ----- -----
  +--> FCASTI/STC32F_FPMU
  +--> FPDIV/STC32F_FPMU
  +--> FPADD/STC32F_FPMU
  +--> CASTF/STC32F_FPMU
  +--> FPMUL/STC32F_FPMU
  +--> limit/Motor

LSpeed_pid_Out/Motor                          ----- -----
  +--> FCASTI/STC32F_FPMU
  +--> FPSUB/STC32F_FPMU
  +--> FPMUL/STC32F_FPMU
  +--> FPCMP/STC32F_FPMU
  +--> FPADD/STC32F_FPMU
  +--> CASTF/STC32F_FPMU
  +--> limit/Motor

RSpeed_pid_Out/Motor                          ----- -----
  +--> FCASTI/STC32F_FPMU
  +--> FPSUB/STC32F_FPMU
  +--> FPMUL/STC32F_FPMU
  +--> FPCMP/STC32F_FPMU
  +--> FPADD/STC32F_FPMU
  +--> CASTF/STC32F_FPMU
  +--> limit/Motor

Motor_PWM/Motor                               ----- -----
  +--> abs?_/ABS
  +--> pwm_duty/zf_pwm

L251 LINKER/LOCATER V4.66.93.0                                                        05/17/2024  20:59:59  PAGE 18


abs?_/ABS                                     ----- -----

pwm_duty/zf_pwm                               ----- -----
  +--> FCASTL/STC32F_FPMU
  +--> FPDIV/STC32F_FPMU
  +--> FPMUL/STC32F_FPMU
  +--> CASTF/STC32F_FPMU

FCASTL/STC32F_FPMU                            ----- -----

ctimer_count_clean/zf_tim                     ----- -----

*** NEW ROOT ********************************

?C_C51STARTUP                                 ----- -----

*** NEW ROOT ********************************

?C_C51STARTUP?3                               ----- -----
  +--> main/main

main/main                                     ----- -----
  +--> clock_init/board
  +--> board_init/board
  +--> GPIO_Init/ALLInit
  +--> ALL_Peripheral_Init/ALLInit
  +--> gyro_zero_wander/mpu6050
  +--> delay_ms/zf_delay
  +--> First_menu/menu
  +--> Second_Element_menu/menu
  +--> Second_Motor_menu/menu
  +--> Second__NWHuan_menu/menu
  +--> Second__Speed_menu/menu
  +--> Show_Val_Menu/menu

clock_init/board                              ----- -----
  +--> set_clk/board

set_clk/board                                 ----- -----

board_init/board                              ----- -----
  +--> delay_init/zf_delay
  +--> ICacheOn/board
  +--> uart_init/zf_uart
  +--> EnableGlobalIRQ/board

delay_init/zf_delay                           ----- -----
  +--> ?C?SLDIV/?C?SLDIV

?C?SLDIV/?C?SLDIV                             ----- -----
  +--> ?C?ULIDIV/?C?ULDIV

?C?ULIDIV/?C?ULDIV                            ----- -----

ICacheOn/board                                ----- -----

uart_init/zf_uart                             ----- -----
  +--> ?C?ULIDIV/?C?ULDIV

EnableGlobalIRQ/board                         ----- -----

GPIO_Init/ALLInit                             ----- -----
  +--> gpio_mode/zf_gpio

gpio_mode/zf_gpio                             ----- -----
L251 LINKER/LOCATER V4.66.93.0                                                        05/17/2024  20:59:59  PAGE 19



ALL_Peripheral_Init/ALLInit                   ----- -----
  +--> mpu6050_init/SEEKFREE_MPU6050
  +--> uart_init/zf_uart
  +--> oled_init/SEEKFREE_OLED
  +--> oled_fill/SEEKFREE_OLED
  +--> delay_init/zf_delay
  +--> Inductance_Init/Inductance
  +--> Motor_Init/Motor
  +--> Motor_SET_PID/Motor
  +--> Encoder_Time_Init/encoder

mpu6050_init/SEEKFREE_MPU6050                 ----- -----
  +--> delay_ms/zf_delay
  +--> mpu6050_self1_check/SEEKFREE_MPU6050
  +--> mpu6050_simiic_write_reg/SEEKFREE_MPU6050

delay_ms/zf_delay                             ----- -----

mpu6050_self1_check/SEEKFREE_MPU6050          ----- -----
  +--> mpu6050_simiic_write_reg/SEEKFREE_MPU6050
  +--> mpu6050_simiic_read_reg/SEEKFREE_MPU6050
  +--> PRINTF/PRINTF

mpu6050_simiic_write_reg/SEEKFREE_MPU605+     ----- -----
... 0
  +--> mpu6050_simiic_start/SEEKFREE_MPU6050
  +--> mpu6050_send_ch/SEEKFREE_MPU6050
  +--> mpu6050_simiic_stop/SEEKFREE_MPU6050

mpu6050_simiic_read_reg/SEEKFREE_MPU6050      ----- -----
  +--> mpu6050_simiic_start/SEEKFREE_MPU6050
  +--> mpu6050_send_ch/SEEKFREE_MPU6050
  +--> mpu6050_read_ch/SEEKFREE_MPU6050
  +--> mpu6050_simiic_stop/SEEKFREE_MPU6050

PRINTF/PRINTF                                 079AH 07C1H
  +--> OUT/PRINTF

OUT/PRINTF                                    ----- -----
  +--> PUTCH/PRINTF

PUTCH/PRINTF                                  ----- -----
  +--> putchar/board
  +--> OUT/PRINTF

putchar/board                                 ----- -----
  +--> uart_putchar/zf_uart

uart_putchar/zf_uart                          ----- -----

oled_init/SEEKFREE_OLED                       ----- -----
  +--> delay_ms/zf_delay
  +--> oled_wrcmd/SEEKFREE_OLED
  +--> oled_fill/SEEKFREE_OLED
  +--> oled_set_pos/SEEKFREE_OLED

oled_wrcmd/SEEKFREE_OLED                      ----- -----

oled_fill/SEEKFREE_OLED                       ----- -----
  +--> oled_wrcmd/SEEKFREE_OLED
  +--> oled_wrdat/SEEKFREE_OLED

oled_wrdat/SEEKFREE_OLED                      ----- -----

L251 LINKER/LOCATER V4.66.93.0                                                        05/17/2024  20:59:59  PAGE 20


oled_set_pos/SEEKFREE_OLED                    ----- -----
  +--> oled_wrcmd/SEEKFREE_OLED

Inductance_Init/Inductance                    ----- -----
  +--> adc_init/zf_adc

adc_init/zf_adc                               ----- -----

Motor_Init/Motor                              ----- -----
  +--> pwm_init/zf_pwm

pwm_init/zf_pwm                               ----- -----
  +--> pwm_set_gpio/zf_pwm
  +--> ?C?ULIDIV/?C?ULDIV
  +--> FCASTL/STC32F_FPMU
  +--> FPDIV/STC32F_FPMU
  +--> FPMUL/STC32F_FPMU
  +--> CASTF/STC32F_FPMU

pwm_set_gpio/zf_pwm                           ----- -----
  +--> gpio_mode/zf_gpio

Motor_SET_PID/Motor                           ----- -----

Encoder_Time_Init/encoder                     ----- -----
  +--> pit_timer_ms/zf_tim
  +--> gpio_mode/zf_gpio
  +--> ctimer_count_init/zf_tim
  +--> EnableGlobalIRQ/board

pit_timer_ms/zf_tim                           ----- -----
  +--> ?C?SLDIV/?C?SLDIV

ctimer_count_init/zf_tim                      ----- -----

gyro_zero_wander/mpu6050                      ----- -----
  +--> mpu6050_get_gyro/SEEKFREE_MPU6050
  +--> FCASTI/STC32F_FPMU
  +--> FPADD/STC32F_FPMU
  +--> FPDIV/STC32F_FPMU

First_menu/menu                               ----- -----
  +--> oled_p6x8str/SEEKFREE_OLED
  +--> delay_ms/zf_delay
  +--> oled_fill/SEEKFREE_OLED

oled_p6x8str/SEEKFREE_OLED                    ----- -----
  +--> oled_set_pos/SEEKFREE_OLED
  +--> oled_wrdat/SEEKFREE_OLED

Second_Element_menu/menu                      ----- -----
  +--> oled_p8x16str/SEEKFREE_OLED
  +--> delay_ms/zf_delay
  +--> oled_fill/SEEKFREE_OLED
  +--> oled_uint16_px8/SEEKFREE_OLED

oled_p8x16str/SEEKFREE_OLED                   ----- -----
  +--> oled_set_pos/SEEKFREE_OLED
  +--> oled_wrdat/SEEKFREE_OLED

oled_uint16_px8/SEEKFREE_OLED                 ----- -----
  +--> oled_hexascii/SEEKFREE_OLED
  +--> oled_p8x16str/SEEKFREE_OLED

oled_hexascii/SEEKFREE_OLED                   ----- -----
L251 LINKER/LOCATER V4.66.93.0                                                        05/17/2024  20:59:59  PAGE 21



Second_Motor_menu/menu                        ----- -----
  +--> oled_p8x16str/SEEKFREE_OLED
  +--> oled_printf_float_px8/SEEKFREE_OLED
  +--> delay_ms/zf_delay
  +--> FCASTI/STC32F_FPMU
  +--> FPMUL/STC32F_FPMU
  +--> FPADD/STC32F_FPMU
  +--> oled_fill/SEEKFREE_OLED

oled_printf_float_px8/SEEKFREE_OLED           ----- -----
  +--> FPCMP/STC32F_FPMU
  +--> zf_sprintf/SEEKFREE_PRINTF
  +--> oled_p8x16str/SEEKFREE_OLED

zf_sprintf/SEEKFREE_PRINTF                    ----- -----
  +--> number_conversion_ascii/SEEKFREE_PRINTF
  +--> printf_reverse_order/SEEKFREE_PRINTF
  +--> memcpy?_/memcpy
  +--> CASTF/STC32F_FPMU
  +--> FPCMP/STC32F_FPMU
  +--> FCASTL/STC32F_FPMU
  +--> FPSUB/STC32F_FPMU
  +--> FPMUL/STC32F_FPMU

number_conversion_ascii/SEEKFREE_PRINTF       ----- -----
  +--> ?C?SLDIV/?C?SLDIV
  +--> ?C?ULIDIV/?C?ULDIV

printf_reverse_order/SEEKFREE_PRINTF          ----- -----

Second__NWHuan_menu/menu                      ----- -----
  +--> oled_fill/SEEKFREE_OLED
  +--> delay_ms/zf_delay
  +--> oled_p8x16str/SEEKFREE_OLED
  +--> oled_printf_float_px8/SEEKFREE_OLED
  +--> FCASTI/STC32F_FPMU
  +--> FPMUL/STC32F_FPMU
  +--> FPADD/STC32F_FPMU

Second__Speed_menu/menu                       ----- -----
  +--> oled_fill/SEEKFREE_OLED
  +--> oled_p8x16str/SEEKFREE_OLED
  +--> oled_uint16_px8/SEEKFREE_OLED
  +--> delay_ms/zf_delay

Show_Val_Menu/menu                            ----- -----
  +--> show_val/Inductance
  +--> delay_ms/zf_delay
  +--> oled_fill/SEEKFREE_OLED

show_val/Inductance                           ----- -----
  +--> oled_p6x8str/SEEKFREE_OLED
  +--> oled_uint16/SEEKFREE_OLED
  +--> oled_int16/SEEKFREE_OLED
  +--> FCASTI/STC32F_FPMU
  +--> FPDIV/STC32F_FPMU
  +--> oled_printf_float/SEEKFREE_OLED
  +--> CASTF/STC32F_FPMU

oled_uint16/SEEKFREE_OLED                     ----- -----
  +--> oled_hexascii/SEEKFREE_OLED
  +--> oled_p6x8str/SEEKFREE_OLED

oled_int16/SEEKFREE_OLED                      ----- -----
L251 LINKER/LOCATER V4.66.93.0                                                        05/17/2024  20:59:59  PAGE 22


  +--> oled_p6x8str/SEEKFREE_OLED
  +--> oled_hexascii/SEEKFREE_OLED

oled_printf_float/SEEKFREE_OLED               ----- -----
  +--> FPCMP/STC32F_FPMU
  +--> zf_sprintf/SEEKFREE_PRINTF
  +--> oled_p6x8str/SEEKFREE_OLED

*** NEW ROOT ********************************

?C_C51STARTUP?2                               ----- -----



PUBLIC SYMBOLS OF MODULE:  .\Out_File\SEEKFREE (board)


      VALUE       CLASS    TYPE      PUBLIC SYMBOL NAME
      =================================================
      000008DDH   EDATA    BYTE      ?Angle_Ring1?BYTE
      00000DFCH   EDATA    BYTE      ?Angle_Ring?BYTE
      00000A7BH   EDATA    BYTE      ?Angle_Speed_Ring?BYTE
      00FF45CAH   CODE     ---       ?C?BMOVENP
      00FF45C8H   CODE     ---       ?C?BMOVENP8
      00FF8C1CH   CODE     ---       ?C?CASTF
      000000FFH   NUMBER   ---       ?C?CODESEG
*DEL*:00000000H   CODE     ---       ?C?FCASTC
      00FF8C22H   CODE     ---       ?C?FCASTI
      00FF005EH   CODE     ---       ?C?FCASTL
      00FF000EH   CODE     ---       ?C?FPADD
      00FF0046H   CODE     ---       ?C?FPCMP3
      00FF4393H   CODE     ---       ?C?FPCONVERT
      00FF0056H   CODE     ---       ?C?FPDIV
      00FF001EH   CODE     ---       ?C?FPMUL
*DEL*:00000000H   CODE     ---       ?C?FPNEG
      00FF444BH   CODE     ---       ?C?FPROUND
      00FF0016H   CODE     ---       ?C?FPSUB
      00FF44BEH   CODE     ---       ?C?FTNPWR
      00FF882DH   CODE     ---       ?C?INITEDATA
      00FF906DH   HCONST   WORD      ?C?INITEDATA_END
      00FF4538H   CODE     ---       ?C?LIMUL
      00FF4527H   CODE     ---       ?C?LMUL
      00FF3F76H   CODE     ---       ?C?PRNFMT
      00FF44F5H   CODE     ---       ?C?SIDIV
      00FF4594H   CODE     NEAR LAB  ?C?SLDIV
      00FF0000H   CODE     ---       ?C?STARTUP
      00FF4543H   CODE     NEAR LAB  ?C?ULDIV
      00FF4541H   CODE     NEAR LAB  ?C?ULIDIV
      00000001H   NUMBER   ---       ?C?XDATASEG
      00FF0000H   CODE     ---       ?C_STARTUP
      00000957H   EDATA    BYTE      ?data_conversion?BYTE
      000007E1H   EDATA    BYTE      ?DirControl_2?BYTE
      0000097FH   EDATA    BYTE      ?fifo_init?BYTE
      00000894H   EDATA    BYTE      ?fifo_read_buffer?BYTE
      000008EFH   EDATA    BYTE      ?fifo_write_buffer?BYTE
      00000ACAH   EDATA    BYTE      ?iap_read_bytes?BYTE
      00000AD4H   EDATA    BYTE      ?iap_write_bytes?BYTE
      00000CB1H   EDATA    BYTE      ?iic_init?BYTE
      0000054FH   EDATA    BYTE      ?ips114_showfloat?BYTE
      0000051FH   EDATA    BYTE      ?ips114_showfloat_simspi?BYTE
      000004EFH   EDATA    BYTE      ?lcd_showfloat?BYTE
      000004BFH   EDATA    BYTE      ?lcd_showfloat_simspi?BYTE
      00000A87H   EDATA    BYTE      ?lowPassFilter?BYTE
      00000A63H   EDATA    BYTE      ?Motor_SET_PID?BYTE
      00000A6FH   EDATA    BYTE      ?nh_Turn_Out?BYTE
L251 LINKER/LOCATER V4.66.93.0                                                        05/17/2024  20:59:59  PAGE 23


      0000086CH   EDATA    BYTE      ?number_conversion_ascii?BYTE
      000005AFH   EDATA    BYTE      ?oled_printf_float?BYTE
      0000057FH   EDATA    BYTE      ?oled_printf_float_px8?BYTE
      000005DFH   EDATA    BYTE      ?oled_printf_float_spi?BYTE
      000007C2H   EDATA    ---       ?printf?BYTE
      00000858H   EDATA    BYTE      ?pwm_freq?BYTE
      00000844H   EDATA    BYTE      ?pwm_init?BYTE
      000007FBH   EDATA    BYTE      ?Send4DataToVofa?BYTE
      00000C80H   EDATA    BYTE      ?spi_init?BYTE
      0000092DH   EDATA    BYTE      ?uart_init?BYTE
      00000008H   EDATA    BYTE      ?wh_Turn_Out?BYTE
      00000020H.0 BIT      BIT       ?WS2812_bit?BIT
      00000336H   EDATA    BYTE      ?zf_sprintf?BYTE
      00FF8C02H   CODE     ---       abs?_
*SFR* 000000E0H   DATA     BYTE      ACC
      00000085H   EDATA    INT       ad_diff
      0000004BH   EDATA    ---       AD_NOR_VAL
      0000011DH   EDATA    INT       ad_sum
      00000087H   EDATA    ---       ad_value
*SFR* 000000BCH   DATA     BYTE      ADC_CONTR
      00FF7A62H   CODE     ---       adc_init
      0000003BH   EDATA    ---       ADC_MAX
      0000002DH   EDATA    ---       ADC_MIN
      00FF8486H   CODE     ---       adc_once
*SFR* 000000BDH   DATA     BYTE      ADC_RES
*SFR* 000000BEH   DATA     BYTE      ADC_RESL
*SFR* 000000DEH   DATA     BYTE      ADCCFG
      00FF8795H   CODE     ---       ALL_Peripheral_Init
      0000074AH   EDATA    FLOAT     Ang
      00000752H   EDATA    FLOAT     angle1
      00000385H   EDATA    FLOAT     Angle4
      00000371H   EDATA    FLOAT     Angle_D
      000003B5H   EDATA    INT       ANGLE_FLAG
      00000379H   EDATA    FLOAT     Angle_I
      000003B9H   EDATA    FLOAT     angle_jifen
      00000381H   EDATA    FLOAT     Angle_P
*DEL*:00000000H   CODE     ---       Angle_Ring
*DEL*:00000000H   CODE     ---       Angle_Ring1
*DEL*:00000000H   CODE     ---       Angle_Speed_Ring
*DEL*:00000000H   CODE     ---       ATAN?_
*SFR* 000000EFH   DATA     BYTE      AUXINTIF
*SFR* 0000008EH   DATA     BYTE      AUXR
*SFR* 00000097H   DATA     BYTE      AUXR2
*DEL*:00000000H   CODE     ---       bluetooth_ch9141_init
*DEL*:00000000H   CODE     ---       bluetooth_ch9141_read_buff
*DEL*:00000000H   CODE     ---       bluetooth_ch9141_send_buff
      00FF0066H   CODE     ---       bluetooth_ch9141_uart_callback
      000003A1H   EDATA    LONG      bmq_jifen
      00FF7E3AH   CODE     ---       board_init
      00000083H   EDATA    INT       bug
      00000D69H   EDATA    ---       busy
*DEL*:00000000H   CODE     ---       Buzzer
*SFR* 000000F1H   DATA     BYTE      CANICR
*DEL*:00000000H   CODE     ---       Car_Distance
      00000A5FH   EDATA    INT       Car_Start_Flag
      00000A61H   EDATA    INT       Car_Stop_Flag
*DEL*:00000000H   CODE     ---       CarStart_Menu
*DEL*:00000000H   CODE     ---       ccd_collect
      0000012AH   EDATA    ---       ccd_data
*DEL*:00000000H   CODE     ---       ccd_init
*DEL*:00000000H   CODE     ---       ccd_send_data
      00FF8BB8H   CODE     ---       clock_init
*SFR* 000000E6H   DATA     BYTE      CMPCR1
*SFR* 000000E7H   DATA     BYTE      CMPCR2
*DEL*:00000000H   CODE     ---       COS?_
L251 LINKER/LOCATER V4.66.93.0                                                        05/17/2024  20:59:59  PAGE 24


*DEL*:00000000H   CODE     ---       CRC_CHECK
*DEL*:00000000H   CODE     ---       Crossroad
      00FF83CCH   CODE     ---       ctimer_count_clean
      00FF8531H   CODE     ---       ctimer_count_init
      00FF7B17H   CODE     ---       ctimer_count_read
*DEL*:00000000H   CODE     ---       data_conversion
      0000022AH   EDATA    ---       DataToSend
      00FF8AD6H   CODE     ---       delay_init
      00FF8894H   CODE     ---       delay_ms
*DEL*:00000000H   CODE     ---       delay_ns
*DEL*:00000000H   CODE     ---       delay_us
      00000760H   EDATA    INT       dir_out
      00FF86BAH   CODE     ---       DirControl
*DEL*:00000000H   CODE     ---       DirControl_2
*DEL*:00000000H   CODE     ---       DisableGlobalIRQ
*DEL*:00000000H   CODE     ---       disalbe_icache
*DEL*:00000000H   CODE     ---       Distace
      0000039DH   EDATA    LONG      Distance
      000003ABH   EDATA    INT       DISTANCE_FLAG
      00000E2CH   EDATA    WORD      dl1a_distance_mm
      00000E2EH   EDATA    BYTE      dl1a_finsh_flag
*DEL*:00000000H   CODE     ---       dl1a_get_distance
*DEL*:00000000H   CODE     ---       dl1a_init
      00FF00A6H   CODE     ---       dl1b_default_configuration
*SFR* 000000EDH   DATA     BYTE      DMAIR
*SFR* 00000083H   DATA     BYTE      DPH
*SFR* 00000082H   DATA     BYTE      DPL
*SFR* 000000A8H.7 DATA     BIT       EA
*DEL*:00000000H   CODE     ---       eeprom_trig
      0000038FH   EDATA    ---       Element_Order
      00FF0006H   CODE     ---       EnableGlobalIRQ
*DEL*:00000000H   CODE     ---       enalbe_icache
*DEL*:00000000H   CODE     ---       encoder_angle_simspi
*DEL*:00000000H   CODE     ---       encoder_angle_spi
*DEL*:00000000H   CODE     ---       encoder_delay_us
*DEL*:00000000H   CODE     ---       encoder_init_simspi
*DEL*:00000000H   CODE     ---       encoder_init_spi
*DEL*:00000000H   CODE     ---       Encoder_Read_Pulse
*DEL*:00000000H   CODE     ---       encoder_self4_check
*DEL*:00000000H   CODE     ---       encoder_self5_check
*DEL*:00000000H   CODE     ---       encoder_simspi_r_reg_byte
*DEL*:00000000H   CODE     ---       encoder_simspi_w_reg_byte
*DEL*:00000000H   CODE     ---       encoder_spi_r_reg_byte
*DEL*:00000000H   CODE     ---       encoder_spi_w_reg_byte
      00FF8964H   CODE     ---       Encoder_Time_Init
      00000389H   EDATA    INT       Err_speed
*DEL*:00000000H   CODE     ---       Error_Speed
*SFR* 000000A8H.4 DATA     BIT       ES
*SFR* 000000A8H.1 DATA     BIT       ET0
*SFR* 000000A8H.3 DATA     BIT       ET1
*SFR* 000000A8H.0 DATA     BIT       EX0
*SFR* 000000A8H.2 DATA     BIT       EX1
*DEL*:00000000H   CODE     ---       exit_init
*SFR* 000000D0H.5 DATA     BIT       F0
*DEL*:00000000H   CODE     ---       FABS?_
*DEL*:00000000H   CODE     ---       FCLEX
*DEL*:00000000H   CODE     ---       fifo_clear
*DEL*:00000000H   CODE     ---       fifo_end_offset
      00FF81CDH   CODE     ---       fifo_head_offset
*DEL*:00000000H   CODE     ---       fifo_init
*DEL*:00000000H   CODE     ---       fifo_read_buffer
*DEL*:00000000H   CODE     ---       fifo_used
      00FF7061H   CODE     ---       fifo_write_buffer
*DEL*:00000000H   CODE     ---       filter_1
*DEL*:00000000H   CODE     ---       FINIT
L251 LINKER/LOCATER V4.66.93.0                                                        05/17/2024  20:59:59  PAGE 25


      00FF640FH   CODE     ---       First_menu
      00000A5BH   EDATA    INT       flag
*DEL*:00000000H   CODE     ---       FPCRR
*DEL*:00000000H   CODE     ---       FPCRW
*DEL*:00000000H   CODE     ---       FPSRR
*DEL*:00000000H   CODE     ---       FPSRW
*DEL*:00000000H   CODE     ---       FXAM
*DEL*:00000000H   CODE     ---       Get_Angle
      00FF8931H   CODE     ---       GPIO_Init
      00FF2F35H   CODE     ---       gpio_mode
*DEL*:00000000H   CODE     ---       gpio_pull_set
      00000A57H   EDATA    FLOAT     Gyro_Diff
*DEL*:00000000H   CODE     ---       Gyro_filter
      0000046FH   EDATA    FLOAT     gyro_z3
      00FF8082H   CODE     ---       gyro_zero_wander
*SFR* 000000F6H   DATA     BYTE      IAP_ADDRE
*SFR* 000000C3H   DATA     BYTE      IAP_ADDRH
*SFR* 000000C4H   DATA     BYTE      IAP_ADDRL
*SFR* 000000C5H   DATA     BYTE      IAP_CMD
*SFR* 000000C7H   DATA     BYTE      IAP_CONTR
*SFR* 000000C2H   DATA     BYTE      IAP_DATA
*DEL*:00000000H   CODE     ---       iap_erase_page
*DEL*:00000000H   CODE     ---       iap_get_cmd_state
*DEL*:00000000H   CODE     ---       iap_idle
*DEL*:00000000H   CODE     ---       iap_init
*DEL*:00000000H   CODE     ---       iap_read_bytes
*DEL*:00000000H   CODE     ---       iap_set_tps
*SFR* 000000F5H   DATA     BYTE      IAP_TPS
*SFR* 000000C6H   DATA     BYTE      IAP_TRIG
*DEL*:00000000H   CODE     ---       iap_write_bytes
      00FF8BF1H   CODE     ---       ICacheOn
*SFR* 000000F7H   DATA     BYTE      ICHECR
*DEL*:00000000H   CODE     ---       icm20602_acc_transition
      000009EBH   EDATA    INT       icm20602_acc_x
      000009EDH   EDATA    INT       icm20602_acc_y
      000009EFH   EDATA    INT       icm20602_acc_z
*DEL*:00000000H   CODE     ---       icm20602_get_acc
*DEL*:00000000H   CODE     ---       icm20602_get_gyro
*DEL*:00000000H   CODE     ---       icm20602_gyro_transition
      000009F1H   EDATA    INT       icm20602_gyro_x
      000009F3H   EDATA    INT       icm20602_gyro_y
      000009F5H   EDATA    INT       icm20602_gyro_z
*DEL*:00000000H   CODE     ---       icm20602_init
*SFR* 000000A8H   DATA     BYTE      IE
*SFR* 000000AFH   DATA     BYTE      IE2
*DEL*:00000000H   CODE     ---       iic_change_pin
*DEL*:00000000H   CODE     ---       iic_delay_us
*DEL*:00000000H   CODE     ---       iic_init
*DEL*:00000000H   CODE     ---       iic_read_reg
*DEL*:00000000H   CODE     ---       iic_read_reg_bytes
*DEL*:00000000H   CODE     ---       iic_write_reg
*DEL*:00000000H   CODE     ---       imu660ra_acc_transition
      000009F7H   EDATA    INT       imu660ra_acc_x
      000009F9H   EDATA    INT       imu660ra_acc_y
      000009FBH   EDATA    INT       imu660ra_acc_z
      00FF012DH   CODE     ---       imu660ra_config_file
*DEL*:00000000H   CODE     ---       imu660ra_get_acc
*DEL*:00000000H   CODE     ---       imu660ra_get_gyro
*DEL*:00000000H   CODE     ---       imu660ra_gyro_transition
      000009FDH   EDATA    INT       imu660ra_gyro_x
      000009FFH   EDATA    INT       imu660ra_gyro_y
      00000A01H   EDATA    INT       imu660ra_gyro_z
*DEL*:00000000H   CODE     ---       imu660ra_init
*DEL*:00000000H   CODE     ---       imu963ra_acc_transition
      000008A7H   EDATA    INT       imu963ra_acc_x
L251 LINKER/LOCATER V4.66.93.0                                                        05/17/2024  20:59:59  PAGE 26


      000008A9H   EDATA    INT       imu963ra_acc_y
      000008ABH   EDATA    INT       imu963ra_acc_z
*DEL*:00000000H   CODE     ---       imu963ra_get_acc
*DEL*:00000000H   CODE     ---       imu963ra_get_gyro
*DEL*:00000000H   CODE     ---       imu963ra_get_mag
*DEL*:00000000H   CODE     ---       imu963ra_gyro_transition
      000008B3H   EDATA    INT       imu963ra_gyro_x
      000008B5H   EDATA    INT       imu963ra_gyro_y
      000008B7H   EDATA    INT       imu963ra_gyro_z
*DEL*:00000000H   CODE     ---       imu963ra_init
*DEL*:00000000H   CODE     ---       imu963ra_mag_transition
      000008ADH   EDATA    INT       imu963ra_mag_x
      000008AFH   EDATA    INT       imu963ra_mag_y
      000008B1H   EDATA    INT       imu963ra_mag_z
      00000113H   EDATA    INT       Inductance_Error
      00FF874EH   CODE     ---       Inductance_Init
      00FF0086H   CODE     ---       INT0_Isr
      00FF000AH   CODE     ---       INT1_Isr
      00FF008EH   CODE     ---       INT2_Isr
      00FF0096H   CODE     ---       INT3_Isr
      00FF009EH   CODE     ---       INT4_Isr
*SFR* 0000008FH   DATA     BYTE      INTCLKO
*SFR* 000000B8H   DATA     BYTE      IP
*SFR* 000000B5H   DATA     BYTE      IP2
*SFR* 000000B6H   DATA     BYTE      IP2H
*SFR* 000000DFH   DATA     BYTE      IP3
*SFR* 000000EEH   DATA     BYTE      IP3H
*SFR* 000000B7H   DATA     BYTE      IPH
*DEL*:00000000H   CODE     ---       ips114_clear
*DEL*:00000000H   CODE     ---       ips114_clear_simspi
*DEL*:00000000H   CODE     ---       ips114_drawpoint
*DEL*:00000000H   CODE     ---       ips114_drawpoint_simspi
*DEL*:00000000H   CODE     ---       ips114_init
*DEL*:00000000H   CODE     ---       ips114_init_simspi
*DEL*:00000000H   CODE     ---       ips114_set_region
*DEL*:00000000H   CODE     ---       ips114_set_region_simspi
*DEL*:00000000H   CODE     ---       ips114_showchar
*DEL*:00000000H   CODE     ---       ips114_showchar_simspi
*DEL*:00000000H   CODE     ---       ips114_showfloat
*DEL*:00000000H   CODE     ---       ips114_showfloat_simspi
*DEL*:00000000H   CODE     ---       ips114_showint16
*DEL*:00000000H   CODE     ---       ips114_showint16_simspi
*DEL*:00000000H   CODE     ---       ips114_showint32
*DEL*:00000000H   CODE     ---       ips114_showint32_simspi
*DEL*:00000000H   CODE     ---       ips114_showint8
*DEL*:00000000H   CODE     ---       ips114_showint8_simspi
*DEL*:00000000H   CODE     ---       ips114_showstr
*DEL*:00000000H   CODE     ---       ips114_showstr_simspi
*DEL*:00000000H   CODE     ---       ips114_showuint16
*DEL*:00000000H   CODE     ---       ips114_showuint16_simspi
*DEL*:00000000H   CODE     ---       ips114_showuint8
*DEL*:00000000H   CODE     ---       ips114_showuint8_simspi
*DEL*:00000000H   CODE     ---       ips114_writeData
*DEL*:00000000H   CODE     ---       ips114_writedata_16bit
*DEL*:00000000H   CODE     ---       ips114_writeData_simspi
*DEL*:00000000H   CODE     ---       ips114_writeDatai_16bit_simspi
*DEL*:00000000H   CODE     ---       ips114_writeIndex
*DEL*:00000000H   CODE     ---       ips114_writeIndex_simspi
*SFR* 0000009DH   DATA     BYTE      IRCBAND
*SFR* 0000009FH   DATA     BYTE      IRTRIM
*SFR* 00000088H.0 DATA     BIT       IT0
*SFR* 00000088H.2 DATA     BIT       IT1
      00000758H   EDATA    FLOAT     L
      00000121H   EDATA    WORD      L1
      00000115H   EDATA    WORD      L1_NOR_ADC
L251 LINKER/LOCATER V4.66.93.0                                                        05/17/2024  20:59:59  PAGE 27


      00000127H   EDATA    WORD      L2
      00000119H   EDATA    WORD      L2_NOR_ADC
      00000023H   EDATA    WORD      L3
      0000011BH   EDATA    WORD      L3_NOR_ADC
*DEL*:00000000H   CODE     ---       L_Enc_integral
      00FF8A3BH   CODE     ---       L_Encoder_Pulse
      00000750H   EDATA    INT       L_Pulse
*DEL*:00000000H   CODE     ---       lcd_clear
*DEL*:00000000H   CODE     ---       lcd_clear_simspi
*DEL*:00000000H   CODE     ---       lcd_drawpoint
*DEL*:00000000H   CODE     ---       lcd_drawpoint_simspi
*DEL*:00000000H   CODE     ---       lcd_init
*DEL*:00000000H   CODE     ---       lcd_init_simspi
*DEL*:00000000H   CODE     ---       lcd_set_region
*DEL*:00000000H   CODE     ---       lcd_set_region_simspi
*DEL*:00000000H   CODE     ---       lcd_showchar
*DEL*:00000000H   CODE     ---       lcd_showchar_simspi
*DEL*:00000000H   CODE     ---       lcd_showfloat
*DEL*:00000000H   CODE     ---       lcd_showfloat_simspi
*DEL*:00000000H   CODE     ---       lcd_showint16
*DEL*:00000000H   CODE     ---       lcd_showint16_simspi
*DEL*:00000000H   CODE     ---       lcd_showint32
*DEL*:00000000H   CODE     ---       lcd_showint32_simspi
*DEL*:00000000H   CODE     ---       lcd_showint8
*DEL*:00000000H   CODE     ---       lcd_showint8_simspi
*DEL*:00000000H   CODE     ---       lcd_showstr
*DEL*:00000000H   CODE     ---       lcd_showstr_simspi
*DEL*:00000000H   CODE     ---       lcd_showuint16
*DEL*:00000000H   CODE     ---       lcd_showuint16_simspi
*DEL*:00000000H   CODE     ---       lcd_showuint8
*DEL*:00000000H   CODE     ---       lcd_showuint8_simspi
*DEL*:00000000H   CODE     ---       lcd_writeData
*DEL*:00000000H   CODE     ---       lcd_writedata_16bit
*DEL*:00000000H   CODE     ---       lcd_writeData_16bit_simspi
*DEL*:00000000H   CODE     ---       lcd_writeData_simspi
*DEL*:00000000H   CODE     ---       lcd_writeIndex
*DEL*:00000000H   CODE     ---       lcd_writeIndex_simspi
      00000049H   EDATA    WORD      Left_Val
      00FF84DCH   CODE     ---       limit
*SFR* 000000F9H   DATA     BYTE      LINICR
*DEL*:00000000H   CODE     ---       lowPassFilter
      00FF7768H   CODE     ---       LSpeed_pid_Out
      00000125H   EDATA    WORD      M1
      00000117H   EDATA    WORD      M1_NOR_ADC
      00FF7C73H   CODE     ---       main
      00FF8AB1H   CODE     ---       memcpy?_
*DEL*:00000000H   CODE     ---       memset?_
      00000A5DH   EDATA    INT       menu
      000002DAH   EDATA    FLOAT     Motor_I
      00FF8AF9H   CODE     ---       Motor_Init
      000002DEH   EDATA    FLOAT     Motor_P
      000002B2H   EDATA    ---       Motor_pid
      00FF800FH   CODE     ---       Motor_PWM
      000002AAH   EDATA    FLOAT     Motor_RI
      000002AEH   EDATA    FLOAT     Motor_RP
      00FF866FH   CODE     ---       Motor_SET_PID
      00000A3FH   EDATA    INT       mpu6050_acc_x
      00000A41H   EDATA    INT       mpu6050_acc_y
      00000A43H   EDATA    INT       mpu6050_acc_z
*DEL*:00000000H   CODE     ---       mpu6050_get_accdata
      00FF8585H   CODE     ---       mpu6050_get_gyro
      00000A45H   EDATA    INT       mpu6050_gyro_x
      00000A47H   EDATA    INT       mpu6050_gyro_y
      00000A49H   EDATA    INT       mpu6050_gyro_z
      00FF836CH   CODE     ---       mpu6050_init
L251 LINKER/LOCATER V4.66.93.0                                                        05/17/2024  20:59:59  PAGE 28


      00FF8859H   CODE     ---       mpu6050_simiic_read_reg
      00FF8161H   CODE     ---       mpu6050_simiic_read_regs
      00000473H   EDATA    FLOAT     Nh_D
      00000746H   EDATA    INT       nh_out
      0000047BH   EDATA    FLOAT     Nh_P
      00FF7831H   CODE     ---       nh_Turn_Out
      00000067H   EDATA    ---       NOR_VAL
      00FF527AH   CODE     ---       NORMALIZATION_TRACKING_ADC
      00FF73D2H   CODE     ---       number_conversion_ascii
*DEL*:00000000H   CODE     ---       NVIC_SetPriority
      00FF2D0DH   CODE     ---       oled_6x8
      00FF212DH   CODE     ---       oled_8x16
*DEL*:00000000H   CODE     ---       oled_clrpixel
*DEL*:00000000H   CODE     ---       oled_clrpixel_spi
*DEL*:00000000H   CODE     ---       oled_dis_bmp
*DEL*:00000000H   CODE     ---       oled_dis_bmp_spi
      00FF8429H   CODE     ---       oled_fill
*DEL*:00000000H   CODE     ---       oled_fill_spi
      00FF80F2H   CODE     ---       oled_hexascii
*DEL*:00000000H   CODE     ---       oled_hexascii_spi
      00FF7BCBH   CODE     ---       oled_init
*DEL*:00000000H   CODE     ---       oled_init_spi
      00FF7F9CH   CODE     ---       oled_int16
*DEL*:00000000H   CODE     ---       oled_int16_spi
      00FF75CEH   CODE     ---       oled_p6x8str
*DEL*:00000000H   CODE     ---       oled_p6x8str_spi
      00FF7199H   CODE     ---       oled_p8x16str
*DEL*:00000000H   CODE     ---       oled_p8x16str_spi
*DEL*:00000000H   CODE     ---       oled_print_chinese
*DEL*:00000000H   CODE     ---       oled_print_chinese_spi
      00FF6DD7H   CODE     ---       oled_printf_float
      00FF6F1CH   CODE     ---       oled_printf_float_px8
*DEL*:00000000H   CODE     ---       oled_printf_float_spi
*DEL*:00000000H   CODE     ---       oled_printf_int32
*DEL*:00000000H   CODE     ---       oled_printf_int32_spi
*DEL*:00000000H   CODE     ---       oled_putpixel
*DEL*:00000000H   CODE     ---       oled_putpixel_spi
      00FF88C9H   CODE     ---       oled_set_pos
*DEL*:00000000H   CODE     ---       oled_set_pos_spi
      00FF8A63H   CODE     ---       oled_uint16
      00FF8A8AH   CODE     ---       oled_uint16_px8
*DEL*:00000000H   CODE     ---       oled_uint16_spi
      00FF85D7H   CODE     ---       oled_wrcmd
*DEL*:00000000H   CODE     ---       oled_wrcmd_spi
      00FF8623H   CODE     ---       oled_wrdat
*DEL*:00000000H   CODE     ---       oled_wrdat_spi
*SFR* 00000080H   DATA     BYTE      P0
*SFR* 00000080H.4 DATA     BIT       P04
*SFR* 00000080H.7 DATA     BIT       P07
*SFR* 00000094H   DATA     BYTE      P0M0
*SFR* 00000093H   DATA     BYTE      P0M1
*SFR* 00000090H   DATA     BYTE      P1
*SFR* 00000090H.5 DATA     BIT       P15
*SFR* 00000090H.6 DATA     BIT       P16
*SFR* 00000092H   DATA     BYTE      P1M0
*SFR* 00000091H   DATA     BYTE      P1M1
*SFR* 000000A0H   DATA     BYTE      P2
*SFR* 000000A0H.0 DATA     BIT       P20
*SFR* 000000A0H.1 DATA     BIT       P21
*SFR* 000000A0H.2 DATA     BIT       P22
*SFR* 000000A0H.3 DATA     BIT       P23
*SFR* 000000A0H.4 DATA     BIT       P24
*SFR* 000000A0H.5 DATA     BIT       P25
*SFR* 000000A0H.6 DATA     BIT       P26
*SFR* 000000A0H.7 DATA     BIT       P27
L251 LINKER/LOCATER V4.66.93.0                                                        05/17/2024  20:59:59  PAGE 29


*SFR* 00000096H   DATA     BYTE      P2M0
*SFR* 00000095H   DATA     BYTE      P2M1
*SFR* 000000B0H   DATA     BYTE      P3
*SFR* 000000B0H.2 DATA     BIT       P32
*SFR* 000000B0H.3 DATA     BIT       P33
*SFR* 000000B0H.7 DATA     BIT       P37
*SFR* 000000B2H   DATA     BYTE      P3M0
*SFR* 000000B1H   DATA     BYTE      P3M1
*SFR* 000000C0H   DATA     BYTE      P4
*SFR* 000000C0H.0 DATA     BIT       P40
*SFR* 000000C0H.1 DATA     BIT       P41
*SFR* 000000C0H.2 DATA     BIT       P42
*SFR* 000000C0H.3 DATA     BIT       P43
*SFR* 000000C0H.4 DATA     BIT       P44
*SFR* 000000C0H.5 DATA     BIT       P45
*SFR* 000000C0H.6 DATA     BIT       P46
*SFR* 000000B4H   DATA     BYTE      P4M0
*SFR* 000000B3H   DATA     BYTE      P4M1
*SFR* 000000C8H   DATA     BYTE      P5
*SFR* 000000C8H.0 DATA     BIT       P50
*SFR* 000000C8H.2 DATA     BIT       P52
*SFR* 000000CAH   DATA     BYTE      P5M0
*SFR* 000000C9H   DATA     BYTE      P5M1
*SFR* 000000E8H   DATA     BYTE      P6
*SFR* 000000CCH   DATA     BYTE      P6M0
*SFR* 000000CBH   DATA     BYTE      P6M1
*SFR* 000000F8H   DATA     BYTE      P7
*SFR* 000000E2H   DATA     BYTE      P7M0
*SFR* 000000E1H   DATA     BYTE      P7M1
*SFR* 000000A2H   DATA     BYTE      P_SW1
*SFR* 000000BAH   DATA     BYTE      P_SW2
*SFR* 000000BBH   DATA     BYTE      P_SW3
*SFR* 00000087H   DATA     BYTE      PCON
      00FF74E9H   CODE     ---       pit_timer_ms
      00FF3F1DH   CODE     NEAR LAB  printf
      00FF7DA5H   CODE     ---       printf_reverse_order
*SFR* 000000D0H   DATA     BYTE      PSW
      00FF8BDFH   CODE     ---       putchar
      00FF914BH   HCONST   ---       PWM_ARR_ADDR
      00FF9153H   HCONST   ---       PWM_CCER_ADDR
      00FF9163H   HCONST   ---       PWM_CCMR_ADDR
      00FF912BH   HCONST   ---       PWM_CCR_ADDR
      00FF72BAH   CODE     ---       pwm_duty
*DEL*:00000000H   CODE     ---       pwm_freq
      00FF5C7DH   CODE     ---       pwm_init
      00FF6057H   CODE     ---       pwm_set_gpio
      0000075CH   EDATA    FLOAT     R
      00000025H   EDATA    WORD      R1
      0000011FH   EDATA    WORD      R1_NOR_ADC
      00000027H   EDATA    WORD      R2
      00000123H   EDATA    WORD      R2_NOR_ADC
      00000029H   EDATA    WORD      R3
      00000021H   EDATA    WORD      R3_NOR_ADC
*DEL*:00000000H   CODE     ---       R_Enc_integral
      00FF8993H   CODE     ---       R_Encoder_Pulse
      00000756H   EDATA    INT       R_Pulse
      0000037FH   EDATA    INT       RAngle_Flag
*DEL*:00000000H   CODE     ---       recv_ack
*DEL*:00000000H   CODE     ---       recv_data
*DEL*:00000000H   CODE     ---       RGB_Color
*DEL*:00000000H   CODE     ---       RGB_Show
      0000002BH   EDATA    WORD      Right_Val
      00000397H   EDATA    INT       ring_flag
      000003ADH   EDATA    INT       RING_FLAG1
      000003AFH   EDATA    INT       RING_FLAG2
L251 LINKER/LOCATER V4.66.93.0                                                        05/17/2024  20:59:59  PAGE 30


      000003B1H   EDATA    INT       RING_FLAG3
      000003B3H   EDATA    INT       RING_FLAG4
      00FF769FH   CODE     ---       RSpeed_pid_Out
*SFR* 000000FFH   DATA     BYTE      RSTCFG
*SFR* 0000009BH   DATA     BYTE      S2BUF
*SFR* 0000009AH   DATA     BYTE      S2CON
*SFR* 000000ADH   DATA     BYTE      S3BUF
*SFR* 000000ACH   DATA     BYTE      S3CON
*SFR* 000000FEH   DATA     BYTE      S4BUF
*SFR* 000000FDH   DATA     BYTE      S4CON
*SFR* 00000099H   DATA     BYTE      SBUF
*SFR* 00000098H   DATA     BYTE      SCON
      00FF3842H   CODE     ---       Second__NWHuan_menu
      00FF79ACH   CODE     ---       Second__Speed_menu
      00FF6A5EH   CODE     ---       Second_Element_menu
      00FF5876H   CODE     ---       Second_Motor_menu
*DEL*:00000000H   CODE     ---       Send4DataToVofa
*DEL*:00000000H   CODE     ---       send_ack
*DEL*:00000000H   CODE     ---       send_data
*DEL*:00000000H   CODE     ---       send_nak
      00FF4C4EH   CODE     ---       set_clk
      000003A9H   EDATA    INT       set_speed
*DEL*:00000000H   CODE     ---       set_zero_position_simspi
*DEL*:00000000H   CODE     ---       set_zero_position_spi
      0000038DH   EDATA    INT       shizi_flag
*DEL*:00000000H   CODE     ---       Show_AllVal
      00FF6C83H   CODE     ---       show_val
      00FF89E9H   CODE     ---       Show_Val_Menu
*DEL*:00000000H   CODE     ---       showimage
*DEL*:00000000H   CODE     ---       simspi_r_reg_byte
*DEL*:00000000H   CODE     ---       simspi_w_reg_byte
*DEL*:00000000H   CODE     ---       simspi_wr_byte
*DEL*:00000000H   CODE     ---       SIN?_
*SFR* 000000CEH   DATA     BYTE      SPCTL
*SFR* 000000CFH   DATA     BYTE      SPDAT
      00000748H   EDATA    INT       speed
*DEL*:00000000H   CODE     ---       Speed_Plan
      0000037DH   EDATA    INT       Speed_Plan1
      000002E2H   EDATA    FLOAT     Speed_Ring
      0000046DH   EDATA    INT       Speed_Ring_Flag
*DEL*:00000000H   CODE     ---       spi_change_mode
*DEL*:00000000H   CODE     ---       spi_change_pin
*DEL*:00000000H   CODE     ---       spi_init
*DEL*:00000000H   CODE     ---       spi_mosi
*DEL*:00000000H   CODE     ---       spi_r_reg_byte
*DEL*:00000000H   CODE     ---       spi_w_reg_byte
*DEL*:00000000H   CODE     ---       spi_wr_byte
*SFR* 000000CDH   DATA     BYTE      SPSTAT
      00FF78F2H   CODE     ---       sq
*DEL*:00000000H   CODE     ---       SQRT?_
*DEL*:00000000H   CODE     ---       start
*DEL*:00000000H   CODE     ---       stop
      0000036DH   EDATA    FLOAT     Sub_motor_i
      00000375H   EDATA    FLOAT     Sub_motor_p
*DEL*:00000000H   CODE     ---       Sub_Pid
      0000038BH   EDATA    INT       Sub_speed
      00000399H   EDATA    FLOAT     Sub_wh_d
      000003A5H   EDATA    FLOAT     Sub_wh_p
      0000074EH   EDATA    INT       Sum_Pulse
      00000DA0H   EDATA    LONG      sys_clk
      00000D96H   EDATA    DWORD     SysTickFlag
*SFR* 000000D6H   DATA     BYTE      T2H
*SFR* 000000D7H   DATA     BYTE      T2L
*SFR* 000000D4H   DATA     BYTE      T3H
*SFR* 000000D5H   DATA     BYTE      T3L
L251 LINKER/LOCATER V4.66.93.0                                                        05/17/2024  20:59:59  PAGE 31


*SFR* 000000D2H   DATA     BYTE      T4H
*SFR* 000000D3H   DATA     BYTE      T4L
*SFR* 000000DDH   DATA     BYTE      T4T3M
*SFR* 000000AEH   DATA     BYTE      TA
*DEL*:00000000H   CODE     ---       TAN?_
*SFR* 00000088H   DATA     BYTE      TCON
      00FF271DH   CODE     ---       tft_ascii
*SFR* 0000008CH   DATA     BYTE      TH0
*SFR* 0000008DH   DATA     BYTE      TH1
*SFR* 0000008AH   DATA     BYTE      TL0
*SFR* 0000008BH   DATA     BYTE      TL1
      00FF8B8BH   CODE     ---       TM0_Isr
      00FF8C12H   CODE     ---       TM1_Isr
      00FF8C28H   CODE     ---       TM2_Isr
      00FF8C2CH   CODE     ---       TM3_Isr
      00FF7D0CH   CODE     ---       TM4_Isr
*SFR* 00000089H   DATA     BYTE      TMOD
*SFR* 00000088H.4 DATA     BIT       TR0
*SFR* 00000088H.6 DATA     BIT       TR1
      000003B7H   EDATA    INT       Track_flag
      00FF7EB1H   CODE     ---       Tracking
      00000129H   EDATA    BYTE      tsl1401_finish_flag
      00FF87D8H   CODE     ---       UART1_Isr
      00FF8B57H   CODE     ---       UART2_Isr
      00FF8B71H   CODE     ---       UART3_Isr
      00FF830BH   CODE     ---       UART4_Isr
      00FF67ABH   CODE     ---       uart_init
*DEL*:00000000H   CODE     ---       uart_putbuff
      00FF7F27H   CODE     ---       uart_putchar
*DEL*:00000000H   CODE     ---       uart_putstr
*SFR* 000000F4H   DATA     BYTE      USBCON
      00000B38H   EDATA    ---       virtual_scope_data
*SFR* 000000A6H   DATA     BYTE      VRTRIM
*DEL*:00000000H   CODE     ---       wait
*SFR* 000000C1H   DATA     BYTE      WDT_CONTR
      00000477H   EDATA    FLOAT     Wh_D
      0000047FH   EDATA    FLOAT     Wh_P
      00FF82A1H   CODE     ---       wh_Turn_Out
      0000001EH   EDATA    INT       wireless_type
      00FF8B3DH   CODE     ---       wireless_uart_callback
*DEL*:00000000H   CODE     ---       wireless_uart_init
*DEL*:00000000H   CODE     ---       wireless_uart_read_buff
*DEL*:00000000H   CODE     ---       wireless_uart_send_buff
*DEL*:00000000H   CODE     ---       wireless_uart_send_byte
*DEL*:00000000H   CODE     ---       WS2812_bit
*DEL*:00000000H   CODE     ---       WS2812_SendData
*SFR* 000000E9H   DATA     BYTE      WTST
      00000DACH   EDATA    WORD      zf_delay_ms
      00000DAEH   EDATA    WORD      zf_delay_us
      00FF45EDH   CODE     ---       zf_sprintf



SYMBOL TABLE OF MODULE:  .\Out_File\SEEKFREE (board)

      VALUE       REP       CLASS    TYPE      SYMBOL NAME
      ====================================================
      ---         MODULE    ---      ---       board
      00FF0006H   PUBLIC    CODE     ---       EnableGlobalIRQ
      00FF7E3AH   PUBLIC    CODE     ---       board_init
      00FF8BB8H   PUBLIC    CODE     ---       clock_init
      00FF8BF1H   PUBLIC    CODE     ---       ICacheOn
      00FF4C4EH   PUBLIC    CODE     ---       set_clk
      00FF8BDFH   PUBLIC    CODE     ---       putchar
      00000DA0H   PUBLIC    EDATA    LONG      sys_clk
L251 LINKER/LOCATER V4.66.93.0                                                        05/17/2024  20:59:59  PAGE 32


      00000094H   SFRSYM    DATA     BYTE      P0M0
      000000D0H   SFRSYM    DATA     BYTE      PSW
      0000009DH   SFRSYM    DATA     BYTE      IRCBAND
      00000097H   SFRSYM    DATA     BYTE      AUXR2
      000000EFH   SFRSYM    DATA     BYTE      AUXINTIF
      000000FDH   SFRSYM    DATA     BYTE      S4CON
      000000ACH   SFRSYM    DATA     BYTE      S3CON
      0000009AH   SFRSYM    DATA     BYTE      S2CON
      000000A6H   SFRSYM    DATA     BYTE      VRTRIM
      000000B7H   SFRSYM    DATA     BYTE      IPH
      000000CDH   SFRSYM    DATA     BYTE      SPSTAT
      000000DDH   SFRSYM    DATA     BYTE      T4T3M
      0000009FH   SFRSYM    DATA     BYTE      IRTRIM
      000000C1H   SFRSYM    DATA     BYTE      WDT_CONTR
      000000E9H   SFRSYM    DATA     BYTE      WTST
      000000DFH   SFRSYM    DATA     BYTE      IP3
      000000F4H   SFRSYM    DATA     BYTE      USBCON
      000000B5H   SFRSYM    DATA     BYTE      IP2
      000000FFH   SFRSYM    DATA     BYTE      RSTCFG
      000000C7H   SFRSYM    DATA     BYTE      IAP_CONTR
      000000F9H   SFRSYM    DATA     BYTE      LINICR
      0000008EH   SFRSYM    DATA     BYTE      AUXR
      000000AFH   SFRSYM    DATA     BYTE      IE2
      00000088H   SFRSYM    DATA     BYTE      TCON
      00000089H   SFRSYM    DATA     BYTE      TMOD
      00000098H   SFRSYM    DATA     BYTE      SCON
      000000F1H   SFRSYM    DATA     BYTE      CANICR
      00000087H   SFRSYM    DATA     BYTE      PCON
      000000BCH   SFRSYM    DATA     BYTE      ADC_CONTR
      000000F7H   SFRSYM    DATA     BYTE      ICHECR
      000000E7H   SFRSYM    DATA     BYTE      CMPCR2
      000000E6H   SFRSYM    DATA     BYTE      CMPCR1
      000000DEH   SFRSYM    DATA     BYTE      ADCCFG
      000000B8H   SFRSYM    DATA     BYTE      IP
      0000008FH   SFRSYM    DATA     BYTE      INTCLKO
      000000AEH   SFRSYM    DATA     BYTE      TA
      000000EEH   SFRSYM    DATA     BYTE      IP3H
      000000B6H   SFRSYM    DATA     BYTE      IP2H
      000000A8H   SFRSYM    DATA     BYTE      IE
      000000BBH   SFRSYM    DATA     BYTE      P_SW3
      000000BAH   SFRSYM    DATA     BYTE      P_SW2
      000000A2H   SFRSYM    DATA     BYTE      P_SW1
      000000CEH   SFRSYM    DATA     BYTE      SPCTL
      000000F8H   SFRSYM    DATA     BYTE      P7
      000000A8H.7 SFRSYM    DATA     BIT       EA
      000000E8H   SFRSYM    DATA     BYTE      P6
      000000C8H   SFRSYM    DATA     BYTE      P5
      000000C0H   SFRSYM    DATA     BYTE      P4
      000000C9H   SFRSYM    DATA     BYTE      P5M1
      000000B0H   SFRSYM    DATA     BYTE      P3
      000000B3H   SFRSYM    DATA     BYTE      P4M1
      000000CAH   SFRSYM    DATA     BYTE      P5M0
      000000A0H   SFRSYM    DATA     BYTE      P2
      000000B1H   SFRSYM    DATA     BYTE      P3M1
      000000B4H   SFRSYM    DATA     BYTE      P4M0
      00000090H   SFRSYM    DATA     BYTE      P1
      00000095H   SFRSYM    DATA     BYTE      P2M1
      000000B2H   SFRSYM    DATA     BYTE      P3M0
      00000080H   SFRSYM    DATA     BYTE      P0
      00000091H   SFRSYM    DATA     BYTE      P1M1
      00000096H   SFRSYM    DATA     BYTE      P2M0
      00000092H   SFRSYM    DATA     BYTE      P1M0
      00000093H   SFRSYM    DATA     BYTE      P0M1

      00FF4C4EH   BLOCK     CODE     ---       LVL=0
L251 LINKER/LOCATER V4.66.93.0                                                        05/17/2024  20:59:59  PAGE 33


      00000BF7H   SYMBOL    EDATA    DWORD     clock
      00FF4C52H   BLOCK     CODE     NEAR LAB  LVL=1
      00000BFBH   SYMBOL    EDATA    DWORD     temp_sys_clk
      ---         BLOCKEND  ---      ---       LVL=1
      00FF4C4EH   LINE      CODE     ---       #35
      00FF4C52H   LINE      CODE     ---       #36
      00FF4C52H   LINE      CODE     ---       #37
      00FF4C58H   LINE      CODE     ---       #40
      00FF4D39H   LINE      CODE     ---       #42
      00FF4D39H   LINE      CODE     ---       #44
      00FF4D46H   LINE      CODE     ---       #45
      00FF4D53H   LINE      CODE     ---       #46
      00FF4D60H   LINE      CODE     ---       #47
      00FF4D64H   LINE      CODE     ---       #48
      00FF4D67H   LINE      CODE     ---       #49
      00FF4D68H   LINE      CODE     ---       #50
      00FF4D69H   LINE      CODE     ---       #51
      00FF4D6AH   LINE      CODE     ---       #52
      00FF4D6BH   LINE      CODE     ---       #53
      00FF4D78H   LINE      CODE     ---       #54
      00FF4D80H   LINE      CODE     ---       #55
      00FF4D83H   LINE      CODE     ---       #57
      00FF4D83H   LINE      CODE     ---       #59
      00FF4D90H   LINE      CODE     ---       #60
      00FF4D9DH   LINE      CODE     ---       #61
      00FF4DAAH   LINE      CODE     ---       #62
      00FF4DAEH   LINE      CODE     ---       #63
      00FF4DB1H   LINE      CODE     ---       #64
      00FF4DB2H   LINE      CODE     ---       #65
      00FF4DB3H   LINE      CODE     ---       #66
      00FF4DB4H   LINE      CODE     ---       #67
      00FF4DB5H   LINE      CODE     ---       #68
      00FF4DC2H   LINE      CODE     ---       #69
      00FF4DCAH   LINE      CODE     ---       #70
      00FF4DCDH   LINE      CODE     ---       #72
      00FF4DCDH   LINE      CODE     ---       #74
      00FF4DDAH   LINE      CODE     ---       #75
      00FF4DE7H   LINE      CODE     ---       #76
      00FF4DF4H   LINE      CODE     ---       #77
      00FF4DF8H   LINE      CODE     ---       #78
      00FF4DFBH   LINE      CODE     ---       #79
      00FF4DFCH   LINE      CODE     ---       #80
      00FF4DFDH   LINE      CODE     ---       #81
      00FF4DFEH   LINE      CODE     ---       #82
      00FF4DFFH   LINE      CODE     ---       #83
      00FF4E0CH   LINE      CODE     ---       #84
      00FF4E14H   LINE      CODE     ---       #85
      00FF4E17H   LINE      CODE     ---       #87
      00FF4E17H   LINE      CODE     ---       #89
      00FF4E24H   LINE      CODE     ---       #90
      00FF4E31H   LINE      CODE     ---       #91
      00FF4E3EH   LINE      CODE     ---       #92
      00FF4E42H   LINE      CODE     ---       #93
      00FF4E43H   LINE      CODE     ---       #94
      00FF4E44H   LINE      CODE     ---       #95
      00FF4E45H   LINE      CODE     ---       #96
      00FF4E46H   LINE      CODE     ---       #97
      00FF4E49H   LINE      CODE     ---       #98
      00FF4E56H   LINE      CODE     ---       #99
      00FF4E5EH   LINE      CODE     ---       #100
      00FF4E61H   LINE      CODE     ---       #102
      00FF4E61H   LINE      CODE     ---       #104
      00FF4E6EH   LINE      CODE     ---       #105
      00FF4E7BH   LINE      CODE     ---       #106
      00FF4E88H   LINE      CODE     ---       #107
L251 LINKER/LOCATER V4.66.93.0                                                        05/17/2024  20:59:59  PAGE 34


      00FF4E8CH   LINE      CODE     ---       #108
      00FF4E8FH   LINE      CODE     ---       #109
      00FF4E90H   LINE      CODE     ---       #110
      00FF4E91H   LINE      CODE     ---       #111
      00FF4E92H   LINE      CODE     ---       #112
      00FF4E93H   LINE      CODE     ---       #113
      00FF4EA0H   LINE      CODE     ---       #114
      00FF4EA8H   LINE      CODE     ---       #115
      00FF4EABH   LINE      CODE     ---       #117
      00FF4EABH   LINE      CODE     ---       #119
      00FF4EB8H   LINE      CODE     ---       #120
      00FF4EC5H   LINE      CODE     ---       #121
      00FF4ED2H   LINE      CODE     ---       #122
      00FF4ED6H   LINE      CODE     ---       #123
      00FF4ED9H   LINE      CODE     ---       #124
      00FF4EDAH   LINE      CODE     ---       #125
      00FF4EDBH   LINE      CODE     ---       #126
      00FF4EDCH   LINE      CODE     ---       #127
      00FF4EDDH   LINE      CODE     ---       #128
      00FF4EEAH   LINE      CODE     ---       #129
      00FF4EF2H   LINE      CODE     ---       #130
      00FF4EF5H   LINE      CODE     ---       #132
      00FF4EF5H   LINE      CODE     ---       #134
      00FF4F02H   LINE      CODE     ---       #135
      00FF4F0FH   LINE      CODE     ---       #136
      00FF4F1CH   LINE      CODE     ---       #137
      00FF4F20H   LINE      CODE     ---       #138
      00FF4F23H   LINE      CODE     ---       #139
      00FF4F24H   LINE      CODE     ---       #140
      00FF4F25H   LINE      CODE     ---       #141
      00FF4F26H   LINE      CODE     ---       #142
      00FF4F27H   LINE      CODE     ---       #143
      00FF4F34H   LINE      CODE     ---       #144
      00FF4F3CH   LINE      CODE     ---       #145
      00FF4F3FH   LINE      CODE     ---       #147
      00FF4F3FH   LINE      CODE     ---       #149
      00FF4F4CH   LINE      CODE     ---       #150
      00FF4F59H   LINE      CODE     ---       #151
      00FF4F66H   LINE      CODE     ---       #152
      00FF4F6AH   LINE      CODE     ---       #153
      00FF4F6DH   LINE      CODE     ---       #154
      00FF4F6EH   LINE      CODE     ---       #155
      00FF4F6FH   LINE      CODE     ---       #156
      00FF4F70H   LINE      CODE     ---       #157
      00FF4F71H   LINE      CODE     ---       #158
      00FF4F7EH   LINE      CODE     ---       #159
      00FF4F86H   LINE      CODE     ---       #160
      00FF4F89H   LINE      CODE     ---       #162
      00FF4F89H   LINE      CODE     ---       #164
      00FF4F96H   LINE      CODE     ---       #165
      00FF4FA3H   LINE      CODE     ---       #166
      00FF4FB0H   LINE      CODE     ---       #167
      00FF4FB4H   LINE      CODE     ---       #168
      00FF4FB7H   LINE      CODE     ---       #169
      00FF4FB8H   LINE      CODE     ---       #170
      00FF4FB9H   LINE      CODE     ---       #171
      00FF4FBAH   LINE      CODE     ---       #172
      00FF4FBBH   LINE      CODE     ---       #173
      00FF4FC8H   LINE      CODE     ---       #174
      00FF4FD0H   LINE      CODE     ---       #175
      00FF4FD3H   LINE      CODE     ---       #177
      00FF4FD3H   LINE      CODE     ---       #179
      00FF4FE0H   LINE      CODE     ---       #180
      00FF4FEDH   LINE      CODE     ---       #181
      00FF4FFAH   LINE      CODE     ---       #182
L251 LINKER/LOCATER V4.66.93.0                                                        05/17/2024  20:59:59  PAGE 35


      00FF4FFEH   LINE      CODE     ---       #183
      00FF5001H   LINE      CODE     ---       #184
      00FF5002H   LINE      CODE     ---       #185
      00FF5003H   LINE      CODE     ---       #186
      00FF5004H   LINE      CODE     ---       #187
      00FF5005H   LINE      CODE     ---       #188
      00FF5012H   LINE      CODE     ---       #189
      00FF501AH   LINE      CODE     ---       #190
      00FF501DH   LINE      CODE     ---       #192
      00FF501DH   LINE      CODE     ---       #194
      00FF502AH   LINE      CODE     ---       #195
      00FF5037H   LINE      CODE     ---       #196
      00FF5044H   LINE      CODE     ---       #197
      00FF5048H   LINE      CODE     ---       #198
      00FF504CH   LINE      CODE     ---       #199
      00FF504DH   LINE      CODE     ---       #200
      00FF504EH   LINE      CODE     ---       #201
      00FF504FH   LINE      CODE     ---       #202
      00FF5050H   LINE      CODE     ---       #203
      00FF505DH   LINE      CODE     ---       #204
      00FF5065H   LINE      CODE     ---       #205
      00FF5068H   LINE      CODE     ---       #207
      00FF5068H   LINE      CODE     ---       #209
      00FF5075H   LINE      CODE     ---       #210
      00FF5082H   LINE      CODE     ---       #211
      00FF508FH   LINE      CODE     ---       #212
      00FF5093H   LINE      CODE     ---       #213
      00FF5097H   LINE      CODE     ---       #214
      00FF5098H   LINE      CODE     ---       #215
      00FF5099H   LINE      CODE     ---       #216
      00FF509AH   LINE      CODE     ---       #217
      00FF509BH   LINE      CODE     ---       #218
      00FF50A8H   LINE      CODE     ---       #219
      00FF50B0H   LINE      CODE     ---       #220
      00FF50B3H   LINE      CODE     ---       #222
      00FF50B3H   LINE      CODE     ---       #224
      00FF50C0H   LINE      CODE     ---       #225
      00FF50CDH   LINE      CODE     ---       #226
      00FF50DAH   LINE      CODE     ---       #227
      00FF50DEH   LINE      CODE     ---       #228
      00FF50E2H   LINE      CODE     ---       #229
      00FF50E3H   LINE      CODE     ---       #230
      00FF50E4H   LINE      CODE     ---       #231
      00FF50E5H   LINE      CODE     ---       #232
      00FF50E6H   LINE      CODE     ---       #233
      00FF50F3H   LINE      CODE     ---       #234
      00FF50FBH   LINE      CODE     ---       #235
      00FF50FEH   LINE      CODE     ---       #237
      00FF50FEH   LINE      CODE     ---       #239
      00FF510BH   LINE      CODE     ---       #240
      00FF5118H   LINE      CODE     ---       #241
      00FF5125H   LINE      CODE     ---       #242
      00FF5129H   LINE      CODE     ---       #243
      00FF512DH   LINE      CODE     ---       #244
      00FF512EH   LINE      CODE     ---       #245
      00FF512FH   LINE      CODE     ---       #246
      00FF5130H   LINE      CODE     ---       #247
      00FF5131H   LINE      CODE     ---       #248
      00FF513EH   LINE      CODE     ---       #249
      00FF5146H   LINE      CODE     ---       #250
      00FF5149H   LINE      CODE     ---       #252
      00FF5149H   LINE      CODE     ---       #254
      00FF5156H   LINE      CODE     ---       #255
      00FF5163H   LINE      CODE     ---       #256
      00FF5170H   LINE      CODE     ---       #257
L251 LINKER/LOCATER V4.66.93.0                                                        05/17/2024  20:59:59  PAGE 36


      00FF5174H   LINE      CODE     ---       #258
      00FF5178H   LINE      CODE     ---       #259
      00FF5179H   LINE      CODE     ---       #260
      00FF517AH   LINE      CODE     ---       #261
      00FF517BH   LINE      CODE     ---       #262
      00FF517CH   LINE      CODE     ---       #263
      00FF5189H   LINE      CODE     ---       #264
      00FF5191H   LINE      CODE     ---       #265
      00FF5194H   LINE      CODE     ---       #267
      00FF5194H   LINE      CODE     ---       #269
      00FF51A1H   LINE      CODE     ---       #270
      00FF51AEH   LINE      CODE     ---       #271
      00FF51BBH   LINE      CODE     ---       #272
      00FF51BFH   LINE      CODE     ---       #273
      00FF51C3H   LINE      CODE     ---       #274
      00FF51C4H   LINE      CODE     ---       #275
      00FF51C5H   LINE      CODE     ---       #276
      00FF51C6H   LINE      CODE     ---       #277
      00FF51C7H   LINE      CODE     ---       #278
      00FF51D4H   LINE      CODE     ---       #279
      00FF51DCH   LINE      CODE     ---       #280
      00FF51DFH   LINE      CODE     ---       #282
      00FF51DFH   LINE      CODE     ---       #284
      00FF51ECH   LINE      CODE     ---       #285
      00FF51F9H   LINE      CODE     ---       #286
      00FF5206H   LINE      CODE     ---       #287
      00FF520AH   LINE      CODE     ---       #288
      00FF520EH   LINE      CODE     ---       #289
      00FF520FH   LINE      CODE     ---       #290
      00FF5210H   LINE      CODE     ---       #291
      00FF5211H   LINE      CODE     ---       #292
      00FF5212H   LINE      CODE     ---       #293
      00FF521FH   LINE      CODE     ---       #294
      00FF5227H   LINE      CODE     ---       #295
      00FF5229H   LINE      CODE     ---       #307
      00FF5229H   LINE      CODE     ---       #309
      00FF5236H   LINE      CODE     ---       #310
      00FF5243H   LINE      CODE     ---       #311
      00FF5250H   LINE      CODE     ---       #312
      00FF5254H   LINE      CODE     ---       #313
      00FF5258H   LINE      CODE     ---       #314
      00FF5259H   LINE      CODE     ---       #315
      00FF525AH   LINE      CODE     ---       #316
      00FF525BH   LINE      CODE     ---       #317
      00FF525CH   LINE      CODE     ---       #318
      00FF5269H   LINE      CODE     ---       #319
      00FF5275H   LINE      CODE     ---       #320
      00FF5275H   LINE      CODE     ---       #321
      00FF5275H   LINE      CODE     ---       #323
      00FF5279H   LINE      CODE     ---       #324
      ---         BLOCKEND  ---      ---       LVL=0

      00FF8BDFH   BLOCK     CODE     ---       LVL=0
      00000EC7H   SYMBOL    EDATA    CHAR      c
      00FF8BDFH   LINE      CODE     ---       #333
      00FF8BE3H   LINE      CODE     ---       #335
      00FF8BECH   LINE      CODE     ---       #337
      00FF8BF0H   LINE      CODE     ---       #338
      ---         BLOCKEND  ---      ---       LVL=0

      00FF0006H   BLOCK     CODE     ---       LVL=0
      00FF0006H   LINE      CODE     ---       #347
      00FF0006H   LINE      CODE     ---       #349
      00FF0009H   LINE      CODE     ---       #350
      ---         BLOCKEND  ---      ---       LVL=0
L251 LINKER/LOCATER V4.66.93.0                                                        05/17/2024  20:59:59  PAGE 37



      00FF8BF1H   BLOCK     CODE     ---       LVL=0
      00FF8BF1H   LINE      CODE     ---       #385
      00FF8BF1H   LINE      CODE     ---       #387
      00FF8BF2H   LINE      CODE     ---       #388
      00FF8BF3H   LINE      CODE     ---       #389
      00FF8BF7H   LINE      CODE     ---       #391
      00FF8BFBH   LINE      CODE     ---       #393
      00FF8BFFH   LINE      CODE     ---       #395
      00FF8C00H   LINE      CODE     ---       #396
      00FF8C01H   LINE      CODE     ---       #397
      ---         BLOCKEND  ---      ---       LVL=0

      00FF8BB8H   BLOCK     CODE     ---       LVL=0
      00000DA4H   SYMBOL    EDATA    DWORD     clock
      00FF8BB8H   LINE      CODE     ---       #399
      00FF8BBCH   LINE      CODE     ---       #401
      00FF8BC0H   LINE      CODE     ---       #409
      00FF8BCBH   LINE      CODE     ---       #413
      ---         BLOCKEND  ---      ---       LVL=0

      00FF7E3AH   BLOCK     CODE     ---       LVL=0
      00FF7E3AH   LINE      CODE     ---       #416
      00FF7E3AH   LINE      CODE     ---       #419
      00FF7E3DH   LINE      CODE     ---       #422
      00FF7E40H   LINE      CODE     ---       #423
      00FF7E43H   LINE      CODE     ---       #424
      00FF7E46H   LINE      CODE     ---       #425
      00FF7E49H   LINE      CODE     ---       #426
      00FF7E4CH   LINE      CODE     ---       #427
      00FF7E4FH   LINE      CODE     ---       #428
      00FF7E52H   LINE      CODE     ---       #429
      00FF7E55H   LINE      CODE     ---       #430
      00FF7E58H   LINE      CODE     ---       #431
      00FF7E5BH   LINE      CODE     ---       #432
      00FF7E5EH   LINE      CODE     ---       #433
      00FF7E61H   LINE      CODE     ---       #452
      00FF7E64H   LINE      CODE     ---       #454
      00FF7E74H   LINE      CODE     ---       #459
      00FF7E77H   LINE      CODE     ---       #460
      00FF7E77H   LINE      CODE     ---       #464
      00FF7E7AH   LINE      CODE     ---       #465
      00FF7E7DH   LINE      CODE     ---       #466
      00FF7E80H   LINE      CODE     ---       #467
      00FF7E83H   LINE      CODE     ---       #468
      00FF7E86H   LINE      CODE     ---       #469
      00FF7E89H   LINE      CODE     ---       #470
      00FF7E8CH   LINE      CODE     ---       #471
      00FF7E8FH   LINE      CODE     ---       #472
      00FF7E92H   LINE      CODE     ---       #474
      00FF7EADH   LINE      CODE     ---       #475
      00FF7EB0H   LINE      CODE     ---       #476
      ---         BLOCKEND  ---      ---       LVL=0

      ---         MODULE    ---      ---       common
      0000001EH   PUBLIC    EDATA    INT       wireless_type
      000000D0H   SFRSYM    DATA     BYTE      PSW
      0000009DH   SFRSYM    DATA     BYTE      IRCBAND
      00000097H   SFRSYM    DATA     BYTE      AUXR2
      000000EFH   SFRSYM    DATA     BYTE      AUXINTIF
      000000FDH   SFRSYM    DATA     BYTE      S4CON
      000000ACH   SFRSYM    DATA     BYTE      S3CON
      0000009AH   SFRSYM    DATA     BYTE      S2CON
      000000B7H   SFRSYM    DATA     BYTE      IPH
      000000CDH   SFRSYM    DATA     BYTE      SPSTAT
L251 LINKER/LOCATER V4.66.93.0                                                        05/17/2024  20:59:59  PAGE 38


      000000DDH   SFRSYM    DATA     BYTE      T4T3M
      000000C1H   SFRSYM    DATA     BYTE      WDT_CONTR
      000000DFH   SFRSYM    DATA     BYTE      IP3
      000000F4H   SFRSYM    DATA     BYTE      USBCON
      000000B5H   SFRSYM    DATA     BYTE      IP2
      000000FFH   SFRSYM    DATA     BYTE      RSTCFG
      000000C7H   SFRSYM    DATA     BYTE      IAP_CONTR
      000000F9H   SFRSYM    DATA     BYTE      LINICR
      0000008EH   SFRSYM    DATA     BYTE      AUXR
      000000AFH   SFRSYM    DATA     BYTE      IE2
      00000088H   SFRSYM    DATA     BYTE      TCON
      00000089H   SFRSYM    DATA     BYTE      TMOD
      00000098H   SFRSYM    DATA     BYTE      SCON
      000000F1H   SFRSYM    DATA     BYTE      CANICR
      00000087H   SFRSYM    DATA     BYTE      PCON
      000000BCH   SFRSYM    DATA     BYTE      ADC_CONTR
      000000E7H   SFRSYM    DATA     BYTE      CMPCR2
      000000E6H   SFRSYM    DATA     BYTE      CMPCR1
      000000DEH   SFRSYM    DATA     BYTE      ADCCFG
      000000B8H   SFRSYM    DATA     BYTE      IP
      0000008FH   SFRSYM    DATA     BYTE      INTCLKO
      000000EEH   SFRSYM    DATA     BYTE      IP3H
      000000B6H   SFRSYM    DATA     BYTE      IP2H
      000000A8H   SFRSYM    DATA     BYTE      IE
      000000BBH   SFRSYM    DATA     BYTE      P_SW3
      000000BAH   SFRSYM    DATA     BYTE      P_SW2
      000000A2H   SFRSYM    DATA     BYTE      P_SW1
      000000CEH   SFRSYM    DATA     BYTE      SPCTL
      000000F8H   SFRSYM    DATA     BYTE      P7
      000000E8H   SFRSYM    DATA     BYTE      P6
      000000C8H   SFRSYM    DATA     BYTE      P5
      000000C0H   SFRSYM    DATA     BYTE      P4
      000000B0H   SFRSYM    DATA     BYTE      P3
      000000A0H   SFRSYM    DATA     BYTE      P2
      00000090H   SFRSYM    DATA     BYTE      P1
      00000080H   SFRSYM    DATA     BYTE      P0

      ---         MODULE    ---      ---       STC32F_FPMU
      00FF8C1CH   PUBLIC    CODE     ---       ?C?CASTF
      00FF8C22H   PUBLIC    CODE     ---       ?C?FCASTI
      00FF005EH   PUBLIC    CODE     ---       ?C?FCASTL
      00FF000EH   PUBLIC    CODE     ---       ?C?FPADD
      00FF0046H   PUBLIC    CODE     ---       ?C?FPCMP3
      00FF0056H   PUBLIC    CODE     ---       ?C?FPDIV
      00FF001EH   PUBLIC    CODE     ---       ?C?FPMUL
      00FF0016H   PUBLIC    CODE     ---       ?C?FPSUB
      000000E0H   SFRSYM    DATA     BYTE      ACC
      000000EDH   SFRSYM    DATA     BYTE      DMAIR
      00000083H   SFRSYM    DATA     BYTE      DPH
      00000082H   SFRSYM    DATA     BYTE      DPL
      0000001CH   SYMBOL    NUMBER   ---       DMA_FPADD
      00000030H   SYMBOL    NUMBER   ---       DMA_FPATAN
      00000027H   SYMBOL    NUMBER   ---       DMA_FPCLD
      00000032H   SYMBOL    NUMBER   ---       DMA_FPCLEX
      00000021H   SYMBOL    NUMBER   ---       DMA_FPCMP
      0000002EH   SYMBOL    NUMBER   ---       DMA_FPCOS
      00000035H   SYMBOL    NUMBER   ---       DMA_FPCRR
      00000036H   SYMBOL    NUMBER   ---       DMA_FPCRW
      00000023H   SYMBOL    NUMBER   ---       DMA_FPCST
      0000001FH   SYMBOL    NUMBER   ---       DMA_FPDIV
      00000028H   SYMBOL    NUMBER   ---       DMA_FPILD
      00000031H   SYMBOL    NUMBER   ---       DMA_FPINIT
      00000024H   SYMBOL    NUMBER   ---       DMA_FPIST
      00000029H   SYMBOL    NUMBER   ---       DMA_FPLLD
      00000025H   SYMBOL    NUMBER   ---       DMA_FPLST
L251 LINKER/LOCATER V4.66.93.0                                                        05/17/2024  20:59:59  PAGE 39


      0000001EH   SYMBOL    NUMBER   ---       DMA_FPMUL
      0000002DH   SYMBOL    NUMBER   ---       DMA_FPSIN
      00000020H   SYMBOL    NUMBER   ---       DMA_FPSQRT
      00000033H   SYMBOL    NUMBER   ---       DMA_FPSRR
      00000034H   SYMBOL    NUMBER   ---       DMA_FPSRW
      0000001DH   SYMBOL    NUMBER   ---       DMA_FPSUB
      0000002FH   SYMBOL    NUMBER   ---       DMA_FPTAN
      00000022H   SYMBOL    NUMBER   ---       DMA_FPXAM
      00000001H   SYMBOL    NUMBER   ---       FP_CONV_EN
      00000001H   SYMBOL    NUMBER   ---       FP_REGS_EN
      00000001H   SYMBOL    NUMBER   ---       FP_TRIG_EN

      00FF000EH   BLOCK     CODE     NEAR LAB  LVL=0
      00FF000EH   LINE      CODE     ---       #62
      00FF0011H   LINE      CODE     ---       #63
      ---         BLOCKEND  ---      ---       LVL=0

      00FF0016H   BLOCK     CODE     NEAR LAB  LVL=0
      00FF0016H   LINE      CODE     ---       #72
      00FF0019H   LINE      CODE     ---       #73
      ---         BLOCKEND  ---      ---       LVL=0

      00FF001EH   BLOCK     CODE     NEAR LAB  LVL=0
      00FF001EH   LINE      CODE     ---       #82
      00FF0021H   LINE      CODE     ---       #83
      ---         BLOCKEND  ---      ---       LVL=0

      00FF0056H   BLOCK     CODE     NEAR LAB  LVL=0
      00FF0056H   LINE      CODE     ---       #92
      00FF0059H   LINE      CODE     ---       #93
      ---         BLOCKEND  ---      ---       LVL=0

      00FF0046H   BLOCK     CODE     NEAR LAB  LVL=0
      00FF0046H   LINE      CODE     ---       #113
      00FF0049H   LINE      CODE     ---       #114
      00FF004BH   LINE      CODE     ---       #115
      00FF004DH   LINE      CODE     ---       #116
      00FF004FH   LINE      CODE     ---       #117
      00FF0051H   LINE      CODE     ---       #118
      ---         BLOCKEND  ---      ---       LVL=0

      00FF8C1CH   BLOCK     CODE     NEAR LAB  LVL=0
      00FF8C1CH   LINE      CODE     ---       #213
      00FF8C1FH   LINE      CODE     ---       #214
      00FF8C21H   LINE      CODE     ---       #215
      ---         BLOCKEND  ---      ---       LVL=0

      00FF8C22H   BLOCK     CODE     NEAR LAB  LVL=0
      00FF8C22H   LINE      CODE     ---       #235
      00FF8C24H   LINE      CODE     ---       #236
      00FF8C27H   LINE      CODE     ---       #237
      ---         BLOCKEND  ---      ---       LVL=0

      00FF005EH   BLOCK     CODE     NEAR LAB  LVL=0
      00FF005EH   LINE      CODE     ---       #246
      00FF0061H   LINE      CODE     ---       #247
      ---         BLOCKEND  ---      ---       LVL=0

      ---         MODULE    ---      ---       zf_adc
      00FF8486H   PUBLIC    CODE     ---       adc_once
      00FF7A62H   PUBLIC    CODE     ---       adc_init
      00000094H   SFRSYM    DATA     BYTE      P0M0
      000000D0H   SFRSYM    DATA     BYTE      PSW
      0000009DH   SFRSYM    DATA     BYTE      IRCBAND
      00000097H   SFRSYM    DATA     BYTE      AUXR2
L251 LINKER/LOCATER V4.66.93.0                                                        05/17/2024  20:59:59  PAGE 40


      000000EFH   SFRSYM    DATA     BYTE      AUXINTIF
      000000FDH   SFRSYM    DATA     BYTE      S4CON
      000000ACH   SFRSYM    DATA     BYTE      S3CON
      0000009AH   SFRSYM    DATA     BYTE      S2CON
      000000B7H   SFRSYM    DATA     BYTE      IPH
      000000CDH   SFRSYM    DATA     BYTE      SPSTAT
      000000BEH   SFRSYM    DATA     BYTE      ADC_RESL
      000000DDH   SFRSYM    DATA     BYTE      T4T3M
      000000C1H   SFRSYM    DATA     BYTE      WDT_CONTR
      000000DFH   SFRSYM    DATA     BYTE      IP3
      000000F4H   SFRSYM    DATA     BYTE      USBCON
      000000B5H   SFRSYM    DATA     BYTE      IP2
      000000FFH   SFRSYM    DATA     BYTE      RSTCFG
      000000C7H   SFRSYM    DATA     BYTE      IAP_CONTR
      000000F9H   SFRSYM    DATA     BYTE      LINICR
      0000008EH   SFRSYM    DATA     BYTE      AUXR
      000000AFH   SFRSYM    DATA     BYTE      IE2
      00000088H   SFRSYM    DATA     BYTE      TCON
      00000089H   SFRSYM    DATA     BYTE      TMOD
      00000098H   SFRSYM    DATA     BYTE      SCON
      000000F1H   SFRSYM    DATA     BYTE      CANICR
      00000087H   SFRSYM    DATA     BYTE      PCON
      000000BCH   SFRSYM    DATA     BYTE      ADC_CONTR
      000000E7H   SFRSYM    DATA     BYTE      CMPCR2
      000000E6H   SFRSYM    DATA     BYTE      CMPCR1
      000000DEH   SFRSYM    DATA     BYTE      ADCCFG
      000000B8H   SFRSYM    DATA     BYTE      IP
      0000008FH   SFRSYM    DATA     BYTE      INTCLKO
      000000EEH   SFRSYM    DATA     BYTE      IP3H
      000000B6H   SFRSYM    DATA     BYTE      IP2H
      000000BDH   SFRSYM    DATA     BYTE      ADC_RES
      000000A8H   SFRSYM    DATA     BYTE      IE
      000000BBH   SFRSYM    DATA     BYTE      P_SW3
      000000BAH   SFRSYM    DATA     BYTE      P_SW2
      000000A2H   SFRSYM    DATA     BYTE      P_SW1
      000000CEH   SFRSYM    DATA     BYTE      SPCTL
      000000F8H   SFRSYM    DATA     BYTE      P7
      000000E8H   SFRSYM    DATA     BYTE      P6
      000000C8H   SFRSYM    DATA     BYTE      P5
      000000C0H   SFRSYM    DATA     BYTE      P4
      000000B0H   SFRSYM    DATA     BYTE      P3
      000000A0H   SFRSYM    DATA     BYTE      P2
      00000090H   SFRSYM    DATA     BYTE      P1
      00000080H   SFRSYM    DATA     BYTE      P0
      00000091H   SFRSYM    DATA     BYTE      P1M1
      00000092H   SFRSYM    DATA     BYTE      P1M0
      00000093H   SFRSYM    DATA     BYTE      P0M1

      00FF7A62H   BLOCK     CODE     ---       LVL=0
      00000DA8H   SYMBOL    EDATA    INT       adcn
      00000DAAH   SYMBOL    EDATA    INT       speed
      00FF7A62H   LINE      CODE     ---       #32
      00FF7A6AH   LINE      CODE     ---       #34
      00FF7A6DH   LINE      CODE     ---       #36
      00FF7A70H   LINE      CODE     ---       #37
      00FF7A78H   LINE      CODE     ---       #39
      00FF7A8AH   LINE      CODE     ---       #42
      00FF7AA5H   LINE      CODE     ---       #43
      00FF7ABEH   LINE      CODE     ---       #44
      00FF7AC0H   LINE      CODE     ---       #45
      00FF7AD0H   LINE      CODE     ---       #48
      00FF7AEBH   LINE      CODE     ---       #49
      00FF7B04H   LINE      CODE     ---       #50
      00FF7B04H   LINE      CODE     ---       #52
      00FF7B13H   LINE      CODE     ---       #54
L251 LINKER/LOCATER V4.66.93.0                                                        05/17/2024  20:59:59  PAGE 41


      00FF7B16H   LINE      CODE     ---       #55
      ---         BLOCKEND  ---      ---       LVL=0

      00FF8486H   BLOCK     CODE     ---       LVL=0
      00000CA9H   SYMBOL    EDATA    INT       adcn
      00000CABH   SYMBOL    EDATA    INT       resolution
      00FF848EH   BLOCK     CODE     NEAR LAB  LVL=1
      00000CADH   SYMBOL    EDATA    WORD      adc_value
      ---         BLOCKEND  ---      ---       LVL=1
      00FF8486H   LINE      CODE     ---       #66
      00FF848EH   LINE      CODE     ---       #67
      00FF848EH   LINE      CODE     ---       #70
      00FF8491H   LINE      CODE     ---       #71
      00FF8499H   LINE      CODE     ---       #73
      00FF849CH   LINE      CODE     ---       #74
      00FF84A1H   LINE      CODE     ---       #75
      00FF84A4H   LINE      CODE     ---       #77
      00FF84ACH   LINE      CODE     ---       #78
      00FF84B4H   LINE      CODE     ---       #79
      00FF84C2H   LINE      CODE     ---       #81
      00FF84C5H   LINE      CODE     ---       #82
      00FF84C8H   LINE      CODE     ---       #84
      00FF84DBH   LINE      CODE     ---       #87
      00FF84DBH   LINE      CODE     ---       #88
      ---         BLOCKEND  ---      ---       LVL=0

      ---         MODULE    ---      ---       zf_delay
      00FF8AD6H   PUBLIC    CODE     ---       delay_init
      00FF8894H   PUBLIC    CODE     ---       delay_ms
      00000DACH   PUBLIC    EDATA    WORD      zf_delay_ms
      00000DAEH   PUBLIC    EDATA    WORD      zf_delay_us
      000000D0H   SFRSYM    DATA     BYTE      PSW
      0000009DH   SFRSYM    DATA     BYTE      IRCBAND
      00000097H   SFRSYM    DATA     BYTE      AUXR2
      000000EFH   SFRSYM    DATA     BYTE      AUXINTIF
      000000FDH   SFRSYM    DATA     BYTE      S4CON
      000000ACH   SFRSYM    DATA     BYTE      S3CON
      0000009AH   SFRSYM    DATA     BYTE      S2CON
      000000B7H   SFRSYM    DATA     BYTE      IPH
      000000CDH   SFRSYM    DATA     BYTE      SPSTAT
      000000DDH   SFRSYM    DATA     BYTE      T4T3M
      000000C1H   SFRSYM    DATA     BYTE      WDT_CONTR
      000000DFH   SFRSYM    DATA     BYTE      IP3
      000000F4H   SFRSYM    DATA     BYTE      USBCON
      000000B5H   SFRSYM    DATA     BYTE      IP2
      000000FFH   SFRSYM    DATA     BYTE      RSTCFG
      000000C7H   SFRSYM    DATA     BYTE      IAP_CONTR
      000000F9H   SFRSYM    DATA     BYTE      LINICR
      0000008EH   SFRSYM    DATA     BYTE      AUXR
      000000AFH   SFRSYM    DATA     BYTE      IE2
      00000088H   SFRSYM    DATA     BYTE      TCON
      00000089H   SFRSYM    DATA     BYTE      TMOD
      00000098H   SFRSYM    DATA     BYTE      SCON
      000000F1H   SFRSYM    DATA     BYTE      CANICR
      00000087H   SFRSYM    DATA     BYTE      PCON
      000000BCH   SFRSYM    DATA     BYTE      ADC_CONTR
      000000E7H   SFRSYM    DATA     BYTE      CMPCR2
      000000E6H   SFRSYM    DATA     BYTE      CMPCR1
      000000DEH   SFRSYM    DATA     BYTE      ADCCFG
      000000B8H   SFRSYM    DATA     BYTE      IP
      0000008FH   SFRSYM    DATA     BYTE      INTCLKO
      000000EEH   SFRSYM    DATA     BYTE      IP3H
      000000B6H   SFRSYM    DATA     BYTE      IP2H
      000000A8H   SFRSYM    DATA     BYTE      IE
      000000BBH   SFRSYM    DATA     BYTE      P_SW3
L251 LINKER/LOCATER V4.66.93.0                                                        05/17/2024  20:59:59  PAGE 42


      000000BAH   SFRSYM    DATA     BYTE      P_SW2
      000000A2H   SFRSYM    DATA     BYTE      P_SW1
      000000CEH   SFRSYM    DATA     BYTE      SPCTL
      000000F8H   SFRSYM    DATA     BYTE      P7
      000000E8H   SFRSYM    DATA     BYTE      P6
      000000C8H   SFRSYM    DATA     BYTE      P5
      000000C0H   SFRSYM    DATA     BYTE      P4
      000000B0H   SFRSYM    DATA     BYTE      P3
      000000A0H   SFRSYM    DATA     BYTE      P2
      00000090H   SFRSYM    DATA     BYTE      P1
      00000080H   SFRSYM    DATA     BYTE      P0

      00FF8AD6H   BLOCK     CODE     ---       LVL=0
      00FF8AD6H   LINE      CODE     ---       #34
      00FF8AD6H   LINE      CODE     ---       #36
      00FF8AE5H   LINE      CODE     ---       #37
      00FF8AF8H   LINE      CODE     ---       #38
      ---         BLOCKEND  ---      ---       LVL=0

      00FF8894H   BLOCK     CODE     ---       LVL=0
      00000DB0H   SYMBOL    EDATA    WORD      ms
      00FF8898H   BLOCK     CODE     NEAR LAB  LVL=1
      00000DB2H   SYMBOL    EDATA    WORD      i
      ---         BLOCKEND  ---      ---       LVL=1
      00FF8894H   LINE      CODE     ---       #46
      00FF8898H   LINE      CODE     ---       #47
      00FF8898H   LINE      CODE     ---       #49
      00FF8898H   LINE      CODE     ---       #50
      00FF88A0H   LINE      CODE     ---       #51
      00FF88B4H   LINE      CODE     ---       #52
      00FF88C8H   LINE      CODE     ---       #53
      ---         BLOCKEND  ---      ---       LVL=0
      00000CAFH   SYMBOL    EDATA    DWORD     us
      00000CB3H   SYMBOL    EDATA    WORD      i
      00000DB4H   SYMBOL    EDATA    WORD      ns
      00000DB6H   SYMBOL    EDATA    WORD      cycles

      ---         MODULE    ---      ---       zf_eeprom
      00000ACAH   PUBLIC    EDATA    BYTE      ?iap_read_bytes?BYTE
      00000AD4H   PUBLIC    EDATA    BYTE      ?iap_write_bytes?BYTE
      000000D0H   SFRSYM    DATA     BYTE      PSW
      0000009DH   SFRSYM    DATA     BYTE      IRCBAND
      000000D0H.5 SFRSYM    DATA     BIT       F0
      00000097H   SFRSYM    DATA     BYTE      AUXR2
      000000C6H   SFRSYM    DATA     BYTE      IAP_TRIG
      000000EFH   SFRSYM    DATA     BYTE      AUXINTIF
      000000FDH   SFRSYM    DATA     BYTE      S4CON
      000000ACH   SFRSYM    DATA     BYTE      S3CON
      0000009AH   SFRSYM    DATA     BYTE      S2CON
      000000B7H   SFRSYM    DATA     BYTE      IPH
      000000CDH   SFRSYM    DATA     BYTE      SPSTAT
      000000DDH   SFRSYM    DATA     BYTE      T4T3M
      000000C1H   SFRSYM    DATA     BYTE      WDT_CONTR
      000000C2H   SFRSYM    DATA     BYTE      IAP_DATA
      000000DFH   SFRSYM    DATA     BYTE      IP3
      000000F4H   SFRSYM    DATA     BYTE      USBCON
      000000B5H   SFRSYM    DATA     BYTE      IP2
      000000FFH   SFRSYM    DATA     BYTE      RSTCFG
      000000C7H   SFRSYM    DATA     BYTE      IAP_CONTR
      000000F9H   SFRSYM    DATA     BYTE      LINICR
      0000008EH   SFRSYM    DATA     BYTE      AUXR
      000000AFH   SFRSYM    DATA     BYTE      IE2
      00000088H   SFRSYM    DATA     BYTE      TCON
      00000089H   SFRSYM    DATA     BYTE      TMOD
      00000098H   SFRSYM    DATA     BYTE      SCON
L251 LINKER/LOCATER V4.66.93.0                                                        05/17/2024  20:59:59  PAGE 43


      000000F5H   SFRSYM    DATA     BYTE      IAP_TPS
      000000F1H   SFRSYM    DATA     BYTE      CANICR
      00000087H   SFRSYM    DATA     BYTE      PCON
      000000BCH   SFRSYM    DATA     BYTE      ADC_CONTR
      000000E7H   SFRSYM    DATA     BYTE      CMPCR2
      000000E6H   SFRSYM    DATA     BYTE      CMPCR1
      000000C4H   SFRSYM    DATA     BYTE      IAP_ADDRL
      000000C3H   SFRSYM    DATA     BYTE      IAP_ADDRH
      000000F6H   SFRSYM    DATA     BYTE      IAP_ADDRE
      000000DEH   SFRSYM    DATA     BYTE      ADCCFG
      000000B8H   SFRSYM    DATA     BYTE      IP
      0000008FH   SFRSYM    DATA     BYTE      INTCLKO
      000000EEH   SFRSYM    DATA     BYTE      IP3H
      000000B6H   SFRSYM    DATA     BYTE      IP2H
      000000C5H   SFRSYM    DATA     BYTE      IAP_CMD
      000000A8H   SFRSYM    DATA     BYTE      IE
      000000BBH   SFRSYM    DATA     BYTE      P_SW3
      000000BAH   SFRSYM    DATA     BYTE      P_SW2
      000000A2H   SFRSYM    DATA     BYTE      P_SW1
      000000CEH   SFRSYM    DATA     BYTE      SPCTL
      000000F8H   SFRSYM    DATA     BYTE      P7
      000000A8H.7 SFRSYM    DATA     BIT       EA
      000000E8H   SFRSYM    DATA     BYTE      P6
      000000C8H   SFRSYM    DATA     BYTE      P5
      000000C0H   SFRSYM    DATA     BYTE      P4
      000000B0H   SFRSYM    DATA     BYTE      P3
      000000A0H   SFRSYM    DATA     BYTE      P2
      00000090H   SFRSYM    DATA     BYTE      P1
      00000080H   SFRSYM    DATA     BYTE      P0
      00000EC8H   SYMBOL    EDATA    BYTE      write_time
      00000ACAH   SYMBOL    EDATA    DWORD     addr
      00000ACEH   SYMBOL    EDATA    ---       buf
      00000AD2H   SYMBOL    EDATA    WORD      len
      00000AD4H   SYMBOL    EDATA    DWORD     addr
      00000AD8H   SYMBOL    EDATA    ---       buf
      00000ADCH   SYMBOL    EDATA    WORD      len
      00000DB8H   SYMBOL    EDATA    DWORD     addr

      ---         MODULE    ---      ---       zf_exti
      000000D0H   SFRSYM    DATA     BYTE      PSW
      0000009DH   SFRSYM    DATA     BYTE      IRCBAND
      00000097H   SFRSYM    DATA     BYTE      AUXR2
      000000EFH   SFRSYM    DATA     BYTE      AUXINTIF
      000000FDH   SFRSYM    DATA     BYTE      S4CON
      000000ACH   SFRSYM    DATA     BYTE      S3CON
      0000009AH   SFRSYM    DATA     BYTE      S2CON
      000000B7H   SFRSYM    DATA     BYTE      IPH
      000000CDH   SFRSYM    DATA     BYTE      SPSTAT
      000000DDH   SFRSYM    DATA     BYTE      T4T3M
      000000C1H   SFRSYM    DATA     BYTE      WDT_CONTR
      00000088H.2 SFRSYM    DATA     BIT       IT1
      000000A8H.2 SFRSYM    DATA     BIT       EX1
      00000088H.0 SFRSYM    DATA     BIT       IT0
      000000A8H.0 SFRSYM    DATA     BIT       EX0
      000000DFH   SFRSYM    DATA     BYTE      IP3
      000000F4H   SFRSYM    DATA     BYTE      USBCON
      000000B5H   SFRSYM    DATA     BYTE      IP2
      000000FFH   SFRSYM    DATA     BYTE      RSTCFG
      000000C7H   SFRSYM    DATA     BYTE      IAP_CONTR
      000000F9H   SFRSYM    DATA     BYTE      LINICR
      0000008EH   SFRSYM    DATA     BYTE      AUXR
      000000AFH   SFRSYM    DATA     BYTE      IE2
      00000088H   SFRSYM    DATA     BYTE      TCON
      00000089H   SFRSYM    DATA     BYTE      TMOD
      00000098H   SFRSYM    DATA     BYTE      SCON
L251 LINKER/LOCATER V4.66.93.0                                                        05/17/2024  20:59:59  PAGE 44


      000000F1H   SFRSYM    DATA     BYTE      CANICR
      00000087H   SFRSYM    DATA     BYTE      PCON
      000000BCH   SFRSYM    DATA     BYTE      ADC_CONTR
      000000E7H   SFRSYM    DATA     BYTE      CMPCR2
      000000E6H   SFRSYM    DATA     BYTE      CMPCR1
      000000DEH   SFRSYM    DATA     BYTE      ADCCFG
      000000B8H   SFRSYM    DATA     BYTE      IP
      0000008FH   SFRSYM    DATA     BYTE      INTCLKO
      000000EEH   SFRSYM    DATA     BYTE      IP3H
      000000B6H   SFRSYM    DATA     BYTE      IP2H
      000000A8H   SFRSYM    DATA     BYTE      IE
      000000BBH   SFRSYM    DATA     BYTE      P_SW3
      000000BAH   SFRSYM    DATA     BYTE      P_SW2
      000000A2H   SFRSYM    DATA     BYTE      P_SW1
      000000CEH   SFRSYM    DATA     BYTE      SPCTL
      000000F8H   SFRSYM    DATA     BYTE      P7
      000000E8H   SFRSYM    DATA     BYTE      P6
      000000C8H   SFRSYM    DATA     BYTE      P5
      000000C0H   SFRSYM    DATA     BYTE      P4
      000000B0H   SFRSYM    DATA     BYTE      P3
      000000A0H   SFRSYM    DATA     BYTE      P2
      00000090H   SFRSYM    DATA     BYTE      P1
      00000080H   SFRSYM    DATA     BYTE      P0
      00000DBCH   SYMBOL    EDATA    INT       int_n
      00000DBEH   SYMBOL    EDATA    INT       mode

      ---         MODULE    ---      ---       zf_gpio
      00FF2F35H   PUBLIC    CODE     ---       gpio_mode
      00000094H   SFRSYM    DATA     BYTE      P0M0
      000000D0H   SFRSYM    DATA     BYTE      PSW
      0000009DH   SFRSYM    DATA     BYTE      IRCBAND
      00000097H   SFRSYM    DATA     BYTE      AUXR2
      000000EFH   SFRSYM    DATA     BYTE      AUXINTIF
      000000FDH   SFRSYM    DATA     BYTE      S4CON
      000000ACH   SFRSYM    DATA     BYTE      S3CON
      0000009AH   SFRSYM    DATA     BYTE      S2CON
      000000B7H   SFRSYM    DATA     BYTE      IPH
      000000CDH   SFRSYM    DATA     BYTE      SPSTAT
      000000DDH   SFRSYM    DATA     BYTE      T4T3M
      000000C1H   SFRSYM    DATA     BYTE      WDT_CONTR
      000000DFH   SFRSYM    DATA     BYTE      IP3
      000000F4H   SFRSYM    DATA     BYTE      USBCON
      000000B5H   SFRSYM    DATA     BYTE      IP2
      000000FFH   SFRSYM    DATA     BYTE      RSTCFG
      000000C7H   SFRSYM    DATA     BYTE      IAP_CONTR
      000000F9H   SFRSYM    DATA     BYTE      LINICR
      0000008EH   SFRSYM    DATA     BYTE      AUXR
      000000AFH   SFRSYM    DATA     BYTE      IE2
      00000088H   SFRSYM    DATA     BYTE      TCON
      00000089H   SFRSYM    DATA     BYTE      TMOD
      00000098H   SFRSYM    DATA     BYTE      SCON
      000000F1H   SFRSYM    DATA     BYTE      CANICR
      00000087H   SFRSYM    DATA     BYTE      PCON
      000000BCH   SFRSYM    DATA     BYTE      ADC_CONTR
      000000E7H   SFRSYM    DATA     BYTE      CMPCR2
      000000E6H   SFRSYM    DATA     BYTE      CMPCR1
      000000DEH   SFRSYM    DATA     BYTE      ADCCFG
      000000B8H   SFRSYM    DATA     BYTE      IP
      0000008FH   SFRSYM    DATA     BYTE      INTCLKO
      000000EEH   SFRSYM    DATA     BYTE      IP3H
      000000B6H   SFRSYM    DATA     BYTE      IP2H
      000000A8H   SFRSYM    DATA     BYTE      IE
      000000BBH   SFRSYM    DATA     BYTE      P_SW3
      000000BAH   SFRSYM    DATA     BYTE      P_SW2
      000000A2H   SFRSYM    DATA     BYTE      P_SW1
L251 LINKER/LOCATER V4.66.93.0                                                        05/17/2024  20:59:59  PAGE 45


      000000CEH   SFRSYM    DATA     BYTE      SPCTL
      000000F8H   SFRSYM    DATA     BYTE      P7
      000000E1H   SFRSYM    DATA     BYTE      P7M1
      000000E8H   SFRSYM    DATA     BYTE      P6
      000000C8H   SFRSYM    DATA     BYTE      P5
      000000CBH   SFRSYM    DATA     BYTE      P6M1
      000000E2H   SFRSYM    DATA     BYTE      P7M0
      000000C0H   SFRSYM    DATA     BYTE      P4
      000000C9H   SFRSYM    DATA     BYTE      P5M1
      000000CCH   SFRSYM    DATA     BYTE      P6M0
      000000B0H   SFRSYM    DATA     BYTE      P3
      000000B3H   SFRSYM    DATA     BYTE      P4M1
      000000CAH   SFRSYM    DATA     BYTE      P5M0
      000000A0H   SFRSYM    DATA     BYTE      P2
      000000B1H   SFRSYM    DATA     BYTE      P3M1
      000000B4H   SFRSYM    DATA     BYTE      P4M0
      00000090H   SFRSYM    DATA     BYTE      P1
      00000095H   SFRSYM    DATA     BYTE      P2M1
      000000B2H   SFRSYM    DATA     BYTE      P3M0
      00000080H   SFRSYM    DATA     BYTE      P0
      00000091H   SFRSYM    DATA     BYTE      P1M1
      00000096H   SFRSYM    DATA     BYTE      P2M0
      00000092H   SFRSYM    DATA     BYTE      P1M0
      00000093H   SFRSYM    DATA     BYTE      P0M1
      00000DC0H   SYMBOL    EDATA    INT       pin
      00000DC2H   SYMBOL    EDATA    INT       pull

      00FF2F35H   BLOCK     CODE     ---       LVL=0
      00000DC4H   SYMBOL    EDATA    INT       pin
      00000DC6H   SYMBOL    EDATA    INT       mode
      00FF2F35H   LINE      CODE     ---       #54
      00FF2F3DH   LINE      CODE     ---       #56
      00FF2F4AH   LINE      CODE     ---       #58
      00FF2F5AH   LINE      CODE     ---       #60
      00FF2F75H   LINE      CODE     ---       #61
      00FF2F90H   LINE      CODE     ---       #62
      00FF2F90H   LINE      CODE     ---       #63
      00FF2FA2H   LINE      CODE     ---       #65
      00FF2FBDH   LINE      CODE     ---       #66
      00FF2FD8H   LINE      CODE     ---       #67
      00FF2FD8H   LINE      CODE     ---       #68
      00FF2FEAH   LINE      CODE     ---       #70
      00FF3005H   LINE      CODE     ---       #71
      00FF3020H   LINE      CODE     ---       #72
      00FF3020H   LINE      CODE     ---       #74
      00FF3032H   LINE      CODE     ---       #76
      00FF304DH   LINE      CODE     ---       #77
      00FF3068H   LINE      CODE     ---       #78
      00FF3068H   LINE      CODE     ---       #79
      00FF307AH   LINE      CODE     ---       #81
      00FF3095H   LINE      CODE     ---       #82
      00FF30B0H   LINE      CODE     ---       #83
      00FF30B0H   LINE      CODE     ---       #84
      00FF30C2H   LINE      CODE     ---       #86
      00FF30DDH   LINE      CODE     ---       #87
      00FF30F8H   LINE      CODE     ---       #88
      00FF30F8H   LINE      CODE     ---       #89
      00FF310AH   LINE      CODE     ---       #91
      00FF3125H   LINE      CODE     ---       #92
      00FF3140H   LINE      CODE     ---       #93
      00FF3140H   LINE      CODE     ---       #94
      00FF3155H   LINE      CODE     ---       #96
      00FF3170H   LINE      CODE     ---       #97
      00FF318BH   LINE      CODE     ---       #98
      00FF318EH   LINE      CODE     ---       #100
L251 LINKER/LOCATER V4.66.93.0                                                        05/17/2024  20:59:59  PAGE 46


      00FF319DH   LINE      CODE     ---       #102
      00FF31ADH   LINE      CODE     ---       #104
      00FF31C8H   LINE      CODE     ---       #105
      00FF31E1H   LINE      CODE     ---       #106
      00FF31E1H   LINE      CODE     ---       #107
      00FF31F3H   LINE      CODE     ---       #109
      00FF320EH   LINE      CODE     ---       #110
      00FF3227H   LINE      CODE     ---       #111
      00FF3227H   LINE      CODE     ---       #112
      00FF3239H   LINE      CODE     ---       #114
      00FF3254H   LINE      CODE     ---       #115
      00FF326DH   LINE      CODE     ---       #116
      00FF326DH   LINE      CODE     ---       #118
      00FF327FH   LINE      CODE     ---       #120
      00FF329AH   LINE      CODE     ---       #121
      00FF32B3H   LINE      CODE     ---       #122
      00FF32B3H   LINE      CODE     ---       #123
      00FF32C5H   LINE      CODE     ---       #125
      00FF32E0H   LINE      CODE     ---       #126
      00FF32F9H   LINE      CODE     ---       #127
      00FF32F9H   LINE      CODE     ---       #128
      00FF330BH   LINE      CODE     ---       #130
      00FF3326H   LINE      CODE     ---       #131
      00FF333FH   LINE      CODE     ---       #132
      00FF333FH   LINE      CODE     ---       #133
      00FF3351H   LINE      CODE     ---       #135
      00FF336CH   LINE      CODE     ---       #136
      00FF3385H   LINE      CODE     ---       #137
      00FF3385H   LINE      CODE     ---       #138
      00FF339AH   LINE      CODE     ---       #140
      00FF33B5H   LINE      CODE     ---       #141
      00FF33CEH   LINE      CODE     ---       #142
      00FF33D1H   LINE      CODE     ---       #145
      00FF33E0H   LINE      CODE     ---       #147
      00FF33F0H   LINE      CODE     ---       #149
      00FF3409H   LINE      CODE     ---       #150
      00FF3424H   LINE      CODE     ---       #151
      00FF3424H   LINE      CODE     ---       #152
      00FF3436H   LINE      CODE     ---       #154
      00FF344FH   LINE      CODE     ---       #155
      00FF346AH   LINE      CODE     ---       #156
      00FF346AH   LINE      CODE     ---       #157
      00FF347CH   LINE      CODE     ---       #159
      00FF3495H   LINE      CODE     ---       #160
      00FF34B0H   LINE      CODE     ---       #161
      00FF34B0H   LINE      CODE     ---       #163
      00FF34C2H   LINE      CODE     ---       #165
      00FF34DBH   LINE      CODE     ---       #166
      00FF34F6H   LINE      CODE     ---       #167
      00FF34F6H   LINE      CODE     ---       #168
      00FF3508H   LINE      CODE     ---       #170
      00FF3521H   LINE      CODE     ---       #171
      00FF353CH   LINE      CODE     ---       #172
      00FF353CH   LINE      CODE     ---       #173
      00FF354EH   LINE      CODE     ---       #175
      00FF3567H   LINE      CODE     ---       #176
      00FF3582H   LINE      CODE     ---       #177
      00FF3582H   LINE      CODE     ---       #178
      00FF3594H   LINE      CODE     ---       #180
      00FF35ADH   LINE      CODE     ---       #181
      00FF35C8H   LINE      CODE     ---       #182
      00FF35C8H   LINE      CODE     ---       #183
      00FF35DDH   LINE      CODE     ---       #185
      00FF35F6H   LINE      CODE     ---       #186
      00FF3611H   LINE      CODE     ---       #187
L251 LINKER/LOCATER V4.66.93.0                                                        05/17/2024  20:59:59  PAGE 47


      00FF3614H   LINE      CODE     ---       #189
      00FF3623H   LINE      CODE     ---       #191
      00FF3633H   LINE      CODE     ---       #193
      00FF364CH   LINE      CODE     ---       #194
      00FF3665H   LINE      CODE     ---       #195
      00FF3665H   LINE      CODE     ---       #196
      00FF3677H   LINE      CODE     ---       #198
      00FF3690H   LINE      CODE     ---       #199
      00FF36A9H   LINE      CODE     ---       #200
      00FF36A9H   LINE      CODE     ---       #201
      00FF36BBH   LINE      CODE     ---       #203
      00FF36D4H   LINE      CODE     ---       #204
      00FF36EDH   LINE      CODE     ---       #205
      00FF36EDH   LINE      CODE     ---       #207
      00FF36FFH   LINE      CODE     ---       #209
      00FF3718H   LINE      CODE     ---       #210
      00FF3731H   LINE      CODE     ---       #211
      00FF3731H   LINE      CODE     ---       #212
      00FF3743H   LINE      CODE     ---       #214
      00FF375CH   LINE      CODE     ---       #215
      00FF3775H   LINE      CODE     ---       #216
      00FF3775H   LINE      CODE     ---       #217
      00FF3787H   LINE      CODE     ---       #219
      00FF37A0H   LINE      CODE     ---       #220
      00FF37B9H   LINE      CODE     ---       #221
      00FF37B9H   LINE      CODE     ---       #222
      00FF37CBH   LINE      CODE     ---       #224
      00FF37E4H   LINE      CODE     ---       #225
      00FF37FDH   LINE      CODE     ---       #226
      00FF37FDH   LINE      CODE     ---       #227
      00FF380FH   LINE      CODE     ---       #229
      00FF3828H   LINE      CODE     ---       #230
      00FF3841H   LINE      CODE     ---       #231
      00FF3841H   LINE      CODE     ---       #233
      ---         BLOCKEND  ---      ---       LVL=0

      ---         MODULE    ---      ---       zf_iic
      00000CB1H   PUBLIC    EDATA    BYTE      ?iic_init?BYTE
      000000D0H   SFRSYM    DATA     BYTE      PSW
      0000009DH   SFRSYM    DATA     BYTE      IRCBAND
      00000097H   SFRSYM    DATA     BYTE      AUXR2
      000000EFH   SFRSYM    DATA     BYTE      AUXINTIF
      000000FDH   SFRSYM    DATA     BYTE      S4CON
      000000ACH   SFRSYM    DATA     BYTE      S3CON
      0000009AH   SFRSYM    DATA     BYTE      S2CON
      000000B7H   SFRSYM    DATA     BYTE      IPH
      000000CDH   SFRSYM    DATA     BYTE      SPSTAT
      000000DDH   SFRSYM    DATA     BYTE      T4T3M
      000000C1H   SFRSYM    DATA     BYTE      WDT_CONTR
      000000DFH   SFRSYM    DATA     BYTE      IP3
      000000F4H   SFRSYM    DATA     BYTE      USBCON
      000000B5H   SFRSYM    DATA     BYTE      IP2
      000000FFH   SFRSYM    DATA     BYTE      RSTCFG
      000000C7H   SFRSYM    DATA     BYTE      IAP_CONTR
      000000F9H   SFRSYM    DATA     BYTE      LINICR
      0000008EH   SFRSYM    DATA     BYTE      AUXR
      000000AFH   SFRSYM    DATA     BYTE      IE2
      00000088H   SFRSYM    DATA     BYTE      TCON
      00000089H   SFRSYM    DATA     BYTE      TMOD
      00000098H   SFRSYM    DATA     BYTE      SCON
      000000F1H   SFRSYM    DATA     BYTE      CANICR
      00000087H   SFRSYM    DATA     BYTE      PCON
      000000BCH   SFRSYM    DATA     BYTE      ADC_CONTR
      000000E7H   SFRSYM    DATA     BYTE      CMPCR2
      000000E6H   SFRSYM    DATA     BYTE      CMPCR1
L251 LINKER/LOCATER V4.66.93.0                                                        05/17/2024  20:59:59  PAGE 48


      000000DEH   SFRSYM    DATA     BYTE      ADCCFG
      000000B8H   SFRSYM    DATA     BYTE      IP
      0000008FH   SFRSYM    DATA     BYTE      INTCLKO
      000000EEH   SFRSYM    DATA     BYTE      IP3H
      000000B6H   SFRSYM    DATA     BYTE      IP2H
      000000A8H   SFRSYM    DATA     BYTE      IE
      000000BBH   SFRSYM    DATA     BYTE      P_SW3
      000000BAH   SFRSYM    DATA     BYTE      P_SW2
      000000A2H   SFRSYM    DATA     BYTE      P_SW1
      000000CEH   SFRSYM    DATA     BYTE      SPCTL
      000000F8H   SFRSYM    DATA     BYTE      P7
      000000E8H   SFRSYM    DATA     BYTE      P6
      000000C8H   SFRSYM    DATA     BYTE      P5
      000000C0H   SFRSYM    DATA     BYTE      P4
      000000B0H   SFRSYM    DATA     BYTE      P3
      000000A0H   SFRSYM    DATA     BYTE      P2
      00000090H   SFRSYM    DATA     BYTE      P1
      00000080H   SFRSYM    DATA     BYTE      P0
      00000E14H   SYMBOL    EDATA    WORD      x
      00000E16H   SYMBOL    EDATA    BYTE      i
      00000E17H   SYMBOL    EDATA    WORD      count
      00000E19H   SYMBOL    EDATA    BYTE      ret
      00000EC9H   SYMBOL    EDATA    BYTE      ret
      00000E65H   SYMBOL    EDATA    CHAR      dat
      00000E66H   SYMBOL    EDATA    BYTE      ret
      00000ECAH   SYMBOL    EDATA    BYTE      ret
      00000ECBH   SYMBOL    EDATA    BYTE      ret
      00000ECCH   SYMBOL    EDATA    BYTE      ret
      00000CB5H   SYMBOL    EDATA    INT       iic_n
      00000CB7H   SYMBOL    EDATA    DWORD     wait_time
      00000E1AH   SYMBOL    EDATA    BYTE      dev_add
      00000E1BH   SYMBOL    EDATA    BYTE      reg
      00000E1CH   SYMBOL    EDATA    BYTE      dat
      00000CBBH   SYMBOL    EDATA    BYTE      dev_add
      00000CBCH   SYMBOL    EDATA    BYTE      reg
      00000CBDH   SYMBOL    EDATA    ---       dat
      00000C7FH   SYMBOL    EDATA    BYTE      dev_add
      00000C80H   SYMBOL    EDATA    BYTE      reg
      00000C81H   SYMBOL    EDATA    ---       dat
      00000C85H   SYMBOL    EDATA    BYTE      num
      00000E67H   SYMBOL    EDATA    INT       iic_n

      ---         MODULE    ---      ---       zf_nvic
      000000D0H   SFRSYM    DATA     BYTE      PSW
      0000009DH   SFRSYM    DATA     BYTE      IRCBAND
      00000097H   SFRSYM    DATA     BYTE      AUXR2
      000000EFH   SFRSYM    DATA     BYTE      AUXINTIF
      000000FDH   SFRSYM    DATA     BYTE      S4CON
      000000ACH   SFRSYM    DATA     BYTE      S3CON
      0000009AH   SFRSYM    DATA     BYTE      S2CON
      000000B7H   SFRSYM    DATA     BYTE      IPH
      000000CDH   SFRSYM    DATA     BYTE      SPSTAT
      000000DDH   SFRSYM    DATA     BYTE      T4T3M
      000000C1H   SFRSYM    DATA     BYTE      WDT_CONTR
      000000DFH   SFRSYM    DATA     BYTE      IP3
      000000F4H   SFRSYM    DATA     BYTE      USBCON
      000000B5H   SFRSYM    DATA     BYTE      IP2
      000000FFH   SFRSYM    DATA     BYTE      RSTCFG
      000000C7H   SFRSYM    DATA     BYTE      IAP_CONTR
      000000F9H   SFRSYM    DATA     BYTE      LINICR
      0000008EH   SFRSYM    DATA     BYTE      AUXR
      000000AFH   SFRSYM    DATA     BYTE      IE2
      00000088H   SFRSYM    DATA     BYTE      TCON
      00000089H   SFRSYM    DATA     BYTE      TMOD
      00000098H   SFRSYM    DATA     BYTE      SCON
L251 LINKER/LOCATER V4.66.93.0                                                        05/17/2024  20:59:59  PAGE 49


      000000F1H   SFRSYM    DATA     BYTE      CANICR
      00000087H   SFRSYM    DATA     BYTE      PCON
      000000BCH   SFRSYM    DATA     BYTE      ADC_CONTR
      000000E7H   SFRSYM    DATA     BYTE      CMPCR2
      000000E6H   SFRSYM    DATA     BYTE      CMPCR1
      000000DEH   SFRSYM    DATA     BYTE      ADCCFG
      000000B8H   SFRSYM    DATA     BYTE      IP
      0000008FH   SFRSYM    DATA     BYTE      INTCLKO
      000000EEH   SFRSYM    DATA     BYTE      IP3H
      000000B6H   SFRSYM    DATA     BYTE      IP2H
      000000A8H   SFRSYM    DATA     BYTE      IE
      000000BBH   SFRSYM    DATA     BYTE      P_SW3
      000000BAH   SFRSYM    DATA     BYTE      P_SW2
      000000A2H   SFRSYM    DATA     BYTE      P_SW1
      000000CEH   SFRSYM    DATA     BYTE      SPCTL
      000000F8H   SFRSYM    DATA     BYTE      P7
      000000E8H   SFRSYM    DATA     BYTE      P6
      000000C8H   SFRSYM    DATA     BYTE      P5
      000000C0H   SFRSYM    DATA     BYTE      P4
      000000B0H   SFRSYM    DATA     BYTE      P3
      000000A0H   SFRSYM    DATA     BYTE      P2
      00000090H   SFRSYM    DATA     BYTE      P1
      00000080H   SFRSYM    DATA     BYTE      P0
      00000E1DH   SYMBOL    EDATA    INT       irqn
      00000E1FH   SYMBOL    EDATA    BYTE      priority

      ---         MODULE    ---      ---       zf_pwm
      00FF72BAH   PUBLIC    CODE     ---       pwm_duty
      00FF6057H   PUBLIC    CODE     ---       pwm_set_gpio
      00FF5C7DH   PUBLIC    CODE     ---       pwm_init
      00FF912BH   PUBLIC    HCONST   ---       PWM_CCR_ADDR
      00FF914BH   PUBLIC    HCONST   ---       PWM_ARR_ADDR
      00FF9153H   PUBLIC    HCONST   ---       PWM_CCER_ADDR
      00FF9163H   PUBLIC    HCONST   ---       PWM_CCMR_ADDR
      00000844H   PUBLIC    EDATA    BYTE      ?pwm_init?BYTE
      00000858H   PUBLIC    EDATA    BYTE      ?pwm_freq?BYTE
      000000D0H   SFRSYM    DATA     BYTE      PSW
      0000009DH   SFRSYM    DATA     BYTE      IRCBAND
      00000097H   SFRSYM    DATA     BYTE      AUXR2
      000000EFH   SFRSYM    DATA     BYTE      AUXINTIF
      000000FDH   SFRSYM    DATA     BYTE      S4CON
      000000ACH   SFRSYM    DATA     BYTE      S3CON
      0000009AH   SFRSYM    DATA     BYTE      S2CON
      000000B7H   SFRSYM    DATA     BYTE      IPH
      000000CDH   SFRSYM    DATA     BYTE      SPSTAT
      000000DDH   SFRSYM    DATA     BYTE      T4T3M
      000000C1H   SFRSYM    DATA     BYTE      WDT_CONTR
      000000DFH   SFRSYM    DATA     BYTE      IP3
      000000F4H   SFRSYM    DATA     BYTE      USBCON
      000000B5H   SFRSYM    DATA     BYTE      IP2
      000000FFH   SFRSYM    DATA     BYTE      RSTCFG
      000000C7H   SFRSYM    DATA     BYTE      IAP_CONTR
      000000F9H   SFRSYM    DATA     BYTE      LINICR
      0000008EH   SFRSYM    DATA     BYTE      AUXR
      000000AFH   SFRSYM    DATA     BYTE      IE2
      00000088H   SFRSYM    DATA     BYTE      TCON
      00000089H   SFRSYM    DATA     BYTE      TMOD
      00000098H   SFRSYM    DATA     BYTE      SCON
      000000F1H   SFRSYM    DATA     BYTE      CANICR
      00000087H   SFRSYM    DATA     BYTE      PCON
      000000BCH   SFRSYM    DATA     BYTE      ADC_CONTR
      000000E7H   SFRSYM    DATA     BYTE      CMPCR2
      000000E6H   SFRSYM    DATA     BYTE      CMPCR1
      000000DEH   SFRSYM    DATA     BYTE      ADCCFG
      000000B8H   SFRSYM    DATA     BYTE      IP
L251 LINKER/LOCATER V4.66.93.0                                                        05/17/2024  20:59:59  PAGE 50


      0000008FH   SFRSYM    DATA     BYTE      INTCLKO
      000000EEH   SFRSYM    DATA     BYTE      IP3H
      000000B6H   SFRSYM    DATA     BYTE      IP2H
      000000A8H   SFRSYM    DATA     BYTE      IE
      000000BBH   SFRSYM    DATA     BYTE      P_SW3
      000000BAH   SFRSYM    DATA     BYTE      P_SW2
      000000A2H   SFRSYM    DATA     BYTE      P_SW1
      000000CEH   SFRSYM    DATA     BYTE      SPCTL
      000000F8H   SFRSYM    DATA     BYTE      P7
      000000E8H   SFRSYM    DATA     BYTE      P6
      000000C8H   SFRSYM    DATA     BYTE      P5
      000000C0H   SFRSYM    DATA     BYTE      P4
      000000B0H   SFRSYM    DATA     BYTE      P3
      000000A0H   SFRSYM    DATA     BYTE      P2
      00000090H   SFRSYM    DATA     BYTE      P1
      00000080H   SFRSYM    DATA     BYTE      P0

      00FF6057H   BLOCK     CODE     ---       LVL=0
      00000E69H   SYMBOL    EDATA    INT       pwmch
      00FF6057H   LINE      CODE     ---       #49
      00FF605BH   LINE      CODE     ---       #51
      00FF61D0H   LINE      CODE     ---       #53
      00FF61D0H   LINE      CODE     ---       #55
      00FF61DBH   LINE      CODE     ---       #56
      00FF61DEH   LINE      CODE     ---       #58
      00FF61DEH   LINE      CODE     ---       #60
      00FF61E9H   LINE      CODE     ---       #61
      00FF61ECH   LINE      CODE     ---       #63
      00FF61ECH   LINE      CODE     ---       #65
      00FF61F7H   LINE      CODE     ---       #66
      00FF61FAH   LINE      CODE     ---       #68
      00FF61FAH   LINE      CODE     ---       #70
      00FF6205H   LINE      CODE     ---       #71
      00FF6208H   LINE      CODE     ---       #73
      00FF6208H   LINE      CODE     ---       #75
      00FF6213H   LINE      CODE     ---       #76
      00FF6216H   LINE      CODE     ---       #78
      00FF6216H   LINE      CODE     ---       #80
      00FF6221H   LINE      CODE     ---       #81
      00FF6224H   LINE      CODE     ---       #84
      00FF6224H   LINE      CODE     ---       #86
      00FF622FH   LINE      CODE     ---       #87
      00FF6232H   LINE      CODE     ---       #89
      00FF6232H   LINE      CODE     ---       #91
      00FF623DH   LINE      CODE     ---       #92
      00FF6240H   LINE      CODE     ---       #94
      00FF6240H   LINE      CODE     ---       #96
      00FF624BH   LINE      CODE     ---       #97
      00FF624EH   LINE      CODE     ---       #99
      00FF624EH   LINE      CODE     ---       #101
      00FF6259H   LINE      CODE     ---       #102
      00FF625CH   LINE      CODE     ---       #104
      00FF625CH   LINE      CODE     ---       #106
      00FF6267H   LINE      CODE     ---       #107
      00FF626AH   LINE      CODE     ---       #109
      00FF626AH   LINE      CODE     ---       #111
      00FF6275H   LINE      CODE     ---       #112
      00FF6278H   LINE      CODE     ---       #115
      00FF6278H   LINE      CODE     ---       #117
      00FF6283H   LINE      CODE     ---       #118
      00FF6286H   LINE      CODE     ---       #120
      00FF6286H   LINE      CODE     ---       #122
      00FF6291H   LINE      CODE     ---       #123
      00FF6294H   LINE      CODE     ---       #125
      00FF6294H   LINE      CODE     ---       #127
L251 LINKER/LOCATER V4.66.93.0                                                        05/17/2024  20:59:59  PAGE 51


      00FF629FH   LINE      CODE     ---       #128
      00FF62A2H   LINE      CODE     ---       #130
      00FF62A2H   LINE      CODE     ---       #132
      00FF62ADH   LINE      CODE     ---       #133
      00FF62B0H   LINE      CODE     ---       #135
      00FF62B0H   LINE      CODE     ---       #137
      00FF62BBH   LINE      CODE     ---       #138
      00FF62BEH   LINE      CODE     ---       #140
      00FF62BEH   LINE      CODE     ---       #142
      00FF62C9H   LINE      CODE     ---       #143
      00FF62CCH   LINE      CODE     ---       #147
      00FF62CCH   LINE      CODE     ---       #149
      00FF62D7H   LINE      CODE     ---       #150
      00FF62DAH   LINE      CODE     ---       #152
      00FF62DAH   LINE      CODE     ---       #154
      00FF62E5H   LINE      CODE     ---       #155
      00FF62E8H   LINE      CODE     ---       #157
      00FF62E8H   LINE      CODE     ---       #159
      00FF62F3H   LINE      CODE     ---       #160
      00FF62F6H   LINE      CODE     ---       #162
      00FF62F6H   LINE      CODE     ---       #164
      00FF6301H   LINE      CODE     ---       #165
      00FF6304H   LINE      CODE     ---       #167
      00FF6304H   LINE      CODE     ---       #169
      00FF630FH   LINE      CODE     ---       #170
      00FF6312H   LINE      CODE     ---       #172
      00FF6312H   LINE      CODE     ---       #174
      00FF631DH   LINE      CODE     ---       #175
      00FF6320H   LINE      CODE     ---       #177
      00FF6320H   LINE      CODE     ---       #179
      00FF632BH   LINE      CODE     ---       #180
      00FF632EH   LINE      CODE     ---       #182
      00FF632EH   LINE      CODE     ---       #184
      00FF6339H   LINE      CODE     ---       #185
      00FF633CH   LINE      CODE     ---       #189
      00FF633CH   LINE      CODE     ---       #191
      00FF6347H   LINE      CODE     ---       #192
      00FF634AH   LINE      CODE     ---       #194
      00FF634AH   LINE      CODE     ---       #196
      00FF6355H   LINE      CODE     ---       #197
      00FF6358H   LINE      CODE     ---       #199
      00FF6358H   LINE      CODE     ---       #201
      00FF6361H   LINE      CODE     ---       #202
      00FF6364H   LINE      CODE     ---       #204
      00FF6364H   LINE      CODE     ---       #206
      00FF636FH   LINE      CODE     ---       #207
      00FF6372H   LINE      CODE     ---       #210
      00FF6372H   LINE      CODE     ---       #212
      00FF637DH   LINE      CODE     ---       #213
      00FF6380H   LINE      CODE     ---       #215
      00FF6380H   LINE      CODE     ---       #217
      00FF638BH   LINE      CODE     ---       #218
      00FF638EH   LINE      CODE     ---       #220
      00FF638EH   LINE      CODE     ---       #222
      00FF6399H   LINE      CODE     ---       #223
      00FF639BH   LINE      CODE     ---       #225
      00FF639BH   LINE      CODE     ---       #227
      00FF63A6H   LINE      CODE     ---       #228
      00FF63A8H   LINE      CODE     ---       #232
      00FF63A8H   LINE      CODE     ---       #234
      00FF63B3H   LINE      CODE     ---       #235
      00FF63B5H   LINE      CODE     ---       #237
      00FF63B5H   LINE      CODE     ---       #239
      00FF63C0H   LINE      CODE     ---       #240
      00FF63C2H   LINE      CODE     ---       #242
L251 LINKER/LOCATER V4.66.93.0                                                        05/17/2024  20:59:59  PAGE 52


      00FF63C2H   LINE      CODE     ---       #244
      00FF63CDH   LINE      CODE     ---       #245
      00FF63CFH   LINE      CODE     ---       #247
      00FF63CFH   LINE      CODE     ---       #249
      00FF63DAH   LINE      CODE     ---       #250
      00FF63DCH   LINE      CODE     ---       #254
      00FF63DCH   LINE      CODE     ---       #256
      00FF63E7H   LINE      CODE     ---       #257
      00FF63E9H   LINE      CODE     ---       #259
      00FF63E9H   LINE      CODE     ---       #261
      00FF63F4H   LINE      CODE     ---       #262
      00FF63F6H   LINE      CODE     ---       #264
      00FF63F6H   LINE      CODE     ---       #266
      00FF6401H   LINE      CODE     ---       #267
      00FF6403H   LINE      CODE     ---       #269
      00FF6403H   LINE      CODE     ---       #271
      00FF640EH   LINE      CODE     ---       #272
      00FF640EH   LINE      CODE     ---       #275
      00FF640EH   LINE      CODE     ---       #277
      ---         BLOCKEND  ---      ---       LVL=0

      00FF5C7DH   BLOCK     CODE     ---       LVL=0
      00000844H   SYMBOL    EDATA    INT       pwmch
      00000846H   SYMBOL    EDATA    DWORD     freq
      0000084AH   SYMBOL    EDATA    DWORD     duty
      00FF5C85H   BLOCK     CODE     NEAR LAB  LVL=1
      0000084EH   SYMBOL    EDATA    DWORD     match_temp
      00000852H   SYMBOL    EDATA    DWORD     period_temp
      00000856H   SYMBOL    EDATA    WORD      freq_div
      ---         BLOCKEND  ---      ---       LVL=1
      00FF5C7DH   LINE      CODE     ---       #290
      00FF5C85H   LINE      CODE     ---       #291
      00FF5C85H   LINE      CODE     ---       #295
      00FF5C8BH   LINE      CODE     ---       #298
      00FF5C8EH   LINE      CODE     ---       #301
      00FF5C95H   LINE      CODE     ---       #305
      00FF5CA8H   LINE      CODE     ---       #306
      00FF5CB7H   LINE      CODE     ---       #307
      00FF5CD2H   LINE      CODE     ---       #309
      00FF5CDCH   LINE      CODE     ---       #311
      00FF5D03H   LINE      CODE     ---       #312
      00FF5D05H   LINE      CODE     ---       #315
      00FF5D13H   LINE      CODE     ---       #316
      00FF5D13H   LINE      CODE     ---       #319
      00FF5D22H   LINE      CODE     ---       #322
      00FF5D53H   LINE      CODE     ---       #323
      00FF5D8AH   LINE      CODE     ---       #326
      00FF5DDCH   LINE      CODE     ---       #329
      00FF5DEFH   LINE      CODE     ---       #330
      00FF5DFEH   LINE      CODE     ---       #332
      00FF5E0BH   LINE      CODE     ---       #333
      00FF5E18H   LINE      CODE     ---       #334
      00FF5E1BH   LINE      CODE     ---       #337
      00FF5E59H   LINE      CODE     ---       #338
      00FF5E8CH   LINE      CODE     ---       #341
      00FF5EECH   LINE      CODE     ---       #345
      00FF5EFFH   LINE      CODE     ---       #346
      00FF5F0EH   LINE      CODE     ---       #348
      00FF5F1BH   LINE      CODE     ---       #349
      00FF5F28H   LINE      CODE     ---       #350
      00FF5F28H   LINE      CODE     ---       #353
      00FF5F5AH   LINE      CODE     ---       #354
      00FF5F92H   LINE      CODE     ---       #357
      00FF5FC0H   LINE      CODE     ---       #358
      00FF5FF4H   LINE      CODE     ---       #361
L251 LINKER/LOCATER V4.66.93.0                                                        05/17/2024  20:59:59  PAGE 53


      00FF6025H   LINE      CODE     ---       #362
      00FF6056H   LINE      CODE     ---       #367
      ---         BLOCKEND  ---      ---       LVL=0

      00FF72BAH   BLOCK     CODE     ---       LVL=0
      0000091FH   SYMBOL    EDATA    INT       pwmch
      00000921H   SYMBOL    EDATA    DWORD     duty
      00FF72C2H   BLOCK     CODE     NEAR LAB  LVL=1
      00000925H   SYMBOL    EDATA    DWORD     match_temp
      00000929H   SYMBOL    EDATA    DWORD     arr
      ---         BLOCKEND  ---      ---       LVL=1
      00FF72BAH   LINE      CODE     ---       #377
      00FF72C2H   LINE      CODE     ---       #378
      00FF72C2H   LINE      CODE     ---       #380
      00FF732EH   LINE      CODE     ---       #384
      00FF7338H   LINE      CODE     ---       #386
      00FF735FH   LINE      CODE     ---       #387
      00FF7361H   LINE      CODE     ---       #390
      00FF736FH   LINE      CODE     ---       #391
      00FF736FH   LINE      CODE     ---       #396
      00FF739DH   LINE      CODE     ---       #397
      00FF73D1H   LINE      CODE     ---       #401
      ---         BLOCKEND  ---      ---       LVL=0
      00000858H   SYMBOL    EDATA    INT       pwmch
      0000085AH   SYMBOL    EDATA    DWORD     freq
      0000085EH   SYMBOL    EDATA    DWORD     duty
      00000862H   SYMBOL    EDATA    DWORD     match_temp
      00000866H   SYMBOL    EDATA    DWORD     period_temp
      0000086AH   SYMBOL    EDATA    WORD      freq_div

      ---         MODULE    ---      ---       zf_spi
      00000C80H   PUBLIC    EDATA    BYTE      ?spi_init?BYTE
      000000CFH   SFRSYM    DATA     BYTE      SPDAT
      000000D0H   SFRSYM    DATA     BYTE      PSW
      0000009DH   SFRSYM    DATA     BYTE      IRCBAND
      00000097H   SFRSYM    DATA     BYTE      AUXR2
      000000EFH   SFRSYM    DATA     BYTE      AUXINTIF
      000000FDH   SFRSYM    DATA     BYTE      S4CON
      000000ACH   SFRSYM    DATA     BYTE      S3CON
      0000009AH   SFRSYM    DATA     BYTE      S2CON
      000000B7H   SFRSYM    DATA     BYTE      IPH
      000000CDH   SFRSYM    DATA     BYTE      SPSTAT
      000000DDH   SFRSYM    DATA     BYTE      T4T3M
      000000C1H   SFRSYM    DATA     BYTE      WDT_CONTR
      000000DFH   SFRSYM    DATA     BYTE      IP3
      000000F4H   SFRSYM    DATA     BYTE      USBCON
      000000B5H   SFRSYM    DATA     BYTE      IP2
      000000FFH   SFRSYM    DATA     BYTE      RSTCFG
      000000C7H   SFRSYM    DATA     BYTE      IAP_CONTR
      000000F9H   SFRSYM    DATA     BYTE      LINICR
      0000008EH   SFRSYM    DATA     BYTE      AUXR
      000000AFH   SFRSYM    DATA     BYTE      IE2
      00000088H   SFRSYM    DATA     BYTE      TCON
      00000089H   SFRSYM    DATA     BYTE      TMOD
      00000098H   SFRSYM    DATA     BYTE      SCON
      000000F1H   SFRSYM    DATA     BYTE      CANICR
      00000087H   SFRSYM    DATA     BYTE      PCON
      000000BCH   SFRSYM    DATA     BYTE      ADC_CONTR
      000000E7H   SFRSYM    DATA     BYTE      CMPCR2
      000000E6H   SFRSYM    DATA     BYTE      CMPCR1
      000000DEH   SFRSYM    DATA     BYTE      ADCCFG
      000000B8H   SFRSYM    DATA     BYTE      IP
      0000008FH   SFRSYM    DATA     BYTE      INTCLKO
      000000EEH   SFRSYM    DATA     BYTE      IP3H
      000000B6H   SFRSYM    DATA     BYTE      IP2H
L251 LINKER/LOCATER V4.66.93.0                                                        05/17/2024  20:59:59  PAGE 54


      000000A8H   SFRSYM    DATA     BYTE      IE
      000000BBH   SFRSYM    DATA     BYTE      P_SW3
      000000BAH   SFRSYM    DATA     BYTE      P_SW2
      000000A2H   SFRSYM    DATA     BYTE      P_SW1
      000000CEH   SFRSYM    DATA     BYTE      SPCTL
      000000F8H   SFRSYM    DATA     BYTE      P7
      000000E8H   SFRSYM    DATA     BYTE      P6
      000000C8H   SFRSYM    DATA     BYTE      P5
      000000C0H   SFRSYM    DATA     BYTE      P4
      000000B0H   SFRSYM    DATA     BYTE      P3
      000000A0H   SFRSYM    DATA     BYTE      P2
      00000090H   SFRSYM    DATA     BYTE      P1
      00000080H   SFRSYM    DATA     BYTE      P0
      00000C86H   SYMBOL    EDATA    INT       spi_n
      00000C88H   SYMBOL    EDATA    BYTE      mode
      00000C89H   SYMBOL    EDATA    INT       mstr
      00000C8BH   SYMBOL    EDATA    INT       baud
      00000ECDH   SYMBOL    EDATA    BYTE      dat
      00000E6BH   SYMBOL    EDATA    INT       spi_n
      00000ECEH   SYMBOL    EDATA    BYTE      mode

      ---         MODULE    ---      ---       zf_tim
      00FF7B17H   PUBLIC    CODE     ---       ctimer_count_read
      00FF74E9H   PUBLIC    CODE     ---       pit_timer_ms
      00FF8531H   PUBLIC    CODE     ---       ctimer_count_init
      00FF83CCH   PUBLIC    CODE     ---       ctimer_count_clean
      000000D0H   SFRSYM    DATA     BYTE      PSW
      0000009DH   SFRSYM    DATA     BYTE      IRCBAND
      00000097H   SFRSYM    DATA     BYTE      AUXR2
      000000EFH   SFRSYM    DATA     BYTE      AUXINTIF
      000000FDH   SFRSYM    DATA     BYTE      S4CON
      000000ACH   SFRSYM    DATA     BYTE      S3CON
      0000009AH   SFRSYM    DATA     BYTE      S2CON
      000000B7H   SFRSYM    DATA     BYTE      IPH
      000000CDH   SFRSYM    DATA     BYTE      SPSTAT
      000000DDH   SFRSYM    DATA     BYTE      T4T3M
      000000C1H   SFRSYM    DATA     BYTE      WDT_CONTR
      00000088H.6 SFRSYM    DATA     BIT       TR1
      00000088H.4 SFRSYM    DATA     BIT       TR0
      000000D3H   SFRSYM    DATA     BYTE      T4L
      000000D5H   SFRSYM    DATA     BYTE      T3L
      000000D7H   SFRSYM    DATA     BYTE      T2L
      0000008BH   SFRSYM    DATA     BYTE      TL1
      0000008AH   SFRSYM    DATA     BYTE      TL0
      000000D2H   SFRSYM    DATA     BYTE      T4H
      000000D4H   SFRSYM    DATA     BYTE      T3H
      000000D6H   SFRSYM    DATA     BYTE      T2H
      0000008DH   SFRSYM    DATA     BYTE      TH1
      0000008CH   SFRSYM    DATA     BYTE      TH0
      000000DFH   SFRSYM    DATA     BYTE      IP3
      000000F4H   SFRSYM    DATA     BYTE      USBCON
      000000B5H   SFRSYM    DATA     BYTE      IP2
      000000FFH   SFRSYM    DATA     BYTE      RSTCFG
      000000A8H.3 SFRSYM    DATA     BIT       ET1
      000000A8H.1 SFRSYM    DATA     BIT       ET0
      000000C7H   SFRSYM    DATA     BYTE      IAP_CONTR
      000000F9H   SFRSYM    DATA     BYTE      LINICR
      0000008EH   SFRSYM    DATA     BYTE      AUXR
      000000AFH   SFRSYM    DATA     BYTE      IE2
      00000088H   SFRSYM    DATA     BYTE      TCON
      00000089H   SFRSYM    DATA     BYTE      TMOD
      00000098H   SFRSYM    DATA     BYTE      SCON
      000000F1H   SFRSYM    DATA     BYTE      CANICR
      00000087H   SFRSYM    DATA     BYTE      PCON
      000000BCH   SFRSYM    DATA     BYTE      ADC_CONTR
L251 LINKER/LOCATER V4.66.93.0                                                        05/17/2024  20:59:59  PAGE 55


      000000E7H   SFRSYM    DATA     BYTE      CMPCR2
      000000E6H   SFRSYM    DATA     BYTE      CMPCR1
      000000DEH   SFRSYM    DATA     BYTE      ADCCFG
      000000B8H   SFRSYM    DATA     BYTE      IP
      0000008FH   SFRSYM    DATA     BYTE      INTCLKO
      000000EEH   SFRSYM    DATA     BYTE      IP3H
      000000B6H   SFRSYM    DATA     BYTE      IP2H
      000000A8H   SFRSYM    DATA     BYTE      IE
      000000BBH   SFRSYM    DATA     BYTE      P_SW3
      000000BAH   SFRSYM    DATA     BYTE      P_SW2
      000000A2H   SFRSYM    DATA     BYTE      P_SW1
      000000CEH   SFRSYM    DATA     BYTE      SPCTL
      000000F8H   SFRSYM    DATA     BYTE      P7
      000000E8H   SFRSYM    DATA     BYTE      P6
      000000C8H   SFRSYM    DATA     BYTE      P5
      000000C0H   SFRSYM    DATA     BYTE      P4
      000000B0H   SFRSYM    DATA     BYTE      P3
      000000A0H   SFRSYM    DATA     BYTE      P2
      00000090H   SFRSYM    DATA     BYTE      P1
      00000080H   SFRSYM    DATA     BYTE      P0

      00FF8531H   BLOCK     CODE     ---       LVL=0
      00000E6DH   SYMBOL    EDATA    INT       tim_n
      00FF8531H   LINE      CODE     ---       #39
      00FF8535H   LINE      CODE     ---       #42
      00FF8549H   LINE      CODE     ---       #44
      00FF8549H   LINE      CODE     ---       #46
      00FF854CH   LINE      CODE     ---       #47
      00FF854FH   LINE      CODE     ---       #48
      00FF8552H   LINE      CODE     ---       #49
      00FF8555H   LINE      CODE     ---       #50
      00FF8557H   LINE      CODE     ---       #53
      00FF8557H   LINE      CODE     ---       #55
      00FF855AH   LINE      CODE     ---       #56
      00FF855DH   LINE      CODE     ---       #57
      00FF8560H   LINE      CODE     ---       #58
      00FF8563H   LINE      CODE     ---       #59
      00FF8565H   LINE      CODE     ---       #62
      00FF8565H   LINE      CODE     ---       #64
      00FF8568H   LINE      CODE     ---       #65
      00FF856BH   LINE      CODE     ---       #66
      00FF856EH   LINE      CODE     ---       #67
      00FF8570H   LINE      CODE     ---       #70
      00FF8570H   LINE      CODE     ---       #72
      00FF8573H   LINE      CODE     ---       #73
      00FF8576H   LINE      CODE     ---       #74
      00FF8579H   LINE      CODE     ---       #75
      00FF857BH   LINE      CODE     ---       #78
      00FF857BH   LINE      CODE     ---       #80
      00FF857EH   LINE      CODE     ---       #81
      00FF8581H   LINE      CODE     ---       #82
      00FF8584H   LINE      CODE     ---       #83
      00FF8584H   LINE      CODE     ---       #86
      00FF8584H   LINE      CODE     ---       #87
      ---         BLOCKEND  ---      ---       LVL=0

      00FF7B17H   BLOCK     CODE     ---       LVL=0
      00000DC8H   SYMBOL    EDATA    INT       tim_n
      00FF7B1BH   BLOCK     CODE     NEAR LAB  LVL=1
      00000DCAH   SYMBOL    EDATA    WORD      dat
      ---         BLOCKEND  ---      ---       LVL=1
      00FF7B17H   LINE      CODE     ---       #95
      00FF7B1BH   LINE      CODE     ---       #96
      00FF7B1BH   LINE      CODE     ---       #97
      00FF7B21H   LINE      CODE     ---       #99
L251 LINKER/LOCATER V4.66.93.0                                                        05/17/2024  20:59:59  PAGE 56


      00FF7B3CH   LINE      CODE     ---       #101
      00FF7B3CH   LINE      CODE     ---       #103
      00FF7B48H   LINE      CODE     ---       #104
      00FF7B56H   LINE      CODE     ---       #105
      00FF7B58H   LINE      CODE     ---       #107
      00FF7B58H   LINE      CODE     ---       #109
      00FF7B64H   LINE      CODE     ---       #110
      00FF7B72H   LINE      CODE     ---       #111
      00FF7B74H   LINE      CODE     ---       #113
      00FF7B74H   LINE      CODE     ---       #115
      00FF7B80H   LINE      CODE     ---       #116
      00FF7B8EH   LINE      CODE     ---       #117
      00FF7B90H   LINE      CODE     ---       #119
      00FF7B90H   LINE      CODE     ---       #121
      00FF7B9CH   LINE      CODE     ---       #122
      00FF7BAAH   LINE      CODE     ---       #123
      00FF7BACH   LINE      CODE     ---       #125
      00FF7BACH   LINE      CODE     ---       #127
      00FF7BB8H   LINE      CODE     ---       #128
      00FF7BC6H   LINE      CODE     ---       #129
      00FF7BC6H   LINE      CODE     ---       #132
      00FF7BC6H   LINE      CODE     ---       #133
      00FF7BCAH   LINE      CODE     ---       #134
      ---         BLOCKEND  ---      ---       LVL=0

      00FF83CCH   BLOCK     CODE     ---       LVL=0
      00000E6FH   SYMBOL    EDATA    INT       tim_n
      00FF83CCH   LINE      CODE     ---       #143
      00FF83D0H   LINE      CODE     ---       #145
      00FF83E4H   LINE      CODE     ---       #147
      00FF83E4H   LINE      CODE     ---       #149
      00FF83E7H   LINE      CODE     ---       #150
      00FF83EAH   LINE      CODE     ---       #151
      00FF83EDH   LINE      CODE     ---       #152
      00FF83F0H   LINE      CODE     ---       #153
      00FF83F2H   LINE      CODE     ---       #155
      00FF83F2H   LINE      CODE     ---       #157
      00FF83F5H   LINE      CODE     ---       #158
      00FF83F8H   LINE      CODE     ---       #159
      00FF83FBH   LINE      CODE     ---       #160
      00FF83FEH   LINE      CODE     ---       #161
      00FF8400H   LINE      CODE     ---       #163
      00FF8400H   LINE      CODE     ---       #165
      00FF8403H   LINE      CODE     ---       #166
      00FF8406H   LINE      CODE     ---       #167
      00FF8409H   LINE      CODE     ---       #168
      00FF840CH   LINE      CODE     ---       #169
      00FF840EH   LINE      CODE     ---       #171
      00FF840EH   LINE      CODE     ---       #173
      00FF8411H   LINE      CODE     ---       #174
      00FF8414H   LINE      CODE     ---       #175
      00FF8417H   LINE      CODE     ---       #176
      00FF841AH   LINE      CODE     ---       #177
      00FF841CH   LINE      CODE     ---       #179
      00FF841CH   LINE      CODE     ---       #181
      00FF841FH   LINE      CODE     ---       #182
      00FF8422H   LINE      CODE     ---       #183
      00FF8425H   LINE      CODE     ---       #184
      00FF8428H   LINE      CODE     ---       #185
      00FF8428H   LINE      CODE     ---       #187
      00FF8428H   LINE      CODE     ---       #188
      ---         BLOCKEND  ---      ---       LVL=0

      00FF74E9H   BLOCK     CODE     ---       LVL=0
      00000CC1H   SYMBOL    EDATA    INT       tim_n
L251 LINKER/LOCATER V4.66.93.0                                                        05/17/2024  20:59:59  PAGE 57


      00000CC3H   SYMBOL    EDATA    WORD      time_ms
      00FF74F1H   BLOCK     CODE     NEAR LAB  LVL=1
      00000CC5H   SYMBOL    EDATA    WORD      temp
      ---         BLOCKEND  ---      ---       LVL=1
      00FF74E9H   LINE      CODE     ---       #198
      00FF74F1H   LINE      CODE     ---       #199
      00FF74F1H   LINE      CODE     ---       #201
      00FF7514H   LINE      CODE     ---       #203
      00FF751EH   LINE      CODE     ---       #205
      00FF7522H   LINE      CODE     ---       #206
      00FF7528H   LINE      CODE     ---       #207
      00FF7532H   LINE      CODE     ---       #208
      00FF7535H   LINE      CODE     ---       #209
      00FF7538H   LINE      CODE     ---       #210
      00FF753BH   LINE      CODE     ---       #211
      00FF7547H   LINE      CODE     ---       #213
      00FF754BH   LINE      CODE     ---       #214
      00FF7551H   LINE      CODE     ---       #215
      00FF755BH   LINE      CODE     ---       #216
      00FF755EH   LINE      CODE     ---       #217
      00FF7561H   LINE      CODE     ---       #218
      00FF7563H   LINE      CODE     ---       #219
      00FF756FH   LINE      CODE     ---       #221
      00FF7575H   LINE      CODE     ---       #222
      00FF757FH   LINE      CODE     ---       #223
      00FF7582H   LINE      CODE     ---       #224
      00FF7585H   LINE      CODE     ---       #225
      00FF7587H   LINE      CODE     ---       #226
      00FF7593H   LINE      CODE     ---       #228
      00FF7599H   LINE      CODE     ---       #229
      00FF75A3H   LINE      CODE     ---       #230
      00FF75A6H   LINE      CODE     ---       #231
      00FF75A9H   LINE      CODE     ---       #232
      00FF75ABH   LINE      CODE     ---       #233
      00FF75B7H   LINE      CODE     ---       #235
      00FF75BDH   LINE      CODE     ---       #236
      00FF75C7H   LINE      CODE     ---       #237
      00FF75CAH   LINE      CODE     ---       #238
      00FF75CDH   LINE      CODE     ---       #239
      ---         BLOCKEND  ---      ---       LVL=0

      ---         MODULE    ---      ---       zf_uart
      00FF7F27H   PUBLIC    CODE     ---       uart_putchar
      00FF67ABH   PUBLIC    CODE     ---       uart_init
      00000D69H   PUBLIC    EDATA    ---       busy
      0000092DH   PUBLIC    EDATA    BYTE      ?uart_init?BYTE
      000000D0H   SFRSYM    DATA     BYTE      PSW
      0000009DH   SFRSYM    DATA     BYTE      IRCBAND
      00000097H   SFRSYM    DATA     BYTE      AUXR2
      000000EFH   SFRSYM    DATA     BYTE      AUXINTIF
      000000FDH   SFRSYM    DATA     BYTE      S4CON
      000000ACH   SFRSYM    DATA     BYTE      S3CON
      0000009AH   SFRSYM    DATA     BYTE      S2CON
      000000FEH   SFRSYM    DATA     BYTE      S4BUF
      000000ADH   SFRSYM    DATA     BYTE      S3BUF
      0000009BH   SFRSYM    DATA     BYTE      S2BUF
      000000B7H   SFRSYM    DATA     BYTE      IPH
      000000CDH   SFRSYM    DATA     BYTE      SPSTAT
      000000DDH   SFRSYM    DATA     BYTE      T4T3M
      000000C1H   SFRSYM    DATA     BYTE      WDT_CONTR
      00000088H.6 SFRSYM    DATA     BIT       TR1
      000000D3H   SFRSYM    DATA     BYTE      T4L
      000000D5H   SFRSYM    DATA     BYTE      T3L
      000000D7H   SFRSYM    DATA     BYTE      T2L
      0000008BH   SFRSYM    DATA     BYTE      TL1
L251 LINKER/LOCATER V4.66.93.0                                                        05/17/2024  20:59:59  PAGE 58


      000000D2H   SFRSYM    DATA     BYTE      T4H
      000000D4H   SFRSYM    DATA     BYTE      T3H
      000000D6H   SFRSYM    DATA     BYTE      T2H
      0000008DH   SFRSYM    DATA     BYTE      TH1
      000000DFH   SFRSYM    DATA     BYTE      IP3
      000000F4H   SFRSYM    DATA     BYTE      USBCON
      000000B5H   SFRSYM    DATA     BYTE      IP2
      000000FFH   SFRSYM    DATA     BYTE      RSTCFG
      000000C7H   SFRSYM    DATA     BYTE      IAP_CONTR
      000000F9H   SFRSYM    DATA     BYTE      LINICR
      0000008EH   SFRSYM    DATA     BYTE      AUXR
      000000AFH   SFRSYM    DATA     BYTE      IE2
      00000088H   SFRSYM    DATA     BYTE      TCON
      00000089H   SFRSYM    DATA     BYTE      TMOD
      00000098H   SFRSYM    DATA     BYTE      SCON
      000000F1H   SFRSYM    DATA     BYTE      CANICR
      00000087H   SFRSYM    DATA     BYTE      PCON
      00000099H   SFRSYM    DATA     BYTE      SBUF
      000000BCH   SFRSYM    DATA     BYTE      ADC_CONTR
      000000E7H   SFRSYM    DATA     BYTE      CMPCR2
      000000E6H   SFRSYM    DATA     BYTE      CMPCR1
      000000DEH   SFRSYM    DATA     BYTE      ADCCFG
      000000B8H   SFRSYM    DATA     BYTE      IP
      000000A8H.4 SFRSYM    DATA     BIT       ES
      0000008FH   SFRSYM    DATA     BYTE      INTCLKO
      000000EEH   SFRSYM    DATA     BYTE      IP3H
      000000B6H   SFRSYM    DATA     BYTE      IP2H
      000000A8H   SFRSYM    DATA     BYTE      IE
      000000BBH   SFRSYM    DATA     BYTE      P_SW3
      000000BAH   SFRSYM    DATA     BYTE      P_SW2
      000000A2H   SFRSYM    DATA     BYTE      P_SW1
      000000CEH   SFRSYM    DATA     BYTE      SPCTL
      000000F8H   SFRSYM    DATA     BYTE      P7
      000000E8H   SFRSYM    DATA     BYTE      P6
      000000C8H   SFRSYM    DATA     BYTE      P5
      000000C0H   SFRSYM    DATA     BYTE      P4
      000000C9H   SFRSYM    DATA     BYTE      P5M1
      000000B0H   SFRSYM    DATA     BYTE      P3
      000000CAH   SFRSYM    DATA     BYTE      P5M0
      000000A0H   SFRSYM    DATA     BYTE      P2
      00000090H   SFRSYM    DATA     BYTE      P1
      00000080H   SFRSYM    DATA     BYTE      P0

      00FF67ABH   BLOCK     CODE     ---       LVL=0
      0000092DH   SYMBOL    EDATA    INT       uart_n
      0000092FH   SYMBOL    EDATA    INT       uart_rx_pin
      00000931H   SYMBOL    EDATA    INT       uart_tx_pin
      00000933H   SYMBOL    EDATA    DWORD     baud
      00000937H   SYMBOL    EDATA    INT       tim_n
      00FF67BBH   BLOCK     CODE     NEAR LAB  LVL=1
      00000939H   SYMBOL    EDATA    WORD      brt
      ---         BLOCKEND  ---      ---       LVL=1
      00FF67ABH   LINE      CODE     ---       #45
      00FF67BBH   LINE      CODE     ---       #46
      00FF67BBH   LINE      CODE     ---       #49
      00FF67E2H   LINE      CODE     ---       #52
      00FF6804H   LINE      CODE     ---       #54
      00FF6804H   LINE      CODE     ---       #56
      00FF6810H   LINE      CODE     ---       #58
      00FF6813H   LINE      CODE     ---       #59
      00FF6817H   LINE      CODE     ---       #60
      00FF681DH   LINE      CODE     ---       #61
      00FF6827H   LINE      CODE     ---       #62
      00FF682AH   LINE      CODE     ---       #63
      00FF682DH   LINE      CODE     ---       #64
L251 LINKER/LOCATER V4.66.93.0                                                        05/17/2024  20:59:59  PAGE 59


      00FF6832H   LINE      CODE     ---       #65
      00FF6834H   LINE      CODE     ---       #66
      00FF6840H   LINE      CODE     ---       #68
      00FF6843H   LINE      CODE     ---       #69
      00FF6849H   LINE      CODE     ---       #70
      00FF6853H   LINE      CODE     ---       #71
      00FF6856H   LINE      CODE     ---       #72
      00FF6856H   LINE      CODE     ---       #73
      00FF6859H   LINE      CODE     ---       #74
      00FF686FH   LINE      CODE     ---       #76
      00FF6873H   LINE      CODE     ---       #77
      00FF6875H   LINE      CODE     ---       #78
      00FF688DH   LINE      CODE     ---       #80
      00FF6890H   LINE      CODE     ---       #81
      00FF6892H   LINE      CODE     ---       #82
      00FF68AAH   LINE      CODE     ---       #84
      00FF68ADH   LINE      CODE     ---       #85
      00FF68AFH   LINE      CODE     ---       #86
      00FF68C7H   LINE      CODE     ---       #88
      00FF68CAH   LINE      CODE     ---       #89
      00FF68CAH   LINE      CODE     ---       #90
      00FF68CFH   LINE      CODE     ---       #91
      00FF68D2H   LINE      CODE     ---       #92
      00FF68D5H   LINE      CODE     ---       #95
      00FF68D5H   LINE      CODE     ---       #97
      00FF68E1H   LINE      CODE     ---       #99
      00FF68E4H   LINE      CODE     ---       #100
      00FF68EAH   LINE      CODE     ---       #101
      00FF68F4H   LINE      CODE     ---       #102
      00FF68F7H   LINE      CODE     ---       #103
      00FF68F7H   LINE      CODE     ---       #105
      00FF68FAH   LINE      CODE     ---       #106
      00FF6912H   LINE      CODE     ---       #108
      00FF6916H   LINE      CODE     ---       #109
      00FF6918H   LINE      CODE     ---       #110
      00FF6930H   LINE      CODE     ---       #112
      00FF6933H   LINE      CODE     ---       #113
      00FF6933H   LINE      CODE     ---       #115
      00FF6936H   LINE      CODE     ---       #116
      00FF693BH   LINE      CODE     ---       #117
      00FF693EH   LINE      CODE     ---       #120
      00FF693EH   LINE      CODE     ---       #122
      00FF694AH   LINE      CODE     ---       #124
      00FF694DH   LINE      CODE     ---       #125
      00FF6953H   LINE      CODE     ---       #126
      00FF695DH   LINE      CODE     ---       #127
      00FF6960H   LINE      CODE     ---       #128
      00FF6962H   LINE      CODE     ---       #129
      00FF696EH   LINE      CODE     ---       #131
      00FF6971H   LINE      CODE     ---       #132
      00FF6977H   LINE      CODE     ---       #133
      00FF6981H   LINE      CODE     ---       #134
      00FF6984H   LINE      CODE     ---       #135
      00FF6984H   LINE      CODE     ---       #137
      00FF6987H   LINE      CODE     ---       #138
      00FF699FH   LINE      CODE     ---       #140
      00FF69A3H   LINE      CODE     ---       #141
      00FF69A5H   LINE      CODE     ---       #142
      00FF69BDH   LINE      CODE     ---       #144
      00FF69C0H   LINE      CODE     ---       #145
      00FF69C0H   LINE      CODE     ---       #147
      00FF69C3H   LINE      CODE     ---       #148
      00FF69C8H   LINE      CODE     ---       #149
      00FF69CBH   LINE      CODE     ---       #152
      00FF69CBH   LINE      CODE     ---       #154
L251 LINKER/LOCATER V4.66.93.0                                                        05/17/2024  20:59:59  PAGE 60


      00FF69D7H   LINE      CODE     ---       #156
      00FF69DAH   LINE      CODE     ---       #157
      00FF69E0H   LINE      CODE     ---       #158
      00FF69EAH   LINE      CODE     ---       #159
      00FF69EEH   LINE      CODE     ---       #160
      00FF69F0H   LINE      CODE     ---       #161
      00FF69FCH   LINE      CODE     ---       #163
      00FF69FFH   LINE      CODE     ---       #164
      00FF6A05H   LINE      CODE     ---       #165
      00FF6A0FH   LINE      CODE     ---       #166
      00FF6A12H   LINE      CODE     ---       #167
      00FF6A12H   LINE      CODE     ---       #169
      00FF6A15H   LINE      CODE     ---       #170
      00FF6A2DH   LINE      CODE     ---       #172
      00FF6A31H   LINE      CODE     ---       #173
      00FF6A33H   LINE      CODE     ---       #174
      00FF6A4BH   LINE      CODE     ---       #176
      00FF6A4EH   LINE      CODE     ---       #177
      00FF6A52H   LINE      CODE     ---       #178
      00FF6A55H   LINE      CODE     ---       #179
      00FF6A55H   LINE      CODE     ---       #180
      00FF6A58H   LINE      CODE     ---       #181
      00FF6A5DH   LINE      CODE     ---       #182
      00FF6A5DH   LINE      CODE     ---       #185
      00FF6A5DH   LINE      CODE     ---       #187
      ---         BLOCKEND  ---      ---       LVL=0

      00FF7F27H   BLOCK     CODE     ---       LVL=0
      00000E20H   SYMBOL    EDATA    INT       uart_n
      00000E22H   SYMBOL    EDATA    BYTE      dat
      00FF7F27H   LINE      CODE     ---       #196
      00FF7F2FH   LINE      CODE     ---       #198
      00FF7F41H   LINE      CODE     ---       #200
      00FF7F41H   LINE      CODE     ---       #201
      00FF7F4AH   LINE      CODE     ---       #202
      00FF7F50H   LINE      CODE     ---       #203
      00FF7F56H   LINE      CODE     ---       #204
      00FF7F58H   LINE      CODE     ---       #205
      00FF7F58H   LINE      CODE     ---       #206
      00FF7F61H   LINE      CODE     ---       #207
      00FF7F67H   LINE      CODE     ---       #208
      00FF7F6DH   LINE      CODE     ---       #209
      00FF7F6FH   LINE      CODE     ---       #210
      00FF7F6FH   LINE      CODE     ---       #211
      00FF7F78H   LINE      CODE     ---       #212
      00FF7F7EH   LINE      CODE     ---       #213
      00FF7F84H   LINE      CODE     ---       #214
      00FF7F86H   LINE      CODE     ---       #215
      00FF7F86H   LINE      CODE     ---       #216
      00FF7F8FH   LINE      CODE     ---       #217
      00FF7F95H   LINE      CODE     ---       #218
      00FF7F9BH   LINE      CODE     ---       #219
      00FF7F9BH   LINE      CODE     ---       #220
      00FF7F9BH   LINE      CODE     ---       #221
      ---         BLOCKEND  ---      ---       LVL=0
      00000BFFH   SYMBOL    EDATA    INT       uart_n
      00000C01H   SYMBOL    EDATA    ---       p
      00000C05H   SYMBOL    EDATA    WORD      len
      00000CC7H   SYMBOL    EDATA    INT       uart_n
      00000CC9H   SYMBOL    EDATA    ---       str

      ---         MODULE    ---      ---       zf_fifo
      00FF81CDH   PUBLIC    CODE     ---       fifo_head_offset
      00FF7061H   PUBLIC    CODE     ---       fifo_write_buffer
      0000097FH   PUBLIC    EDATA    BYTE      ?fifo_init?BYTE
L251 LINKER/LOCATER V4.66.93.0                                                        05/17/2024  20:59:59  PAGE 61


      000008EFH   PUBLIC    EDATA    BYTE      ?fifo_write_buffer?BYTE
      00000894H   PUBLIC    EDATA    BYTE      ?fifo_read_buffer?BYTE
      000000D0H   SFRSYM    DATA     BYTE      PSW
      0000009DH   SFRSYM    DATA     BYTE      IRCBAND
      00000097H   SFRSYM    DATA     BYTE      AUXR2
      000000EFH   SFRSYM    DATA     BYTE      AUXINTIF
      000000FDH   SFRSYM    DATA     BYTE      S4CON
      000000ACH   SFRSYM    DATA     BYTE      S3CON
      0000009AH   SFRSYM    DATA     BYTE      S2CON
      000000B7H   SFRSYM    DATA     BYTE      IPH
      000000CDH   SFRSYM    DATA     BYTE      SPSTAT
      000000DDH   SFRSYM    DATA     BYTE      T4T3M
      000000C1H   SFRSYM    DATA     BYTE      WDT_CONTR
      000000DFH   SFRSYM    DATA     BYTE      IP3
      000000F4H   SFRSYM    DATA     BYTE      USBCON
      000000B5H   SFRSYM    DATA     BYTE      IP2
      000000FFH   SFRSYM    DATA     BYTE      RSTCFG
      000000C7H   SFRSYM    DATA     BYTE      IAP_CONTR
      000000F9H   SFRSYM    DATA     BYTE      LINICR
      0000008EH   SFRSYM    DATA     BYTE      AUXR
      000000AFH   SFRSYM    DATA     BYTE      IE2
      00000088H   SFRSYM    DATA     BYTE      TCON
      00000089H   SFRSYM    DATA     BYTE      TMOD
      00000098H   SFRSYM    DATA     BYTE      SCON
      000000F1H   SFRSYM    DATA     BYTE      CANICR
      00000087H   SFRSYM    DATA     BYTE      PCON
      000000BCH   SFRSYM    DATA     BYTE      ADC_CONTR
      000000E7H   SFRSYM    DATA     BYTE      CMPCR2
      000000E6H   SFRSYM    DATA     BYTE      CMPCR1
      000000DEH   SFRSYM    DATA     BYTE      ADCCFG
      000000B8H   SFRSYM    DATA     BYTE      IP
      0000008FH   SFRSYM    DATA     BYTE      INTCLKO
      000000EEH   SFRSYM    DATA     BYTE      IP3H
      000000B6H   SFRSYM    DATA     BYTE      IP2H
      000000A8H   SFRSYM    DATA     BYTE      IE
      000000BBH   SFRSYM    DATA     BYTE      P_SW3
      000000BAH   SFRSYM    DATA     BYTE      P_SW2
      000000A2H   SFRSYM    DATA     BYTE      P_SW1
      000000CEH   SFRSYM    DATA     BYTE      SPCTL
      000000F8H   SFRSYM    DATA     BYTE      P7
      000000E8H   SFRSYM    DATA     BYTE      P6
      000000C8H   SFRSYM    DATA     BYTE      P5
      000000C0H   SFRSYM    DATA     BYTE      P4
      000000B0H   SFRSYM    DATA     BYTE      P3
      000000A0H   SFRSYM    DATA     BYTE      P2
      00000090H   SFRSYM    DATA     BYTE      P1
      00000080H   SFRSYM    DATA     BYTE      P0
      0000097FH   SYMBOL    EDATA    ---       fifo
      00000983H   SYMBOL    EDATA    ---       buffer_addr
      00000987H   SYMBOL    EDATA    DWORD     size

      00FF81CDH   BLOCK     CODE     ---       LVL=0
      00000C07H   SYMBOL    EDATA    ---       fifo
      00000C0BH   SYMBOL    EDATA    DWORD     offset
      00FF81CDH   LINE      CODE     ---       #61
      00FF81D5H   LINE      CODE     ---       #63
      00FF81EFH   LINE      CODE     ---       #65
      00FF81F1H   LINE      CODE     ---       #67
      00FF8216H   LINE      CODE     ---       #68
      00FF8236H   LINE      CODE     ---       #69
      ---         BLOCKEND  ---      ---       LVL=0
      00000C0FH   SYMBOL    EDATA    ---       fifo
      00000C13H   SYMBOL    EDATA    DWORD     offset
      00000DCCH   SYMBOL    EDATA    ---       fifo
      00000DD0H   SYMBOL    EDATA    ---       fifo
L251 LINKER/LOCATER V4.66.93.0                                                        05/17/2024  20:59:59  PAGE 62



      00FF7061H   BLOCK     CODE     ---       LVL=0
      000008EFH   SYMBOL    EDATA    ---       fifo
      000008F3H   SYMBOL    EDATA    ---       dat
      000008F7H   SYMBOL    EDATA    DWORD     length
      00FF7069H   BLOCK     CODE     NEAR LAB  LVL=1
      000008FBH   SYMBOL    EDATA    DWORD     temp_length
      ---         BLOCKEND  ---      ---       LVL=1
      00FF7061H   LINE      CODE     ---       #120
      00FF7069H   LINE      CODE     ---       #121
      00FF7069H   LINE      CODE     ---       #124
      00FF7083H   LINE      CODE     ---       #126
      00FF70A5H   LINE      CODE     ---       #128
      00FF70B4H   LINE      CODE     ---       #130
      00FF70DDH   LINE      CODE     ---       #131
      00FF70E8H   LINE      CODE     ---       #132
      00FF70F8H   LINE      CODE     ---       #133
      00FF712BH   LINE      CODE     ---       #134
      00FF713CH   LINE      CODE     ---       #135
      00FF713EH   LINE      CODE     ---       #138
      00FF7167H   LINE      CODE     ---       #139
      00FF7172H   LINE      CODE     ---       #140
      00FF7172H   LINE      CODE     ---       #142
      00FF718EH   LINE      CODE     ---       #143
      00FF7190H   LINE      CODE     ---       #146
      00FF7196H   LINE      CODE     ---       #147
      00FF7196H   LINE      CODE     ---       #149
      00FF7198H   LINE      CODE     ---       #150
      ---         BLOCKEND  ---      ---       LVL=0
      00000894H   SYMBOL    EDATA    ---       fifo
      00000898H   SYMBOL    EDATA    ---       dat
      0000089CH   SYMBOL    EDATA    ---       length
      000008A0H   SYMBOL    EDATA    INT       flag
      000008A2H   SYMBOL    EDATA    BYTE      data_check
      000008A3H   SYMBOL    EDATA    DWORD     temp_length

      ---         MODULE    ---      ---       SEEKFREE_18TFT
      000004BFH   PUBLIC    EDATA    BYTE      ?lcd_showfloat_simspi?BYTE
      000004EFH   PUBLIC    EDATA    BYTE      ?lcd_showfloat?BYTE
      000000D0H   SFRSYM    DATA     BYTE      PSW
      0000009DH   SFRSYM    DATA     BYTE      IRCBAND
      00000097H   SFRSYM    DATA     BYTE      AUXR2
      000000EFH   SFRSYM    DATA     BYTE      AUXINTIF
      000000FDH   SFRSYM    DATA     BYTE      S4CON
      000000ACH   SFRSYM    DATA     BYTE      S3CON
      0000009AH   SFRSYM    DATA     BYTE      S2CON
      000000B7H   SFRSYM    DATA     BYTE      IPH
      000000CDH   SFRSYM    DATA     BYTE      SPSTAT
      000000DDH   SFRSYM    DATA     BYTE      T4T3M
      000000C1H   SFRSYM    DATA     BYTE      WDT_CONTR
      000000DFH   SFRSYM    DATA     BYTE      IP3
      000000F4H   SFRSYM    DATA     BYTE      USBCON
      000000B5H   SFRSYM    DATA     BYTE      IP2
      000000FFH   SFRSYM    DATA     BYTE      RSTCFG
      000000C7H   SFRSYM    DATA     BYTE      IAP_CONTR
      000000F9H   SFRSYM    DATA     BYTE      LINICR
      0000008EH   SFRSYM    DATA     BYTE      AUXR
      000000AFH   SFRSYM    DATA     BYTE      IE2
      000000A0H.5 SFRSYM    DATA     BIT       P25
      00000088H   SFRSYM    DATA     BYTE      TCON
      00000089H   SFRSYM    DATA     BYTE      TMOD
      000000A0H.3 SFRSYM    DATA     BIT       P23
      00000098H   SFRSYM    DATA     BYTE      SCON
      000000A0H.2 SFRSYM    DATA     BIT       P22
      000000A0H.1 SFRSYM    DATA     BIT       P21
L251 LINKER/LOCATER V4.66.93.0                                                        05/17/2024  20:59:59  PAGE 63


      000000A0H.0 SFRSYM    DATA     BIT       P20
      000000F1H   SFRSYM    DATA     BYTE      CANICR
      00000087H   SFRSYM    DATA     BYTE      PCON
      000000BCH   SFRSYM    DATA     BYTE      ADC_CONTR
      000000E7H   SFRSYM    DATA     BYTE      CMPCR2
      000000E6H   SFRSYM    DATA     BYTE      CMPCR1
      000000DEH   SFRSYM    DATA     BYTE      ADCCFG
      000000B8H   SFRSYM    DATA     BYTE      IP
      0000008FH   SFRSYM    DATA     BYTE      INTCLKO
      000000EEH   SFRSYM    DATA     BYTE      IP3H
      000000B6H   SFRSYM    DATA     BYTE      IP2H
      000000A8H   SFRSYM    DATA     BYTE      IE
      000000BBH   SFRSYM    DATA     BYTE      P_SW3
      000000BAH   SFRSYM    DATA     BYTE      P_SW2
      000000A2H   SFRSYM    DATA     BYTE      P_SW1
      000000CEH   SFRSYM    DATA     BYTE      SPCTL
      000000F8H   SFRSYM    DATA     BYTE      P7
      000000E8H   SFRSYM    DATA     BYTE      P6
      000000C8H   SFRSYM    DATA     BYTE      P5
      000000C0H   SFRSYM    DATA     BYTE      P4
      000000B0H   SFRSYM    DATA     BYTE      P3
      000000A0H   SFRSYM    DATA     BYTE      P2
      00000090H   SFRSYM    DATA     BYTE      P1
      00000080H   SFRSYM    DATA     BYTE      P0
      00000E71H   SYMBOL    EDATA    BYTE      dat
      00000E72H   SYMBOL    EDATA    BYTE      i
      00000E73H   SYMBOL    EDATA    BYTE      dat
      00000E74H   SYMBOL    EDATA    BYTE      i
      00000E23H   SYMBOL    EDATA    WORD      dat
      00000E25H   SYMBOL    EDATA    BYTE      i
      00000C17H   SYMBOL    EDATA    WORD      x_start
      00000C19H   SYMBOL    EDATA    WORD      y_start
      00000C1BH   SYMBOL    EDATA    WORD      x_end
      00000C1DH   SYMBOL    EDATA    WORD      y_end
      00000DD4H   SYMBOL    EDATA    INT       color
      00000DD6H   SYMBOL    EDATA    BYTE      i
      00000DD7H   SYMBOL    EDATA    BYTE      j
      00000CCDH   SYMBOL    EDATA    WORD      x
      00000CCFH   SYMBOL    EDATA    WORD      y
      00000CD1H   SYMBOL    EDATA    WORD      color
      00000C1FH   SYMBOL    EDATA    WORD      x
      00000C21H   SYMBOL    EDATA    WORD      y
      00000C23H   SYMBOL    EDATA    CHAR      dat
      00000C24H   SYMBOL    EDATA    BYTE      i
      00000C25H   SYMBOL    EDATA    BYTE      j
      00000C26H   SYMBOL    EDATA    BYTE      temp
      00000ADEH   SYMBOL    EDATA    WORD      x
      00000AE0H   SYMBOL    EDATA    WORD      y
      00000AE2H   SYMBOL    EDATA    ---       dat
      00000AE6H   SYMBOL    EDATA    WORD      j
      00000B4CH   SYMBOL    EDATA    WORD      x
      00000B4EH   SYMBOL    EDATA    WORD      y
      00000B50H   SYMBOL    EDATA    CHAR      dat
      00000B51H   SYMBOL    EDATA    ---       a
      00000B54H   SYMBOL    EDATA    BYTE      i
      00000B55H   SYMBOL    EDATA    WORD      x
      00000B57H   SYMBOL    EDATA    WORD      y
      00000B59H   SYMBOL    EDATA    BYTE      dat
      00000B5AH   SYMBOL    EDATA    ---       a
      00000B5DH   SYMBOL    EDATA    BYTE      i
      0000098BH   SYMBOL    EDATA    WORD      x
      0000098DH   SYMBOL    EDATA    WORD      y
      0000098FH   SYMBOL    EDATA    INT       dat
      00000991H   SYMBOL    EDATA    ---       a
      00000996H   SYMBOL    EDATA    BYTE      i
L251 LINKER/LOCATER V4.66.93.0                                                        05/17/2024  20:59:59  PAGE 64


      00000997H   SYMBOL    EDATA    WORD      x
      00000999H   SYMBOL    EDATA    WORD      y
      0000099BH   SYMBOL    EDATA    WORD      dat
      0000099DH   SYMBOL    EDATA    ---       a
      000009A2H   SYMBOL    EDATA    BYTE      i
      0000063EH   SYMBOL    EDATA    WORD      x
      00000640H   SYMBOL    EDATA    WORD      y
      00000642H   SYMBOL    EDATA    LONG      dat
      00000646H   SYMBOL    EDATA    BYTE      num
      00000647H   SYMBOL    EDATA    ---       buff
      00000669H   SYMBOL    EDATA    BYTE      length
      000004BFH   SYMBOL    EDATA    WORD      x
      000004C1H   SYMBOL    EDATA    WORD      y
      000004C3H   SYMBOL    EDATA    FLOAT     dat
      000004C7H   SYMBOL    EDATA    BYTE      num
      000004C8H   SYMBOL    EDATA    BYTE      pointnum
      000004C9H   SYMBOL    EDATA    BYTE      length
      000004CAH   SYMBOL    EDATA    ---       buff
      000004ECH   SYMBOL    EDATA    CHAR      start
      000004EDH   SYMBOL    EDATA    CHAR      end
      000004EEH   SYMBOL    EDATA    CHAR      point
      00000ECFH   SYMBOL    EDATA    BYTE      dat
      00000ED0H   SYMBOL    EDATA    BYTE      dat
      00000DD8H   SYMBOL    EDATA    WORD      dat
      00000DDAH   SYMBOL    EDATA    ---       dat1
      00000C27H   SYMBOL    EDATA    WORD      x_start
      00000C29H   SYMBOL    EDATA    WORD      y_start
      00000C2BH   SYMBOL    EDATA    WORD      x_end
      00000C2DH   SYMBOL    EDATA    WORD      y_end
      00000DDCH   SYMBOL    EDATA    INT       color
      00000DDEH   SYMBOL    EDATA    BYTE      i
      00000DDFH   SYMBOL    EDATA    BYTE      j
      00000CD3H   SYMBOL    EDATA    WORD      x
      00000CD5H   SYMBOL    EDATA    WORD      y
      00000CD7H   SYMBOL    EDATA    WORD      color
      00000C2FH   SYMBOL    EDATA    WORD      x
      00000C31H   SYMBOL    EDATA    WORD      y
      00000C33H   SYMBOL    EDATA    CHAR      dat
      00000C34H   SYMBOL    EDATA    BYTE      i
      00000C35H   SYMBOL    EDATA    BYTE      j
      00000C36H   SYMBOL    EDATA    BYTE      temp
      00000AE8H   SYMBOL    EDATA    WORD      x
      00000AEAH   SYMBOL    EDATA    WORD      y
      00000AECH   SYMBOL    EDATA    ---       dat
      00000AF0H   SYMBOL    EDATA    WORD      j
      00000B5EH   SYMBOL    EDATA    WORD      x
      00000B60H   SYMBOL    EDATA    WORD      y
      00000B62H   SYMBOL    EDATA    CHAR      dat
      00000B63H   SYMBOL    EDATA    ---       a
      00000B66H   SYMBOL    EDATA    BYTE      i
      00000B67H   SYMBOL    EDATA    WORD      x
      00000B69H   SYMBOL    EDATA    WORD      y
      00000B6BH   SYMBOL    EDATA    BYTE      dat
      00000B6CH   SYMBOL    EDATA    ---       a
      00000B6FH   SYMBOL    EDATA    BYTE      i
      000009A3H   SYMBOL    EDATA    WORD      x
      000009A5H   SYMBOL    EDATA    WORD      y
      000009A7H   SYMBOL    EDATA    INT       dat
      000009A9H   SYMBOL    EDATA    ---       a
      000009AEH   SYMBOL    EDATA    BYTE      i
      000009AFH   SYMBOL    EDATA    WORD      x
      000009B1H   SYMBOL    EDATA    WORD      y
      000009B3H   SYMBOL    EDATA    WORD      dat
      000009B5H   SYMBOL    EDATA    ---       a
      000009BAH   SYMBOL    EDATA    BYTE      i
L251 LINKER/LOCATER V4.66.93.0                                                        05/17/2024  20:59:59  PAGE 65


      0000066AH   SYMBOL    EDATA    WORD      x
      0000066CH   SYMBOL    EDATA    WORD      y
      0000066EH   SYMBOL    EDATA    LONG      dat
      00000672H   SYMBOL    EDATA    BYTE      num
      00000673H   SYMBOL    EDATA    ---       buff
      00000695H   SYMBOL    EDATA    BYTE      length
      000004EFH   SYMBOL    EDATA    WORD      x
      000004F1H   SYMBOL    EDATA    WORD      y
      000004F3H   SYMBOL    EDATA    FLOAT     dat
      000004F7H   SYMBOL    EDATA    BYTE      num
      000004F8H   SYMBOL    EDATA    BYTE      pointnum
      000004F9H   SYMBOL    EDATA    BYTE      length
      000004FAH   SYMBOL    EDATA    ---       buff
      0000051CH   SYMBOL    EDATA    CHAR      start
      0000051DH   SYMBOL    EDATA    CHAR      end
      0000051EH   SYMBOL    EDATA    CHAR      point
      000009BBH   SYMBOL    EDATA    ---       p
      000009BFH   SYMBOL    EDATA    INT       i
      000009C1H   SYMBOL    EDATA    INT       j
      000009C3H   SYMBOL    EDATA    INT       k
      000009C5H   SYMBOL    EDATA    BYTE      picH
      000009C6H   SYMBOL    EDATA    BYTE      picL

      ---         MODULE    ---      ---       SEEKFREE_ABSOLUTE_ENCODER
      000000D0H   SFRSYM    DATA     BYTE      PSW
      0000009DH   SFRSYM    DATA     BYTE      IRCBAND
      00000097H   SFRSYM    DATA     BYTE      AUXR2
      000000EFH   SFRSYM    DATA     BYTE      AUXINTIF
      000000FDH   SFRSYM    DATA     BYTE      S4CON
      000000ACH   SFRSYM    DATA     BYTE      S3CON
      0000009AH   SFRSYM    DATA     BYTE      S2CON
      000000B7H   SFRSYM    DATA     BYTE      IPH
      000000CDH   SFRSYM    DATA     BYTE      SPSTAT
      000000DDH   SFRSYM    DATA     BYTE      T4T3M
      000000C1H   SFRSYM    DATA     BYTE      WDT_CONTR
      000000DFH   SFRSYM    DATA     BYTE      IP3
      000000F4H   SFRSYM    DATA     BYTE      USBCON
      000000B5H   SFRSYM    DATA     BYTE      IP2
      000000FFH   SFRSYM    DATA     BYTE      RSTCFG
      000000C7H   SFRSYM    DATA     BYTE      IAP_CONTR
      000000F9H   SFRSYM    DATA     BYTE      LINICR
      0000008EH   SFRSYM    DATA     BYTE      AUXR
      000000AFH   SFRSYM    DATA     BYTE      IE2
      000000A0H.7 SFRSYM    DATA     BIT       P27
      000000A0H.6 SFRSYM    DATA     BIT       P26
      000000A0H.5 SFRSYM    DATA     BIT       P25
      000000A0H.4 SFRSYM    DATA     BIT       P24
      00000088H   SFRSYM    DATA     BYTE      TCON
      00000089H   SFRSYM    DATA     BYTE      TMOD
      00000098H   SFRSYM    DATA     BYTE      SCON
      000000A0H.2 SFRSYM    DATA     BIT       P22
      000000F1H   SFRSYM    DATA     BYTE      CANICR
      00000087H   SFRSYM    DATA     BYTE      PCON
      000000BCH   SFRSYM    DATA     BYTE      ADC_CONTR
      000000E7H   SFRSYM    DATA     BYTE      CMPCR2
      000000E6H   SFRSYM    DATA     BYTE      CMPCR1
      000000DEH   SFRSYM    DATA     BYTE      ADCCFG
      000000B8H   SFRSYM    DATA     BYTE      IP
      0000008FH   SFRSYM    DATA     BYTE      INTCLKO
      000000EEH   SFRSYM    DATA     BYTE      IP3H
      000000B6H   SFRSYM    DATA     BYTE      IP2H
      000000A8H   SFRSYM    DATA     BYTE      IE
      000000BBH   SFRSYM    DATA     BYTE      P_SW3
      000000BAH   SFRSYM    DATA     BYTE      P_SW2
      000000A2H   SFRSYM    DATA     BYTE      P_SW1
L251 LINKER/LOCATER V4.66.93.0                                                        05/17/2024  20:59:59  PAGE 66


      000000CEH   SFRSYM    DATA     BYTE      SPCTL
      000000F8H   SFRSYM    DATA     BYTE      P7
      000000E8H   SFRSYM    DATA     BYTE      P6
      000000C8H   SFRSYM    DATA     BYTE      P5
      000000C0H   SFRSYM    DATA     BYTE      P4
      000000B0H   SFRSYM    DATA     BYTE      P3
      000000A0H   SFRSYM    DATA     BYTE      P2
      00000090H   SFRSYM    DATA     BYTE      P1
      00000080H   SFRSYM    DATA     BYTE      P0
      00000E75H   SYMBOL    EDATA    WORD      x
      00000E77H   SYMBOL    EDATA    BYTE      byte
      00000E78H   SYMBOL    EDATA    BYTE      i
      00000E79H   SYMBOL    EDATA    BYTE      cmd
      00000E7AH   SYMBOL    EDATA    BYTE      val
      00000D6EH   SYMBOL    EDATA    BYTE      cmd
      00000D6FH   SYMBOL    EDATA    ---       val
      00000E26H   SYMBOL    EDATA    BYTE      cmd
      00000E27H   SYMBOL    EDATA    BYTE      val
      00000E28H   SYMBOL    EDATA    BYTE      dat
      00000D73H   SYMBOL    EDATA    BYTE      cmd
      00000D74H   SYMBOL    EDATA    ---       val
      00000E7BH   SYMBOL    EDATA    WORD      zero_position
      00000E7DH   SYMBOL    EDATA    WORD      angle
      00000ED1H   SYMBOL    EDATA    BYTE      val
      00000ED2H   SYMBOL    EDATA    BYTE      byte
      00000E7FH   SYMBOL    EDATA    BYTE      cmd
      00000E80H   SYMBOL    EDATA    BYTE      val
      00000D78H   SYMBOL    EDATA    BYTE      cmd
      00000D79H   SYMBOL    EDATA    ---       val
      00000E29H   SYMBOL    EDATA    BYTE      cmd
      00000E2AH   SYMBOL    EDATA    BYTE      val
      00000E2BH   SYMBOL    EDATA    BYTE      dat
      00000D7DH   SYMBOL    EDATA    BYTE      cmd
      00000D7EH   SYMBOL    EDATA    ---       val
      00000E81H   SYMBOL    EDATA    WORD      zero_position
      00000E83H   SYMBOL    EDATA    WORD      angle
      00000ED3H   SYMBOL    EDATA    BYTE      val

      ---         MODULE    ---      ---       SEEKFREE_BLUETOOTH_CH9141
      00FF0066H   PUBLIC    CODE     ---       bluetooth_ch9141_uart_callback
      000000D0H   SFRSYM    DATA     BYTE      PSW
      0000009DH   SFRSYM    DATA     BYTE      IRCBAND
      00000097H   SFRSYM    DATA     BYTE      AUXR2
      000000EFH   SFRSYM    DATA     BYTE      AUXINTIF
      000000FDH   SFRSYM    DATA     BYTE      S4CON
      000000ACH   SFRSYM    DATA     BYTE      S3CON
      0000009AH   SFRSYM    DATA     BYTE      S2CON
      000000FEH   SFRSYM    DATA     BYTE      S4BUF
      000000B7H   SFRSYM    DATA     BYTE      IPH
      000000CDH   SFRSYM    DATA     BYTE      SPSTAT
      000000DDH   SFRSYM    DATA     BYTE      T4T3M
      000000C1H   SFRSYM    DATA     BYTE      WDT_CONTR
      000000DFH   SFRSYM    DATA     BYTE      IP3
      000000F4H   SFRSYM    DATA     BYTE      USBCON
      000000B5H   SFRSYM    DATA     BYTE      IP2
      000000FFH   SFRSYM    DATA     BYTE      RSTCFG
      000000C7H   SFRSYM    DATA     BYTE      IAP_CONTR
      000000F9H   SFRSYM    DATA     BYTE      LINICR
      0000008EH   SFRSYM    DATA     BYTE      AUXR
      000000AFH   SFRSYM    DATA     BYTE      IE2
      00000080H.7 SFRSYM    DATA     BIT       P07
      00000088H   SFRSYM    DATA     BYTE      TCON
      00000089H   SFRSYM    DATA     BYTE      TMOD
      00000098H   SFRSYM    DATA     BYTE      SCON
      000000F1H   SFRSYM    DATA     BYTE      CANICR
L251 LINKER/LOCATER V4.66.93.0                                                        05/17/2024  20:59:59  PAGE 67


      00000087H   SFRSYM    DATA     BYTE      PCON
      000000BCH   SFRSYM    DATA     BYTE      ADC_CONTR
      000000E7H   SFRSYM    DATA     BYTE      CMPCR2
      000000E6H   SFRSYM    DATA     BYTE      CMPCR1
      000000DEH   SFRSYM    DATA     BYTE      ADCCFG
      000000B8H   SFRSYM    DATA     BYTE      IP
      0000008FH   SFRSYM    DATA     BYTE      INTCLKO
      000000EEH   SFRSYM    DATA     BYTE      IP3H
      000000B6H   SFRSYM    DATA     BYTE      IP2H
      000000A8H   SFRSYM    DATA     BYTE      IE
      000000BBH   SFRSYM    DATA     BYTE      P_SW3
      000000BAH   SFRSYM    DATA     BYTE      P_SW2
      000000A2H   SFRSYM    DATA     BYTE      P_SW1
      000000CEH   SFRSYM    DATA     BYTE      SPCTL
      000000F8H   SFRSYM    DATA     BYTE      P7
      000000E8H   SFRSYM    DATA     BYTE      P6
      000000C8H   SFRSYM    DATA     BYTE      P5
      000000C0H   SFRSYM    DATA     BYTE      P4
      000000B0H   SFRSYM    DATA     BYTE      P3
      000000A0H   SFRSYM    DATA     BYTE      P2
      00000090H   SFRSYM    DATA     BYTE      P1
      00000080H   SFRSYM    DATA     BYTE      P0
      000003C3H   SYMBOL    EDATA    ---       bluetooth_ch9141_buffer
      00000403H   SYMBOL    EDATA    BYTE      bluetooth_ch9141_data
      00000404H   SYMBOL    EDATA    ---       bluetooth_ch9141_fifo

      00FF0066H   BLOCK     CODE     ---       LVL=0
      00FF0066H   LINE      CODE     ---       #67
      00FF0066H   LINE      CODE     ---       #70
      00FF006CH   LINE      CODE     ---       #71
      00FF007FH   LINE      CODE     ---       #72
      ---         BLOCKEND  ---      ---       LVL=0
      00000AF2H   SYMBOL    EDATA    ---       buff
      00000AF6H   SYMBOL    EDATA    DWORD     len
      00000AFAH   SYMBOL    EDATA    WORD      time_count
      000009C7H   SYMBOL    EDATA    ---       buff
      000009CBH   SYMBOL    EDATA    DWORD     len
      000009CFH   SYMBOL    EDATA    DWORD     data_len

      ---         MODULE    ---      ---       SEEKFREE_DL1A
      00000E2CH   PUBLIC    EDATA    WORD      dl1a_distance_mm
      00000E2EH   PUBLIC    EDATA    BYTE      dl1a_finsh_flag
      000000D0H   SFRSYM    DATA     BYTE      PSW
      0000009DH   SFRSYM    DATA     BYTE      IRCBAND
      00000097H   SFRSYM    DATA     BYTE      AUXR2
      000000EFH   SFRSYM    DATA     BYTE      AUXINTIF
      000000FDH   SFRSYM    DATA     BYTE      S4CON
      000000ACH   SFRSYM    DATA     BYTE      S3CON
      0000009AH   SFRSYM    DATA     BYTE      S2CON
      000000B7H   SFRSYM    DATA     BYTE      IPH
      000000CDH   SFRSYM    DATA     BYTE      SPSTAT
      000000DDH   SFRSYM    DATA     BYTE      T4T3M
      000000C1H   SFRSYM    DATA     BYTE      WDT_CONTR
      000000DFH   SFRSYM    DATA     BYTE      IP3
      000000F4H   SFRSYM    DATA     BYTE      USBCON
      000000B5H   SFRSYM    DATA     BYTE      IP2
      000000FFH   SFRSYM    DATA     BYTE      RSTCFG
      000000C7H   SFRSYM    DATA     BYTE      IAP_CONTR
      000000F9H   SFRSYM    DATA     BYTE      LINICR
      0000008EH   SFRSYM    DATA     BYTE      AUXR
      000000AFH   SFRSYM    DATA     BYTE      IE2
      00000090H.5 SFRSYM    DATA     BIT       P15
      000000A0H.4 SFRSYM    DATA     BIT       P24
      000000B0H.3 SFRSYM    DATA     BIT       P33
      00000088H   SFRSYM    DATA     BYTE      TCON
L251 LINKER/LOCATER V4.66.93.0                                                        05/17/2024  20:59:59  PAGE 68


      00000089H   SFRSYM    DATA     BYTE      TMOD
      00000098H   SFRSYM    DATA     BYTE      SCON
      000000F1H   SFRSYM    DATA     BYTE      CANICR
      00000087H   SFRSYM    DATA     BYTE      PCON
      000000BCH   SFRSYM    DATA     BYTE      ADC_CONTR
      000000E7H   SFRSYM    DATA     BYTE      CMPCR2
      000000E6H   SFRSYM    DATA     BYTE      CMPCR1
      000000DEH   SFRSYM    DATA     BYTE      ADCCFG
      000000B8H   SFRSYM    DATA     BYTE      IP
      0000008FH   SFRSYM    DATA     BYTE      INTCLKO
      000000EEH   SFRSYM    DATA     BYTE      IP3H
      000000B6H   SFRSYM    DATA     BYTE      IP2H
      000000A8H   SFRSYM    DATA     BYTE      IE
      000000BBH   SFRSYM    DATA     BYTE      P_SW3
      000000BAH   SFRSYM    DATA     BYTE      P_SW2
      000000A2H   SFRSYM    DATA     BYTE      P_SW1
      000000CEH   SFRSYM    DATA     BYTE      SPCTL
      000000F8H   SFRSYM    DATA     BYTE      P7
      000000E8H   SFRSYM    DATA     BYTE      P6
      000000C8H   SFRSYM    DATA     BYTE      P5
      000000C0H   SFRSYM    DATA     BYTE      P4
      000000B0H   SFRSYM    DATA     BYTE      P3
      000000A0H   SFRSYM    DATA     BYTE      P2
      00000090H   SFRSYM    DATA     BYTE      P1
      00000080H   SFRSYM    DATA     BYTE      P0
      00000E85H   SYMBOL    EDATA    WORD      j
      00000ED4H   SYMBOL    EDATA    BYTE      ack_dat
      00000E87H   SYMBOL    EDATA    BYTE      c
      00000E88H   SYMBOL    EDATA    BYTE      i
      00000E2FH   SYMBOL    EDATA    BYTE      ack_x
      00000E30H   SYMBOL    EDATA    BYTE      i
      00000E31H   SYMBOL    EDATA    BYTE      c
      00000B70H   SYMBOL    EDATA    BYTE      dev_add
      00000B71H   SYMBOL    EDATA    ---       dat
      00000B75H   SYMBOL    EDATA    DWORD     len
      00000E32H   SYMBOL    EDATA    BYTE      dev_add
      00000E33H   SYMBOL    EDATA    BYTE      reg
      00000E34H   SYMBOL    EDATA    BYTE      dat
      00000E35H   SYMBOL    EDATA    BYTE      dev_add
      00000E36H   SYMBOL    EDATA    BYTE      reg
      00000E37H   SYMBOL    EDATA    BYTE      dat
      00000AFCH   SYMBOL    EDATA    BYTE      dev_add
      00000AFDH   SYMBOL    EDATA    BYTE      reg
      00000AFEH   SYMBOL    EDATA    ---       dat_add
      00000B02H   SYMBOL    EDATA    DWORD     num
      00000B06H   SYMBOL    EDATA    BYTE      dev_add
      00000B07H   SYMBOL    EDATA    BYTE      reg
      00000B08H   SYMBOL    EDATA    ---       dat_add
      00000B0CH   SYMBOL    EDATA    DWORD     num
      000009D3H   SYMBOL    EDATA    ---       index
      000009D7H   SYMBOL    EDATA    ---       type_is_aperture
      000009DBH   SYMBOL    EDATA    BYTE      tmp
      000009DCH   SYMBOL    EDATA    BYTE      return_state
      000009DDH   SYMBOL    EDATA    WORD      loop_count
      00000C8DH   SYMBOL    EDATA    WORD      timeout_period_mclks
      00000C8FH   SYMBOL    EDATA    BYTE      vcsel_period_pclks
      00000C90H   SYMBOL    EDATA    DWORD     macro_period_ns
      00000B79H   SYMBOL    EDATA    DWORD     timeout_period_us
      00000B7DH   SYMBOL    EDATA    BYTE      vcsel_period_pclks
      00000B7EH   SYMBOL    EDATA    DWORD     macro_period_ns
      00000E89H   SYMBOL    EDATA    WORD      reg_val
      00000B10H   SYMBOL    EDATA    WORD      timeout_mclks
      00000B12H   SYMBOL    EDATA    DWORD     ls_byte
      00000B16H   SYMBOL    EDATA    WORD      ms_byte
      00000B18H   SYMBOL    EDATA    WORD      return_data
L251 LINKER/LOCATER V4.66.93.0                                                        05/17/2024  20:59:59  PAGE 69


      00000D82H   SYMBOL    EDATA    ---       enables
      00000D86H   SYMBOL    EDATA    BYTE      sequence_config
      00000E38H   SYMBOL    EDATA    INT       type
      00000E3AH   SYMBOL    EDATA    BYTE      data_buffer
      000009DFH   SYMBOL    EDATA    ---       enables
      000009E3H   SYMBOL    EDATA    ---       timeouts
      000009E7H   SYMBOL    EDATA    ---       reg_buffer
      000009E9H   SYMBOL    EDATA    WORD      reg16_buffer
      00000D87H   SYMBOL    EDATA    BYTE      vhv_init_byte
      00000D88H   SYMBOL    EDATA    BYTE      return_state
      00000D89H   SYMBOL    EDATA    BYTE      data_buffer
      00000D8AH   SYMBOL    EDATA    WORD      loop_count
      0000060FH   SYMBOL    EDATA    DWORD     budget_us
      00000613H   SYMBOL    EDATA    BYTE      return_state
      00000614H   SYMBOL    EDATA    ---       data_buffer
      00000617H   SYMBOL    EDATA    WORD      dat
      00000619H   SYMBOL    EDATA    DWORD     used_budget_us
      0000061DH   SYMBOL    EDATA    DWORD     final_range_timeout_us
      00000621H   SYMBOL    EDATA    WORD      final_range_timeout_mclks
      00000623H   SYMBOL    EDATA    ---       enables
      00000628H   SYMBOL    EDATA    ---       timeouts
      000007C2H   SYMBOL    EDATA    ---       enables
      000007C7H   SYMBOL    EDATA    ---       timeouts
      000007DDH   SYMBOL    EDATA    DWORD     budget_us
      00000B82H   SYMBOL    EDATA    FLOAT     limit_mcps
      00000B86H   SYMBOL    EDATA    ---       data_buffer
      00000B89H   SYMBOL    EDATA    WORD      limit_mcps_16bit
      00000E3BH   SYMBOL    EDATA    ---       reg_databuffer
      0000082FH   SYMBOL    EDATA    DWORD     measurement_timing_budget_us
      00000833H   SYMBOL    EDATA    BYTE      stop_variable
      00000834H   SYMBOL    EDATA    BYTE      return_state
      00000835H   SYMBOL    EDATA    BYTE      reg_data_buffer
      00000836H   SYMBOL    EDATA    ---       ref_spad_map
      0000083CH   SYMBOL    EDATA    ---       data_buffer
      00000843H   SYMBOL    EDATA    BYTE      i

      ---         MODULE    ---      ---       SEEKFREE_FONT
      00FF212DH   PUBLIC    CODE     ---       oled_8x16
      00FF271DH   PUBLIC    CODE     ---       tft_ascii
      00FF2D0DH   PUBLIC    CODE     ---       oled_6x8
      000000D0H   SFRSYM    DATA     BYTE      PSW
      0000009DH   SFRSYM    DATA     BYTE      IRCBAND
      00000097H   SFRSYM    DATA     BYTE      AUXR2
      000000EFH   SFRSYM    DATA     BYTE      AUXINTIF
      000000FDH   SFRSYM    DATA     BYTE      S4CON
      000000ACH   SFRSYM    DATA     BYTE      S3CON
      0000009AH   SFRSYM    DATA     BYTE      S2CON
      000000B7H   SFRSYM    DATA     BYTE      IPH
      000000CDH   SFRSYM    DATA     BYTE      SPSTAT
      000000DDH   SFRSYM    DATA     BYTE      T4T3M
      000000C1H   SFRSYM    DATA     BYTE      WDT_CONTR
      000000DFH   SFRSYM    DATA     BYTE      IP3
      000000F4H   SFRSYM    DATA     BYTE      USBCON
      000000B5H   SFRSYM    DATA     BYTE      IP2
      000000FFH   SFRSYM    DATA     BYTE      RSTCFG
      000000C7H   SFRSYM    DATA     BYTE      IAP_CONTR
      000000F9H   SFRSYM    DATA     BYTE      LINICR
      0000008EH   SFRSYM    DATA     BYTE      AUXR
      000000AFH   SFRSYM    DATA     BYTE      IE2
      00000088H   SFRSYM    DATA     BYTE      TCON
      00000089H   SFRSYM    DATA     BYTE      TMOD
      00000098H   SFRSYM    DATA     BYTE      SCON
      000000F1H   SFRSYM    DATA     BYTE      CANICR
      00000087H   SFRSYM    DATA     BYTE      PCON
      000000BCH   SFRSYM    DATA     BYTE      ADC_CONTR
L251 LINKER/LOCATER V4.66.93.0                                                        05/17/2024  20:59:59  PAGE 70


      000000E7H   SFRSYM    DATA     BYTE      CMPCR2
      000000E6H   SFRSYM    DATA     BYTE      CMPCR1
      000000DEH   SFRSYM    DATA     BYTE      ADCCFG
      000000B8H   SFRSYM    DATA     BYTE      IP
      0000008FH   SFRSYM    DATA     BYTE      INTCLKO
      000000EEH   SFRSYM    DATA     BYTE      IP3H
      000000B6H   SFRSYM    DATA     BYTE      IP2H
      000000A8H   SFRSYM    DATA     BYTE      IE
      000000BBH   SFRSYM    DATA     BYTE      P_SW3
      000000BAH   SFRSYM    DATA     BYTE      P_SW2
      000000A2H   SFRSYM    DATA     BYTE      P_SW1
      000000CEH   SFRSYM    DATA     BYTE      SPCTL
      000000F8H   SFRSYM    DATA     BYTE      P7
      000000E8H   SFRSYM    DATA     BYTE      P6
      000000C8H   SFRSYM    DATA     BYTE      P5
      000000C0H   SFRSYM    DATA     BYTE      P4
      000000B0H   SFRSYM    DATA     BYTE      P3
      000000A0H   SFRSYM    DATA     BYTE      P2
      00000090H   SFRSYM    DATA     BYTE      P1
      00000080H   SFRSYM    DATA     BYTE      P0

      ---         MODULE    ---      ---       SEEKFREE_ICM20602
      000009EBH   PUBLIC    EDATA    INT       icm20602_acc_x
      000009EDH   PUBLIC    EDATA    INT       icm20602_acc_y
      000009EFH   PUBLIC    EDATA    INT       icm20602_acc_z
      000009F1H   PUBLIC    EDATA    INT       icm20602_gyro_x
      000009F3H   PUBLIC    EDATA    INT       icm20602_gyro_y
      000009F5H   PUBLIC    EDATA    INT       icm20602_gyro_z
      000000D0H   SFRSYM    DATA     BYTE      PSW
      0000009DH   SFRSYM    DATA     BYTE      IRCBAND
      00000097H   SFRSYM    DATA     BYTE      AUXR2
      000000EFH   SFRSYM    DATA     BYTE      AUXINTIF
      000000FDH   SFRSYM    DATA     BYTE      S4CON
      000000ACH   SFRSYM    DATA     BYTE      S3CON
      0000009AH   SFRSYM    DATA     BYTE      S2CON
      000000B7H   SFRSYM    DATA     BYTE      IPH
      000000CDH   SFRSYM    DATA     BYTE      SPSTAT
      000000DDH   SFRSYM    DATA     BYTE      T4T3M
      000000C1H   SFRSYM    DATA     BYTE      WDT_CONTR
      000000DFH   SFRSYM    DATA     BYTE      IP3
      000000F4H   SFRSYM    DATA     BYTE      USBCON
      000000B5H   SFRSYM    DATA     BYTE      IP2
      000000FFH   SFRSYM    DATA     BYTE      RSTCFG
      000000C7H   SFRSYM    DATA     BYTE      IAP_CONTR
      000000F9H   SFRSYM    DATA     BYTE      LINICR
      0000008EH   SFRSYM    DATA     BYTE      AUXR
      000000AFH   SFRSYM    DATA     BYTE      IE2
      000000C0H.3 SFRSYM    DATA     BIT       P43
      000000C0H.2 SFRSYM    DATA     BIT       P42
      00000088H   SFRSYM    DATA     BYTE      TCON
      00000089H   SFRSYM    DATA     BYTE      TMOD
      000000C0H.1 SFRSYM    DATA     BIT       P41
      00000098H   SFRSYM    DATA     BYTE      SCON
      000000C0H.0 SFRSYM    DATA     BIT       P40
      000000F1H   SFRSYM    DATA     BYTE      CANICR
      00000087H   SFRSYM    DATA     BYTE      PCON
      000000BCH   SFRSYM    DATA     BYTE      ADC_CONTR
      000000E7H   SFRSYM    DATA     BYTE      CMPCR2
      000000E6H   SFRSYM    DATA     BYTE      CMPCR1
      000000DEH   SFRSYM    DATA     BYTE      ADCCFG
      000000B8H   SFRSYM    DATA     BYTE      IP
      0000008FH   SFRSYM    DATA     BYTE      INTCLKO
      000000EEH   SFRSYM    DATA     BYTE      IP3H
      000000B6H   SFRSYM    DATA     BYTE      IP2H
      000000A8H   SFRSYM    DATA     BYTE      IE
L251 LINKER/LOCATER V4.66.93.0                                                        05/17/2024  20:59:59  PAGE 71


      000000BBH   SFRSYM    DATA     BYTE      P_SW3
      000000BAH   SFRSYM    DATA     BYTE      P_SW2
      000000A2H   SFRSYM    DATA     BYTE      P_SW1
      000000CEH   SFRSYM    DATA     BYTE      SPCTL
      000000F8H   SFRSYM    DATA     BYTE      P7
      000000E8H   SFRSYM    DATA     BYTE      P6
      000000C8H   SFRSYM    DATA     BYTE      P5
      000000C0H   SFRSYM    DATA     BYTE      P4
      000000B0H   SFRSYM    DATA     BYTE      P3
      000000A0H   SFRSYM    DATA     BYTE      P2
      00000090H   SFRSYM    DATA     BYTE      P1
      00000080H   SFRSYM    DATA     BYTE      P0
      00000E8BH   SYMBOL    EDATA    BYTE      byte
      00000E8CH   SYMBOL    EDATA    BYTE      i
      00000E8DH   SYMBOL    EDATA    BYTE      cmd
      00000E8EH   SYMBOL    EDATA    BYTE      val
      00000D8CH   SYMBOL    EDATA    BYTE      cmd
      00000D8DH   SYMBOL    EDATA    ---       val
      00000965H   SYMBOL    EDATA    BYTE      cmd
      00000966H   SYMBOL    EDATA    ---       val
      0000096AH   SYMBOL    EDATA    DWORD     num
      0000096EH   SYMBOL    EDATA    DWORD     i
      00000E8FH   SYMBOL    EDATA    BYTE      reg
      00000E90H   SYMBOL    EDATA    BYTE      dat
      00000E91H   SYMBOL    EDATA    BYTE      reg
      00000E92H   SYMBOL    EDATA    BYTE      dat
      00000B8BH   SYMBOL    EDATA    BYTE      reg
      00000B8CH   SYMBOL    EDATA    ---       dat
      00000B90H   SYMBOL    EDATA    DWORD     len
      00000DE0H   SYMBOL    EDATA    BYTE      dat
      00000DE1H   SYMBOL    EDATA    BYTE      return_state
      00000DE2H   SYMBOL    EDATA    WORD      timeout_count
      00000CD9H   SYMBOL    EDATA    ---       dat
      00000CDFH   SYMBOL    EDATA    ---       dat
      00000CE5H   SYMBOL    EDATA    INT       acc_value
      00000CE7H   SYMBOL    EDATA    FLOAT     acc_data
      00000CEBH   SYMBOL    EDATA    INT       gyro_value
      00000CEDH   SYMBOL    EDATA    FLOAT     gyro_data
      00000DE4H   SYMBOL    EDATA    BYTE      val
      00000DE5H   SYMBOL    EDATA    BYTE      return_state
      00000DE6H   SYMBOL    EDATA    WORD      timeout_count

      ---         MODULE    ---      ---       SEEKFREE_IMU660RA
      000009F7H   PUBLIC    EDATA    INT       imu660ra_acc_x
      000009F9H   PUBLIC    EDATA    INT       imu660ra_acc_y
      000009FBH   PUBLIC    EDATA    INT       imu660ra_acc_z
      000009FDH   PUBLIC    EDATA    INT       imu660ra_gyro_x
      000009FFH   PUBLIC    EDATA    INT       imu660ra_gyro_y
      00000A01H   PUBLIC    EDATA    INT       imu660ra_gyro_z
      000000D0H   SFRSYM    DATA     BYTE      PSW
      0000009DH   SFRSYM    DATA     BYTE      IRCBAND
      00000097H   SFRSYM    DATA     BYTE      AUXR2
      000000EFH   SFRSYM    DATA     BYTE      AUXINTIF
      000000FDH   SFRSYM    DATA     BYTE      S4CON
      000000ACH   SFRSYM    DATA     BYTE      S3CON
      0000009AH   SFRSYM    DATA     BYTE      S2CON
      000000B7H   SFRSYM    DATA     BYTE      IPH
      000000CDH   SFRSYM    DATA     BYTE      SPSTAT
      000000DDH   SFRSYM    DATA     BYTE      T4T3M
      000000C1H   SFRSYM    DATA     BYTE      WDT_CONTR
      000000DFH   SFRSYM    DATA     BYTE      IP3
      000000F4H   SFRSYM    DATA     BYTE      USBCON
      000000B5H   SFRSYM    DATA     BYTE      IP2
      000000FFH   SFRSYM    DATA     BYTE      RSTCFG
      000000C7H   SFRSYM    DATA     BYTE      IAP_CONTR
L251 LINKER/LOCATER V4.66.93.0                                                        05/17/2024  20:59:59  PAGE 72


      000000F9H   SFRSYM    DATA     BYTE      LINICR
      0000008EH   SFRSYM    DATA     BYTE      AUXR
      000000AFH   SFRSYM    DATA     BYTE      IE2
      00000088H   SFRSYM    DATA     BYTE      TCON
      00000089H   SFRSYM    DATA     BYTE      TMOD
      000000C0H.1 SFRSYM    DATA     BIT       P41
      00000098H   SFRSYM    DATA     BYTE      SCON
      000000C0H.0 SFRSYM    DATA     BIT       P40
      000000F1H   SFRSYM    DATA     BYTE      CANICR
      00000087H   SFRSYM    DATA     BYTE      PCON
      000000BCH   SFRSYM    DATA     BYTE      ADC_CONTR
      000000E7H   SFRSYM    DATA     BYTE      CMPCR2
      000000E6H   SFRSYM    DATA     BYTE      CMPCR1
      000000DEH   SFRSYM    DATA     BYTE      ADCCFG
      000000B8H   SFRSYM    DATA     BYTE      IP
      0000008FH   SFRSYM    DATA     BYTE      INTCLKO
      000000EEH   SFRSYM    DATA     BYTE      IP3H
      000000B6H   SFRSYM    DATA     BYTE      IP2H
      000000A8H   SFRSYM    DATA     BYTE      IE
      000000BBH   SFRSYM    DATA     BYTE      P_SW3
      000000BAH   SFRSYM    DATA     BYTE      P_SW2
      000000A2H   SFRSYM    DATA     BYTE      P_SW1
      000000CEH   SFRSYM    DATA     BYTE      SPCTL
      000000F8H   SFRSYM    DATA     BYTE      P7
      000000E8H   SFRSYM    DATA     BYTE      P6
      000000C8H   SFRSYM    DATA     BYTE      P5
      000000C0H   SFRSYM    DATA     BYTE      P4
      000000B0H   SFRSYM    DATA     BYTE      P3
      000000A0H   SFRSYM    DATA     BYTE      P2
      00000090H   SFRSYM    DATA     BYTE      P1
      00000080H   SFRSYM    DATA     BYTE      P0
      00000E93H   SYMBOL    EDATA    WORD      j
      00000ED5H   SYMBOL    EDATA    BYTE      ack_dat
      00000E95H   SYMBOL    EDATA    BYTE      c
      00000E96H   SYMBOL    EDATA    BYTE      i
      00000E3EH   SYMBOL    EDATA    BYTE      ack_x
      00000E3FH   SYMBOL    EDATA    BYTE      i
      00000E40H   SYMBOL    EDATA    BYTE      c
      00000E41H   SYMBOL    EDATA    BYTE      dev_add
      00000E42H   SYMBOL    EDATA    BYTE      reg
      00000E43H   SYMBOL    EDATA    BYTE      dat
      00000A03H   SYMBOL    EDATA    BYTE      dev_add
      00000A04H   SYMBOL    EDATA    BYTE      reg
      00000A05H   SYMBOL    EDATA    ---       dat
      00000A09H   SYMBOL    EDATA    DWORD     len
      00000A0DH   SYMBOL    EDATA    WORD      i
      00000E44H   SYMBOL    EDATA    BYTE      dev_add
      00000E45H   SYMBOL    EDATA    BYTE      reg
      00000E46H   SYMBOL    EDATA    BYTE      dat
      00000B1AH   SYMBOL    EDATA    BYTE      dev_add
      00000B1BH   SYMBOL    EDATA    BYTE      reg
      00000B1CH   SYMBOL    EDATA    ---       dat_add
      00000B20H   SYMBOL    EDATA    DWORD     num
      00000DE8H   SYMBOL    EDATA    BYTE      dat
      00000DE9H   SYMBOL    EDATA    BYTE      return_state
      00000DEAH   SYMBOL    EDATA    WORD      timeout_count
      00000CF1H   SYMBOL    EDATA    ---       dat
      00000CF7H   SYMBOL    EDATA    ---       dat
      00000CFDH   SYMBOL    EDATA    INT       acc_value
      00000CFFH   SYMBOL    EDATA    FLOAT     acc_dat
      00000D03H   SYMBOL    EDATA    INT       gyro_value
      00000D05H   SYMBOL    EDATA    FLOAT     gyro_dat
      00000ED6H   SYMBOL    EDATA    BYTE      return_state

      ---         MODULE    ---      ---       SEEKFREE_IMU963RA
L251 LINKER/LOCATER V4.66.93.0                                                        05/17/2024  20:59:59  PAGE 73


      000008A7H   PUBLIC    EDATA    INT       imu963ra_acc_x
      000008A9H   PUBLIC    EDATA    INT       imu963ra_acc_y
      000008ABH   PUBLIC    EDATA    INT       imu963ra_acc_z
      000008ADH   PUBLIC    EDATA    INT       imu963ra_mag_x
      000008AFH   PUBLIC    EDATA    INT       imu963ra_mag_y
      000008B1H   PUBLIC    EDATA    INT       imu963ra_mag_z
      000008B3H   PUBLIC    EDATA    INT       imu963ra_gyro_x
      000008B5H   PUBLIC    EDATA    INT       imu963ra_gyro_y
      000008B7H   PUBLIC    EDATA    INT       imu963ra_gyro_z
      000000D0H   SFRSYM    DATA     BYTE      PSW
      0000009DH   SFRSYM    DATA     BYTE      IRCBAND
      00000097H   SFRSYM    DATA     BYTE      AUXR2
      000000EFH   SFRSYM    DATA     BYTE      AUXINTIF
      000000FDH   SFRSYM    DATA     BYTE      S4CON
      000000ACH   SFRSYM    DATA     BYTE      S3CON
      0000009AH   SFRSYM    DATA     BYTE      S2CON
      000000B7H   SFRSYM    DATA     BYTE      IPH
      000000CDH   SFRSYM    DATA     BYTE      SPSTAT
      000000DDH   SFRSYM    DATA     BYTE      T4T3M
      000000C1H   SFRSYM    DATA     BYTE      WDT_CONTR
      000000DFH   SFRSYM    DATA     BYTE      IP3
      000000F4H   SFRSYM    DATA     BYTE      USBCON
      000000B5H   SFRSYM    DATA     BYTE      IP2
      000000FFH   SFRSYM    DATA     BYTE      RSTCFG
      000000C7H   SFRSYM    DATA     BYTE      IAP_CONTR
      000000F9H   SFRSYM    DATA     BYTE      LINICR
      0000008EH   SFRSYM    DATA     BYTE      AUXR
      000000AFH   SFRSYM    DATA     BYTE      IE2
      000000C0H.3 SFRSYM    DATA     BIT       P43
      000000C0H.2 SFRSYM    DATA     BIT       P42
      00000088H   SFRSYM    DATA     BYTE      TCON
      00000089H   SFRSYM    DATA     BYTE      TMOD
      000000C0H.1 SFRSYM    DATA     BIT       P41
      00000098H   SFRSYM    DATA     BYTE      SCON
      000000C0H.0 SFRSYM    DATA     BIT       P40
      000000F1H   SFRSYM    DATA     BYTE      CANICR
      00000087H   SFRSYM    DATA     BYTE      PCON
      000000BCH   SFRSYM    DATA     BYTE      ADC_CONTR
      000000E7H   SFRSYM    DATA     BYTE      CMPCR2
      000000E6H   SFRSYM    DATA     BYTE      CMPCR1
      000000DEH   SFRSYM    DATA     BYTE      ADCCFG
      000000B8H   SFRSYM    DATA     BYTE      IP
      0000008FH   SFRSYM    DATA     BYTE      INTCLKO
      000000EEH   SFRSYM    DATA     BYTE      IP3H
      000000B6H   SFRSYM    DATA     BYTE      IP2H
      000000A8H   SFRSYM    DATA     BYTE      IE
      000000BBH   SFRSYM    DATA     BYTE      P_SW3
      000000BAH   SFRSYM    DATA     BYTE      P_SW2
      000000A2H   SFRSYM    DATA     BYTE      P_SW1
      000000CEH   SFRSYM    DATA     BYTE      SPCTL
      000000F8H   SFRSYM    DATA     BYTE      P7
      000000E8H   SFRSYM    DATA     BYTE      P6
      000000C8H   SFRSYM    DATA     BYTE      P5
      000000C0H   SFRSYM    DATA     BYTE      P4
      000000B0H   SFRSYM    DATA     BYTE      P3
      000000A0H   SFRSYM    DATA     BYTE      P2
      00000090H   SFRSYM    DATA     BYTE      P1
      00000080H   SFRSYM    DATA     BYTE      P0
      00000E97H   SYMBOL    EDATA    BYTE      byte
      00000E98H   SYMBOL    EDATA    BYTE      i
      00000E99H   SYMBOL    EDATA    BYTE      cmd
      00000E9AH   SYMBOL    EDATA    BYTE      val
      00000D91H   SYMBOL    EDATA    BYTE      cmd
      00000D92H   SYMBOL    EDATA    ---       val
      00000B94H   SYMBOL    EDATA    BYTE      cmd
L251 LINKER/LOCATER V4.66.93.0                                                        05/17/2024  20:59:59  PAGE 74


      00000B95H   SYMBOL    EDATA    ---       val
      00000B99H   SYMBOL    EDATA    DWORD     num
      00000E9BH   SYMBOL    EDATA    BYTE      reg
      00000E9CH   SYMBOL    EDATA    BYTE      dat
      00000E9DH   SYMBOL    EDATA    BYTE      reg
      00000E9EH   SYMBOL    EDATA    BYTE      dat
      00000B9DH   SYMBOL    EDATA    BYTE      reg
      00000B9EH   SYMBOL    EDATA    ---       dat
      00000BA2H   SYMBOL    EDATA    DWORD     len
      00000D09H   SYMBOL    EDATA    BYTE      addr
      00000D0AH   SYMBOL    EDATA    BYTE      reg
      00000D0BH   SYMBOL    EDATA    BYTE      dat
      00000D0CH   SYMBOL    EDATA    BYTE      return_state
      00000D0DH   SYMBOL    EDATA    WORD      timeout_count
      00000DECH   SYMBOL    EDATA    BYTE      addr
      00000DEDH   SYMBOL    EDATA    BYTE      reg
      00000DEEH   SYMBOL    EDATA    WORD      timeout_count
      00000E9FH   SYMBOL    EDATA    BYTE      addr
      00000EA0H   SYMBOL    EDATA    BYTE      reg
      00000DF0H   SYMBOL    EDATA    BYTE      return_state
      00000DF1H   SYMBOL    EDATA    BYTE      dat
      00000DF2H   SYMBOL    EDATA    WORD      timeout_count
      00000DF4H   SYMBOL    EDATA    BYTE      return_state
      00000DF5H   SYMBOL    EDATA    BYTE      dat
      00000DF6H   SYMBOL    EDATA    WORD      timeout_count
      00000D0FH   SYMBOL    EDATA    ---       dat
      00000D15H   SYMBOL    EDATA    ---       dat
      00000C94H   SYMBOL    EDATA    BYTE      temp_status
      00000C95H   SYMBOL    EDATA    ---       dat
      00000D1BH   SYMBOL    EDATA    INT       acc_value
      00000D1DH   SYMBOL    EDATA    FLOAT     acc_dat
      00000D21H   SYMBOL    EDATA    INT       gyro_value
      00000D23H   SYMBOL    EDATA    FLOAT     gyro_dat
      00000D27H   SYMBOL    EDATA    INT       mag_value
      00000D29H   SYMBOL    EDATA    FLOAT     mag_dat
      00000ED7H   SYMBOL    EDATA    BYTE      return_state

      ---         MODULE    ---      ---       SEEKFREE_IPS114_SPI
      0000051FH   PUBLIC    EDATA    BYTE      ?ips114_showfloat_simspi?BYTE
      0000054FH   PUBLIC    EDATA    BYTE      ?ips114_showfloat?BYTE
      000000D0H   SFRSYM    DATA     BYTE      PSW
      0000009DH   SFRSYM    DATA     BYTE      IRCBAND
      00000097H   SFRSYM    DATA     BYTE      AUXR2
      000000EFH   SFRSYM    DATA     BYTE      AUXINTIF
      000000FDH   SFRSYM    DATA     BYTE      S4CON
      000000ACH   SFRSYM    DATA     BYTE      S3CON
      0000009AH   SFRSYM    DATA     BYTE      S2CON
      000000B7H   SFRSYM    DATA     BYTE      IPH
      000000CDH   SFRSYM    DATA     BYTE      SPSTAT
      000000DDH   SFRSYM    DATA     BYTE      T4T3M
      000000C1H   SFRSYM    DATA     BYTE      WDT_CONTR
      000000DFH   SFRSYM    DATA     BYTE      IP3
      000000F4H   SFRSYM    DATA     BYTE      USBCON
      000000B5H   SFRSYM    DATA     BYTE      IP2
      000000FFH   SFRSYM    DATA     BYTE      RSTCFG
      000000C7H   SFRSYM    DATA     BYTE      IAP_CONTR
      000000F9H   SFRSYM    DATA     BYTE      LINICR
      0000008EH   SFRSYM    DATA     BYTE      AUXR
      000000AFH   SFRSYM    DATA     BYTE      IE2
      000000A0H.7 SFRSYM    DATA     BIT       P27
      000000A0H.5 SFRSYM    DATA     BIT       P25
      00000088H   SFRSYM    DATA     BYTE      TCON
      00000089H   SFRSYM    DATA     BYTE      TMOD
      000000A0H.3 SFRSYM    DATA     BIT       P23
      00000098H   SFRSYM    DATA     BYTE      SCON
L251 LINKER/LOCATER V4.66.93.0                                                        05/17/2024  20:59:59  PAGE 75


      000000A0H.2 SFRSYM    DATA     BIT       P22
      000000A0H.1 SFRSYM    DATA     BIT       P21
      000000A0H.0 SFRSYM    DATA     BIT       P20
      000000F1H   SFRSYM    DATA     BYTE      CANICR
      00000087H   SFRSYM    DATA     BYTE      PCON
      000000BCH   SFRSYM    DATA     BYTE      ADC_CONTR
      000000E7H   SFRSYM    DATA     BYTE      CMPCR2
      000000E6H   SFRSYM    DATA     BYTE      CMPCR1
      000000DEH   SFRSYM    DATA     BYTE      ADCCFG
      000000B8H   SFRSYM    DATA     BYTE      IP
      0000008FH   SFRSYM    DATA     BYTE      INTCLKO
      000000EEH   SFRSYM    DATA     BYTE      IP3H
      000000B6H   SFRSYM    DATA     BYTE      IP2H
      000000A8H   SFRSYM    DATA     BYTE      IE
      000000BBH   SFRSYM    DATA     BYTE      P_SW3
      000000BAH   SFRSYM    DATA     BYTE      P_SW2
      000000A2H   SFRSYM    DATA     BYTE      P_SW1
      000000CEH   SFRSYM    DATA     BYTE      SPCTL
      000000F8H   SFRSYM    DATA     BYTE      P7
      000000E8H   SFRSYM    DATA     BYTE      P6
      000000C8H   SFRSYM    DATA     BYTE      P5
      000000C0H   SFRSYM    DATA     BYTE      P4
      000000B0H   SFRSYM    DATA     BYTE      P3
      000000A0H   SFRSYM    DATA     BYTE      P2
      00000090H   SFRSYM    DATA     BYTE      P1
      00000080H   SFRSYM    DATA     BYTE      P0
      00000EA1H   SYMBOL    EDATA    BYTE      dat
      00000EA2H   SYMBOL    EDATA    BYTE      i
      00000EA3H   SYMBOL    EDATA    BYTE      dat
      00000EA4H   SYMBOL    EDATA    BYTE      i
      00000E47H   SYMBOL    EDATA    WORD      dat
      00000E49H   SYMBOL    EDATA    BYTE      i
      00000C37H   SYMBOL    EDATA    WORD      x1
      00000C39H   SYMBOL    EDATA    WORD      y1
      00000C3BH   SYMBOL    EDATA    WORD      x2
      00000C3DH   SYMBOL    EDATA    WORD      y2
      00000D2DH   SYMBOL    EDATA    WORD      color
      00000D2FH   SYMBOL    EDATA    WORD      i
      00000D31H   SYMBOL    EDATA    WORD      j
      00000D33H   SYMBOL    EDATA    WORD      x
      00000D35H   SYMBOL    EDATA    WORD      y
      00000D37H   SYMBOL    EDATA    WORD      color
      00000C3FH   SYMBOL    EDATA    WORD      x
      00000C41H   SYMBOL    EDATA    WORD      y
      00000C43H   SYMBOL    EDATA    CHAR      dat
      00000C44H   SYMBOL    EDATA    BYTE      i
      00000C45H   SYMBOL    EDATA    BYTE      j
      00000C46H   SYMBOL    EDATA    BYTE      temp
      00000B24H   SYMBOL    EDATA    WORD      x
      00000B26H   SYMBOL    EDATA    WORD      y
      00000B28H   SYMBOL    EDATA    ---       dat
      00000B2CH   SYMBOL    EDATA    WORD      j
      00000BA6H   SYMBOL    EDATA    WORD      x
      00000BA8H   SYMBOL    EDATA    WORD      y
      00000BAAH   SYMBOL    EDATA    CHAR      dat
      00000BABH   SYMBOL    EDATA    ---       a
      00000BAEH   SYMBOL    EDATA    BYTE      i
      00000BAFH   SYMBOL    EDATA    WORD      x
      00000BB1H   SYMBOL    EDATA    WORD      y
      00000BB3H   SYMBOL    EDATA    BYTE      dat
      00000BB4H   SYMBOL    EDATA    ---       a
      00000BB7H   SYMBOL    EDATA    BYTE      i
      00000A0FH   SYMBOL    EDATA    WORD      x
      00000A11H   SYMBOL    EDATA    WORD      y
      00000A13H   SYMBOL    EDATA    INT       dat
L251 LINKER/LOCATER V4.66.93.0                                                        05/17/2024  20:59:59  PAGE 76


      00000A15H   SYMBOL    EDATA    ---       a
      00000A1AH   SYMBOL    EDATA    BYTE      i
      00000A1BH   SYMBOL    EDATA    WORD      x
      00000A1DH   SYMBOL    EDATA    WORD      y
      00000A1FH   SYMBOL    EDATA    WORD      dat
      00000A21H   SYMBOL    EDATA    ---       a
      00000A26H   SYMBOL    EDATA    BYTE      i
      00000696H   SYMBOL    EDATA    WORD      x
      00000698H   SYMBOL    EDATA    WORD      y
      0000069AH   SYMBOL    EDATA    LONG      dat
      0000069EH   SYMBOL    EDATA    BYTE      num
      0000069FH   SYMBOL    EDATA    ---       buff
      000006C1H   SYMBOL    EDATA    BYTE      length
      0000051FH   SYMBOL    EDATA    WORD      x
      00000521H   SYMBOL    EDATA    WORD      y
      00000523H   SYMBOL    EDATA    FLOAT     dat
      00000527H   SYMBOL    EDATA    BYTE      num
      00000528H   SYMBOL    EDATA    BYTE      pointnum
      00000529H   SYMBOL    EDATA    BYTE      length
      0000052AH   SYMBOL    EDATA    ---       buff
      0000054CH   SYMBOL    EDATA    CHAR      start
      0000054DH   SYMBOL    EDATA    CHAR      end
      0000054EH   SYMBOL    EDATA    CHAR      point
      00000ED8H   SYMBOL    EDATA    BYTE      dat
      00000ED9H   SYMBOL    EDATA    BYTE      dat
      00000DF8H   SYMBOL    EDATA    WORD      dat
      00000DFAH   SYMBOL    EDATA    ---       dat1
      00000C47H   SYMBOL    EDATA    WORD      x1
      00000C49H   SYMBOL    EDATA    WORD      y1
      00000C4BH   SYMBOL    EDATA    WORD      x2
      00000C4DH   SYMBOL    EDATA    WORD      y2
      00000D39H   SYMBOL    EDATA    WORD      color
      00000D3BH   SYMBOL    EDATA    WORD      i
      00000D3DH   SYMBOL    EDATA    WORD      j
      00000D3FH   SYMBOL    EDATA    WORD      x
      00000D41H   SYMBOL    EDATA    WORD      y
      00000D43H   SYMBOL    EDATA    WORD      color
      00000C4FH   SYMBOL    EDATA    WORD      x
      00000C51H   SYMBOL    EDATA    WORD      y
      00000C53H   SYMBOL    EDATA    CHAR      dat
      00000C54H   SYMBOL    EDATA    BYTE      i
      00000C55H   SYMBOL    EDATA    BYTE      j
      00000C56H   SYMBOL    EDATA    BYTE      temp
      00000B2EH   SYMBOL    EDATA    WORD      x
      00000B30H   SYMBOL    EDATA    WORD      y
      00000B32H   SYMBOL    EDATA    ---       dat
      00000B36H   SYMBOL    EDATA    WORD      j
      00000BB8H   SYMBOL    EDATA    WORD      x
      00000BBAH   SYMBOL    EDATA    WORD      y
      00000BBCH   SYMBOL    EDATA    CHAR      dat
      00000BBDH   SYMBOL    EDATA    ---       a
      00000BC0H   SYMBOL    EDATA    BYTE      i
      00000BC1H   SYMBOL    EDATA    WORD      x
      00000BC3H   SYMBOL    EDATA    WORD      y
      00000BC5H   SYMBOL    EDATA    BYTE      dat
      00000BC6H   SYMBOL    EDATA    ---       a
      00000BC9H   SYMBOL    EDATA    BYTE      i
      00000A27H   SYMBOL    EDATA    WORD      x
      00000A29H   SYMBOL    EDATA    WORD      y
      00000A2BH   SYMBOL    EDATA    INT       dat
      00000A2DH   SYMBOL    EDATA    ---       a
      00000A32H   SYMBOL    EDATA    BYTE      i
      00000A33H   SYMBOL    EDATA    WORD      x
      00000A35H   SYMBOL    EDATA    WORD      y
      00000A37H   SYMBOL    EDATA    WORD      dat
L251 LINKER/LOCATER V4.66.93.0                                                        05/17/2024  20:59:59  PAGE 77


      00000A39H   SYMBOL    EDATA    ---       a
      00000A3EH   SYMBOL    EDATA    BYTE      i
      000006C2H   SYMBOL    EDATA    WORD      x
      000006C4H   SYMBOL    EDATA    WORD      y
      000006C6H   SYMBOL    EDATA    LONG      dat
      000006CAH   SYMBOL    EDATA    BYTE      num
      000006CBH   SYMBOL    EDATA    ---       buff
      000006EDH   SYMBOL    EDATA    BYTE      length
      0000054FH   SYMBOL    EDATA    WORD      x
      00000551H   SYMBOL    EDATA    WORD      y
      00000553H   SYMBOL    EDATA    FLOAT     dat
      00000557H   SYMBOL    EDATA    BYTE      num
      00000558H   SYMBOL    EDATA    BYTE      pointnum
      00000559H   SYMBOL    EDATA    BYTE      length
      0000055AH   SYMBOL    EDATA    ---       buff
      0000057CH   SYMBOL    EDATA    CHAR      start
      0000057DH   SYMBOL    EDATA    CHAR      end
      0000057EH   SYMBOL    EDATA    CHAR      point

      ---         MODULE    ---      ---       SEEKFREE_MPU6050
      00FF8161H   PUBLIC    CODE     ---       mpu6050_simiic_read_regs
      00FF8859H   PUBLIC    CODE     ---       mpu6050_simiic_read_reg
      00FF836CH   PUBLIC    CODE     ---       mpu6050_init
      00FF8585H   PUBLIC    CODE     ---       mpu6050_get_gyro
      00000A3FH   PUBLIC    EDATA    INT       mpu6050_acc_x
      00000A41H   PUBLIC    EDATA    INT       mpu6050_acc_y
      00000A43H   PUBLIC    EDATA    INT       mpu6050_acc_z
      00000A45H   PUBLIC    EDATA    INT       mpu6050_gyro_x
      00000A47H   PUBLIC    EDATA    INT       mpu6050_gyro_y
      00000A49H   PUBLIC    EDATA    INT       mpu6050_gyro_z
      000000D0H   SFRSYM    DATA     BYTE      PSW
      0000009DH   SFRSYM    DATA     BYTE      IRCBAND
      00000097H   SFRSYM    DATA     BYTE      AUXR2
      000000EFH   SFRSYM    DATA     BYTE      AUXINTIF
      000000FDH   SFRSYM    DATA     BYTE      S4CON
      000000ACH   SFRSYM    DATA     BYTE      S3CON
      0000009AH   SFRSYM    DATA     BYTE      S2CON
      000000B7H   SFRSYM    DATA     BYTE      IPH
      000000CDH   SFRSYM    DATA     BYTE      SPSTAT
      000000DDH   SFRSYM    DATA     BYTE      T4T3M
      000000C1H   SFRSYM    DATA     BYTE      WDT_CONTR
      000000DFH   SFRSYM    DATA     BYTE      IP3
      000000F4H   SFRSYM    DATA     BYTE      USBCON
      000000B5H   SFRSYM    DATA     BYTE      IP2
      000000FFH   SFRSYM    DATA     BYTE      RSTCFG
      000000C7H   SFRSYM    DATA     BYTE      IAP_CONTR
      000000F9H   SFRSYM    DATA     BYTE      LINICR
      0000008EH   SFRSYM    DATA     BYTE      AUXR
      000000AFH   SFRSYM    DATA     BYTE      IE2
      000000C0H.6 SFRSYM    DATA     BIT       P46
      000000C0H.5 SFRSYM    DATA     BIT       P45
      00000088H   SFRSYM    DATA     BYTE      TCON
      00000089H   SFRSYM    DATA     BYTE      TMOD
      00000098H   SFRSYM    DATA     BYTE      SCON
      000000F1H   SFRSYM    DATA     BYTE      CANICR
      00000087H   SFRSYM    DATA     BYTE      PCON
      000000BCH   SFRSYM    DATA     BYTE      ADC_CONTR
      000000E7H   SFRSYM    DATA     BYTE      CMPCR2
      000000E6H   SFRSYM    DATA     BYTE      CMPCR1
      000000DEH   SFRSYM    DATA     BYTE      ADCCFG
      000000B8H   SFRSYM    DATA     BYTE      IP
      0000008FH   SFRSYM    DATA     BYTE      INTCLKO
      000000EEH   SFRSYM    DATA     BYTE      IP3H
      000000B6H   SFRSYM    DATA     BYTE      IP2H
      000000A8H   SFRSYM    DATA     BYTE      IE
L251 LINKER/LOCATER V4.66.93.0                                                        05/17/2024  20:59:59  PAGE 78


      000000BBH   SFRSYM    DATA     BYTE      P_SW3
      000000BAH   SFRSYM    DATA     BYTE      P_SW2
      000000A2H   SFRSYM    DATA     BYTE      P_SW1
      000000CEH   SFRSYM    DATA     BYTE      SPCTL
      000000F8H   SFRSYM    DATA     BYTE      P7
      000000E8H   SFRSYM    DATA     BYTE      P6
      000000C8H   SFRSYM    DATA     BYTE      P5
      000000C0H   SFRSYM    DATA     BYTE      P4
      000000B0H   SFRSYM    DATA     BYTE      P3
      000000A0H   SFRSYM    DATA     BYTE      P2
      00000090H   SFRSYM    DATA     BYTE      P1
      00000080H   SFRSYM    DATA     BYTE      P0
      00FF8BCCH   SYMBOL    CODE     ---       mpu6050_simiic_start
      00FF8BA2H   SYMBOL    CODE     ---       mpu6050_simiic_stop
      00FF89BFH   SYMBOL    CODE     ---       mpu6050_simiic_write_reg
      00FF88FEH   SYMBOL    CODE     ---       mpu6050_self1_check
      00FF8A13H   SYMBOL    CODE     ---       mpu6050_simiic_sendack
      00FF8237H   SYMBOL    CODE     ---       mpu6050_read_ch
      00FF8705H   SYMBOL    CODE     ---       mpu6050_send_ch
      00FF8B1CH   SYMBOL    CODE     ---       mpu6050_sccb_waitack
      00FF0026H   SYMBOL    CODE     ---       mpu6050_simiic_delay

      00FF0026H   BLOCK     CODE     ---       LVL=0
      00000EA5H   SYMBOL    EDATA    WORD      j
      00FF0026H   LINE      CODE     ---       #52
      00FF0026H   LINE      CODE     ---       #53
      00FF0026H   LINE      CODE     ---       #54
      00FF002CH   LINE      CODE     ---       #55
      00FF0042H   LINE      CODE     ---       #56
      ---         BLOCKEND  ---      ---       LVL=0

      00FF8BCCH   BLOCK     CODE     ---       LVL=0
      00FF8BCCH   LINE      CODE     ---       #59
      00FF8BCCH   LINE      CODE     ---       #61
      00FF8BCFH   LINE      CODE     ---       #62
      00FF8BD2H   LINE      CODE     ---       #63
      00FF8BD5H   LINE      CODE     ---       #64
      00FF8BD8H   LINE      CODE     ---       #65
      00FF8BDBH   LINE      CODE     ---       #66
      00FF8BDEH   LINE      CODE     ---       #67
      ---         BLOCKEND  ---      ---       LVL=0

      00FF8BA2H   BLOCK     CODE     ---       LVL=0
      00FF8BA2H   LINE      CODE     ---       #70
      00FF8BA2H   LINE      CODE     ---       #72
      00FF8BA5H   LINE      CODE     ---       #73
      00FF8BA8H   LINE      CODE     ---       #74
      00FF8BABH   LINE      CODE     ---       #75
      00FF8BAEH   LINE      CODE     ---       #76
      00FF8BB1H   LINE      CODE     ---       #77
      00FF8BB4H   LINE      CODE     ---       #78
      00FF8BB7H   LINE      CODE     ---       #79
      ---         BLOCKEND  ---      ---       LVL=0

      00FF8A13H   BLOCK     CODE     ---       LVL=0
      00000EDAH   SYMBOL    EDATA    BYTE      ack_dat
      00FF8A13H   LINE      CODE     ---       #83
      00FF8A17H   LINE      CODE     ---       #85
      00FF8A1AH   LINE      CODE     ---       #86
      00FF8A1DH   LINE      CODE     ---       #87
      00FF8A2BH   LINE      CODE     ---       #88
      00FF8A2EH   LINE      CODE     ---       #90
      00FF8A31H   LINE      CODE     ---       #91
      00FF8A34H   LINE      CODE     ---       #92
      00FF8A37H   LINE      CODE     ---       #93
L251 LINKER/LOCATER V4.66.93.0                                                        05/17/2024  20:59:59  PAGE 79


      00FF8A3AH   LINE      CODE     ---       #94
      ---         BLOCKEND  ---      ---       LVL=0

      00FF8B1CH   BLOCK     CODE     ---       LVL=0
      00FF8B1CH   LINE      CODE     ---       #97
      00FF8B1CH   LINE      CODE     ---       #99
      00FF8B1FH   LINE      CODE     ---       #101
      00FF8B22H   LINE      CODE     ---       #103
      00FF8B25H   LINE      CODE     ---       #104
      00FF8B28H   LINE      CODE     ---       #106
      00FF8B2BH   LINE      CODE     ---       #109
      00FF8B2EH   LINE      CODE     ---       #110
      00FF8B32H   LINE      CODE     ---       #111
      00FF8B32H   LINE      CODE     ---       #113
      00FF8B35H   LINE      CODE     ---       #114
      00FF8B38H   LINE      CODE     ---       #115
      00FF8B3CH   LINE      CODE     ---       #116
      ---         BLOCKEND  ---      ---       LVL=0

      00FF8705H   BLOCK     CODE     ---       LVL=0
      00000EA7H   SYMBOL    EDATA    BYTE      c
      00FF8709H   BLOCK     CODE     NEAR LAB  LVL=1
      00000EA8H   SYMBOL    EDATA    BYTE      i
      ---         BLOCKEND  ---      ---       LVL=1
      00FF8705H   LINE      CODE     ---       #122
      00FF8709H   LINE      CODE     ---       #123
      00FF8709H   LINE      CODE     ---       #124
      00FF870FH   LINE      CODE     ---       #125
      00FF8711H   LINE      CODE     ---       #127
      00FF871DH   LINE      CODE     ---       #128
      00FF8720H   LINE      CODE     ---       #129
      00FF872AH   LINE      CODE     ---       #130
      00FF872DH   LINE      CODE     ---       #131
      00FF8730H   LINE      CODE     ---       #132
      00FF8733H   LINE      CODE     ---       #133
      00FF8736H   LINE      CODE     ---       #134
      00FF874AH   LINE      CODE     ---       #135
      00FF874DH   LINE      CODE     ---       #136
      ---         BLOCKEND  ---      ---       LVL=0

      00FF8237H   BLOCK     CODE     ---       LVL=0
      00000E4AH   SYMBOL    EDATA    BYTE      ack_x
      00FF823BH   BLOCK     CODE     NEAR LAB  LVL=1
      00000E4BH   SYMBOL    EDATA    BYTE      i
      00000E4CH   SYMBOL    EDATA    BYTE      c
      ---         BLOCKEND  ---      ---       LVL=1
      00FF8237H   LINE      CODE     ---       #142
      00FF823BH   LINE      CODE     ---       #143
      00FF823BH   LINE      CODE     ---       #146
      00FF8240H   LINE      CODE     ---       #147
      00FF8243H   LINE      CODE     ---       #148
      00FF8246H   LINE      CODE     ---       #149
      00FF8249H   LINE      CODE     ---       #151
      00FF8250H   LINE      CODE     ---       #153
      00FF8253H   LINE      CODE     ---       #154
      00FF8256H   LINE      CODE     ---       #155
      00FF8259H   LINE      CODE     ---       #156
      00FF825CH   LINE      CODE     ---       #157
      00FF825FH   LINE      CODE     ---       #158
      00FF8269H   LINE      CODE     ---       #159
      00FF826CH   LINE      CODE     ---       #161
      00FF8278H   LINE      CODE     ---       #162
      00FF828FH   LINE      CODE     ---       #165
      00FF8292H   LINE      CODE     ---       #166
      00FF8295H   LINE      CODE     ---       #167
L251 LINKER/LOCATER V4.66.93.0                                                        05/17/2024  20:59:59  PAGE 80


      00FF829CH   LINE      CODE     ---       #169
      00FF82A0H   LINE      CODE     ---       #170
      ---         BLOCKEND  ---      ---       LVL=0

      00FF89BFH   BLOCK     CODE     ---       LVL=0
      00000E4DH   SYMBOL    EDATA    BYTE      dev_add
      00000E4EH   SYMBOL    EDATA    BYTE      reg
      00000E4FH   SYMBOL    EDATA    BYTE      dat
      00FF89BFH   LINE      CODE     ---       #182
      00FF89CBH   LINE      CODE     ---       #184
      00FF89CEH   LINE      CODE     ---       #185
      00FF89D7H   LINE      CODE     ---       #186
      00FF89DEH   LINE      CODE     ---       #187
      00FF89E5H   LINE      CODE     ---       #188
      00FF89E8H   LINE      CODE     ---       #189
      ---         BLOCKEND  ---      ---       LVL=0

      00FF8859H   BLOCK     CODE     ---       LVL=0
      00000E50H   SYMBOL    EDATA    BYTE      dev_add
      00000E51H   SYMBOL    EDATA    BYTE      reg
      00FF8861H   BLOCK     CODE     NEAR LAB  LVL=1
      00000E52H   SYMBOL    EDATA    BYTE      dat
      ---         BLOCKEND  ---      ---       LVL=1
      00FF8859H   LINE      CODE     ---       #200
      00FF8861H   LINE      CODE     ---       #201
      00FF8861H   LINE      CODE     ---       #203
      00FF8864H   LINE      CODE     ---       #204
      00FF886DH   LINE      CODE     ---       #205
      00FF8874H   LINE      CODE     ---       #208
      00FF8877H   LINE      CODE     ---       #209
      00FF8884H   LINE      CODE     ---       #210
      00FF888CH   LINE      CODE     ---       #211
      00FF888FH   LINE      CODE     ---       #213
      00FF8893H   LINE      CODE     ---       #214
      ---         BLOCKEND  ---      ---       LVL=0

      00FF8161H   BLOCK     CODE     ---       LVL=0
      00000C9BH   SYMBOL    EDATA    BYTE      dev_add
      00000C9CH   SYMBOL    EDATA    BYTE      reg
      00000C9DH   SYMBOL    EDATA    ---       dat_add
      00000CA1H   SYMBOL    EDATA    BYTE      num
      00FF8161H   LINE      CODE     ---       #227
      00FF8171H   LINE      CODE     ---       #229
      00FF8174H   LINE      CODE     ---       #230
      00FF817DH   LINE      CODE     ---       #231
      00FF8184H   LINE      CODE     ---       #234
      00FF8187H   LINE      CODE     ---       #235
      00FF8194H   LINE      CODE     ---       #236
      00FF8196H   LINE      CODE     ---       #238
      00FF81A2H   LINE      CODE     ---       #239
      00FF81ACH   LINE      CODE     ---       #240
      00FF81BEH   LINE      CODE     ---       #241
      00FF81C9H   LINE      CODE     ---       #242
      00FF81CCH   LINE      CODE     ---       #243
      ---         BLOCKEND  ---      ---       LVL=0

      00FF88FEH   BLOCK     CODE     ---       LVL=0
      00FF88FEH   LINE      CODE     ---       #252
      00FF88FEH   LINE      CODE     ---       #254
      00FF8908H   LINE      CODE     ---       #255
      00FF8913H   LINE      CODE     ---       #256
      00FF8920H   LINE      CODE     ---       #258
      00FF892BH   LINE      CODE     ---       #259
      00FF892FH   LINE      CODE     ---       #265
      00FF892FH   LINE      CODE     ---       #267
L251 LINKER/LOCATER V4.66.93.0                                                        05/17/2024  20:59:59  PAGE 81


      00FF8930H   LINE      CODE     ---       #269
      ---         BLOCKEND  ---      ---       LVL=0

      00FF836CH   BLOCK     CODE     ---       LVL=0
      00FF836CH   LINE      CODE     ---       #279
      00FF836CH   LINE      CODE     ---       #281
      00FF8373H   LINE      CODE     ---       #283
      00FF837BH   LINE      CODE     ---       #285
      00FF837FH   LINE      CODE     ---       #286
      00FF837FH   LINE      CODE     ---       #287
      00FF8389H   LINE      CODE     ---       #288
      00FF8394H   LINE      CODE     ---       #289
      00FF839FH   LINE      CODE     ---       #290
      00FF83AAH   LINE      CODE     ---       #291
      00FF83B5H   LINE      CODE     ---       #292
      00FF83BFH   LINE      CODE     ---       #293
      00FF83CAH   LINE      CODE     ---       #294
      00FF83CBH   LINE      CODE     ---       #295
      ---         BLOCKEND  ---      ---       LVL=0
      00000D45H   SYMBOL    EDATA    ---       dat

      00FF8585H   BLOCK     CODE     ---       LVL=0
      00000D4BH   SYMBOL    EDATA    ---       dat
      00FF8585H   LINE      CODE     ---       #323
      00FF8585H   LINE      CODE     ---       #324
      00FF8585H   LINE      CODE     ---       #326
      00FF8594H   LINE      CODE     ---       #327
      00FF85AAH   LINE      CODE     ---       #328
      00FF85C0H   LINE      CODE     ---       #329
      00FF85D6H   LINE      CODE     ---       #330
      ---         BLOCKEND  ---      ---       LVL=0

      ---         MODULE    ---      ---       SEEKFREE_OLED
      00FF88C9H   PUBLIC    CODE     ---       oled_set_pos
      00FF6DD7H   PUBLIC    CODE     ---       oled_printf_float
      00FF6F1CH   PUBLIC    CODE     ---       oled_printf_float_px8
      00FF85D7H   PUBLIC    CODE     ---       oled_wrcmd
      00FF8623H   PUBLIC    CODE     ---       oled_wrdat
      00FF8429H   PUBLIC    CODE     ---       oled_fill
      00FF8A63H   PUBLIC    CODE     ---       oled_uint16
      00FF8A8AH   PUBLIC    CODE     ---       oled_uint16_px8
      00FF75CEH   PUBLIC    CODE     ---       oled_p6x8str
      00FF7F9CH   PUBLIC    CODE     ---       oled_int16
      00FF7BCBH   PUBLIC    CODE     ---       oled_init
      00FF80F2H   PUBLIC    CODE     ---       oled_hexascii
      00FF7199H   PUBLIC    CODE     ---       oled_p8x16str
      0000057FH   PUBLIC    EDATA    BYTE      ?oled_printf_float_px8?BYTE
      000005AFH   PUBLIC    EDATA    BYTE      ?oled_printf_float?BYTE
      000005DFH   PUBLIC    EDATA    BYTE      ?oled_printf_float_spi?BYTE
      000000D0H   SFRSYM    DATA     BYTE      PSW
      0000009DH   SFRSYM    DATA     BYTE      IRCBAND
      00000097H   SFRSYM    DATA     BYTE      AUXR2
      000000EFH   SFRSYM    DATA     BYTE      AUXINTIF
      000000FDH   SFRSYM    DATA     BYTE      S4CON
      000000ACH   SFRSYM    DATA     BYTE      S3CON
      0000009AH   SFRSYM    DATA     BYTE      S2CON
      000000B7H   SFRSYM    DATA     BYTE      IPH
      000000CDH   SFRSYM    DATA     BYTE      SPSTAT
      000000DDH   SFRSYM    DATA     BYTE      T4T3M
      000000C1H   SFRSYM    DATA     BYTE      WDT_CONTR
      000000DFH   SFRSYM    DATA     BYTE      IP3
      000000F4H   SFRSYM    DATA     BYTE      USBCON
      000000B5H   SFRSYM    DATA     BYTE      IP2
      000000FFH   SFRSYM    DATA     BYTE      RSTCFG
      000000C7H   SFRSYM    DATA     BYTE      IAP_CONTR
L251 LINKER/LOCATER V4.66.93.0                                                        05/17/2024  20:59:59  PAGE 82


      000000F9H   SFRSYM    DATA     BYTE      LINICR
      0000008EH   SFRSYM    DATA     BYTE      AUXR
      000000AFH   SFRSYM    DATA     BYTE      IE2
      000000A0H.7 SFRSYM    DATA     BIT       P27
      000000A0H.6 SFRSYM    DATA     BIT       P26
      000000A0H.5 SFRSYM    DATA     BIT       P25
      000000A0H.4 SFRSYM    DATA     BIT       P24
      00000088H   SFRSYM    DATA     BYTE      TCON
      00000089H   SFRSYM    DATA     BYTE      TMOD
      00000098H   SFRSYM    DATA     BYTE      SCON
      000000A0H.2 SFRSYM    DATA     BIT       P22
      000000A0H.1 SFRSYM    DATA     BIT       P21
      000000A0H.0 SFRSYM    DATA     BIT       P20
      000000F1H   SFRSYM    DATA     BYTE      CANICR
      00000087H   SFRSYM    DATA     BYTE      PCON
      000000BCH   SFRSYM    DATA     BYTE      ADC_CONTR
      000000E7H   SFRSYM    DATA     BYTE      CMPCR2
      000000E6H   SFRSYM    DATA     BYTE      CMPCR1
      000000DEH   SFRSYM    DATA     BYTE      ADCCFG
      000000B8H   SFRSYM    DATA     BYTE      IP
      0000008FH   SFRSYM    DATA     BYTE      INTCLKO
      000000EEH   SFRSYM    DATA     BYTE      IP3H
      000000B6H   SFRSYM    DATA     BYTE      IP2H
      000000A8H   SFRSYM    DATA     BYTE      IE
      000000BBH   SFRSYM    DATA     BYTE      P_SW3
      000000BAH   SFRSYM    DATA     BYTE      P_SW2
      000000A2H   SFRSYM    DATA     BYTE      P_SW1
      000000CEH   SFRSYM    DATA     BYTE      SPCTL
      000000F8H   SFRSYM    DATA     BYTE      P7
      000000E8H   SFRSYM    DATA     BYTE      P6
      000000C8H   SFRSYM    DATA     BYTE      P5
      000000C0H   SFRSYM    DATA     BYTE      P4
      000000B0H   SFRSYM    DATA     BYTE      P3
      000000A0H   SFRSYM    DATA     BYTE      P2
      00000090H   SFRSYM    DATA     BYTE      P1
      00000080H   SFRSYM    DATA     BYTE      P0

      00FF8623H   BLOCK     CODE     ---       LVL=0
      00000EA9H   SYMBOL    EDATA    BYTE      dat
      00FF8627H   BLOCK     CODE     NEAR LAB  LVL=1
      00000EAAH   SYMBOL    EDATA    BYTE      i
      ---         BLOCKEND  ---      ---       LVL=1
      00FF8623H   LINE      CODE     ---       #47
      00FF8627H   LINE      CODE     ---       #48
      00FF8627H   LINE      CODE     ---       #49
      00FF862DH   LINE      CODE     ---       #51
      00FF8630H   LINE      CODE     ---       #52
      00FF8633H   LINE      CODE     ---       #53
      00FF8636H   LINE      CODE     ---       #54
      00FF8638H   LINE      CODE     ---       #56
      00FF8644H   LINE      CODE     ---       #57
      00FF8647H   LINE      CODE     ---       #58
      00FF864AH   LINE      CODE     ---       #60
      00FF864DH   LINE      CODE     ---       #61
      00FF8657H   LINE      CODE     ---       #62
      00FF866BH   LINE      CODE     ---       #63
      00FF866EH   LINE      CODE     ---       #64
      ---         BLOCKEND  ---      ---       LVL=0

      00FF85D7H   BLOCK     CODE     ---       LVL=0
      00000EABH   SYMBOL    EDATA    BYTE      cmd
      00FF85DBH   BLOCK     CODE     NEAR LAB  LVL=1
      00000EACH   SYMBOL    EDATA    BYTE      i
      ---         BLOCKEND  ---      ---       LVL=1
      00FF85D7H   LINE      CODE     ---       #98
L251 LINKER/LOCATER V4.66.93.0                                                        05/17/2024  20:59:59  PAGE 83


      00FF85DBH   LINE      CODE     ---       #99
      00FF85DBH   LINE      CODE     ---       #100
      00FF85E1H   LINE      CODE     ---       #102
      00FF85E4H   LINE      CODE     ---       #103
      00FF85E7H   LINE      CODE     ---       #104
      00FF85EAH   LINE      CODE     ---       #106
      00FF85ECH   LINE      CODE     ---       #108
      00FF85F8H   LINE      CODE     ---       #109
      00FF85FBH   LINE      CODE     ---       #110
      00FF85FEH   LINE      CODE     ---       #112
      00FF8601H   LINE      CODE     ---       #113
      00FF860BH   LINE      CODE     ---       #114
      00FF861FH   LINE      CODE     ---       #115
      00FF8622H   LINE      CODE     ---       #116
      ---         BLOCKEND  ---      ---       LVL=0

      00FF80F2H   BLOCK     CODE     ---       LVL=0
      00000C57H   SYMBOL    EDATA    WORD      hex
      00000C59H   SYMBOL    EDATA    ---       Print
      00FF80FAH   BLOCK     CODE     NEAR LAB  LVL=1
      00000C5DH   SYMBOL    EDATA    BYTE      hexcheck
      00000C5EH   SYMBOL    EDATA    BYTE      TEMP
      ---         BLOCKEND  ---      ---       LVL=1
      00FF80F2H   LINE      CODE     ---       #125
      00FF80FAH   LINE      CODE     ---       #126
      00FF80FAH   LINE      CODE     ---       #129
      00FF8100H   LINE      CODE     ---       #130
      00FF8110H   LINE      CODE     ---       #131
      00FF8112H   LINE      CODE     ---       #133
      00FF811EH   LINE      CODE     ---       #134
      00FF812EH   LINE      CODE     ---       #135
      00FF813CH   LINE      CODE     ---       #136
      00FF8157H   LINE      CODE     ---       #137
      00FF8160H   LINE      CODE     ---       #139
      ---         BLOCKEND  ---      ---       LVL=0

      00FF7BCBH   BLOCK     CODE     ---       LVL=0
      00FF7BCBH   LINE      CODE     ---       #148
      00FF7BCBH   LINE      CODE     ---       #151
      00FF7BCEH   LINE      CODE     ---       #152
      00FF7BD1H   LINE      CODE     ---       #154
      00FF7BD4H   LINE      CODE     ---       #155
      00FF7BDBH   LINE      CODE     ---       #156
      00FF7BDEH   LINE      CODE     ---       #158
      00FF7BE3H   LINE      CODE     ---       #159
      00FF7BE7H   LINE      CODE     ---       #160
      00FF7BECH   LINE      CODE     ---       #161
      00FF7BF1H   LINE      CODE     ---       #162
      00FF7BF6H   LINE      CODE     ---       #163
      00FF7BFBH   LINE      CODE     ---       #166
      00FF7C00H   LINE      CODE     ---       #167
      00FF7C05H   LINE      CODE     ---       #173
      00FF7C0AH   LINE      CODE     ---       #174
      00FF7C0FH   LINE      CODE     ---       #175
      00FF7C14H   LINE      CODE     ---       #176
      00FF7C19H   LINE      CODE     ---       #177
      00FF7C1DH   LINE      CODE     ---       #178
      00FF7C22H   LINE      CODE     ---       #179
      00FF7C27H   LINE      CODE     ---       #180
      00FF7C2CH   LINE      CODE     ---       #181
      00FF7C31H   LINE      CODE     ---       #182
      00FF7C36H   LINE      CODE     ---       #183
      00FF7C3BH   LINE      CODE     ---       #184
      00FF7C40H   LINE      CODE     ---       #185
      00FF7C45H   LINE      CODE     ---       #186
L251 LINKER/LOCATER V4.66.93.0                                                        05/17/2024  20:59:59  PAGE 84


      00FF7C4AH   LINE      CODE     ---       #187
      00FF7C4FH   LINE      CODE     ---       #188
      00FF7C54H   LINE      CODE     ---       #189
      00FF7C59H   LINE      CODE     ---       #190
      00FF7C5EH   LINE      CODE     ---       #191
      00FF7C63H   LINE      CODE     ---       #192
      00FF7C68H   LINE      CODE     ---       #193
      00FF7C6CH   LINE      CODE     ---       #194
      00FF7C72H   LINE      CODE     ---       #195
      ---         BLOCKEND  ---      ---       LVL=0

      00FF88C9H   BLOCK     CODE     ---       LVL=0
      00000EADH   SYMBOL    EDATA    BYTE      x
      00000EAEH   SYMBOL    EDATA    BYTE      y
      00FF88C9H   LINE      CODE     ---       #205
      00FF88D1H   LINE      CODE     ---       #207
      00FF88DCH   LINE      CODE     ---       #208
      00FF88F2H   LINE      CODE     ---       #209
      00FF88FDH   LINE      CODE     ---       #210
      ---         BLOCKEND  ---      ---       LVL=0

      00FF8429H   BLOCK     CODE     ---       LVL=0
      00000E53H   SYMBOL    EDATA    BYTE      bmp_data
      00FF842DH   BLOCK     CODE     NEAR LAB  LVL=1
      00000E54H   SYMBOL    EDATA    BYTE      y
      00000E55H   SYMBOL    EDATA    BYTE      x
      ---         BLOCKEND  ---      ---       LVL=1
      00FF8429H   LINE      CODE     ---       #219
      00FF842DH   LINE      CODE     ---       #220
      00FF842DH   LINE      CODE     ---       #223
      00FF8434H   LINE      CODE     ---       #225
      00FF843FH   LINE      CODE     ---       #226
      00FF8444H   LINE      CODE     ---       #227
      00FF8449H   LINE      CODE     ---       #228
      00FF846EH   LINE      CODE     ---       #229
      00FF8485H   LINE      CODE     ---       #230
      ---         BLOCKEND  ---      ---       LVL=0
      00000E56H   SYMBOL    EDATA    BYTE      x
      00000E57H   SYMBOL    EDATA    BYTE      y
      00000E58H   SYMBOL    EDATA    BYTE      data1
      00000EAFH   SYMBOL    EDATA    BYTE      x
      00000EB0H   SYMBOL    EDATA    BYTE      y

      00FF75CEH   BLOCK     CODE     ---       LVL=0
      00000BCAH   SYMBOL    EDATA    BYTE      x
      00000BCBH   SYMBOL    EDATA    BYTE      y
      00000BCCH   SYMBOL    EDATA    ---       ch
      00FF75DAH   BLOCK     CODE     NEAR LAB  LVL=1
      00000BD0H   SYMBOL    EDATA    BYTE      c
      00000BD1H   SYMBOL    EDATA    BYTE      i
      00000BD2H   SYMBOL    EDATA    BYTE      j
      ---         BLOCKEND  ---      ---       LVL=1
      00FF75CEH   LINE      CODE     ---       #279
      00FF75DAH   LINE      CODE     ---       #280
      00FF75DAH   LINE      CODE     ---       #281
      00FF75E9H   LINE      CODE     ---       #282
      00FF75ECH   LINE      CODE     ---       #284
      00FF7607H   LINE      CODE     ---       #285
      00FF7623H   LINE      CODE     ---       #286
      00FF762EH   LINE      CODE     ---       #287
      00FF766EH   LINE      CODE     ---       #288
      00FF767AH   LINE      CODE     ---       #289
      00FF7687H   LINE      CODE     ---       #290
      00FF769EH   LINE      CODE     ---       #291
      ---         BLOCKEND  ---      ---       LVL=0
L251 LINKER/LOCATER V4.66.93.0                                                        05/17/2024  20:59:59  PAGE 85



      00FF7199H   BLOCK     CODE     ---       LVL=0
      00000BD3H   SYMBOL    EDATA    BYTE      x
      00000BD4H   SYMBOL    EDATA    BYTE      y
      00000BD5H   SYMBOL    EDATA    ---       ch
      00FF71A5H   BLOCK     CODE     NEAR LAB  LVL=1
      00000BD9H   SYMBOL    EDATA    BYTE      c
      00000BDAH   SYMBOL    EDATA    BYTE      i
      00000BDBH   SYMBOL    EDATA    BYTE      j
      ---         BLOCKEND  ---      ---       LVL=1
      00FF7199H   LINE      CODE     ---       #302
      00FF71A5H   LINE      CODE     ---       #303
      00FF71A5H   LINE      CODE     ---       #304
      00FF71B4H   LINE      CODE     ---       #306
      00FF71B7H   LINE      CODE     ---       #308
      00FF71D2H   LINE      CODE     ---       #309
      00FF71EEH   LINE      CODE     ---       #311
      00FF71F9H   LINE      CODE     ---       #312
      00FF7239H   LINE      CODE     ---       #314
      00FF7249H   LINE      CODE     ---       #315
      00FF7289H   LINE      CODE     ---       #317
      00FF7295H   LINE      CODE     ---       #318
      00FF72A2H   LINE      CODE     ---       #319
      00FF72B9H   LINE      CODE     ---       #320
      ---         BLOCKEND  ---      ---       LVL=0

      00FF8A8AH   BLOCK     CODE     ---       LVL=0
      00000A93H   SYMBOL    EDATA    BYTE      x
      00000A94H   SYMBOL    EDATA    BYTE      y
      00000A95H   SYMBOL    EDATA    WORD      num
      00FF8A96H   BLOCK     CODE     NEAR LAB  LVL=1
      00000A97H   SYMBOL    EDATA    ---       ch
      ---         BLOCKEND  ---      ---       LVL=1
      00FF8A8AH   LINE      CODE     ---       #331
      00FF8A96H   LINE      CODE     ---       #332
      00FF8A96H   LINE      CODE     ---       #335
      00FF8AA1H   LINE      CODE     ---       #338
      00FF8AB0H   LINE      CODE     ---       #339
      ---         BLOCKEND  ---      ---       LVL=0

      00FF8A63H   BLOCK     CODE     ---       LVL=0
      00000A9EH   SYMBOL    EDATA    BYTE      x
      00000A9FH   SYMBOL    EDATA    BYTE      y
      00000AA0H   SYMBOL    EDATA    WORD      num
      00FF8A6FH   BLOCK     CODE     NEAR LAB  LVL=1
      00000AA2H   SYMBOL    EDATA    ---       ch
      ---         BLOCKEND  ---      ---       LVL=1
      00FF8A63H   LINE      CODE     ---       #350
      00FF8A6FH   LINE      CODE     ---       #351
      00FF8A6FH   LINE      CODE     ---       #354
      00FF8A7AH   LINE      CODE     ---       #356
      00FF8A89H   LINE      CODE     ---       #358
      ---         BLOCKEND  ---      ---       LVL=0

      00FF7F9CH   BLOCK     CODE     ---       LVL=0
      00000AA9H   SYMBOL    EDATA    BYTE      x
      00000AAAH   SYMBOL    EDATA    BYTE      y
      00000AABH   SYMBOL    EDATA    INT       num
      00FF7FA8H   BLOCK     CODE     NEAR LAB  LVL=1
      00000AADH   SYMBOL    EDATA    ---       ch
      ---         BLOCKEND  ---      ---       LVL=1
      00FF7F9CH   LINE      CODE     ---       #369
      00FF7FA8H   LINE      CODE     ---       #370
      00FF7FA8H   LINE      CODE     ---       #372
      00FF7FD5H   LINE      CODE     ---       #373
L251 LINKER/LOCATER V4.66.93.0                                                        05/17/2024  20:59:59  PAGE 86


      00FF7FE8H   LINE      CODE     ---       #374
      00FF7FF4H   LINE      CODE     ---       #376
      00FF7FFFH   LINE      CODE     ---       #377
      00FF800EH   LINE      CODE     ---       #378
      ---         BLOCKEND  ---      ---       LVL=0
      000006EEH   SYMBOL    EDATA    WORD      x
      000006F0H   SYMBOL    EDATA    WORD      y
      000006F2H   SYMBOL    EDATA    LONG      dat
      000006F6H   SYMBOL    EDATA    BYTE      num
      000006F7H   SYMBOL    EDATA    ---       buff
      00000719H   SYMBOL    EDATA    BYTE      length

      00FF6F1CH   BLOCK     CODE     ---       LVL=0
      0000057FH   SYMBOL    EDATA    WORD      x
      00000581H   SYMBOL    EDATA    WORD      y
      00000583H   SYMBOL    EDATA    FLOAT     dat
      00000587H   SYMBOL    EDATA    BYTE      num
      00000588H   SYMBOL    EDATA    BYTE      pointnum
      00FF6F2CH   BLOCK     CODE     NEAR LAB  LVL=1
      00000589H   SYMBOL    EDATA    BYTE      length
      0000058AH   SYMBOL    EDATA    ---       buff
      000005ACH   SYMBOL    EDATA    CHAR      start
      000005ADH   SYMBOL    EDATA    CHAR      end
      000005AEH   SYMBOL    EDATA    CHAR      point
      ---         BLOCKEND  ---      ---       LVL=1
      00FF6F1CH   LINE      CODE     ---       #431
      00FF6F2CH   LINE      CODE     ---       #432
      00FF6F2CH   LINE      CODE     ---       #437
      00FF6F3CH   LINE      CODE     ---       #438
      00FF6F4CH   LINE      CODE     ---       #440
      00FF6F74H   LINE      CODE     ---       #443
      00FF6F8FH   LINE      CODE     ---       #444
      00FF6F9CH   LINE      CODE     ---       #445
      00FF6F9CH   LINE      CODE     ---       #446
      00FF6FACH   LINE      CODE     ---       #447
      00FF6FC4H   LINE      CODE     ---       #448
      00FF6FDCH   LINE      CODE     ---       #449
      00FF6FDEH   LINE      CODE     ---       #451
      00FF6FEFH   LINE      CODE     ---       #452
      00FF6FFCH   LINE      CODE     ---       #453
      00FF7009H   LINE      CODE     ---       #454
      00FF7012H   LINE      CODE     ---       #456
      00FF7030H   LINE      CODE     ---       #457
      00FF7041H   LINE      CODE     ---       #459
      00FF7051H   LINE      CODE     ---       #461
      00FF7060H   LINE      CODE     ---       #462
      ---         BLOCKEND  ---      ---       LVL=0

      00FF6DD7H   BLOCK     CODE     ---       LVL=0
      000005AFH   SYMBOL    EDATA    WORD      x
      000005B1H   SYMBOL    EDATA    WORD      y
      000005B3H   SYMBOL    EDATA    FLOAT     dat
      000005B7H   SYMBOL    EDATA    BYTE      num
      000005B8H   SYMBOL    EDATA    BYTE      pointnum
      00FF6DE7H   BLOCK     CODE     NEAR LAB  LVL=1
      000005B9H   SYMBOL    EDATA    BYTE      length
      000005BAH   SYMBOL    EDATA    ---       buff
      000005DCH   SYMBOL    EDATA    CHAR      start
      000005DDH   SYMBOL    EDATA    CHAR      end
      000005DEH   SYMBOL    EDATA    CHAR      point
      ---         BLOCKEND  ---      ---       LVL=1
      00FF6DD7H   LINE      CODE     ---       #480
      00FF6DE7H   LINE      CODE     ---       #481
      00FF6DE7H   LINE      CODE     ---       #486
      00FF6DF7H   LINE      CODE     ---       #487
L251 LINKER/LOCATER V4.66.93.0                                                        05/17/2024  20:59:59  PAGE 87


      00FF6E07H   LINE      CODE     ---       #489
      00FF6E2FH   LINE      CODE     ---       #492
      00FF6E4AH   LINE      CODE     ---       #493
      00FF6E57H   LINE      CODE     ---       #494
      00FF6E57H   LINE      CODE     ---       #495
      00FF6E67H   LINE      CODE     ---       #496
      00FF6E7FH   LINE      CODE     ---       #497
      00FF6E97H   LINE      CODE     ---       #498
      00FF6E99H   LINE      CODE     ---       #500
      00FF6EAAH   LINE      CODE     ---       #501
      00FF6EB7H   LINE      CODE     ---       #502
      00FF6EC4H   LINE      CODE     ---       #503
      00FF6ECDH   LINE      CODE     ---       #505
      00FF6EEBH   LINE      CODE     ---       #506
      00FF6EFCH   LINE      CODE     ---       #508
      00FF6F0CH   LINE      CODE     ---       #510
      00FF6F1BH   LINE      CODE     ---       #511
      ---         BLOCKEND  ---      ---       LVL=0
      000008B9H   SYMBOL    EDATA    WORD      high
      000008BBH   SYMBOL    EDATA    WORD      width
      000008BDH   SYMBOL    EDATA    ---       p
      000008C1H   SYMBOL    EDATA    BYTE      value
      000008C2H   SYMBOL    EDATA    WORD      i
      000008C4H   SYMBOL    EDATA    WORD      j
      000008C6H   SYMBOL    EDATA    WORD      temp
      000008C8H   SYMBOL    EDATA    WORD      temp1
      000008CAH   SYMBOL    EDATA    BYTE      dat
      0000093BH   SYMBOL    EDATA    BYTE      x
      0000093CH   SYMBOL    EDATA    BYTE      y
      0000093DH   SYMBOL    EDATA    BYTE      size
      0000093EH   SYMBOL    EDATA    ---       p
      00000942H   SYMBOL    EDATA    BYTE      len
      00000943H   SYMBOL    EDATA    WORD      i
      00000945H   SYMBOL    EDATA    WORD      j
      00000947H   SYMBOL    EDATA    WORD      k
      00000EDBH   SYMBOL    EDATA    BYTE      dat
      00000EDCH   SYMBOL    EDATA    BYTE      cmd
      00000C5FH   SYMBOL    EDATA    WORD      hex
      00000C61H   SYMBOL    EDATA    ---       Print
      00000C65H   SYMBOL    EDATA    BYTE      hexcheck
      00000C66H   SYMBOL    EDATA    BYTE      TEMP
      00000EB1H   SYMBOL    EDATA    BYTE      x
      00000EB2H   SYMBOL    EDATA    BYTE      y
      00000E59H   SYMBOL    EDATA    BYTE      bmp_data
      00000E5AH   SYMBOL    EDATA    BYTE      y
      00000E5BH   SYMBOL    EDATA    BYTE      x
      00000E5CH   SYMBOL    EDATA    BYTE      x
      00000E5DH   SYMBOL    EDATA    BYTE      y
      00000E5EH   SYMBOL    EDATA    BYTE      data1
      00000EB3H   SYMBOL    EDATA    BYTE      x
      00000EB4H   SYMBOL    EDATA    BYTE      y
      00000BDCH   SYMBOL    EDATA    BYTE      x
      00000BDDH   SYMBOL    EDATA    BYTE      y
      00000BDEH   SYMBOL    EDATA    ---       ch
      00000BE2H   SYMBOL    EDATA    BYTE      c
      00000BE3H   SYMBOL    EDATA    BYTE      i
      00000BE4H   SYMBOL    EDATA    BYTE      j
      00000BE5H   SYMBOL    EDATA    BYTE      x
      00000BE6H   SYMBOL    EDATA    BYTE      y
      00000BE7H   SYMBOL    EDATA    ---       ch
      00000BEBH   SYMBOL    EDATA    BYTE      c
      00000BECH   SYMBOL    EDATA    BYTE      i
      00000BEDH   SYMBOL    EDATA    BYTE      j
      00000AB4H   SYMBOL    EDATA    BYTE      x
      00000AB5H   SYMBOL    EDATA    BYTE      y
L251 LINKER/LOCATER V4.66.93.0                                                        05/17/2024  20:59:59  PAGE 88


      00000AB6H   SYMBOL    EDATA    WORD      num
      00000AB8H   SYMBOL    EDATA    ---       ch
      00000ABFH   SYMBOL    EDATA    BYTE      x
      00000AC0H   SYMBOL    EDATA    BYTE      y
      00000AC1H   SYMBOL    EDATA    INT       num
      00000AC3H   SYMBOL    EDATA    ---       ch
      0000071AH   SYMBOL    EDATA    WORD      x
      0000071CH   SYMBOL    EDATA    WORD      y
      0000071EH   SYMBOL    EDATA    LONG      dat
      00000722H   SYMBOL    EDATA    BYTE      num
      00000723H   SYMBOL    EDATA    ---       buff
      00000745H   SYMBOL    EDATA    BYTE      length
      000005DFH   SYMBOL    EDATA    WORD      x
      000005E1H   SYMBOL    EDATA    WORD      y
      000005E3H   SYMBOL    EDATA    FLOAT     dat
      000005E7H   SYMBOL    EDATA    BYTE      num
      000005E8H   SYMBOL    EDATA    BYTE      pointnum
      000005E9H   SYMBOL    EDATA    BYTE      length
      000005EAH   SYMBOL    EDATA    ---       buff
      0000060CH   SYMBOL    EDATA    CHAR      start
      0000060DH   SYMBOL    EDATA    CHAR      end
      0000060EH   SYMBOL    EDATA    CHAR      point
      000008CBH   SYMBOL    EDATA    WORD      high
      000008CDH   SYMBOL    EDATA    WORD      width
      000008CFH   SYMBOL    EDATA    ---       p
      000008D3H   SYMBOL    EDATA    BYTE      value
      000008D4H   SYMBOL    EDATA    WORD      i
      000008D6H   SYMBOL    EDATA    WORD      j
      000008D8H   SYMBOL    EDATA    WORD      temp
      000008DAH   SYMBOL    EDATA    WORD      temp1
      000008DCH   SYMBOL    EDATA    BYTE      dat
      00000949H   SYMBOL    EDATA    BYTE      x
      0000094AH   SYMBOL    EDATA    BYTE      y
      0000094BH   SYMBOL    EDATA    BYTE      size
      0000094CH   SYMBOL    EDATA    ---       p
      00000950H   SYMBOL    EDATA    BYTE      len
      00000951H   SYMBOL    EDATA    WORD      i
      00000953H   SYMBOL    EDATA    WORD      j
      00000955H   SYMBOL    EDATA    WORD      k

      ---         MODULE    ---      ---       SEEKFREE_PRINTF
      00FF73D2H   PUBLIC    CODE     ---       number_conversion_ascii
      00FF45EDH   PUBLIC    CODE     ---       zf_sprintf
      00FF7DA5H   PUBLIC    CODE     ---       printf_reverse_order
      0000086CH   PUBLIC    EDATA    BYTE      ?number_conversion_ascii?BYTE
      00000336H   PUBLIC    EDATA    BYTE      ?zf_sprintf?BYTE
      000000D0H   SFRSYM    DATA     BYTE      PSW
      0000009DH   SFRSYM    DATA     BYTE      IRCBAND
      00000097H   SFRSYM    DATA     BYTE      AUXR2
      000000EFH   SFRSYM    DATA     BYTE      AUXINTIF
      000000FDH   SFRSYM    DATA     BYTE      S4CON
      000000ACH   SFRSYM    DATA     BYTE      S3CON
      0000009AH   SFRSYM    DATA     BYTE      S2CON
      000000B7H   SFRSYM    DATA     BYTE      IPH
      000000CDH   SFRSYM    DATA     BYTE      SPSTAT
      000000DDH   SFRSYM    DATA     BYTE      T4T3M
      000000C1H   SFRSYM    DATA     BYTE      WDT_CONTR
      000000DFH   SFRSYM    DATA     BYTE      IP3
      000000F4H   SFRSYM    DATA     BYTE      USBCON
      000000B5H   SFRSYM    DATA     BYTE      IP2
      000000FFH   SFRSYM    DATA     BYTE      RSTCFG
      000000C7H   SFRSYM    DATA     BYTE      IAP_CONTR
      000000F9H   SFRSYM    DATA     BYTE      LINICR
      0000008EH   SFRSYM    DATA     BYTE      AUXR
      000000AFH   SFRSYM    DATA     BYTE      IE2
L251 LINKER/LOCATER V4.66.93.0                                                        05/17/2024  20:59:59  PAGE 89


      00000088H   SFRSYM    DATA     BYTE      TCON
      00000089H   SFRSYM    DATA     BYTE      TMOD
      00000098H   SFRSYM    DATA     BYTE      SCON
      000000F1H   SFRSYM    DATA     BYTE      CANICR
      00000087H   SFRSYM    DATA     BYTE      PCON
      000000BCH   SFRSYM    DATA     BYTE      ADC_CONTR
      000000E7H   SFRSYM    DATA     BYTE      CMPCR2
      000000E6H   SFRSYM    DATA     BYTE      CMPCR1
      000000DEH   SFRSYM    DATA     BYTE      ADCCFG
      000000B8H   SFRSYM    DATA     BYTE      IP
      0000008FH   SFRSYM    DATA     BYTE      INTCLKO
      000000EEH   SFRSYM    DATA     BYTE      IP3H
      000000B6H   SFRSYM    DATA     BYTE      IP2H
      000000A8H   SFRSYM    DATA     BYTE      IE
      000000BBH   SFRSYM    DATA     BYTE      P_SW3
      000000BAH   SFRSYM    DATA     BYTE      P_SW2
      000000A2H   SFRSYM    DATA     BYTE      P_SW1
      000000CEH   SFRSYM    DATA     BYTE      SPCTL
      000000F8H   SFRSYM    DATA     BYTE      P7
      000000E8H   SFRSYM    DATA     BYTE      P6
      000000C8H   SFRSYM    DATA     BYTE      P5
      000000C0H   SFRSYM    DATA     BYTE      P4
      000000B0H   SFRSYM    DATA     BYTE      P3
      000000A0H   SFRSYM    DATA     BYTE      P2
      00000090H   SFRSYM    DATA     BYTE      P1
      00000080H   SFRSYM    DATA     BYTE      P0

      00FF73D2H   BLOCK     CODE     ---       LVL=0
      0000086CH   SYMBOL    EDATA    DWORD     dat
      00000870H   SYMBOL    EDATA    ---       p
      00000874H   SYMBOL    EDATA    BYTE      neg_type
      00000875H   SYMBOL    EDATA    BYTE      radix
      00FF73DEH   BLOCK     CODE     NEAR LAB  LVL=1
      00000876H   SYMBOL    EDATA    LONG      neg_dat
      0000087AH   SYMBOL    EDATA    DWORD     pos_dat
      0000087EH   SYMBOL    EDATA    BYTE      temp_data
      0000087FH   SYMBOL    EDATA    BYTE      valid_num
      ---         BLOCKEND  ---      ---       LVL=1
      00FF73D2H   LINE      CODE     ---       #25
      00FF73DEH   LINE      CODE     ---       #26
      00FF73DEH   LINE      CODE     ---       #29
      00FF73E3H   LINE      CODE     ---       #30
      00FF73E8H   LINE      CODE     ---       #32
      00FF73F1H   LINE      CODE     ---       #34
      00FF73F9H   LINE      CODE     ---       #35
      00FF7411H   LINE      CODE     ---       #36
      00FF7411H   LINE      CODE     ---       #38
      00FF742DH   LINE      CODE     ---       #39
      00FF7440H   LINE      CODE     ---       #40
      00FF744DH   LINE      CODE     ---       #42
      00FF7455H   LINE      CODE     ---       #43
      00FF745FH   LINE      CODE     ---       #44
      00FF7461H   LINE      CODE     ---       #45
      00FF7464H   LINE      CODE     ---       #48
      00FF746CH   LINE      CODE     ---       #49
      00FF746CH   LINE      CODE     ---       #51
      00FF7481H   LINE      CODE     ---       #52
      00FF7499H   LINE      CODE     ---       #53
      00FF74A5H   LINE      CODE     ---       #55
      00FF74B0H   LINE      CODE     ---       #57
      00FF74C3H   LINE      CODE     ---       #58
      00FF74D0H   LINE      CODE     ---       #60
      00FF74D8H   LINE      CODE     ---       #61
      00FF74E2H   LINE      CODE     ---       #62
      00FF74E4H   LINE      CODE     ---       #63
L251 LINKER/LOCATER V4.66.93.0                                                        05/17/2024  20:59:59  PAGE 90


      00FF74E4H   LINE      CODE     ---       #64
      00FF74E8H   LINE      CODE     ---       #65
      ---         BLOCKEND  ---      ---       LVL=0

      00FF7DA5H   BLOCK     CODE     ---       LVL=0
      00000972H   SYMBOL    EDATA    ---       d_buff
      00000976H   SYMBOL    EDATA    DWORD     len
      00FF7DADH   BLOCK     CODE     NEAR LAB  LVL=1
      0000097AH   SYMBOL    EDATA    DWORD     i
      0000097EH   SYMBOL    EDATA    CHAR      temp_data
      ---         BLOCKEND  ---      ---       LVL=1
      00FF7DA5H   LINE      CODE     ---       #67
      00FF7DADH   LINE      CODE     ---       #68
      00FF7DADH   LINE      CODE     ---       #71
      00FF7DB5H   LINE      CODE     ---       #73
      00FF7DD4H   LINE      CODE     ---       #74
      00FF7DFEH   LINE      CODE     ---       #75
      00FF7E11H   LINE      CODE     ---       #76
      00FF7E39H   LINE      CODE     ---       #77
      ---         BLOCKEND  ---      ---       LVL=0

      00FF45EDH   BLOCK     CODE     ---       LVL=0
      00000336H   SYMBOL    EDATA    ---       buff
      0000033AH   SYMBOL    EDATA    ---       format
      00FF45F5H   BLOCK     CODE     NEAR LAB  LVL=1
      0000033EH   SYMBOL    EDATA    DWORD     buff_len
      00000342H   SYMBOL    EDATA    ---       arg
      00FF460AH   BLOCK     CODE     NEAR LAB  LVL=2
      00000346H   SYMBOL    EDATA    CHAR      ret
      00FF473FH   BLOCK     CODE     NEAR LAB  LVL=3
      00000347H   SYMBOL    EDATA    CHAR      ch
      ---         BLOCKEND  ---      ---       LVL=3
      00FF477EH   BLOCK     CODE     NEAR LAB  LVL=3
      00000347H   SYMBOL    EDATA    ---       vstr
      00000368H   SYMBOL    EDATA    LONG      ival
      0000036CH   SYMBOL    EDATA    BYTE      vlen
      ---         BLOCKEND  ---      ---       LVL=3
      00FF481FH   BLOCK     CODE     NEAR LAB  LVL=3
      00000347H   SYMBOL    EDATA    ---       vstr
      00000368H   SYMBOL    EDATA    FLOAT     ival
      0000036CH   SYMBOL    EDATA    BYTE      vlen
      ---         BLOCKEND  ---      ---       LVL=3
      00FF49C0H   BLOCK     CODE     NEAR LAB  LVL=3
      00000347H   SYMBOL    EDATA    ---       vstr
      00000368H   SYMBOL    EDATA    DWORD     ival
      0000036CH   SYMBOL    EDATA    BYTE      vlen
      ---         BLOCKEND  ---      ---       LVL=3
      00FF4A38H   BLOCK     CODE     NEAR LAB  LVL=3
      00000347H   SYMBOL    EDATA    ---       vstr
      00000368H   SYMBOL    EDATA    DWORD     ival
      0000036CH   SYMBOL    EDATA    BYTE      vlen
      ---         BLOCKEND  ---      ---       LVL=3
      00FF4AB0H   BLOCK     CODE     NEAR LAB  LVL=3
      00000347H   SYMBOL    EDATA    ---       vstr
      00000368H   SYMBOL    EDATA    DWORD     ival
      0000036CH   SYMBOL    EDATA    BYTE      vlen
      ---         BLOCKEND  ---      ---       LVL=3
      00FF4B28H   BLOCK     CODE     NEAR LAB  LVL=3
      00000347H   SYMBOL    EDATA    ---       pc
      ---         BLOCKEND  ---      ---       LVL=3
      00FF4B82H   BLOCK     CODE     NEAR LAB  LVL=3
      00000347H   SYMBOL    EDATA    ---       vstr
      00000368H   SYMBOL    EDATA    DWORD     ival
      ---         BLOCKEND  ---      ---       LVL=3
      ---         BLOCKEND  ---      ---       LVL=2
L251 LINKER/LOCATER V4.66.93.0                                                        05/17/2024  20:59:59  PAGE 91


      ---         BLOCKEND  ---      ---       LVL=1
      00FF45EDH   LINE      CODE     ---       #212
      00FF45F5H   LINE      CODE     ---       #213
      00FF45F5H   LINE      CODE     ---       #214
      00FF45FBH   LINE      CODE     ---       #216
      00FF4607H   LINE      CODE     ---       #218
      00FF460AH   LINE      CODE     ---       #219
      00FF460AH   LINE      CODE     ---       #220
      00FF4615H   LINE      CODE     ---       #221
      00FF4621H   LINE      CODE     ---       #223
      00FF473CH   LINE      CODE     ---       #225
      00FF473CH   LINE      CODE     ---       #229
      00FF473FH   LINE      CODE     ---       #232
      00FF473FH   LINE      CODE     ---       #233
      00FF473FH   LINE      CODE     ---       #234
      00FF4758H   LINE      CODE     ---       #235
      00FF4763H   LINE      CODE     ---       #236
      00FF476DH   LINE      CODE     ---       #237
      00FF477BH   LINE      CODE     ---       #239
      00FF477EH   LINE      CODE     ---       #242
      00FF477EH   LINE      CODE     ---       #243
      00FF477EH   LINE      CODE     ---       #244
      00FF477EH   LINE      CODE     ---       #246
      00FF4797H   LINE      CODE     ---       #247
      00FF47AEH   LINE      CODE     ---       #249
      00FF47B8H   LINE      CODE     ---       #251
      00FF47C9H   LINE      CODE     ---       #252
      00FF47D6H   LINE      CODE     ---       #253
      00FF47D6H   LINE      CODE     ---       #254
      00FF47E5H   LINE      CODE     ---       #255
      00FF47FAH   LINE      CODE     ---       #256
      00FF480AH   LINE      CODE     ---       #257
      00FF481CH   LINE      CODE     ---       #260
      00FF481FH   LINE      CODE     ---       #262
      00FF481FH   LINE      CODE     ---       #263
      00FF481FH   LINE      CODE     ---       #264
      00FF481FH   LINE      CODE     ---       #266
      00FF4838H   LINE      CODE     ---       #267
      00FF4852H   LINE      CODE     ---       #269
      00FF485DH   LINE      CODE     ---       #271
      00FF486EH   LINE      CODE     ---       #272
      00FF487BH   LINE      CODE     ---       #273
      00FF487BH   LINE      CODE     ---       #274
      00FF488AH   LINE      CODE     ---       #275
      00FF489FH   LINE      CODE     ---       #276
      00FF48AFH   LINE      CODE     ---       #277
      00FF48C1H   LINE      CODE     ---       #279
      00FF48E5H   LINE      CODE     ---       #280
      00FF48E9H   LINE      CODE     ---       #282
      00FF4903H   LINE      CODE     ---       #283
      00FF4905H   LINE      CODE     ---       #286
      00FF4929H   LINE      CODE     ---       #287
      00FF492FH   LINE      CODE     ---       #288
      00FF492FH   LINE      CODE     ---       #290
      00FF4931H   LINE      CODE     ---       #292
      00FF4942H   LINE      CODE     ---       #293
      00FF494FH   LINE      CODE     ---       #294
      00FF4959H   LINE      CODE     ---       #296
      00FF496AH   LINE      CODE     ---       #297
      00FF4977H   LINE      CODE     ---       #299
      00FF4986H   LINE      CODE     ---       #300
      00FF499BH   LINE      CODE     ---       #301
      00FF49ABH   LINE      CODE     ---       #302
      00FF49BDH   LINE      CODE     ---       #304
      00FF49C0H   LINE      CODE     ---       #307
L251 LINKER/LOCATER V4.66.93.0                                                        05/17/2024  20:59:59  PAGE 92


      00FF49C0H   LINE      CODE     ---       #308
      00FF49C0H   LINE      CODE     ---       #310
      00FF49D9H   LINE      CODE     ---       #311
      00FF49EFH   LINE      CODE     ---       #313
      00FF49FEH   LINE      CODE     ---       #314
      00FF4A13H   LINE      CODE     ---       #315
      00FF4A23H   LINE      CODE     ---       #316
      00FF4A35H   LINE      CODE     ---       #317
      00FF4A38H   LINE      CODE     ---       #319
      00FF4A38H   LINE      CODE     ---       #320
      00FF4A38H   LINE      CODE     ---       #322
      00FF4A51H   LINE      CODE     ---       #323
      00FF4A67H   LINE      CODE     ---       #325
      00FF4A76H   LINE      CODE     ---       #326
      00FF4A8BH   LINE      CODE     ---       #327
      00FF4A9BH   LINE      CODE     ---       #328
      00FF4AADH   LINE      CODE     ---       #330
      00FF4AB0H   LINE      CODE     ---       #332
      00FF4AB0H   LINE      CODE     ---       #333
      00FF4AB0H   LINE      CODE     ---       #334
      00FF4AB0H   LINE      CODE     ---       #336
      00FF4AC9H   LINE      CODE     ---       #337
      00FF4ADFH   LINE      CODE     ---       #339
      00FF4AEEH   LINE      CODE     ---       #340
      00FF4B03H   LINE      CODE     ---       #341
      00FF4B13H   LINE      CODE     ---       #342
      00FF4B25H   LINE      CODE     ---       #343
      00FF4B28H   LINE      CODE     ---       #346
      00FF4B28H   LINE      CODE     ---       #347
      00FF4B28H   LINE      CODE     ---       #348
      00FF4B41H   LINE      CODE     ---       #349
      00FF4B43H   LINE      CODE     ---       #351
      00FF4B51H   LINE      CODE     ---       #352
      00FF4B5BH   LINE      CODE     ---       #353
      00FF4B69H   LINE      CODE     ---       #354
      00FF4B73H   LINE      CODE     ---       #355
      00FF4B7FH   LINE      CODE     ---       #356
      00FF4B82H   LINE      CODE     ---       #358
      00FF4B82H   LINE      CODE     ---       #359
      00FF4B82H   LINE      CODE     ---       #361
      00FF4B9BH   LINE      CODE     ---       #363
      00FF4BADH   LINE      CODE     ---       #365
      00FF4BB8H   LINE      CODE     ---       #366
      00FF4BCBH   LINE      CODE     ---       #367
      00FF4BD7H   LINE      CODE     ---       #368
      00FF4BE5H   LINE      CODE     ---       #370
      00FF4BE7H   LINE      CODE     ---       #373
      00FF4BE7H   LINE      CODE     ---       #375
      00FF4BF0H   LINE      CODE     ---       #376
      00FF4BFAH   LINE      CODE     ---       #377
      00FF4C08H   LINE      CODE     ---       #378
      00FF4C0AH   LINE      CODE     ---       #380
      00FF4C0AH   LINE      CODE     ---       #381
      00FF4C0AH   LINE      CODE     ---       #382
      00FF4C0AH   LINE      CODE     ---       #385
      00FF4C18H   LINE      CODE     ---       #386
      00FF4C22H   LINE      CODE     ---       #387
      00FF4C30H   LINE      CODE     ---       #388
      00FF4C30H   LINE      CODE     ---       #389
      00FF4C3AH   LINE      CODE     ---       #390
      00FF4C49H   LINE      CODE     ---       #393
      00FF4C4DH   LINE      CODE     ---       #394
      ---         BLOCKEND  ---      ---       LVL=0

      ---         MODULE    ---      ---       SEEKFREE_TSL1401
L251 LINKER/LOCATER V4.66.93.0                                                        05/17/2024  20:59:59  PAGE 93


      00000129H   PUBLIC    EDATA    BYTE      tsl1401_finish_flag
      0000012AH   PUBLIC    EDATA    ---       ccd_data
      000000D0H   SFRSYM    DATA     BYTE      PSW
      0000009DH   SFRSYM    DATA     BYTE      IRCBAND
      00000097H   SFRSYM    DATA     BYTE      AUXR2
      000000EFH   SFRSYM    DATA     BYTE      AUXINTIF
      000000FDH   SFRSYM    DATA     BYTE      S4CON
      000000ACH   SFRSYM    DATA     BYTE      S3CON
      0000009AH   SFRSYM    DATA     BYTE      S2CON
      000000B7H   SFRSYM    DATA     BYTE      IPH
      000000CDH   SFRSYM    DATA     BYTE      SPSTAT
      000000DDH   SFRSYM    DATA     BYTE      T4T3M
      000000C1H   SFRSYM    DATA     BYTE      WDT_CONTR
      000000DFH   SFRSYM    DATA     BYTE      IP3
      000000F4H   SFRSYM    DATA     BYTE      USBCON
      000000B5H   SFRSYM    DATA     BYTE      IP2
      000000FFH   SFRSYM    DATA     BYTE      RSTCFG
      000000C7H   SFRSYM    DATA     BYTE      IAP_CONTR
      000000F9H   SFRSYM    DATA     BYTE      LINICR
      0000008EH   SFRSYM    DATA     BYTE      AUXR
      000000AFH   SFRSYM    DATA     BYTE      IE2
      000000B0H.3 SFRSYM    DATA     BIT       P33
      00000088H   SFRSYM    DATA     BYTE      TCON
      00000089H   SFRSYM    DATA     BYTE      TMOD
      000000B0H.2 SFRSYM    DATA     BIT       P32
      00000098H   SFRSYM    DATA     BYTE      SCON
      000000F1H   SFRSYM    DATA     BYTE      CANICR
      00000087H   SFRSYM    DATA     BYTE      PCON
      000000BCH   SFRSYM    DATA     BYTE      ADC_CONTR
      000000E7H   SFRSYM    DATA     BYTE      CMPCR2
      000000E6H   SFRSYM    DATA     BYTE      CMPCR1
      000000DEH   SFRSYM    DATA     BYTE      ADCCFG
      000000B8H   SFRSYM    DATA     BYTE      IP
      0000008FH   SFRSYM    DATA     BYTE      INTCLKO
      000000EEH   SFRSYM    DATA     BYTE      IP3H
      000000B6H   SFRSYM    DATA     BYTE      IP2H
      000000A8H   SFRSYM    DATA     BYTE      IE
      000000BBH   SFRSYM    DATA     BYTE      P_SW3
      000000BAH   SFRSYM    DATA     BYTE      P_SW2
      000000A2H   SFRSYM    DATA     BYTE      P_SW1
      000000CEH   SFRSYM    DATA     BYTE      SPCTL
      000000F8H   SFRSYM    DATA     BYTE      P7
      000000E8H   SFRSYM    DATA     BYTE      P6
      000000C8H   SFRSYM    DATA     BYTE      P5
      000000C0H   SFRSYM    DATA     BYTE      P4
      000000B0H   SFRSYM    DATA     BYTE      P3
      000000A0H   SFRSYM    DATA     BYTE      P2
      00000090H   SFRSYM    DATA     BYTE      P1
      00000080H   SFRSYM    DATA     BYTE      P0
      00000CA2H   SYMBOL    EDATA    INT       uart_n
      00000CA4H   SYMBOL    EDATA    ---       dat
      00000CA8H   SYMBOL    EDATA    BYTE      i
      00000EDDH   SYMBOL    EDATA    BYTE      i

      ---         MODULE    ---      ---       SEEKFREE_VIRSCO
      00000B38H   PUBLIC    EDATA    ---       virtual_scope_data
      00000957H   PUBLIC    EDATA    BYTE      ?data_conversion?BYTE
      000000D0H   SFRSYM    DATA     BYTE      PSW
      0000009DH   SFRSYM    DATA     BYTE      IRCBAND
      00000097H   SFRSYM    DATA     BYTE      AUXR2
      000000EFH   SFRSYM    DATA     BYTE      AUXINTIF
      000000FDH   SFRSYM    DATA     BYTE      S4CON
      000000ACH   SFRSYM    DATA     BYTE      S3CON
      0000009AH   SFRSYM    DATA     BYTE      S2CON
      000000B7H   SFRSYM    DATA     BYTE      IPH
L251 LINKER/LOCATER V4.66.93.0                                                        05/17/2024  20:59:59  PAGE 94


      000000CDH   SFRSYM    DATA     BYTE      SPSTAT
      000000DDH   SFRSYM    DATA     BYTE      T4T3M
      000000C1H   SFRSYM    DATA     BYTE      WDT_CONTR
      000000DFH   SFRSYM    DATA     BYTE      IP3
      000000F4H   SFRSYM    DATA     BYTE      USBCON
      000000B5H   SFRSYM    DATA     BYTE      IP2
      000000FFH   SFRSYM    DATA     BYTE      RSTCFG
      000000C7H   SFRSYM    DATA     BYTE      IAP_CONTR
      000000F9H   SFRSYM    DATA     BYTE      LINICR
      0000008EH   SFRSYM    DATA     BYTE      AUXR
      000000AFH   SFRSYM    DATA     BYTE      IE2
      00000088H   SFRSYM    DATA     BYTE      TCON
      00000089H   SFRSYM    DATA     BYTE      TMOD
      00000098H   SFRSYM    DATA     BYTE      SCON
      000000F1H   SFRSYM    DATA     BYTE      CANICR
      00000087H   SFRSYM    DATA     BYTE      PCON
      000000BCH   SFRSYM    DATA     BYTE      ADC_CONTR
      000000E7H   SFRSYM    DATA     BYTE      CMPCR2
      000000E6H   SFRSYM    DATA     BYTE      CMPCR1
      000000DEH   SFRSYM    DATA     BYTE      ADCCFG
      000000B8H   SFRSYM    DATA     BYTE      IP
      0000008FH   SFRSYM    DATA     BYTE      INTCLKO
      000000EEH   SFRSYM    DATA     BYTE      IP3H
      000000B6H   SFRSYM    DATA     BYTE      IP2H
      000000A8H   SFRSYM    DATA     BYTE      IE
      000000BBH   SFRSYM    DATA     BYTE      P_SW3
      000000BAH   SFRSYM    DATA     BYTE      P_SW2
      000000A2H   SFRSYM    DATA     BYTE      P_SW1
      000000CEH   SFRSYM    DATA     BYTE      SPCTL
      000000F8H   SFRSYM    DATA     BYTE      P7
      000000E8H   SFRSYM    DATA     BYTE      P6
      000000C8H   SFRSYM    DATA     BYTE      P5
      000000C0H   SFRSYM    DATA     BYTE      P4
      000000B0H   SFRSYM    DATA     BYTE      P3
      000000A0H   SFRSYM    DATA     BYTE      P2
      00000090H   SFRSYM    DATA     BYTE      P1
      00000080H   SFRSYM    DATA     BYTE      P0
      00000BEEH   SYMBOL    EDATA    ---       Buf
      00000BF2H   SYMBOL    EDATA    BYTE      CRC_CNT
      00000BF3H   SYMBOL    EDATA    WORD      CRC_Temp
      00000BF5H   SYMBOL    EDATA    BYTE      i
      00000BF6H   SYMBOL    EDATA    BYTE      j
      00000957H   SYMBOL    EDATA    INT       data1
      00000959H   SYMBOL    EDATA    INT       data2
      0000095BH   SYMBOL    EDATA    INT       data3
      0000095DH   SYMBOL    EDATA    INT       data4
      0000095FH   SYMBOL    EDATA    ---       dat
      00000963H   SYMBOL    EDATA    WORD      CRC16

      ---         MODULE    ---      ---       SEEKFREE_WIRELESS
      00FF8B3DH   PUBLIC    CODE     ---       wireless_uart_callback
      000000D0H   SFRSYM    DATA     BYTE      PSW
      0000009DH   SFRSYM    DATA     BYTE      IRCBAND
      00000097H   SFRSYM    DATA     BYTE      AUXR2
      000000EFH   SFRSYM    DATA     BYTE      AUXINTIF
      000000FDH   SFRSYM    DATA     BYTE      S4CON
      000000ACH   SFRSYM    DATA     BYTE      S3CON
      0000009AH   SFRSYM    DATA     BYTE      S2CON
      000000FEH   SFRSYM    DATA     BYTE      S4BUF
      000000B7H   SFRSYM    DATA     BYTE      IPH
      000000CDH   SFRSYM    DATA     BYTE      SPSTAT
      000000DDH   SFRSYM    DATA     BYTE      T4T3M
      000000C1H   SFRSYM    DATA     BYTE      WDT_CONTR
      000000DFH   SFRSYM    DATA     BYTE      IP3
      000000F4H   SFRSYM    DATA     BYTE      USBCON
L251 LINKER/LOCATER V4.66.93.0                                                        05/17/2024  20:59:59  PAGE 95


      000000B5H   SFRSYM    DATA     BYTE      IP2
      000000FFH   SFRSYM    DATA     BYTE      RSTCFG
      000000C7H   SFRSYM    DATA     BYTE      IAP_CONTR
      000000F9H   SFRSYM    DATA     BYTE      LINICR
      0000008EH   SFRSYM    DATA     BYTE      AUXR
      000000AFH   SFRSYM    DATA     BYTE      IE2
      00000080H.7 SFRSYM    DATA     BIT       P07
      00000088H   SFRSYM    DATA     BYTE      TCON
      00000089H   SFRSYM    DATA     BYTE      TMOD
      00000098H   SFRSYM    DATA     BYTE      SCON
      000000F1H   SFRSYM    DATA     BYTE      CANICR
      00000087H   SFRSYM    DATA     BYTE      PCON
      000000BCH   SFRSYM    DATA     BYTE      ADC_CONTR
      000000E7H   SFRSYM    DATA     BYTE      CMPCR2
      000000E6H   SFRSYM    DATA     BYTE      CMPCR1
      000000DEH   SFRSYM    DATA     BYTE      ADCCFG
      000000B8H   SFRSYM    DATA     BYTE      IP
      0000008FH   SFRSYM    DATA     BYTE      INTCLKO
      000000EEH   SFRSYM    DATA     BYTE      IP3H
      000000B6H   SFRSYM    DATA     BYTE      IP2H
      000000A8H   SFRSYM    DATA     BYTE      IE
      000000BBH   SFRSYM    DATA     BYTE      P_SW3
      000000BAH   SFRSYM    DATA     BYTE      P_SW2
      000000A2H   SFRSYM    DATA     BYTE      P_SW1
      000000CEH   SFRSYM    DATA     BYTE      SPCTL
      000000F8H   SFRSYM    DATA     BYTE      P7
      000000E8H   SFRSYM    DATA     BYTE      P6
      000000C8H   SFRSYM    DATA     BYTE      P5
      000000C0H   SFRSYM    DATA     BYTE      P4
      000000B0H   SFRSYM    DATA     BYTE      P3
      000000A0H   SFRSYM    DATA     BYTE      P2
      00000090H   SFRSYM    DATA     BYTE      P1
      00000080H   SFRSYM    DATA     BYTE      P0
      00000418H   SYMBOL    EDATA    BYTE      wireless_uart_data
      00000419H   SYMBOL    EDATA    ---       wireless_uart_fifo
      0000042DH   SYMBOL    EDATA    ---       wireless_uart_buffer

      00FF8B3DH   BLOCK     CODE     ---       LVL=0
      00FF8B3DH   LINE      CODE     ---       #48
      00FF8B3DH   LINE      CODE     ---       #51
      00FF8B43H   LINE      CODE     ---       #52
      00FF8B56H   LINE      CODE     ---       #53
      ---         BLOCKEND  ---      ---       LVL=0
      00000EDEH   SYMBOL    EDATA    BYTE      dat
      00000D51H   SYMBOL    EDATA    ---       buff
      00000D55H   SYMBOL    EDATA    WORD      len
      00000A4BH   SYMBOL    EDATA    ---       buff
      00000A4FH   SYMBOL    EDATA    DWORD     len
      00000A53H   SYMBOL    EDATA    DWORD     data_len

      ---         MODULE    ---      ---       isr
      00FF87D8H   PUBLIC    CODE     ---       UART1_Isr
      00FF8B57H   PUBLIC    CODE     ---       UART2_Isr
      00FF8B71H   PUBLIC    CODE     ---       UART3_Isr
      00FF830BH   PUBLIC    CODE     ---       UART4_Isr
      00FF0086H   PUBLIC    CODE     ---       INT0_Isr
      00FF000AH   PUBLIC    CODE     ---       INT1_Isr
      00FF008EH   PUBLIC    CODE     ---       INT2_Isr
      00FF0096H   PUBLIC    CODE     ---       INT3_Isr
      00FF009EH   PUBLIC    CODE     ---       INT4_Isr
      00FF8B8BH   PUBLIC    CODE     ---       TM0_Isr
      00FF8C12H   PUBLIC    CODE     ---       TM1_Isr
      00FF8C28H   PUBLIC    CODE     ---       TM2_Isr
      00FF8C2CH   PUBLIC    CODE     ---       TM3_Isr
      00000D96H   PUBLIC    EDATA    DWORD     SysTickFlag
L251 LINKER/LOCATER V4.66.93.0                                                        05/17/2024  20:59:59  PAGE 96


      000000D0H   SFRSYM    DATA     BYTE      PSW
      0000009DH   SFRSYM    DATA     BYTE      IRCBAND
      00000097H   SFRSYM    DATA     BYTE      AUXR2
      000000EFH   SFRSYM    DATA     BYTE      AUXINTIF
      000000FDH   SFRSYM    DATA     BYTE      S4CON
      000000ACH   SFRSYM    DATA     BYTE      S3CON
      0000009AH   SFRSYM    DATA     BYTE      S2CON
      000000B7H   SFRSYM    DATA     BYTE      IPH
      000000CDH   SFRSYM    DATA     BYTE      SPSTAT
      000000DDH   SFRSYM    DATA     BYTE      T4T3M
      000000C1H   SFRSYM    DATA     BYTE      WDT_CONTR
      000000DFH   SFRSYM    DATA     BYTE      IP3
      000000F4H   SFRSYM    DATA     BYTE      USBCON
      000000B5H   SFRSYM    DATA     BYTE      IP2
      000000FFH   SFRSYM    DATA     BYTE      RSTCFG
      000000C7H   SFRSYM    DATA     BYTE      IAP_CONTR
      000000F9H   SFRSYM    DATA     BYTE      LINICR
      0000008EH   SFRSYM    DATA     BYTE      AUXR
      000000AFH   SFRSYM    DATA     BYTE      IE2
      000000C8H.2 SFRSYM    DATA     BIT       P52
      00000088H   SFRSYM    DATA     BYTE      TCON
      00000089H   SFRSYM    DATA     BYTE      TMOD
      00000080H.4 SFRSYM    DATA     BIT       P04
      00000098H   SFRSYM    DATA     BYTE      SCON
      000000F1H   SFRSYM    DATA     BYTE      CANICR
      00000087H   SFRSYM    DATA     BYTE      PCON
      00000099H   SFRSYM    DATA     BYTE      SBUF
      000000BCH   SFRSYM    DATA     BYTE      ADC_CONTR
      000000E7H   SFRSYM    DATA     BYTE      CMPCR2
      000000E6H   SFRSYM    DATA     BYTE      CMPCR1
      000000DEH   SFRSYM    DATA     BYTE      ADCCFG
      000000B8H   SFRSYM    DATA     BYTE      IP
      0000008FH   SFRSYM    DATA     BYTE      INTCLKO
      000000EEH   SFRSYM    DATA     BYTE      IP3H
      000000B6H   SFRSYM    DATA     BYTE      IP2H
      000000A8H   SFRSYM    DATA     BYTE      IE
      000000BBH   SFRSYM    DATA     BYTE      P_SW3
      000000BAH   SFRSYM    DATA     BYTE      P_SW2
      000000A2H   SFRSYM    DATA     BYTE      P_SW1
      000000CEH   SFRSYM    DATA     BYTE      SPCTL
      000000F8H   SFRSYM    DATA     BYTE      P7
      000000E8H   SFRSYM    DATA     BYTE      P6
      000000C8H   SFRSYM    DATA     BYTE      P5
      000000C0H   SFRSYM    DATA     BYTE      P4
      000000B0H   SFRSYM    DATA     BYTE      P3
      000000A0H   SFRSYM    DATA     BYTE      P2
      00000090H   SFRSYM    DATA     BYTE      P1
      00000080H   SFRSYM    DATA     BYTE      P0

      00FF87D8H   BLOCK     CODE     ---       LVL=0
      00FF87DAH   BLOCK     CODE     NEAR LAB  LVL=1
      00000EDFH   SYMBOL    EDATA    BYTE      res
      00000D9AH   SYMBOL    EDATA    BYTE      dwon_count
      ---         BLOCKEND  ---      ---       LVL=1
      00FF87D8H   LINE      CODE     ---       #22
      00FF87DAH   LINE      CODE     ---       #23
      00FF87DAH   LINE      CODE     ---       #26
      00FF87DFH   LINE      CODE     ---       #28
      00FF87E2H   LINE      CODE     ---       #29
      00FF87E7H   LINE      CODE     ---       #30
      00FF87E7H   LINE      CODE     ---       #31
      00FF87ECH   LINE      CODE     ---       #33
      00FF87EFH   LINE      CODE     ---       #34
      00FF87F5H   LINE      CODE     ---       #36
      00FF87FAH   LINE      CODE     ---       #38
L251 LINKER/LOCATER V4.66.93.0                                                        05/17/2024  20:59:59  PAGE 97


      00FF880CH   LINE      CODE     ---       #39
      00FF8810H   LINE      CODE     ---       #40
      00FF8812H   LINE      CODE     ---       #43
      00FF8817H   LINE      CODE     ---       #44
      00FF8817H   LINE      CODE     ---       #45
      ---         BLOCKEND  ---      ---       LVL=0

      00FF8B57H   BLOCK     CODE     ---       LVL=0
      00FF8B57H   LINE      CODE     ---       #49
      00FF8B59H   LINE      CODE     ---       #51
      00FF8B5EH   LINE      CODE     ---       #53
      00FF8B61H   LINE      CODE     ---       #54
      00FF8B66H   LINE      CODE     ---       #55
      00FF8B66H   LINE      CODE     ---       #56
      00FF8B6BH   LINE      CODE     ---       #58
      00FF8B6EH   LINE      CODE     ---       #61
      ---         BLOCKEND  ---      ---       LVL=0

      00FF8B71H   BLOCK     CODE     ---       LVL=0
      00FF8B71H   LINE      CODE     ---       #66
      00FF8B73H   LINE      CODE     ---       #68
      00FF8B78H   LINE      CODE     ---       #70
      00FF8B7BH   LINE      CODE     ---       #71
      00FF8B80H   LINE      CODE     ---       #72
      00FF8B80H   LINE      CODE     ---       #73
      00FF8B85H   LINE      CODE     ---       #75
      00FF8B88H   LINE      CODE     ---       #78
      ---         BLOCKEND  ---      ---       LVL=0

      00FF830BH   BLOCK     CODE     ---       LVL=0
      00FF830BH   LINE      CODE     ---       #83
      00FF831FH   LINE      CODE     ---       #85
      00FF8322H   LINE      CODE     ---       #86
      00FF8327H   LINE      CODE     ---       #88
      00FF832AH   LINE      CODE     ---       #89
      00FF832FH   LINE      CODE     ---       #90
      00FF832FH   LINE      CODE     ---       #91
      00FF8334H   LINE      CODE     ---       #93
      00FF8337H   LINE      CODE     ---       #95
      00FF8343H   LINE      CODE     ---       #97
      00FF8346H   LINE      CODE     ---       #98
      00FF8348H   LINE      CODE     ---       #99
      00FF8354H   LINE      CODE     ---       #101
      00FF8357H   LINE      CODE     ---       #102
      00FF8357H   LINE      CODE     ---       #105
      ---         BLOCKEND  ---      ---       LVL=0

      00FF0086H   BLOCK     CODE     ---       LVL=0
      00FF0086H   LINE      CODE     ---       #108
      00FF0086H   LINE      CODE     ---       #110
      00FF0089H   LINE      CODE     ---       #111
      ---         BLOCKEND  ---      ---       LVL=0

      00FF000AH   BLOCK     CODE     ---       LVL=0
      00FF000AH   LINE      CODE     ---       #112
      00FF000AH   LINE      CODE     ---       #115
      ---         BLOCKEND  ---      ---       LVL=0

      00FF008EH   BLOCK     CODE     ---       LVL=0
      00FF008EH   LINE      CODE     ---       #116
      00FF008EH   LINE      CODE     ---       #118
      00FF0091H   LINE      CODE     ---       #119
      ---         BLOCKEND  ---      ---       LVL=0

      00FF0096H   BLOCK     CODE     ---       LVL=0
L251 LINKER/LOCATER V4.66.93.0                                                        05/17/2024  20:59:59  PAGE 98


      00FF0096H   LINE      CODE     ---       #120
      00FF0096H   LINE      CODE     ---       #122
      00FF0099H   LINE      CODE     ---       #123
      ---         BLOCKEND  ---      ---       LVL=0

      00FF009EH   BLOCK     CODE     ---       LVL=0
      00FF009EH   LINE      CODE     ---       #125
      00FF009EH   LINE      CODE     ---       #127
      00FF00A1H   LINE      CODE     ---       #128
      ---         BLOCKEND  ---      ---       LVL=0

      00FF8B8BH   BLOCK     CODE     ---       LVL=0
      00FF8B8BH   LINE      CODE     ---       #130
      00FF8B8FH   LINE      CODE     ---       #132
      00FF8B9DH   LINE      CODE     ---       #133
      ---         BLOCKEND  ---      ---       LVL=0

      00FF8C12H   BLOCK     CODE     ---       LVL=0
      00FF8C12H   LINE      CODE     ---       #134
      00FF8C12H   LINE      CODE     ---       #136
      00FF8C1BH   LINE      CODE     ---       #137
      ---         BLOCKEND  ---      ---       LVL=0

      00FF8C28H   BLOCK     CODE     ---       LVL=0
      00FF8C28H   LINE      CODE     ---       #138
      00FF8C28H   LINE      CODE     ---       #140
      00FF8C2BH   LINE      CODE     ---       #142
      ---         BLOCKEND  ---      ---       LVL=0

      00FF8C2CH   BLOCK     CODE     ---       LVL=0
      00FF8C2CH   LINE      CODE     ---       #143
      00FF8C2CH   LINE      CODE     ---       #145
      00FF8C2FH   LINE      CODE     ---       #147
      ---         BLOCKEND  ---      ---       LVL=0

      ---         MODULE    ---      ---       main
      00FF7C73H   PUBLIC    CODE     ---       main
      00000A57H   PUBLIC    EDATA    FLOAT     Gyro_Diff
      00000A5BH   PUBLIC    EDATA    INT       flag
      00000A5DH   PUBLIC    EDATA    INT       menu
      00000A5FH   PUBLIC    EDATA    INT       Car_Start_Flag
      00000A61H   PUBLIC    EDATA    INT       Car_Stop_Flag
      000000D0H   SFRSYM    DATA     BYTE      PSW
      0000009DH   SFRSYM    DATA     BYTE      IRCBAND
      00000097H   SFRSYM    DATA     BYTE      AUXR2
      000000EFH   SFRSYM    DATA     BYTE      AUXINTIF
      000000FDH   SFRSYM    DATA     BYTE      S4CON
      000000ACH   SFRSYM    DATA     BYTE      S3CON
      0000009AH   SFRSYM    DATA     BYTE      S2CON
      000000B7H   SFRSYM    DATA     BYTE      IPH
      000000CDH   SFRSYM    DATA     BYTE      SPSTAT
      000000DDH   SFRSYM    DATA     BYTE      T4T3M
      000000C1H   SFRSYM    DATA     BYTE      WDT_CONTR
      000000DFH   SFRSYM    DATA     BYTE      IP3
      000000F4H   SFRSYM    DATA     BYTE      USBCON
      000000B5H   SFRSYM    DATA     BYTE      IP2
      000000FFH   SFRSYM    DATA     BYTE      RSTCFG
      000000C7H   SFRSYM    DATA     BYTE      IAP_CONTR
      000000F9H   SFRSYM    DATA     BYTE      LINICR
      0000008EH   SFRSYM    DATA     BYTE      AUXR
      000000AFH   SFRSYM    DATA     BYTE      IE2
      00000088H   SFRSYM    DATA     BYTE      TCON
      00000089H   SFRSYM    DATA     BYTE      TMOD
      00000098H   SFRSYM    DATA     BYTE      SCON
      000000F1H   SFRSYM    DATA     BYTE      CANICR
L251 LINKER/LOCATER V4.66.93.0                                                        05/17/2024  20:59:59  PAGE 99


      00000087H   SFRSYM    DATA     BYTE      PCON
      000000BCH   SFRSYM    DATA     BYTE      ADC_CONTR
      000000E7H   SFRSYM    DATA     BYTE      CMPCR2
      000000E6H   SFRSYM    DATA     BYTE      CMPCR1
      000000DEH   SFRSYM    DATA     BYTE      ADCCFG
      000000B8H   SFRSYM    DATA     BYTE      IP
      0000008FH   SFRSYM    DATA     BYTE      INTCLKO
      000000EEH   SFRSYM    DATA     BYTE      IP3H
      000000B6H   SFRSYM    DATA     BYTE      IP2H
      000000A8H   SFRSYM    DATA     BYTE      IE
      000000BBH   SFRSYM    DATA     BYTE      P_SW3
      000000BAH   SFRSYM    DATA     BYTE      P_SW2
      000000A2H   SFRSYM    DATA     BYTE      P_SW1
      000000CEH   SFRSYM    DATA     BYTE      SPCTL
      000000F8H   SFRSYM    DATA     BYTE      P7
      000000E8H   SFRSYM    DATA     BYTE      P6
      000000C8H   SFRSYM    DATA     BYTE      P5
      000000C0H   SFRSYM    DATA     BYTE      P4
      000000B0H   SFRSYM    DATA     BYTE      P3
      000000A0H   SFRSYM    DATA     BYTE      P2
      00000090H   SFRSYM    DATA     BYTE      P1
      00000080H   SFRSYM    DATA     BYTE      P0

      00FF7C73H   BLOCK     CODE     ---       LVL=0
      00000D57H   SYMBOL    EDATA    INT       i
      00000D59H   SYMBOL    EDATA    LONG      ns_delay
      00FF7C73H   LINE      CODE     ---       #37
      00FF7C73H   LINE      CODE     ---       #38
      00FF7C73H   LINE      CODE     ---       #39
      00FF7C79H   LINE      CODE     ---       #40
      00FF7C81H   LINE      CODE     ---       #41
      00FF7C8CH   LINE      CODE     ---       #42
      00FF7C8FH   LINE      CODE     ---       #44
      00FF7C92H   LINE      CODE     ---       #45
      00FF7C95H   LINE      CODE     ---       #46
      00FF7C9CH   LINE      CODE     ---       #47
      00FF7CA3H   LINE      CODE     ---       #49
      00FF7CA3H   LINE      CODE     ---       #51
      00FF7CAAH   LINE      CODE     ---       #52
      00FF7CB9H   LINE      CODE     ---       #53
      00FF7CC8H   LINE      CODE     ---       #54
      00FF7CD7H   LINE      CODE     ---       #55
      00FF7CE6H   LINE      CODE     ---       #56
      00FF7CF5H   LINE      CODE     ---       #57
      00FF7D01H   LINE      CODE     ---       #58
      00FF7D09H   LINE      CODE     ---       #59
      00FF7D0BH   LINE      CODE     ---       #61
      ---         BLOCKEND  ---      ---       LVL=0

      ---         MODULE    ---      ---       Inductance
      00FF527AH   PUBLIC    CODE     ---       NORMALIZATION_TRACKING_ADC
      00FF78F2H   PUBLIC    CODE     ---       sq
      00FF6C83H   PUBLIC    CODE     ---       show_val
      00FF874EH   PUBLIC    CODE     ---       Inductance_Init
      00000021H   PUBLIC    EDATA    WORD      R3_NOR_ADC
      00000023H   PUBLIC    EDATA    WORD      L3
      00000025H   PUBLIC    EDATA    WORD      R1
      00000027H   PUBLIC    EDATA    WORD      R2
      00000029H   PUBLIC    EDATA    WORD      R3
      0000002BH   PUBLIC    EDATA    WORD      Right_Val
      0000002DH   PUBLIC    EDATA    ---       ADC_MIN
      0000003BH   PUBLIC    EDATA    ---       ADC_MAX
      00000049H   PUBLIC    EDATA    WORD      Left_Val
      0000004BH   PUBLIC    EDATA    ---       AD_NOR_VAL
      00000067H   PUBLIC    EDATA    ---       NOR_VAL
L251 LINKER/LOCATER V4.66.93.0                                                        05/17/2024  20:59:59  PAGE 100


      00000083H   PUBLIC    EDATA    INT       bug
      00000085H   PUBLIC    EDATA    INT       ad_diff
      00000087H   PUBLIC    EDATA    ---       ad_value
      00000113H   PUBLIC    EDATA    INT       Inductance_Error
      00000115H   PUBLIC    EDATA    WORD      L1_NOR_ADC
      00000117H   PUBLIC    EDATA    WORD      M1_NOR_ADC
      00000119H   PUBLIC    EDATA    WORD      L2_NOR_ADC
      0000011BH   PUBLIC    EDATA    WORD      L3_NOR_ADC
      0000011DH   PUBLIC    EDATA    INT       ad_sum
      0000011FH   PUBLIC    EDATA    WORD      R1_NOR_ADC
      00000121H   PUBLIC    EDATA    WORD      L1
      00000123H   PUBLIC    EDATA    WORD      R2_NOR_ADC
      00000125H   PUBLIC    EDATA    WORD      M1
      00000127H   PUBLIC    EDATA    WORD      L2
      000000D0H   SFRSYM    DATA     BYTE      PSW
      0000009DH   SFRSYM    DATA     BYTE      IRCBAND
      00000097H   SFRSYM    DATA     BYTE      AUXR2
      000000EFH   SFRSYM    DATA     BYTE      AUXINTIF
      000000FDH   SFRSYM    DATA     BYTE      S4CON
      000000ACH   SFRSYM    DATA     BYTE      S3CON
      0000009AH   SFRSYM    DATA     BYTE      S2CON
      000000B7H   SFRSYM    DATA     BYTE      IPH
      000000CDH   SFRSYM    DATA     BYTE      SPSTAT
      000000DDH   SFRSYM    DATA     BYTE      T4T3M
      000000C1H   SFRSYM    DATA     BYTE      WDT_CONTR
      000000DFH   SFRSYM    DATA     BYTE      IP3
      000000F4H   SFRSYM    DATA     BYTE      USBCON
      000000B5H   SFRSYM    DATA     BYTE      IP2
      000000FFH   SFRSYM    DATA     BYTE      RSTCFG
      000000C7H   SFRSYM    DATA     BYTE      IAP_CONTR
      000000F9H   SFRSYM    DATA     BYTE      LINICR
      0000008EH   SFRSYM    DATA     BYTE      AUXR
      000000AFH   SFRSYM    DATA     BYTE      IE2
      00000088H   SFRSYM    DATA     BYTE      TCON
      00000089H   SFRSYM    DATA     BYTE      TMOD
      00000098H   SFRSYM    DATA     BYTE      SCON
      000000F1H   SFRSYM    DATA     BYTE      CANICR
      00000087H   SFRSYM    DATA     BYTE      PCON
      000000BCH   SFRSYM    DATA     BYTE      ADC_CONTR
      000000E7H   SFRSYM    DATA     BYTE      CMPCR2
      000000E6H   SFRSYM    DATA     BYTE      CMPCR1
      000000DEH   SFRSYM    DATA     BYTE      ADCCFG
      000000B8H   SFRSYM    DATA     BYTE      IP
      0000008FH   SFRSYM    DATA     BYTE      INTCLKO
      000000EEH   SFRSYM    DATA     BYTE      IP3H
      000000B6H   SFRSYM    DATA     BYTE      IP2H
      000000A8H   SFRSYM    DATA     BYTE      IE
      000000BBH   SFRSYM    DATA     BYTE      P_SW3
      000000BAH   SFRSYM    DATA     BYTE      P_SW2
      000000A2H   SFRSYM    DATA     BYTE      P_SW1
      000000CEH   SFRSYM    DATA     BYTE      SPCTL
      000000F8H   SFRSYM    DATA     BYTE      P7
      000000E8H   SFRSYM    DATA     BYTE      P6
      000000C8H   SFRSYM    DATA     BYTE      P5
      000000C0H   SFRSYM    DATA     BYTE      P4
      000000B0H   SFRSYM    DATA     BYTE      P3
      000000A0H   SFRSYM    DATA     BYTE      P2
      00000090H   SFRSYM    DATA     BYTE      P1
      00000080H   SFRSYM    DATA     BYTE      P0
      00FF91F7H   SYMBOL    HCONST   ---       ?tpl?0001
      00FF9205H   SYMBOL    HCONST   ---       ?tpl?0002

      00FF874EH   BLOCK     CODE     ---       LVL=0
      00FF874EH   LINE      CODE     ---       #32
      00FF874EH   LINE      CODE     ---       #34
L251 LINKER/LOCATER V4.66.93.0                                                        05/17/2024  20:59:59  PAGE 101


      00FF8755H   LINE      CODE     ---       #35
      00FF875EH   LINE      CODE     ---       #36
      00FF8767H   LINE      CODE     ---       #37
      00FF8770H   LINE      CODE     ---       #38
      00FF8779H   LINE      CODE     ---       #39
      00FF8782H   LINE      CODE     ---       #40
      00FF878BH   LINE      CODE     ---       #41
      00FF8794H   LINE      CODE     ---       #42
      ---         BLOCKEND  ---      ---       LVL=0

      00FF78F2H   BLOCK     CODE     ---       LVL=0
      00000880H   SYMBOL    EDATA    FLOAT     number
      00FF78F6H   BLOCK     CODE     NEAR LAB  LVL=1
      00000884H   SYMBOL    EDATA    LONG      i
      00000888H   SYMBOL    EDATA    FLOAT     x
      0000088CH   SYMBOL    EDATA    FLOAT     y
      00000890H   SYMBOL    EDATA    FLOAT     f
      ---         BLOCKEND  ---      ---       LVL=1
      00FF78F2H   LINE      CODE     ---       #49
      00FF78F6H   LINE      CODE     ---       #50
      00FF78F6H   LINE      CODE     ---       #53
      00FF7900H   LINE      CODE     ---       #55
      00FF7911H   LINE      CODE     ---       #56
      00FF7919H   LINE      CODE     ---       #57
      00FF7928H   LINE      CODE     ---       #58
      00FF7941H   LINE      CODE     ---       #59
      00FF7950H   LINE      CODE     ---       #60
      00FF7978H   LINE      CODE     ---       #61
      00FF79A0H   LINE      CODE     ---       #62
      00FF79ABH   LINE      CODE     ---       #63
      ---         BLOCKEND  ---      ---       LVL=0

      00FF527AH   BLOCK     CODE     ---       LVL=0
      00000772H   SYMBOL    EDATA    FLOAT     I1
      00FF527EH   BLOCK     CODE     NEAR LAB  LVL=1
      00000776H   SYMBOL    EDATA    INT       i
      00000778H   SYMBOL    EDATA    INT       j
      0000077AH   SYMBOL    EDATA    INT       k
      0000077CH   SYMBOL    EDATA    INT       temp
      0000077EH   SYMBOL    EDATA    ---       ad_sum1
      0000078CH   SYMBOL    EDATA    ---       ad_valu1
      ---         BLOCKEND  ---      ---       LVL=1
      00FF527AH   LINE      CODE     ---       #72
      00FF527EH   LINE      CODE     ---       #73
      00FF527EH   LINE      CODE     ---       #74
      00FF5296H   LINE      CODE     ---       #75
      00FF52A7H   LINE      CODE     ---       #76
      00FF52B8H   LINE      CODE     ---       #77
      00FF52C1H   LINE      CODE     ---       #79
      00FF52D9H   LINE      CODE     ---       #80
      00FF52F3H   LINE      CODE     ---       #81
      00FF530DH   LINE      CODE     ---       #82
      00FF5327H   LINE      CODE     ---       #83
      00FF5341H   LINE      CODE     ---       #84
      00FF535BH   LINE      CODE     ---       #85
      00FF5375H   LINE      CODE     ---       #86
      00FF5382H   LINE      CODE     ---       #87
      00FF539FH   LINE      CODE     ---       #90
      00FF53A8H   LINE      CODE     ---       #92
      00FF53B1H   LINE      CODE     ---       #94
      00FF53BAH   LINE      CODE     ---       #96
      00FF53F6H   LINE      CODE     ---       #98
      00FF5417H   LINE      CODE     ---       #99
      00FF544FH   LINE      CODE     ---       #100
      00FF546EH   LINE      CODE     ---       #101
L251 LINKER/LOCATER V4.66.93.0                                                        05/17/2024  20:59:59  PAGE 102


      00FF5491H   LINE      CODE     ---       #103
      00FF54AEH   LINE      CODE     ---       #104
      00FF54CBH   LINE      CODE     ---       #107
      00FF54D4H   LINE      CODE     ---       #109
      00FF54DCH   LINE      CODE     ---       #111
      00FF550DH   LINE      CODE     ---       #112
      00FF5527H   LINE      CODE     ---       #113
      00FF554EH   LINE      CODE     ---       #114
      00FF556BH   LINE      CODE     ---       #117
      00FF5573H   LINE      CODE     ---       #118
      00FF557BH   LINE      CODE     ---       #119
      00FF5583H   LINE      CODE     ---       #120
      00FF558BH   LINE      CODE     ---       #121
      00FF5593H   LINE      CODE     ---       #122
      00FF559BH   LINE      CODE     ---       #123
      00FF55A3H   LINE      CODE     ---       #129
      00FF55C8H   LINE      CODE     ---       #130
      00FF55EDH   LINE      CODE     ---       #131
      00FF5612H   LINE      CODE     ---       #132
      00FF5637H   LINE      CODE     ---       #133
      00FF565CH   LINE      CODE     ---       #134
      00FF5681H   LINE      CODE     ---       #135
      00FF56A6H   LINE      CODE     ---       #137
      00FF56AFH   LINE      CODE     ---       #139
      00FF56CBH   LINE      CODE     ---       #141
      00FF56E8H   LINE      CODE     ---       #142
      00FF56E8H   LINE      CODE     ---       #143
      00FF5708H   LINE      CODE     ---       #145
      00FF5723H   LINE      CODE     ---       #146
      00FF5723H   LINE      CODE     ---       #147
      00FF5758H   LINE      CODE     ---       #148
      00FF5775H   LINE      CODE     ---       #151
      00FF5780H   LINE      CODE     ---       #152
      00FF578BH   LINE      CODE     ---       #153
      00FF5796H   LINE      CODE     ---       #154
      00FF57A1H   LINE      CODE     ---       #155
      00FF57ACH   LINE      CODE     ---       #156
      00FF57B7H   LINE      CODE     ---       #157
      00FF57C2H   LINE      CODE     ---       #159
      00FF57C2H   LINE      CODE     ---       #160
      00FF57DAH   LINE      CODE     ---       #161
      00FF57DAH   LINE      CODE     ---       #162
      00FF57DAH   LINE      CODE     ---       #164
      00FF5800H   LINE      CODE     ---       #165
      00FF5826H   LINE      CODE     ---       #166
      00FF5834H   LINE      CODE     ---       #167
      00FF5842H   LINE      CODE     ---       #168
      00FF584EH   LINE      CODE     ---       #170
      00FF5871H   LINE      CODE     ---       #171
      00FF5871H   LINE      CODE     ---       #173
      00FF5875H   LINE      CODE     ---       #174
      ---         BLOCKEND  ---      ---       LVL=0

      00FF6C83H   BLOCK     CODE     ---       LVL=0
      00FF6C83H   LINE      CODE     ---       #182
      00FF6C83H   LINE      CODE     ---       #185
      00FF6C91H   LINE      CODE     ---       #186
      00FF6C9CH   LINE      CODE     ---       #188
      00FF6CABH   LINE      CODE     ---       #189
      00FF6CB6H   LINE      CODE     ---       #191
      00FF6CC5H   LINE      CODE     ---       #192
      00FF6CD1H   LINE      CODE     ---       #194
      00FF6CE1H   LINE      CODE     ---       #195
      00FF6CEDH   LINE      CODE     ---       #197
      00FF6CFCH   LINE      CODE     ---       #198
L251 LINKER/LOCATER V4.66.93.0                                                        05/17/2024  20:59:59  PAGE 103


      00FF6D08H   LINE      CODE     ---       #200
      00FF6D18H   LINE      CODE     ---       #201
      00FF6D24H   LINE      CODE     ---       #203
      00FF6D33H   LINE      CODE     ---       #204
      00FF6D3FH   LINE      CODE     ---       #206
      00FF6D4FH   LINE      CODE     ---       #207
      00FF6D5BH   LINE      CODE     ---       #210
      00FF6D6AH   LINE      CODE     ---       #211
      00FF6D9BH   LINE      CODE     ---       #212
      00FF6DA6H   LINE      CODE     ---       #213
      00FF6DB2H   LINE      CODE     ---       #214
      00FF6DBDH   LINE      CODE     ---       #215
      00FF6DD6H   LINE      CODE     ---       #223
      ---         BLOCKEND  ---      ---       LVL=0

      ---         MODULE    ---      ---       Motor
      00FF769FH   PUBLIC    CODE     ---       RSpeed_pid_Out
      00FF8AF9H   PUBLIC    CODE     ---       Motor_Init
      00FF866FH   PUBLIC    CODE     ---       Motor_SET_PID
      00FF84DCH   PUBLIC    CODE     ---       limit
      00FF800FH   PUBLIC    CODE     ---       Motor_PWM
      00FF7768H   PUBLIC    CODE     ---       LSpeed_pid_Out
      000002AAH   PUBLIC    EDATA    FLOAT     Motor_RI
      000002AEH   PUBLIC    EDATA    FLOAT     Motor_RP
      000002B2H   PUBLIC    EDATA    ---       Motor_pid
      000002DAH   PUBLIC    EDATA    FLOAT     Motor_I
      000002DEH   PUBLIC    EDATA    FLOAT     Motor_P
      000002E2H   PUBLIC    EDATA    FLOAT     Speed_Ring
      00000A63H   PUBLIC    EDATA    BYTE      ?Motor_SET_PID?BYTE
      000000D0H   SFRSYM    DATA     BYTE      PSW
      0000009DH   SFRSYM    DATA     BYTE      IRCBAND
      00000097H   SFRSYM    DATA     BYTE      AUXR2
      000000EFH   SFRSYM    DATA     BYTE      AUXINTIF
      000000FDH   SFRSYM    DATA     BYTE      S4CON
      000000ACH   SFRSYM    DATA     BYTE      S3CON
      0000009AH   SFRSYM    DATA     BYTE      S2CON
      000000B7H   SFRSYM    DATA     BYTE      IPH
      000000CDH   SFRSYM    DATA     BYTE      SPSTAT
      000000DDH   SFRSYM    DATA     BYTE      T4T3M
      000000C1H   SFRSYM    DATA     BYTE      WDT_CONTR
      000000DFH   SFRSYM    DATA     BYTE      IP3
      000000F4H   SFRSYM    DATA     BYTE      USBCON
      000000B5H   SFRSYM    DATA     BYTE      IP2
      000000FFH   SFRSYM    DATA     BYTE      RSTCFG
      000000C7H   SFRSYM    DATA     BYTE      IAP_CONTR
      000000F9H   SFRSYM    DATA     BYTE      LINICR
      0000008EH   SFRSYM    DATA     BYTE      AUXR
      000000AFH   SFRSYM    DATA     BYTE      IE2
      000000C0H.4 SFRSYM    DATA     BIT       P44
      000000C8H.2 SFRSYM    DATA     BIT       P52
      000000C0H.2 SFRSYM    DATA     BIT       P42
      00000088H   SFRSYM    DATA     BYTE      TCON
      00000089H   SFRSYM    DATA     BYTE      TMOD
      00000098H   SFRSYM    DATA     BYTE      SCON
      000000F1H   SFRSYM    DATA     BYTE      CANICR
      00000087H   SFRSYM    DATA     BYTE      PCON
      000000BCH   SFRSYM    DATA     BYTE      ADC_CONTR
      000000E7H   SFRSYM    DATA     BYTE      CMPCR2
      000000E6H   SFRSYM    DATA     BYTE      CMPCR1
      000000DEH   SFRSYM    DATA     BYTE      ADCCFG
      000000B8H   SFRSYM    DATA     BYTE      IP
      0000008FH   SFRSYM    DATA     BYTE      INTCLKO
      000000EEH   SFRSYM    DATA     BYTE      IP3H
      000000B6H   SFRSYM    DATA     BYTE      IP2H
      000000A8H   SFRSYM    DATA     BYTE      IE
L251 LINKER/LOCATER V4.66.93.0                                                        05/17/2024  20:59:59  PAGE 104


      000000BBH   SFRSYM    DATA     BYTE      P_SW3
      000000BAH   SFRSYM    DATA     BYTE      P_SW2
      000000A2H   SFRSYM    DATA     BYTE      P_SW1
      000000CEH   SFRSYM    DATA     BYTE      SPCTL
      000000F8H   SFRSYM    DATA     BYTE      P7
      000000E8H   SFRSYM    DATA     BYTE      P6
      000000C8H   SFRSYM    DATA     BYTE      P5
      000000C0H   SFRSYM    DATA     BYTE      P4
      000000B0H   SFRSYM    DATA     BYTE      P3
      000000A0H   SFRSYM    DATA     BYTE      P2
      00000090H   SFRSYM    DATA     BYTE      P1
      00000080H   SFRSYM    DATA     BYTE      P0

      00FF84DCH   BLOCK     CODE     ---       LVL=0
      00000DFCH   SYMBOL    EDATA    INT       In
      00000DFEH   SYMBOL    EDATA    INT       limit
      00FF84DCH   LINE      CODE     ---       #25
      00FF84E4H   LINE      CODE     ---       #27
      00FF84FAH   LINE      CODE     ---       #28
      00FF8504H   LINE      CODE     ---       #29
      00FF851EH   LINE      CODE     ---       #30
      00FF852CH   LINE      CODE     ---       #31
      00FF8530H   LINE      CODE     ---       #32
      ---         BLOCKEND  ---      ---       LVL=0

      00FF8AF9H   BLOCK     CODE     ---       LVL=0
      00FF8AF9H   LINE      CODE     ---       #40
      00FF8AF9H   LINE      CODE     ---       #42
      00FF8B0AH   LINE      CODE     ---       #43
      00FF8B1BH   LINE      CODE     ---       #44
      ---         BLOCKEND  ---      ---       LVL=0

      00FF800FH   BLOCK     CODE     ---       LVL=0
      00000E00H   SYMBOL    EDATA    INT       L_PWM
      00000E02H   SYMBOL    EDATA    INT       R_PWM
      00FF800FH   LINE      CODE     ---       #53
      00FF8017H   LINE      CODE     ---       #55
      00FF8021H   LINE      CODE     ---       #57
      00FF8024H   LINE      CODE     ---       #58
      00FF8038H   LINE      CODE     ---       #59
      00FF803AH   LINE      CODE     ---       #61
      00FF803DH   LINE      CODE     ---       #62
      00FF804CH   LINE      CODE     ---       #63
      00FF804CH   LINE      CODE     ---       #64
      00FF8056H   LINE      CODE     ---       #66
      00FF8059H   LINE      CODE     ---       #67
      00FF806DH   LINE      CODE     ---       #68
      00FF806FH   LINE      CODE     ---       #70
      00FF8072H   LINE      CODE     ---       #71
      00FF8081H   LINE      CODE     ---       #72
      00FF8081H   LINE      CODE     ---       #73
      ---         BLOCKEND  ---      ---       LVL=0

      00FF866FH   BLOCK     CODE     ---       LVL=0
      00000A63H   SYMBOL    EDATA    FLOAT     Kp
      00000A67H   SYMBOL    EDATA    FLOAT     Ki
      00000A6BH   SYMBOL    EDATA    FLOAT     Kd
      00FF866FH   LINE      CODE     ---       #81
      00FF8677H   LINE      CODE     ---       #83
      00FF867DH   LINE      CODE     ---       #84
      00FF8683H   LINE      CODE     ---       #85
      00FF8689H   LINE      CODE     ---       #86
      00FF868FH   LINE      CODE     ---       #87
      00FF8695H   LINE      CODE     ---       #88
      00FF869DH   LINE      CODE     ---       #89
L251 LINKER/LOCATER V4.66.93.0                                                        05/17/2024  20:59:59  PAGE 105


      00FF86A5H   LINE      CODE     ---       #90
      00FF86ADH   LINE      CODE     ---       #91
      00FF86B3H   LINE      CODE     ---       #92
      00FF86B9H   LINE      CODE     ---       #93
      ---         BLOCKEND  ---      ---       LVL=0
      00000D9BH   SYMBOL    EDATA    CHAR      NEW_DATA
      00000D9CH   SYMBOL    EDATA    CHAR      OLD_DATA
      00000D9DH   SYMBOL    EDATA    CHAR      k
      00000D9EH   SYMBOL    EDATA    INT       result

      00FF7768H   BLOCK     CODE     ---       LVL=0
      00000D5DH   SYMBOL    EDATA    INT       Target_Value
      00000D5FH   SYMBOL    EDATA    INT       Actual_Value
      00FF7770H   BLOCK     CODE     NEAR LAB  LVL=1
      00000D61H   SYMBOL    EDATA    INT       error
      000002E6H   SYMBOL    EDATA    FLOAT     last_err
      000002EAH   SYMBOL    EDATA    FLOAT     speed_out
      000002EEH   SYMBOL    EDATA    FLOAT     P_out
      000002F2H   SYMBOL    EDATA    FLOAT     I_out
      000002F6H   SYMBOL    EDATA    FLOAT     out
      ---         BLOCKEND  ---      ---       LVL=1
      00FF7768H   LINE      CODE     ---       #133
      00FF7770H   LINE      CODE     ---       #134
      00FF7770H   LINE      CODE     ---       #135
      00FF7776H   LINE      CODE     ---       #137
      00FF7784H   LINE      CODE     ---       #138
      00FF77A1H   LINE      CODE     ---       #139
      00FF77B7H   LINE      CODE     ---       #140
      00FF77C6H   LINE      CODE     ---       #141
      00FF77D0H   LINE      CODE     ---       #142
      00FF77DFH   LINE      CODE     ---       #143
      00FF77E9H   LINE      CODE     ---       #144
      00FF77F8H   LINE      CODE     ---       #145
      00FF7807H   LINE      CODE     ---       #146
      00FF7814H   LINE      CODE     ---       #147
      00FF782DH   LINE      CODE     ---       #148
      00FF7830H   LINE      CODE     ---       #149
      ---         BLOCKEND  ---      ---       LVL=0

      00FF769FH   BLOCK     CODE     ---       LVL=0
      00000D63H   SYMBOL    EDATA    INT       Target_Value
      00000D65H   SYMBOL    EDATA    INT       Actual_Value
      00FF76A7H   BLOCK     CODE     NEAR LAB  LVL=1
      00000D67H   SYMBOL    EDATA    INT       error
      000002FAH   SYMBOL    EDATA    FLOAT     last_err
      000002FEH   SYMBOL    EDATA    FLOAT     speed_out
      00000302H   SYMBOL    EDATA    FLOAT     P_out
      00000306H   SYMBOL    EDATA    FLOAT     I_out
      0000030AH   SYMBOL    EDATA    FLOAT     out
      ---         BLOCKEND  ---      ---       LVL=1
      00FF769FH   LINE      CODE     ---       #151
      00FF76A7H   LINE      CODE     ---       #152
      00FF76A7H   LINE      CODE     ---       #153
      00FF76ADH   LINE      CODE     ---       #155
      00FF76BBH   LINE      CODE     ---       #156
      00FF76D8H   LINE      CODE     ---       #157
      00FF76EEH   LINE      CODE     ---       #158
      00FF76FDH   LINE      CODE     ---       #159
      00FF7707H   LINE      CODE     ---       #160
      00FF7716H   LINE      CODE     ---       #161
      00FF7720H   LINE      CODE     ---       #162
      00FF772FH   LINE      CODE     ---       #163
      00FF773EH   LINE      CODE     ---       #164
      00FF774BH   LINE      CODE     ---       #165
      00FF7764H   LINE      CODE     ---       #166
L251 LINKER/LOCATER V4.66.93.0                                                        05/17/2024  20:59:59  PAGE 106


      00FF7767H   LINE      CODE     ---       #167
      ---         BLOCKEND  ---      ---       LVL=0
      00000EB5H   SYMBOL    EDATA    INT       time

      ---         MODULE    ---      ---       encoder
      00FF8964H   PUBLIC    CODE     ---       Encoder_Time_Init
      00FF8A3BH   PUBLIC    CODE     ---       L_Encoder_Pulse
      00FF8993H   PUBLIC    CODE     ---       R_Encoder_Pulse
      00FF7D0CH   PUBLIC    CODE     ---       TM4_Isr
      00000746H   PUBLIC    EDATA    INT       nh_out
      00000748H   PUBLIC    EDATA    INT       speed
      0000074AH   PUBLIC    EDATA    FLOAT     Ang
      0000074EH   PUBLIC    EDATA    INT       Sum_Pulse
      00000750H   PUBLIC    EDATA    INT       L_Pulse
      00000752H   PUBLIC    EDATA    FLOAT     angle1
      00000756H   PUBLIC    EDATA    INT       R_Pulse
      00000758H   PUBLIC    EDATA    FLOAT     L
      0000075CH   PUBLIC    EDATA    FLOAT     R
      00000760H   PUBLIC    EDATA    INT       dir_out
      000000D0H   SFRSYM    DATA     BYTE      PSW
      0000009DH   SFRSYM    DATA     BYTE      IRCBAND
      00000097H   SFRSYM    DATA     BYTE      AUXR2
      000000EFH   SFRSYM    DATA     BYTE      AUXINTIF
      000000FDH   SFRSYM    DATA     BYTE      S4CON
      000000ACH   SFRSYM    DATA     BYTE      S3CON
      0000009AH   SFRSYM    DATA     BYTE      S2CON
      000000B7H   SFRSYM    DATA     BYTE      IPH
      000000CDH   SFRSYM    DATA     BYTE      SPSTAT
      000000DDH   SFRSYM    DATA     BYTE      T4T3M
      000000C1H   SFRSYM    DATA     BYTE      WDT_CONTR
      000000DFH   SFRSYM    DATA     BYTE      IP3
      000000F4H   SFRSYM    DATA     BYTE      USBCON
      000000B5H   SFRSYM    DATA     BYTE      IP2
      000000FFH   SFRSYM    DATA     BYTE      RSTCFG
      000000C7H   SFRSYM    DATA     BYTE      IAP_CONTR
      000000F9H   SFRSYM    DATA     BYTE      LINICR
      0000008EH   SFRSYM    DATA     BYTE      AUXR
      000000AFH   SFRSYM    DATA     BYTE      IE2
      00000090H.6 SFRSYM    DATA     BIT       P16
      00000088H   SFRSYM    DATA     BYTE      TCON
      00000089H   SFRSYM    DATA     BYTE      TMOD
      000000C8H.0 SFRSYM    DATA     BIT       P50
      00000098H   SFRSYM    DATA     BYTE      SCON
      000000F1H   SFRSYM    DATA     BYTE      CANICR
      00000087H   SFRSYM    DATA     BYTE      PCON
      000000BCH   SFRSYM    DATA     BYTE      ADC_CONTR
      000000E7H   SFRSYM    DATA     BYTE      CMPCR2
      000000E6H   SFRSYM    DATA     BYTE      CMPCR1
      000000DEH   SFRSYM    DATA     BYTE      ADCCFG
      000000B8H   SFRSYM    DATA     BYTE      IP
      0000008FH   SFRSYM    DATA     BYTE      INTCLKO
      000000EEH   SFRSYM    DATA     BYTE      IP3H
      000000B6H   SFRSYM    DATA     BYTE      IP2H
      000000A8H   SFRSYM    DATA     BYTE      IE
      000000BBH   SFRSYM    DATA     BYTE      P_SW3
      000000BAH   SFRSYM    DATA     BYTE      P_SW2
      000000A2H   SFRSYM    DATA     BYTE      P_SW1
      000000CEH   SFRSYM    DATA     BYTE      SPCTL
      000000F8H   SFRSYM    DATA     BYTE      P7
      000000E8H   SFRSYM    DATA     BYTE      P6
      000000C8H   SFRSYM    DATA     BYTE      P5
      000000C0H   SFRSYM    DATA     BYTE      P4
      000000B0H   SFRSYM    DATA     BYTE      P3
      000000A0H   SFRSYM    DATA     BYTE      P2
      00000090H   SFRSYM    DATA     BYTE      P1
L251 LINKER/LOCATER V4.66.93.0                                                        05/17/2024  20:59:59  PAGE 107


      00000080H   SFRSYM    DATA     BYTE      P0

      00FF8964H   BLOCK     CODE     ---       LVL=0
      00FF8964H   LINE      CODE     ---       #17
      00FF8964H   LINE      CODE     ---       #19
      00FF896FH   LINE      CODE     ---       #20
      00FF8978H   LINE      CODE     ---       #21
      00FF8983H   LINE      CODE     ---       #22
      00FF8988H   LINE      CODE     ---       #23
      00FF898FH   LINE      CODE     ---       #24
      00FF8992H   LINE      CODE     ---       #25
      ---         BLOCKEND  ---      ---       LVL=0

      00FF8A3BH   BLOCK     CODE     ---       LVL=0
      00FF8A3BH   LINE      CODE     ---       #33
      00FF8A3BH   LINE      CODE     ---       #35
      00FF8A44H   LINE      CODE     ---       #37
      00FF8A4DH   LINE      CODE     ---       #38
      00FF8A4FH   LINE      CODE     ---       #41
      00FF8A5EH   LINE      CODE     ---       #42
      00FF8A5EH   LINE      CODE     ---       #43
      00FF8A62H   LINE      CODE     ---       #44
      ---         BLOCKEND  ---      ---       LVL=0

      00FF8993H   BLOCK     CODE     ---       LVL=0
      00FF8993H   LINE      CODE     ---       #51
      00FF8993H   LINE      CODE     ---       #53
      00FF899CH   LINE      CODE     ---       #55
      00FF89A7H   LINE      CODE     ---       #56
      00FF89A9H   LINE      CODE     ---       #59
      00FF89BAH   LINE      CODE     ---       #60
      00FF89BAH   LINE      CODE     ---       #61
      00FF89BEH   LINE      CODE     ---       #62
      ---         BLOCKEND  ---      ---       LVL=0
      00000EB7H   SYMBOL    EDATA    INT       L_target
      00000762H   SYMBOL    EDATA    INT       L
      00000764H   SYMBOL    EDATA    INT       L_flag
      00000EB9H   SYMBOL    EDATA    INT       R_target
      00000766H   SYMBOL    EDATA    INT       R
      00000768H   SYMBOL    EDATA    INT       R_flag

      00FF7D0CH   BLOCK     CODE     ---       LVL=0
      00FF7D20H   BLOCK     CODE     NEAR LAB  LVL=1
      0000076AH   SYMBOL    EDATA    INT       count
      00000770H   SYMBOL    EDATA    INT       groy
      00000EBBH   SYMBOL    EDATA    INT       nh
      ---         BLOCKEND  ---      ---       LVL=1
      00FF7D0CH   LINE      CODE     ---       #113
      00FF7D20H   LINE      CODE     ---       #114
      00FF7D20H   LINE      CODE     ---       #116
      00FF7D26H   LINE      CODE     ---       #117
      00FF7D30H   LINE      CODE     ---       #119
      00FF7D33H   LINE      CODE     ---       #120
      00FF7D4FH   LINE      CODE     ---       #121
      00FF7D6BH   LINE      CODE     ---       #122
      00FF7D7AH   LINE      CODE     ---       #140
      00FF7D81H   LINE      CODE     ---       #143
      00FF7D86H   LINE      CODE     ---       #144
      00FF7D8DH   LINE      CODE     ---       #145
      00FF7D90H   LINE      CODE     ---       #146
      ---         BLOCKEND  ---      ---       LVL=0

      ---         MODULE    ---      ---       direction
      00FF82A1H   PUBLIC    CODE     ---       wh_Turn_Out
      00FF86BAH   PUBLIC    CODE     ---       DirControl
L251 LINKER/LOCATER V4.66.93.0                                                        05/17/2024  20:59:59  PAGE 108


      00FF7831H   PUBLIC    CODE     ---       nh_Turn_Out
      0000046DH   PUBLIC    EDATA    INT       Speed_Ring_Flag
      0000046FH   PUBLIC    EDATA    FLOAT     gyro_z3
      00000473H   PUBLIC    EDATA    FLOAT     Nh_D
      00000477H   PUBLIC    EDATA    FLOAT     Wh_D
      0000047BH   PUBLIC    EDATA    FLOAT     Nh_P
      0000047FH   PUBLIC    EDATA    FLOAT     Wh_P
      00000008H   PUBLIC    EDATA    BYTE      ?wh_Turn_Out?BYTE
      00000A6FH   PUBLIC    EDATA    BYTE      ?nh_Turn_Out?BYTE
      00000DFCH   PUBLIC    EDATA    BYTE      ?Angle_Ring?BYTE
      000008DDH   PUBLIC    EDATA    BYTE      ?Angle_Ring1?BYTE
      00000A7BH   PUBLIC    EDATA    BYTE      ?Angle_Speed_Ring?BYTE
      000007E1H   PUBLIC    EDATA    BYTE      ?DirControl_2?BYTE
      000000D0H   SFRSYM    DATA     BYTE      PSW
      0000009DH   SFRSYM    DATA     BYTE      IRCBAND
      00000097H   SFRSYM    DATA     BYTE      AUXR2
      000000EFH   SFRSYM    DATA     BYTE      AUXINTIF
      000000FDH   SFRSYM    DATA     BYTE      S4CON
      000000ACH   SFRSYM    DATA     BYTE      S3CON
      0000009AH   SFRSYM    DATA     BYTE      S2CON
      000000B7H   SFRSYM    DATA     BYTE      IPH
      000000CDH   SFRSYM    DATA     BYTE      SPSTAT
      000000DDH   SFRSYM    DATA     BYTE      T4T3M
      000000C1H   SFRSYM    DATA     BYTE      WDT_CONTR
      000000DFH   SFRSYM    DATA     BYTE      IP3
      000000F4H   SFRSYM    DATA     BYTE      USBCON
      000000B5H   SFRSYM    DATA     BYTE      IP2
      000000FFH   SFRSYM    DATA     BYTE      RSTCFG
      000000C7H   SFRSYM    DATA     BYTE      IAP_CONTR
      000000F9H   SFRSYM    DATA     BYTE      LINICR
      0000008EH   SFRSYM    DATA     BYTE      AUXR
      000000AFH   SFRSYM    DATA     BYTE      IE2
      00000088H   SFRSYM    DATA     BYTE      TCON
      00000089H   SFRSYM    DATA     BYTE      TMOD
      00000098H   SFRSYM    DATA     BYTE      SCON
      000000F1H   SFRSYM    DATA     BYTE      CANICR
      00000087H   SFRSYM    DATA     BYTE      PCON
      000000BCH   SFRSYM    DATA     BYTE      ADC_CONTR
      000000E7H   SFRSYM    DATA     BYTE      CMPCR2
      000000E6H   SFRSYM    DATA     BYTE      CMPCR1
      000000DEH   SFRSYM    DATA     BYTE      ADCCFG
      000000B8H   SFRSYM    DATA     BYTE      IP
      0000008FH   SFRSYM    DATA     BYTE      INTCLKO
      000000EEH   SFRSYM    DATA     BYTE      IP3H
      000000B6H   SFRSYM    DATA     BYTE      IP2H
      000000A8H   SFRSYM    DATA     BYTE      IE
      000000BBH   SFRSYM    DATA     BYTE      P_SW3
      000000BAH   SFRSYM    DATA     BYTE      P_SW2
      000000A2H   SFRSYM    DATA     BYTE      P_SW1
      000000CEH   SFRSYM    DATA     BYTE      SPCTL
      000000F8H   SFRSYM    DATA     BYTE      P7
      000000E8H   SFRSYM    DATA     BYTE      P6
      000000C8H   SFRSYM    DATA     BYTE      P5
      000000C0H   SFRSYM    DATA     BYTE      P4
      000000B0H   SFRSYM    DATA     BYTE      P3
      000000A0H   SFRSYM    DATA     BYTE      P2
      00000090H   SFRSYM    DATA     BYTE      P1
      00000080H   SFRSYM    DATA     BYTE      P0

      00FF82A1H   BLOCK     CODE     ---       LVL=0
      00000008H   SYMBOL    EDATA    INT       chazhi
      0000000AH   SYMBOL    EDATA    FLOAT     dir_p
      0000000EH   SYMBOL    EDATA    FLOAT     dir_d
      00FF82A9H   BLOCK     CODE     NEAR LAB  LVL=1
      00000012H   SYMBOL    EDATA    FLOAT     error
L251 LINKER/LOCATER V4.66.93.0                                                        05/17/2024  20:59:59  PAGE 109


      00000483H   SYMBOL    EDATA    FLOAT     last_error
      00000016H   SYMBOL    EDATA    FLOAT     Output
      0000001AH   SYMBOL    EDATA    FLOAT     error_derivative
      ---         BLOCKEND  ---      ---       LVL=1
      00FF82A1H   LINE      CODE     ---       #30
      00FF82A9H   LINE      CODE     ---       #31
      00FF82A9H   LINE      CODE     ---       #37
      00FF82B6H   LINE      CODE     ---       #39
      00FF82C5H   LINE      CODE     ---       #41
      00FF82E6H   LINE      CODE     ---       #43
      00FF82EEH   LINE      CODE     ---       #45
      00FF8307H   LINE      CODE     ---       #46
      00FF830AH   LINE      CODE     ---       #47
      ---         BLOCKEND  ---      ---       LVL=0

      00FF7831H   BLOCK     CODE     ---       LVL=0
      00000A6FH   SYMBOL    EDATA    INT       err
      00000A71H   SYMBOL    EDATA    FLOAT     dir_p
      00000A75H   SYMBOL    EDATA    FLOAT     dir_i
      00FF7839H   BLOCK     CODE     NEAR LAB  LVL=1
      00000A79H   SYMBOL    EDATA    INT       error1
      00000487H   SYMBOL    EDATA    INT       last_err
      00000489H   SYMBOL    EDATA    INT       P_out
      0000048BH   SYMBOL    EDATA    INT       I_out
      0000048DH   SYMBOL    EDATA    INT       out
      ---         BLOCKEND  ---      ---       LVL=1
      00FF7831H   LINE      CODE     ---       #57
      00FF7839H   LINE      CODE     ---       #58
      00FF7839H   LINE      CODE     ---       #59
      00FF783FH   LINE      CODE     ---       #61
      00FF7868H   LINE      CODE     ---       #62
      00FF7887H   LINE      CODE     ---       #63
      00FF78A0H   LINE      CODE     ---       #64
      00FF78ACH   LINE      CODE     ---       #65
      00FF78B6H   LINE      CODE     ---       #66
      00FF78C2H   LINE      CODE     ---       #67
      00FF78CAH   LINE      CODE     ---       #68
      00FF78D2H   LINE      CODE     ---       #69
      00FF78E6H   LINE      CODE     ---       #70
      00FF78F1H   LINE      CODE     ---       #71
      00FF78F1H   LINE      CODE     ---       #72
      ---         BLOCKEND  ---      ---       LVL=0

      00FF86BAH   BLOCK     CODE     ---       LVL=0
      0000048FH   SYMBOL    EDATA    INT       count
      00000491H   SYMBOL    EDATA    INT       wh_out
      00FF86BAH   LINE      CODE     ---       #79
      00FF86BAH   LINE      CODE     ---       #80
      00FF86BAH   LINE      CODE     ---       #83
      00FF86C6H   LINE      CODE     ---       #85
      00FF86DDH   LINE      CODE     ---       #86
      00FF86E3H   LINE      CODE     ---       #87
      00FF86E3H   LINE      CODE     ---       #88
      00FF86F1H   LINE      CODE     ---       #89
      00FF8704H   LINE      CODE     ---       #90
      ---         BLOCKEND  ---      ---       LVL=0
      00000493H   SYMBOL    EDATA    FLOAT     last_error
      00000497H   SYMBOL    EDATA    FLOAT     Ki_val
      000008DDH   SYMBOL    EDATA    FLOAT     target
      000008E1H   SYMBOL    EDATA    FLOAT     p
      000008E5H   SYMBOL    EDATA    FLOAT     d
      000008E9H   SYMBOL    EDATA    FLOAT     error
      000008EDH   SYMBOL    EDATA    INT       Output
      0000049BH   SYMBOL    EDATA    FLOAT     last_error
      0000049FH   SYMBOL    EDATA    FLOAT     error2
L251 LINKER/LOCATER V4.66.93.0                                                        05/17/2024  20:59:59  PAGE 110


      00000A7BH   SYMBOL    EDATA    INT       err
      00000A7DH   SYMBOL    EDATA    FLOAT     dir_p
      00000A81H   SYMBOL    EDATA    FLOAT     dir_i
      00000A85H   SYMBOL    EDATA    INT       error1
      000004A3H   SYMBOL    EDATA    FLOAT     last_err
      000004A7H   SYMBOL    EDATA    FLOAT     nh_out
      000004ABH   SYMBOL    EDATA    FLOAT     P_out
      000004AFH   SYMBOL    EDATA    FLOAT     I_out
      000004B3H   SYMBOL    EDATA    FLOAT     out
      000007E1H   SYMBOL    EDATA    INT       chazhi
      000007E3H   SYMBOL    EDATA    FLOAT     dir_p
      000007E7H   SYMBOL    EDATA    FLOAT     dir_d
      000007EBH   SYMBOL    EDATA    FLOAT     dir_d2
      000007EFH   SYMBOL    EDATA    FLOAT     error
      000004B7H   SYMBOL    EDATA    FLOAT     last_error
      000007F3H   SYMBOL    EDATA    FLOAT     Output
      000007F7H   SYMBOL    EDATA    FLOAT     error_derivative
      00000EBDH   SYMBOL    EDATA    INT       Distance
      000004BBH   SYMBOL    EDATA    INT       bmq_jifen
      000004BDH   SYMBOL    EDATA    INT       flag

      ---         MODULE    ---      ---       vofa
      0000022AH   PUBLIC    EDATA    ---       DataToSend
      000007FBH   PUBLIC    EDATA    BYTE      ?Send4DataToVofa?BYTE
      000000D0H   SFRSYM    DATA     BYTE      PSW
      0000009DH   SFRSYM    DATA     BYTE      IRCBAND
      00000097H   SFRSYM    DATA     BYTE      AUXR2
      000000EFH   SFRSYM    DATA     BYTE      AUXINTIF
      000000FDH   SFRSYM    DATA     BYTE      S4CON
      000000ACH   SFRSYM    DATA     BYTE      S3CON
      0000009AH   SFRSYM    DATA     BYTE      S2CON
      000000B7H   SFRSYM    DATA     BYTE      IPH
      000000CDH   SFRSYM    DATA     BYTE      SPSTAT
      000000DDH   SFRSYM    DATA     BYTE      T4T3M
      000000C1H   SFRSYM    DATA     BYTE      WDT_CONTR
      000000DFH   SFRSYM    DATA     BYTE      IP3
      000000F4H   SFRSYM    DATA     BYTE      USBCON
      000000B5H   SFRSYM    DATA     BYTE      IP2
      000000FFH   SFRSYM    DATA     BYTE      RSTCFG
      000000C7H   SFRSYM    DATA     BYTE      IAP_CONTR
      000000F9H   SFRSYM    DATA     BYTE      LINICR
      0000008EH   SFRSYM    DATA     BYTE      AUXR
      000000AFH   SFRSYM    DATA     BYTE      IE2
      00000088H   SFRSYM    DATA     BYTE      TCON
      00000089H   SFRSYM    DATA     BYTE      TMOD
      00000098H   SFRSYM    DATA     BYTE      SCON
      000000F1H   SFRSYM    DATA     BYTE      CANICR
      00000087H   SFRSYM    DATA     BYTE      PCON
      000000BCH   SFRSYM    DATA     BYTE      ADC_CONTR
      000000E7H   SFRSYM    DATA     BYTE      CMPCR2
      000000E6H   SFRSYM    DATA     BYTE      CMPCR1
      000000DEH   SFRSYM    DATA     BYTE      ADCCFG
      000000B8H   SFRSYM    DATA     BYTE      IP
      0000008FH   SFRSYM    DATA     BYTE      INTCLKO
      000000EEH   SFRSYM    DATA     BYTE      IP3H
      000000B6H   SFRSYM    DATA     BYTE      IP2H
      000000A8H   SFRSYM    DATA     BYTE      IE
      000000BBH   SFRSYM    DATA     BYTE      P_SW3
      000000BAH   SFRSYM    DATA     BYTE      P_SW2
      000000A2H   SFRSYM    DATA     BYTE      P_SW1
      000000CEH   SFRSYM    DATA     BYTE      SPCTL
      000000F8H   SFRSYM    DATA     BYTE      P7
      000000E8H   SFRSYM    DATA     BYTE      P6
      000000C8H   SFRSYM    DATA     BYTE      P5
      000000C0H   SFRSYM    DATA     BYTE      P4
L251 LINKER/LOCATER V4.66.93.0                                                        05/17/2024  20:59:59  PAGE 111


      000000B0H   SFRSYM    DATA     BYTE      P3
      000000A0H   SFRSYM    DATA     BYTE      P2
      00000090H   SFRSYM    DATA     BYTE      P1
      00000080H   SFRSYM    DATA     BYTE      P0
      000007FBH   SYMBOL    EDATA    FLOAT     _a
      000007FFH   SYMBOL    EDATA    FLOAT     _b
      00000813H   SYMBOL    EDATA    BYTE      i
      00000814H   SYMBOL    EDATA    BYTE      _cnt

      ---         MODULE    ---      ---       mpu6050
      00FF8082H   PUBLIC    CODE     ---       gyro_zero_wander
      00000A87H   PUBLIC    EDATA    BYTE      ?lowPassFilter?BYTE
      000000D0H   SFRSYM    DATA     BYTE      PSW
      0000009DH   SFRSYM    DATA     BYTE      IRCBAND
      00000097H   SFRSYM    DATA     BYTE      AUXR2
      000000EFH   SFRSYM    DATA     BYTE      AUXINTIF
      000000FDH   SFRSYM    DATA     BYTE      S4CON
      000000ACH   SFRSYM    DATA     BYTE      S3CON
      0000009AH   SFRSYM    DATA     BYTE      S2CON
      000000B7H   SFRSYM    DATA     BYTE      IPH
      000000CDH   SFRSYM    DATA     BYTE      SPSTAT
      000000DDH   SFRSYM    DATA     BYTE      T4T3M
      000000C1H   SFRSYM    DATA     BYTE      WDT_CONTR
      000000DFH   SFRSYM    DATA     BYTE      IP3
      000000F4H   SFRSYM    DATA     BYTE      USBCON
      000000B5H   SFRSYM    DATA     BYTE      IP2
      000000FFH   SFRSYM    DATA     BYTE      RSTCFG
      000000C7H   SFRSYM    DATA     BYTE      IAP_CONTR
      000000F9H   SFRSYM    DATA     BYTE      LINICR
      0000008EH   SFRSYM    DATA     BYTE      AUXR
      000000AFH   SFRSYM    DATA     BYTE      IE2
      00000088H   SFRSYM    DATA     BYTE      TCON
      00000089H   SFRSYM    DATA     BYTE      TMOD
      00000098H   SFRSYM    DATA     BYTE      SCON
      000000F1H   SFRSYM    DATA     BYTE      CANICR
      00000087H   SFRSYM    DATA     BYTE      PCON
      000000BCH   SFRSYM    DATA     BYTE      ADC_CONTR
      000000E7H   SFRSYM    DATA     BYTE      CMPCR2
      000000E6H   SFRSYM    DATA     BYTE      CMPCR1
      000000DEH   SFRSYM    DATA     BYTE      ADCCFG
      000000B8H   SFRSYM    DATA     BYTE      IP
      0000008FH   SFRSYM    DATA     BYTE      INTCLKO
      000000EEH   SFRSYM    DATA     BYTE      IP3H
      000000B6H   SFRSYM    DATA     BYTE      IP2H
      000000A8H   SFRSYM    DATA     BYTE      IE
      000000BBH   SFRSYM    DATA     BYTE      P_SW3
      000000BAH   SFRSYM    DATA     BYTE      P_SW2
      000000A2H   SFRSYM    DATA     BYTE      P_SW1
      000000CEH   SFRSYM    DATA     BYTE      SPCTL
      000000F8H   SFRSYM    DATA     BYTE      P7
      000000E8H   SFRSYM    DATA     BYTE      P6
      000000C8H   SFRSYM    DATA     BYTE      P5
      000000C0H   SFRSYM    DATA     BYTE      P4
      000000B0H   SFRSYM    DATA     BYTE      P3
      000000A0H   SFRSYM    DATA     BYTE      P2
      00000090H   SFRSYM    DATA     BYTE      P1
      00000080H   SFRSYM    DATA     BYTE      P0

      00FF8082H   BLOCK     CODE     ---       LVL=0
      00000C67H   SYMBOL    EDATA    FLOAT     sum
      00000C6BH   SYMBOL    EDATA    INT       flag
      00000EBFH   SYMBOL    EDATA    INT       i
      00FF8082H   LINE      CODE     ---       #14
      00FF8082H   LINE      CODE     ---       #17
      00FF8088H   LINE      CODE     ---       #18
L251 LINKER/LOCATER V4.66.93.0                                                        05/17/2024  20:59:59  PAGE 112


      00FF8094H   LINE      CODE     ---       #19
      00FF809CH   LINE      CODE     ---       #20
      00FF809FH   LINE      CODE     ---       #21
      00FF80B5H   LINE      CODE     ---       #22
      00FF80CFH   LINE      CODE     ---       #23
      00FF80D5H   LINE      CODE     ---       #24
      00FF80E4H   LINE      CODE     ---       #25
      00FF80E4H   LINE      CODE     ---       #26
      00FF80F1H   LINE      CODE     ---       #27
      ---         BLOCKEND  ---      ---       LVL=0
      00000B42H   SYMBOL    EDATA    FLOAT     val
      00000B46H   SYMBOL    EDATA    INT       i
      00000B48H   SYMBOL    EDATA    FLOAT     sum
      00000A87H   SYMBOL    EDATA    FLOAT     current
      00000A8BH   SYMBOL    EDATA    FLOAT     previous
      00000A8FH   SYMBOL    EDATA    FLOAT     alpha
      00000C6DH   SYMBOL    EDATA    INT       last_Val
      00000E08H   SYMBOL    EDATA    FLOAT     groy_z

      ---         MODULE    ---      ---       TrackElement
      00FF7EB1H   PUBLIC    CODE     ---       Tracking
      0000036DH   PUBLIC    EDATA    FLOAT     Sub_motor_i
      00000371H   PUBLIC    EDATA    FLOAT     Angle_D
      00000375H   PUBLIC    EDATA    FLOAT     Sub_motor_p
      00000379H   PUBLIC    EDATA    FLOAT     Angle_I
      0000037DH   PUBLIC    EDATA    INT       Speed_Plan1
      0000037FH   PUBLIC    EDATA    INT       RAngle_Flag
      00000381H   PUBLIC    EDATA    FLOAT     Angle_P
      00000385H   PUBLIC    EDATA    FLOAT     Angle4
      00000389H   PUBLIC    EDATA    INT       Err_speed
      0000038BH   PUBLIC    EDATA    INT       Sub_speed
      0000038DH   PUBLIC    EDATA    INT       shizi_flag
      0000038FH   PUBLIC    EDATA    ---       Element_Order
      00000397H   PUBLIC    EDATA    INT       ring_flag
      00000399H   PUBLIC    EDATA    FLOAT     Sub_wh_d
      0000039DH   PUBLIC    EDATA    LONG      Distance
      000003A1H   PUBLIC    EDATA    LONG      bmq_jifen
      000003A5H   PUBLIC    EDATA    FLOAT     Sub_wh_p
      000003A9H   PUBLIC    EDATA    INT       set_speed
      000003ABH   PUBLIC    EDATA    INT       DISTANCE_FLAG
      000003ADH   PUBLIC    EDATA    INT       RING_FLAG1
      000003AFH   PUBLIC    EDATA    INT       RING_FLAG2
      000003B1H   PUBLIC    EDATA    INT       RING_FLAG3
      000003B3H   PUBLIC    EDATA    INT       RING_FLAG4
      000003B5H   PUBLIC    EDATA    INT       ANGLE_FLAG
      000003B7H   PUBLIC    EDATA    INT       Track_flag
      000003B9H   PUBLIC    EDATA    FLOAT     angle_jifen
      000000D0H   SFRSYM    DATA     BYTE      PSW
      0000009DH   SFRSYM    DATA     BYTE      IRCBAND
      00000097H   SFRSYM    DATA     BYTE      AUXR2
      000000EFH   SFRSYM    DATA     BYTE      AUXINTIF
      000000FDH   SFRSYM    DATA     BYTE      S4CON
      000000ACH   SFRSYM    DATA     BYTE      S3CON
      0000009AH   SFRSYM    DATA     BYTE      S2CON
      000000B7H   SFRSYM    DATA     BYTE      IPH
      000000CDH   SFRSYM    DATA     BYTE      SPSTAT
      000000DDH   SFRSYM    DATA     BYTE      T4T3M
      000000C1H   SFRSYM    DATA     BYTE      WDT_CONTR
      000000DFH   SFRSYM    DATA     BYTE      IP3
      000000F4H   SFRSYM    DATA     BYTE      USBCON
      000000B5H   SFRSYM    DATA     BYTE      IP2
      000000FFH   SFRSYM    DATA     BYTE      RSTCFG
      000000C7H   SFRSYM    DATA     BYTE      IAP_CONTR
      000000F9H   SFRSYM    DATA     BYTE      LINICR
      0000008EH   SFRSYM    DATA     BYTE      AUXR
L251 LINKER/LOCATER V4.66.93.0                                                        05/17/2024  20:59:59  PAGE 113


      000000AFH   SFRSYM    DATA     BYTE      IE2
      00000088H   SFRSYM    DATA     BYTE      TCON
      00000089H   SFRSYM    DATA     BYTE      TMOD
      00000098H   SFRSYM    DATA     BYTE      SCON
      000000F1H   SFRSYM    DATA     BYTE      CANICR
      00000087H   SFRSYM    DATA     BYTE      PCON
      000000BCH   SFRSYM    DATA     BYTE      ADC_CONTR
      000000E7H   SFRSYM    DATA     BYTE      CMPCR2
      000000E6H   SFRSYM    DATA     BYTE      CMPCR1
      000000DEH   SFRSYM    DATA     BYTE      ADCCFG
      000000B8H   SFRSYM    DATA     BYTE      IP
      0000008FH   SFRSYM    DATA     BYTE      INTCLKO
      000000EEH   SFRSYM    DATA     BYTE      IP3H
      000000B6H   SFRSYM    DATA     BYTE      IP2H
      000000A8H   SFRSYM    DATA     BYTE      IE
      000000BBH   SFRSYM    DATA     BYTE      P_SW3
      000000BAH   SFRSYM    DATA     BYTE      P_SW2
      000000A2H   SFRSYM    DATA     BYTE      P_SW1
      000000CEH   SFRSYM    DATA     BYTE      SPCTL
      000000F8H   SFRSYM    DATA     BYTE      P7
      000000E8H   SFRSYM    DATA     BYTE      P6
      000000C8H   SFRSYM    DATA     BYTE      P5
      000000C0H   SFRSYM    DATA     BYTE      P4
      000000B0H   SFRSYM    DATA     BYTE      P3
      000000A0H   SFRSYM    DATA     BYTE      P2
      00000090H   SFRSYM    DATA     BYTE      P1
      00000080H   SFRSYM    DATA     BYTE      P0
      00000EC1H   SYMBOL    EDATA    INT       flag
      00000EC3H   SYMBOL    EDATA    INT       speed_flag
      00000C6FH   SYMBOL    EDATA    FLOAT     error
      00000C73H   SYMBOL    EDATA    FLOAT     err

      00FF7EB1H   BLOCK     CODE     ---       LVL=0
      00000EC5H   SYMBOL    EDATA    INT       Set_speed
      00FF7EB5H   BLOCK     CODE     NEAR LAB  LVL=1
      000003BDH   SYMBOL    EDATA    INT       count
      000003BFH   SYMBOL    EDATA    INT       Lpwm
      000003C1H   SYMBOL    EDATA    INT       Rpwm
      ---         BLOCKEND  ---      ---       LVL=1
      00FF7EB1H   LINE      CODE     ---       #205
      00FF7EB5H   LINE      CODE     ---       #206
      00FF7EB5H   LINE      CODE     ---       #208
      00FF7ECAH   LINE      CODE     ---       #209
      00FF7ED8H   LINE      CODE     ---       #210
      00FF7EDFH   LINE      CODE     ---       #211
      00FF7EEBH   LINE      CODE     ---       #213
      00FF7EFAH   LINE      CODE     ---       #214
      00FF7F09H   LINE      CODE     ---       #215
      00FF7F0FH   LINE      CODE     ---       #216
      00FF7F0FH   LINE      CODE     ---       #218
      00FF7F26H   LINE      CODE     ---       #219
      ---         BLOCKEND  ---      ---       LVL=0

      ---         MODULE    ---      ---       menu
      00FF89E9H   PUBLIC    CODE     ---       Show_Val_Menu
      00FF640FH   PUBLIC    CODE     ---       First_menu
      00FF6A5EH   PUBLIC    CODE     ---       Second_Element_menu
      00FF79ACH   PUBLIC    CODE     ---       Second__Speed_menu
      00FF5876H   PUBLIC    CODE     ---       Second_Motor_menu
      00FF3842H   PUBLIC    CODE     ---       Second__NWHuan_menu
      000000D0H   SFRSYM    DATA     BYTE      PSW
      0000009DH   SFRSYM    DATA     BYTE      IRCBAND
      00000097H   SFRSYM    DATA     BYTE      AUXR2
      000000EFH   SFRSYM    DATA     BYTE      AUXINTIF
      000000FDH   SFRSYM    DATA     BYTE      S4CON
L251 LINKER/LOCATER V4.66.93.0                                                        05/17/2024  20:59:59  PAGE 114


      000000ACH   SFRSYM    DATA     BYTE      S3CON
      0000009AH   SFRSYM    DATA     BYTE      S2CON
      000000B7H   SFRSYM    DATA     BYTE      IPH
      000000CDH   SFRSYM    DATA     BYTE      SPSTAT
      000000DDH   SFRSYM    DATA     BYTE      T4T3M
      000000C1H   SFRSYM    DATA     BYTE      WDT_CONTR
      000000DFH   SFRSYM    DATA     BYTE      IP3
      000000F4H   SFRSYM    DATA     BYTE      USBCON
      000000B5H   SFRSYM    DATA     BYTE      IP2
      000000FFH   SFRSYM    DATA     BYTE      RSTCFG
      000000C7H   SFRSYM    DATA     BYTE      IAP_CONTR
      000000F9H   SFRSYM    DATA     BYTE      LINICR
      0000008EH   SFRSYM    DATA     BYTE      AUXR
      000000AFH   SFRSYM    DATA     BYTE      IE2
      000000B0H.7 SFRSYM    DATA     BIT       P37
      000000C0H.3 SFRSYM    DATA     BIT       P43
      00000088H   SFRSYM    DATA     BYTE      TCON
      00000089H   SFRSYM    DATA     BYTE      TMOD
      00000098H   SFRSYM    DATA     BYTE      SCON
      000000A0H.1 SFRSYM    DATA     BIT       P21
      000000A0H.0 SFRSYM    DATA     BIT       P20
      000000F1H   SFRSYM    DATA     BYTE      CANICR
      00000087H   SFRSYM    DATA     BYTE      PCON
      000000BCH   SFRSYM    DATA     BYTE      ADC_CONTR
      000000E7H   SFRSYM    DATA     BYTE      CMPCR2
      000000E6H   SFRSYM    DATA     BYTE      CMPCR1
      000000DEH   SFRSYM    DATA     BYTE      ADCCFG
      000000B8H   SFRSYM    DATA     BYTE      IP
      0000008FH   SFRSYM    DATA     BYTE      INTCLKO
      000000EEH   SFRSYM    DATA     BYTE      IP3H
      000000B6H   SFRSYM    DATA     BYTE      IP2H
      000000A8H   SFRSYM    DATA     BYTE      IE
      000000BBH   SFRSYM    DATA     BYTE      P_SW3
      000000BAH   SFRSYM    DATA     BYTE      P_SW2
      000000A2H   SFRSYM    DATA     BYTE      P_SW1
      000000CEH   SFRSYM    DATA     BYTE      SPCTL
      000000F8H   SFRSYM    DATA     BYTE      P7
      000000E8H   SFRSYM    DATA     BYTE      P6
      000000C8H   SFRSYM    DATA     BYTE      P5
      000000C0H   SFRSYM    DATA     BYTE      P4
      000000B0H   SFRSYM    DATA     BYTE      P3
      000000A0H   SFRSYM    DATA     BYTE      P2
      00000090H   SFRSYM    DATA     BYTE      P1
      00000080H   SFRSYM    DATA     BYTE      P0
      00FF9123H   SYMBOL    HCONST   ---       ?tpl?0001
      00000E0CH   SYMBOL    EDATA    INT       flag1
      00000E0EH   SYMBOL    EDATA    INT       flag

      00FF640FH   BLOCK     CODE     ---       LVL=0
      00000E10H   SYMBOL    EDATA    INT       flag
      00000E12H   SYMBOL    EDATA    INT       a
      00FF640FH   LINE      CODE     ---       #45
      00FF640FH   LINE      CODE     ---       #46
      00FF640FH   LINE      CODE     ---       #47
      00FF6417H   LINE      CODE     ---       #48
      00FF641DH   LINE      CODE     ---       #49
      00FF642CH   LINE      CODE     ---       #50
      00FF643CH   LINE      CODE     ---       #51
      00FF644CH   LINE      CODE     ---       #52
      00FF645CH   LINE      CODE     ---       #53
      00FF646CH   LINE      CODE     ---       #54
      00FF647CH   LINE      CODE     ---       #55
      00FF647CH   LINE      CODE     ---       #57
      00FF6485H   LINE      CODE     ---       #59
      00FF648CH   LINE      CODE     ---       #60
L251 LINKER/LOCATER V4.66.93.0                                                        05/17/2024  20:59:59  PAGE 115


      00FF6495H   LINE      CODE     ---       #61
      00FF649CH   LINE      CODE     ---       #62
      00FF64AAH   LINE      CODE     ---       #63
      00FF64BEH   LINE      CODE     ---       #64
      00FF64BEH   LINE      CODE     ---       #65
      00FF64C7H   LINE      CODE     ---       #67
      00FF64CEH   LINE      CODE     ---       #68
      00FF64D7H   LINE      CODE     ---       #69
      00FF64DEH   LINE      CODE     ---       #70
      00FF64ECH   LINE      CODE     ---       #71
      00FF64FEH   LINE      CODE     ---       #72
      00FF64FEH   LINE      CODE     ---       #73
      00FF6507H   LINE      CODE     ---       #75
      00FF650EH   LINE      CODE     ---       #76
      00FF6517H   LINE      CODE     ---       #77
      00FF651EH   LINE      CODE     ---       #78
      00FF6522H   LINE      CODE     ---       #79
      00FF6529H   LINE      CODE     ---       #80
      00FF6529H   LINE      CODE     ---       #81
      00FF6532H   LINE      CODE     ---       #83
      00FF6539H   LINE      CODE     ---       #84
      00FF6542H   LINE      CODE     ---       #85
      00FF6549H   LINE      CODE     ---       #86
      00FF654DH   LINE      CODE     ---       #87
      00FF6552H   LINE      CODE     ---       #88
      00FF6552H   LINE      CODE     ---       #89
      00FF6582H   LINE      CODE     ---       #91
      00FF6582H   LINE      CODE     ---       #93
      00FF6590H   LINE      CODE     ---       #94
      00FF659FH   LINE      CODE     ---       #95
      00FF65AEH   LINE      CODE     ---       #96
      00FF65BDH   LINE      CODE     ---       #97
      00FF65CCH   LINE      CODE     ---       #98
      00FF65DBH   LINE      CODE     ---       #99
      00FF65DEH   LINE      CODE     ---       #100
      00FF65DEH   LINE      CODE     ---       #102
      00FF65ECH   LINE      CODE     ---       #103
      00FF65FBH   LINE      CODE     ---       #104
      00FF660AH   LINE      CODE     ---       #105
      00FF6619H   LINE      CODE     ---       #106
      00FF6628H   LINE      CODE     ---       #107
      00FF6637H   LINE      CODE     ---       #108
      00FF663AH   LINE      CODE     ---       #109
      00FF663AH   LINE      CODE     ---       #111
      00FF6648H   LINE      CODE     ---       #112
      00FF6657H   LINE      CODE     ---       #113
      00FF6666H   LINE      CODE     ---       #114
      00FF6675H   LINE      CODE     ---       #115
      00FF6684H   LINE      CODE     ---       #116
      00FF6693H   LINE      CODE     ---       #117
      00FF6696H   LINE      CODE     ---       #118
      00FF6696H   LINE      CODE     ---       #120
      00FF66A4H   LINE      CODE     ---       #121
      00FF66B3H   LINE      CODE     ---       #122
      00FF66C2H   LINE      CODE     ---       #123
      00FF66D1H   LINE      CODE     ---       #124
      00FF66E0H   LINE      CODE     ---       #125
      00FF66EFH   LINE      CODE     ---       #126
      00FF66F2H   LINE      CODE     ---       #127
      00FF66F2H   LINE      CODE     ---       #129
      00FF6700H   LINE      CODE     ---       #130
      00FF670FH   LINE      CODE     ---       #131
      00FF671EH   LINE      CODE     ---       #132
      00FF672DH   LINE      CODE     ---       #133
      00FF673CH   LINE      CODE     ---       #134
L251 LINKER/LOCATER V4.66.93.0                                                        05/17/2024  20:59:59  PAGE 116


      00FF674BH   LINE      CODE     ---       #135
      00FF674EH   LINE      CODE     ---       #136
      00FF674EH   LINE      CODE     ---       #138
      00FF675CH   LINE      CODE     ---       #139
      00FF676BH   LINE      CODE     ---       #140
      00FF677AH   LINE      CODE     ---       #141
      00FF6789H   LINE      CODE     ---       #142
      00FF6798H   LINE      CODE     ---       #143
      00FF67A7H   LINE      CODE     ---       #144
      00FF67AAH   LINE      CODE     ---       #145
      00FF67AAH   LINE      CODE     ---       #146
      00FF67AAH   LINE      CODE     ---       #147
      ---         BLOCKEND  ---      ---       LVL=0

      00FF6A5EH   BLOCK     CODE     ---       LVL=0
      000008FFH   SYMBOL    EDATA    INT       flag
      00000901H   SYMBOL    EDATA    INT       i
      00000903H   SYMBOL    EDATA    INT       Order
      00000905H   SYMBOL    EDATA    INT       k
      00000907H   SYMBOL    EDATA    ---       menu_order
      00FF6A5EH   LINE      CODE     ---       #157
      00FF6A5EH   LINE      CODE     ---       #158
      00FF6A5EH   LINE      CODE     ---       #159
      00FF6A78H   LINE      CODE     ---       #160
      00FF6A89H   LINE      CODE     ---       #162
      00FF6A98H   LINE      CODE     ---       #163
      00FF6AA8H   LINE      CODE     ---       #164
      00FF6AB8H   LINE      CODE     ---       #165
      00FF6AC8H   LINE      CODE     ---       #167
      00FF6AC8H   LINE      CODE     ---       #169
      00FF6AD1H   LINE      CODE     ---       #171
      00FF6AD8H   LINE      CODE     ---       #172
      00FF6AE1H   LINE      CODE     ---       #173
      00FF6AE8H   LINE      CODE     ---       #174
      00FF6AF6H   LINE      CODE     ---       #175
      00FF6B0AH   LINE      CODE     ---       #176
      00FF6B0AH   LINE      CODE     ---       #177
      00FF6B13H   LINE      CODE     ---       #179
      00FF6B1AH   LINE      CODE     ---       #180
      00FF6B23H   LINE      CODE     ---       #181
      00FF6B2AH   LINE      CODE     ---       #182
      00FF6B38H   LINE      CODE     ---       #183
      00FF6B4AH   LINE      CODE     ---       #184
      00FF6B4AH   LINE      CODE     ---       #185
      00FF6B56H   LINE      CODE     ---       #187
      00FF6B5DH   LINE      CODE     ---       #188
      00FF6B66H   LINE      CODE     ---       #189
      00FF6B6DH   LINE      CODE     ---       #190
      00FF6B7BH   LINE      CODE     ---       #191
      00FF6B87H   LINE      CODE     ---       #192
      00FF6B8FH   LINE      CODE     ---       #194
      00FF6BADH   LINE      CODE     ---       #195
      00FF6BC7H   LINE      CODE     ---       #196
      00FF6BCBH   LINE      CODE     ---       #197
      00FF6BD0H   LINE      CODE     ---       #198
      00FF6BD0H   LINE      CODE     ---       #199
      00FF6BE3H   LINE      CODE     ---       #200
      00FF6BE3H   LINE      CODE     ---       #201
      00FF6BECH   LINE      CODE     ---       #203
      00FF6BF3H   LINE      CODE     ---       #204
      00FF6BFCH   LINE      CODE     ---       #205
      00FF6C03H   LINE      CODE     ---       #206
      00FF6C07H   LINE      CODE     ---       #207
      00FF6C0BH   LINE      CODE     ---       #208
      00FF6C0BH   LINE      CODE     ---       #210
L251 LINKER/LOCATER V4.66.93.0                                                        05/17/2024  20:59:59  PAGE 117


      00FF6C13H   LINE      CODE     ---       #212
      00FF6C25H   LINE      CODE     ---       #213
      00FF6C39H   LINE      CODE     ---       #215
      00FF6C4BH   LINE      CODE     ---       #218
      00FF6C65H   LINE      CODE     ---       #219
      00FF6C7FH   LINE      CODE     ---       #220
      00FF6C82H   LINE      CODE     ---       #221
      ---         BLOCKEND  ---      ---       LVL=0

      00FF5876H   BLOCK     CODE     ---       LVL=0
      0000090FH   SYMBOL    EDATA    INT       flag
      00000911H   SYMBOL    EDATA    INT       Val_add_lose
      00000913H   SYMBOL    EDATA    INT       i
      00000915H   SYMBOL    EDATA    INT       count
      00000917H   SYMBOL    EDATA    INT       long_press_delay
      00000919H   SYMBOL    EDATA    INT       pree_delay
      0000091BH   SYMBOL    EDATA    FLOAT     x
      00FF5876H   LINE      CODE     ---       #229
      00FF5876H   LINE      CODE     ---       #230
      00FF5876H   LINE      CODE     ---       #231
      00FF5890H   LINE      CODE     ---       #232
      00FF5896H   LINE      CODE     ---       #233
      00FF589CH   LINE      CODE     ---       #234
      00FF58A8H   LINE      CODE     ---       #236
      00FF58B7H   LINE      CODE     ---       #237
      00FF58CCH   LINE      CODE     ---       #238
      00FF58DCH   LINE      CODE     ---       #239
      00FF58F3H   LINE      CODE     ---       #240
      00FF5903H   LINE      CODE     ---       #241
      00FF5913H   LINE      CODE     ---       #243
      00FF5913H   LINE      CODE     ---       #245
      00FF591CH   LINE      CODE     ---       #247
      00FF5923H   LINE      CODE     ---       #248
      00FF592CH   LINE      CODE     ---       #249
      00FF5933H   LINE      CODE     ---       #250
      00FF5941H   LINE      CODE     ---       #251
      00FF5955H   LINE      CODE     ---       #252
      00FF5955H   LINE      CODE     ---       #253
      00FF595EH   LINE      CODE     ---       #255
      00FF5965H   LINE      CODE     ---       #256
      00FF596EH   LINE      CODE     ---       #257
      00FF5975H   LINE      CODE     ---       #258
      00FF5983H   LINE      CODE     ---       #259
      00FF5995H   LINE      CODE     ---       #260
      00FF5995H   LINE      CODE     ---       #261
      00FF59A1H   LINE      CODE     ---       #263
      00FF59A8H   LINE      CODE     ---       #264
      00FF59AEH   LINE      CODE     ---       #266
      00FF59B1H   LINE      CODE     ---       #268
      00FF59B8H   LINE      CODE     ---       #269
      00FF59C6H   LINE      CODE     ---       #271
      00FF59DBH   LINE      CODE     ---       #273
      00FF59E7H   LINE      CODE     ---       #275
      00FF59FCH   LINE      CODE     ---       #276
      00FF5A1BH   LINE      CODE     ---       #277
      00FF5A1BH   LINE      CODE     ---       #278
      00FF5A27H   LINE      CODE     ---       #280
      00FF5A46H   LINE      CODE     ---       #281
      00FF5A5DH   LINE      CODE     ---       #282
      00FF5A5DH   LINE      CODE     ---       #283
      00FF5A6BH   LINE      CODE     ---       #284
      00FF5A7FH   LINE      CODE     ---       #285
      00FF5A85H   LINE      CODE     ---       #286
      00FF5A91H   LINE      CODE     ---       #288
      00FF5A98H   LINE      CODE     ---       #289
L251 LINKER/LOCATER V4.66.93.0                                                        05/17/2024  20:59:59  PAGE 118


      00FF5AA7H   LINE      CODE     ---       #291
      00FF5AADH   LINE      CODE     ---       #292
      00FF5AB9H   LINE      CODE     ---       #294
      00FF5ACEH   LINE      CODE     ---       #295
      00FF5AEDH   LINE      CODE     ---       #296
      00FF5AEDH   LINE      CODE     ---       #297
      00FF5AF9H   LINE      CODE     ---       #299
      00FF5B18H   LINE      CODE     ---       #300
      00FF5B2FH   LINE      CODE     ---       #301
      00FF5B2FH   LINE      CODE     ---       #302
      00FF5B3BH   LINE      CODE     ---       #304
      00FF5B45H   LINE      CODE     ---       #306
      00FF5B55H   LINE      CODE     ---       #307
      00FF5B65H   LINE      CODE     ---       #308
      00FF5B6DH   LINE      CODE     ---       #309
      00FF5B75H   LINE      CODE     ---       #310
      00FF5B77H   LINE      CODE     ---       #311
      00FF5B83H   LINE      CODE     ---       #313
      00FF5B93H   LINE      CODE     ---       #314
      00FF5BA3H   LINE      CODE     ---       #315
      00FF5BABH   LINE      CODE     ---       #316
      00FF5BB1H   LINE      CODE     ---       #317
      00FF5BB1H   LINE      CODE     ---       #319
      00FF5BBDH   LINE      CODE     ---       #321
      00FF5BE0H   LINE      CODE     ---       #322
      00FF5BF7H   LINE      CODE     ---       #323
      00FF5BF7H   LINE      CODE     ---       #325
      00FF5BF7H   LINE      CODE     ---       #326
      00FF5C00H   LINE      CODE     ---       #328
      00FF5C07H   LINE      CODE     ---       #329
      00FF5C10H   LINE      CODE     ---       #330
      00FF5C17H   LINE      CODE     ---       #331
      00FF5C1BH   LINE      CODE     ---       #332
      00FF5C1FH   LINE      CODE     ---       #333
      00FF5C1FH   LINE      CODE     ---       #334
      00FF5C27H   LINE      CODE     ---       #336
      00FF5C39H   LINE      CODE     ---       #337
      00FF5C4DH   LINE      CODE     ---       #339
      00FF5C5FH   LINE      CODE     ---       #340
      00FF5C79H   LINE      CODE     ---       #341
      00FF5C7CH   LINE      CODE     ---       #342
      ---         BLOCKEND  ---      ---       LVL=0

      00FF3842H   BLOCK     CODE     ---       LVL=0
      00000815H   SYMBOL    EDATA    INT       flag
      00000817H   SYMBOL    EDATA    INT       i
      00000819H   SYMBOL    EDATA    INT       Val_add_lose
      0000081BH   SYMBOL    EDATA    INT       count
      0000081DH   SYMBOL    EDATA    INT       flag1
      0000081FH   SYMBOL    EDATA    FLOAT     x
      00000823H   SYMBOL    EDATA    FLOAT     x1
      00000827H   SYMBOL    EDATA    WORD      long_press_delay
      00000829H   SYMBOL    EDATA    WORD      pree_delay
      0000082BH   SYMBOL    EDATA    INT       page
      0000082DH   SYMBOL    EDATA    INT       page1
      00FF3842H   LINE      CODE     ---       #355
      00FF3842H   LINE      CODE     ---       #356
      00FF3842H   LINE      CODE     ---       #357
      00FF3868H   LINE      CODE     ---       #358
      00FF387EH   LINE      CODE     ---       #359
      00FF388AH   LINE      CODE     ---       #360
      00FF3892H   LINE      CODE     ---       #361
      00FF389AH   LINE      CODE     ---       #362
      00FF38A6H   LINE      CODE     ---       #364
      00FF38AAH   LINE      CODE     ---       #365
L251 LINKER/LOCATER V4.66.93.0                                                        05/17/2024  20:59:59  PAGE 119


      00FF38AAH   LINE      CODE     ---       #366
      00FF38AAH   LINE      CODE     ---       #369
      00FF38B3H   LINE      CODE     ---       #371
      00FF38BAH   LINE      CODE     ---       #372
      00FF38C3H   LINE      CODE     ---       #373
      00FF38CAH   LINE      CODE     ---       #374
      00FF38D8H   LINE      CODE     ---       #376
      00FF38E4H   LINE      CODE     ---       #377
      00FF38ECH   LINE      CODE     ---       #378
      00FF3906H   LINE      CODE     ---       #379
      00FF3906H   LINE      CODE     ---       #381
      00FF390FH   LINE      CODE     ---       #383
      00FF3916H   LINE      CODE     ---       #384
      00FF391FH   LINE      CODE     ---       #385
      00FF3926H   LINE      CODE     ---       #386
      00FF3934H   LINE      CODE     ---       #388
      00FF394AH   LINE      CODE     ---       #389
      00FF3952H   LINE      CODE     ---       #390
      00FF395AH   LINE      CODE     ---       #391
      00FF395CH   LINE      CODE     ---       #393
      00FF3972H   LINE      CODE     ---       #394
      00FF397AH   LINE      CODE     ---       #395
      00FF3982H   LINE      CODE     ---       #396
      00FF3982H   LINE      CODE     ---       #399
      00FF3991H   LINE      CODE     ---       #401
      00FF39A0H   LINE      CODE     ---       #403
      00FF39A4H   LINE      CODE     ---       #404
      00FF39ACH   LINE      CODE     ---       #405
      00FF39BBH   LINE      CODE     ---       #406
      00FF39D0H   LINE      CODE     ---       #407
      00FF39E0H   LINE      CODE     ---       #408
      00FF39F7H   LINE      CODE     ---       #409
      00FF3A07H   LINE      CODE     ---       #410
      00FF3A1EH   LINE      CODE     ---       #411
      00FF3A2EH   LINE      CODE     ---       #412
      00FF3A45H   LINE      CODE     ---       #413
      00FF3A47H   LINE      CODE     ---       #415
      00FF3A53H   LINE      CODE     ---       #417
      00FF3A5FH   LINE      CODE     ---       #419
      00FF3A63H   LINE      CODE     ---       #420
      00FF3A6BH   LINE      CODE     ---       #422
      00FF3A7BH   LINE      CODE     ---       #423
      00FF3A8BH   LINE      CODE     ---       #424
      00FF3A8BH   LINE      CODE     ---       #427
      00FF3AA6H   LINE      CODE     ---       #429
      00FF3AADH   LINE      CODE     ---       #430
      00FF3AB3H   LINE      CODE     ---       #431
      00FF3AB6H   LINE      CODE     ---       #433
      00FF3ABDH   LINE      CODE     ---       #434
      00FF3ACBH   LINE      CODE     ---       #435
      00FF3AE0H   LINE      CODE     ---       #437
      00FF3AECH   LINE      CODE     ---       #438
      00FF3B01H   LINE      CODE     ---       #439
      00FF3B20H   LINE      CODE     ---       #440
      00FF3B2FH   LINE      CODE     ---       #441
      00FF3B46H   LINE      CODE     ---       #442
      00FF3B65H   LINE      CODE     ---       #443
      00FF3B74H   LINE      CODE     ---       #444
      00FF3B93H   LINE      CODE     ---       #445
      00FF3BAAH   LINE      CODE     ---       #446
      00FF3BB8H   LINE      CODE     ---       #447
      00FF3BD7H   LINE      CODE     ---       #448
      00FF3BEEH   LINE      CODE     ---       #449
      00FF3BEEH   LINE      CODE     ---       #450
      00FF3BFCH   LINE      CODE     ---       #451
L251 LINKER/LOCATER V4.66.93.0                                                        05/17/2024  20:59:59  PAGE 120


      00FF3C10H   LINE      CODE     ---       #452
      00FF3C16H   LINE      CODE     ---       #453
      00FF3C22H   LINE      CODE     ---       #455
      00FF3C29H   LINE      CODE     ---       #456
      00FF3C38H   LINE      CODE     ---       #458
      00FF3C3EH   LINE      CODE     ---       #459
      00FF3C5DH   LINE      CODE     ---       #461
      00FF3C5DH   LINE      CODE     ---       #463
      00FF3C72H   LINE      CODE     ---       #464
      00FF3C91H   LINE      CODE     ---       #465
      00FF3C94H   LINE      CODE     ---       #466
      00FF3C94H   LINE      CODE     ---       #468
      00FF3CABH   LINE      CODE     ---       #469
      00FF3CCAH   LINE      CODE     ---       #470
      00FF3CCCH   LINE      CODE     ---       #471
      00FF3CCCH   LINE      CODE     ---       #473
      00FF3CEBH   LINE      CODE     ---       #474
      00FF3D02H   LINE      CODE     ---       #475
      00FF3D04H   LINE      CODE     ---       #476
      00FF3D04H   LINE      CODE     ---       #478
      00FF3D23H   LINE      CODE     ---       #479
      00FF3D3AH   LINE      CODE     ---       #480
      00FF3D3AH   LINE      CODE     ---       #481
      00FF3D3AH   LINE      CODE     ---       #483
      00FF3D3AH   LINE      CODE     ---       #485
      00FF3D55H   LINE      CODE     ---       #487
      00FF3D5CH   LINE      CODE     ---       #488
      00FF3D65H   LINE      CODE     ---       #489
      00FF3D6CH   LINE      CODE     ---       #490
      00FF3D7BH   LINE      CODE     ---       #492
      00FF3D89H   LINE      CODE     ---       #493
      00FF3D9BH   LINE      CODE     ---       #494
      00FF3DA5H   LINE      CODE     ---       #496
      00FF3DB4H   LINE      CODE     ---       #497
      00FF3DC3H   LINE      CODE     ---       #498
      00FF3DCBH   LINE      CODE     ---       #499
      00FF3DD9H   LINE      CODE     ---       #500
      00FF3DDBH   LINE      CODE     ---       #501
      00FF3DE7H   LINE      CODE     ---       #503
      00FF3DF6H   LINE      CODE     ---       #504
      00FF3E05H   LINE      CODE     ---       #505
      00FF3E0DH   LINE      CODE     ---       #506
      00FF3E0DH   LINE      CODE     ---       #509
      00FF3E19H   LINE      CODE     ---       #511
      00FF3E3AH   LINE      CODE     ---       #512
      00FF3E51H   LINE      CODE     ---       #513
      00FF3E51H   LINE      CODE     ---       #514
      00FF3E5DH   LINE      CODE     ---       #516
      00FF3E80H   LINE      CODE     ---       #517
      00FF3E97H   LINE      CODE     ---       #518
      00FF3E97H   LINE      CODE     ---       #520
      00FF3EA0H   LINE      CODE     ---       #522
      00FF3EA7H   LINE      CODE     ---       #523
      00FF3EB0H   LINE      CODE     ---       #524
      00FF3EB7H   LINE      CODE     ---       #525
      00FF3EBBH   LINE      CODE     ---       #526
      00FF3EBFH   LINE      CODE     ---       #527
      00FF3EBFH   LINE      CODE     ---       #529
      00FF3EC7H   LINE      CODE     ---       #531
      00FF3ED9H   LINE      CODE     ---       #532
      00FF3EEDH   LINE      CODE     ---       #534
      00FF3EFFH   LINE      CODE     ---       #535
      00FF3F19H   LINE      CODE     ---       #536
      00FF3F1CH   LINE      CODE     ---       #537
      ---         BLOCKEND  ---      ---       LVL=0
L251 LINKER/LOCATER V4.66.93.0                                                        05/17/2024  20:59:59  PAGE 121



      00FF79ACH   BLOCK     CODE     ---       LVL=0
      00FF79ACH   LINE      CODE     ---       #546
      00FF79ACH   LINE      CODE     ---       #548
      00FF79B0H   LINE      CODE     ---       #549
      00FF79BEH   LINE      CODE     ---       #550
      00FF79C9H   LINE      CODE     ---       #551
      00FF79C9H   LINE      CODE     ---       #553
      00FF79D2H   LINE      CODE     ---       #555
      00FF79D9H   LINE      CODE     ---       #556
      00FF79E2H   LINE      CODE     ---       #557
      00FF79E9H   LINE      CODE     ---       #558
      00FF79F7H   LINE      CODE     ---       #559
      00FF7A02H   LINE      CODE     ---       #560
      00FF7A02H   LINE      CODE     ---       #561
      00FF7A0BH   LINE      CODE     ---       #563
      00FF7A12H   LINE      CODE     ---       #564
      00FF7A1BH   LINE      CODE     ---       #565
      00FF7A22H   LINE      CODE     ---       #566
      00FF7A30H   LINE      CODE     ---       #567
      00FF7A3BH   LINE      CODE     ---       #568
      00FF7A3BH   LINE      CODE     ---       #569
      00FF7A44H   LINE      CODE     ---       #571
      00FF7A4BH   LINE      CODE     ---       #572
      00FF7A54H   LINE      CODE     ---       #573
      00FF7A5BH   LINE      CODE     ---       #574
      00FF7A5FH   LINE      CODE     ---       #575
      00FF7A61H   LINE      CODE     ---       #576
      00FF7A61H   LINE      CODE     ---       #578
      ---         BLOCKEND  ---      ---       LVL=0

      00FF89E9H   BLOCK     CODE     ---       LVL=0
      00FF89E9H   LINE      CODE     ---       #587
      00FF89E9H   LINE      CODE     ---       #589
      00FF89E9H   LINE      CODE     ---       #592
      00FF89ECH   LINE      CODE     ---       #593
      00FF89F5H   LINE      CODE     ---       #595
      00FF89FCH   LINE      CODE     ---       #596
      00FF8A05H   LINE      CODE     ---       #597
      00FF8A0CH   LINE      CODE     ---       #598
      00FF8A10H   LINE      CODE     ---       #599
      00FF8A12H   LINE      CODE     ---       #600
      00FF8A12H   LINE      CODE     ---       #602
      ---         BLOCKEND  ---      ---       LVL=0

      ---         MODULE    ---      ---       ALLInit
      00FF8931H   PUBLIC    CODE     ---       GPIO_Init
      00FF8795H   PUBLIC    CODE     ---       ALL_Peripheral_Init
      000000D0H   SFRSYM    DATA     BYTE      PSW
      0000009DH   SFRSYM    DATA     BYTE      IRCBAND
      00000097H   SFRSYM    DATA     BYTE      AUXR2
      000000EFH   SFRSYM    DATA     BYTE      AUXINTIF
      000000FDH   SFRSYM    DATA     BYTE      S4CON
      000000ACH   SFRSYM    DATA     BYTE      S3CON
      0000009AH   SFRSYM    DATA     BYTE      S2CON
      000000B7H   SFRSYM    DATA     BYTE      IPH
      000000CDH   SFRSYM    DATA     BYTE      SPSTAT
      000000DDH   SFRSYM    DATA     BYTE      T4T3M
      000000C1H   SFRSYM    DATA     BYTE      WDT_CONTR
      000000DFH   SFRSYM    DATA     BYTE      IP3
      000000F4H   SFRSYM    DATA     BYTE      USBCON
      000000B5H   SFRSYM    DATA     BYTE      IP2
      000000FFH   SFRSYM    DATA     BYTE      RSTCFG
      000000C7H   SFRSYM    DATA     BYTE      IAP_CONTR
      000000F9H   SFRSYM    DATA     BYTE      LINICR
L251 LINKER/LOCATER V4.66.93.0                                                        05/17/2024  20:59:59  PAGE 122


      0000008EH   SFRSYM    DATA     BYTE      AUXR
      000000AFH   SFRSYM    DATA     BYTE      IE2
      000000C0H.4 SFRSYM    DATA     BIT       P44
      00000088H   SFRSYM    DATA     BYTE      TCON
      00000089H   SFRSYM    DATA     BYTE      TMOD
      000000C0H.1 SFRSYM    DATA     BIT       P41
      00000098H   SFRSYM    DATA     BYTE      SCON
      000000F1H   SFRSYM    DATA     BYTE      CANICR
      00000087H   SFRSYM    DATA     BYTE      PCON
      000000BCH   SFRSYM    DATA     BYTE      ADC_CONTR
      000000E7H   SFRSYM    DATA     BYTE      CMPCR2
      000000E6H   SFRSYM    DATA     BYTE      CMPCR1
      000000DEH   SFRSYM    DATA     BYTE      ADCCFG
      000000B8H   SFRSYM    DATA     BYTE      IP
      0000008FH   SFRSYM    DATA     BYTE      INTCLKO
      000000EEH   SFRSYM    DATA     BYTE      IP3H
      000000B6H   SFRSYM    DATA     BYTE      IP2H
      000000A8H   SFRSYM    DATA     BYTE      IE
      000000BBH   SFRSYM    DATA     BYTE      P_SW3
      000000BAH   SFRSYM    DATA     BYTE      P_SW2
      000000A2H   SFRSYM    DATA     BYTE      P_SW1
      000000CEH   SFRSYM    DATA     BYTE      SPCTL
      000000F8H   SFRSYM    DATA     BYTE      P7
      000000E8H   SFRSYM    DATA     BYTE      P6
      000000C8H   SFRSYM    DATA     BYTE      P5
      000000C0H   SFRSYM    DATA     BYTE      P4
      000000B0H   SFRSYM    DATA     BYTE      P3
      000000A0H   SFRSYM    DATA     BYTE      P2
      00000090H   SFRSYM    DATA     BYTE      P1
      00000080H   SFRSYM    DATA     BYTE      P0

      00FF8931H   BLOCK     CODE     ---       LVL=0
      00FF8931H   LINE      CODE     ---       #7
      00FF8931H   LINE      CODE     ---       #10
      00FF893CH   LINE      CODE     ---       #11
      00FF8947H   LINE      CODE     ---       #13
      00FF8952H   LINE      CODE     ---       #14
      00FF895DH   LINE      CODE     ---       #15
      00FF8960H   LINE      CODE     ---       #16
      00FF8963H   LINE      CODE     ---       #17
      ---         BLOCKEND  ---      ---       LVL=0

      00FF8795H   BLOCK     CODE     ---       LVL=0
      00FF8795H   LINE      CODE     ---       #23
      00FF8795H   LINE      CODE     ---       #25
      00FF8798H   LINE      CODE     ---       #26
      00FF87B3H   LINE      CODE     ---       #27
      00FF87B6H   LINE      CODE     ---       #28
      00FF87BAH   LINE      CODE     ---       #29
      00FF87BDH   LINE      CODE     ---       #30
      00FF87C0H   LINE      CODE     ---       #31
      00FF87C3H   LINE      CODE     ---       #32
      00FF87D4H   LINE      CODE     ---       #33
      00FF87D7H   LINE      CODE     ---       #34
      ---         BLOCKEND  ---      ---       LVL=0

      ---         MODULE    ---      ---       RGB
      00000020H.0 PUBLIC    BIT      BIT       ?WS2812_bit?BIT
      000000D0H   SFRSYM    DATA     BYTE      PSW
      0000009DH   SFRSYM    DATA     BYTE      IRCBAND
      00000097H   SFRSYM    DATA     BYTE      AUXR2
      000000EFH   SFRSYM    DATA     BYTE      AUXINTIF
      000000FDH   SFRSYM    DATA     BYTE      S4CON
      000000ACH   SFRSYM    DATA     BYTE      S3CON
      0000009AH   SFRSYM    DATA     BYTE      S2CON
L251 LINKER/LOCATER V4.66.93.0                                                        05/17/2024  20:59:59  PAGE 123


      000000B7H   SFRSYM    DATA     BYTE      IPH
      000000CDH   SFRSYM    DATA     BYTE      SPSTAT
      000000DDH   SFRSYM    DATA     BYTE      T4T3M
      000000C1H   SFRSYM    DATA     BYTE      WDT_CONTR
      000000DFH   SFRSYM    DATA     BYTE      IP3
      000000F4H   SFRSYM    DATA     BYTE      USBCON
      000000B5H   SFRSYM    DATA     BYTE      IP2
      000000FFH   SFRSYM    DATA     BYTE      RSTCFG
      000000C7H   SFRSYM    DATA     BYTE      IAP_CONTR
      000000F9H   SFRSYM    DATA     BYTE      LINICR
      0000008EH   SFRSYM    DATA     BYTE      AUXR
      000000AFH   SFRSYM    DATA     BYTE      IE2
      00000088H   SFRSYM    DATA     BYTE      TCON
      00000089H   SFRSYM    DATA     BYTE      TMOD
      000000C0H.1 SFRSYM    DATA     BIT       P41
      00000098H   SFRSYM    DATA     BYTE      SCON
      000000F1H   SFRSYM    DATA     BYTE      CANICR
      00000087H   SFRSYM    DATA     BYTE      PCON
      000000BCH   SFRSYM    DATA     BYTE      ADC_CONTR
      000000E7H   SFRSYM    DATA     BYTE      CMPCR2
      000000E6H   SFRSYM    DATA     BYTE      CMPCR1
      000000DEH   SFRSYM    DATA     BYTE      ADCCFG
      000000B8H   SFRSYM    DATA     BYTE      IP
      0000008FH   SFRSYM    DATA     BYTE      INTCLKO
      000000EEH   SFRSYM    DATA     BYTE      IP3H
      000000B6H   SFRSYM    DATA     BYTE      IP2H
      000000A8H   SFRSYM    DATA     BYTE      IE
      000000BBH   SFRSYM    DATA     BYTE      P_SW3
      000000BAH   SFRSYM    DATA     BYTE      P_SW2
      000000A2H   SFRSYM    DATA     BYTE      P_SW1
      000000CEH   SFRSYM    DATA     BYTE      SPCTL
      000000F8H   SFRSYM    DATA     BYTE      P7
      000000E8H   SFRSYM    DATA     BYTE      P6
      000000C8H   SFRSYM    DATA     BYTE      P5
      000000C0H   SFRSYM    DATA     BYTE      P4
      000000B0H   SFRSYM    DATA     BYTE      P3
      000000A0H   SFRSYM    DATA     BYTE      P2
      00000090H   SFRSYM    DATA     BYTE      P1
      00000080H   SFRSYM    DATA     BYTE      P0
      00000C77H   SYMBOL    EDATA    BYTE      R
      00000C78H   SYMBOL    EDATA    BYTE      G
      00000C79H   SYMBOL    EDATA    BYTE      B
      00000C7AH   SYMBOL    EDATA    BYTE      i
      00000C7BH   SYMBOL    EDATA    BYTE      j
      00000C7CH   SYMBOL    EDATA    ---       temp
      00000020H.0 SYMBOL    BIT      BIT       data_bit
      00000E5FH   SYMBOL    EDATA    BYTE      R
      00000E60H   SYMBOL    EDATA    BYTE      G
      00000E61H   SYMBOL    EDATA    BYTE      B
      00000E62H   SYMBOL    EDATA    BYTE      i
      00000E63H   SYMBOL    EDATA    BYTE      j
      00000E64H   SYMBOL    EDATA    BYTE      k

      ---         MODULE    ---      ---       SEEKFREE_CONFIG
      00FF00A6H   PUBLIC    CODE     ---       dl1b_default_configuration
      00FF012DH   PUBLIC    CODE     ---       imu660ra_config_file

      ---         MODULE    ---      ---       PRINTF
      000007C2H   PUBLIC    EDATA    ---       ?PRINTF?BYTE
      00FF3F1DH   PUBLIC    CODE     NEAR LAB  PRINTF

      ---         MODULE    ---      ---       ?C?PRNFMT
      00FF3F76H   PUBLIC    CODE     ---       ?C?PRNFMT

      ---         MODULE    ---      ---       ?C?FPCONVERT
L251 LINKER/LOCATER V4.66.93.0                                                        05/17/2024  20:59:59  PAGE 124


      00FF4393H   PUBLIC    CODE     ---       ?C?FPCONVERT
      00FF444BH   PUBLIC    CODE     ---       ?C?FPROUND

      ---         MODULE    ---      ---       ?C?FTNPWR
      00FF44BEH   PUBLIC    CODE     ---       ?C?FTNPWR

      ---         MODULE    ---      ---       ?C_START
      00FF0000H   PUBLIC    CODE     ---       ?C?STARTUP
      00FF0000H   PUBLIC    CODE     ---       ?C_STARTUP

      ---         MODULE    ---      ---       ?C?INITEDATA
      00FF882DH   PUBLIC    CODE     ---       ?C?INITEDATA

      ---         MODULE    ---      ---       ?C?SIDIV
      00FF44F5H   PUBLIC    CODE     ---       ?C?SIDIV

      ---         MODULE    ---      ---       ?C?LMUL
      00FF4527H   PUBLIC    CODE     ---       ?C?LMUL

      ---         MODULE    ---      ---       ?C?LIMUL
      00FF4538H   PUBLIC    CODE     ---       ?C?LIMUL

      ---         MODULE    ---      ---       ?C?ULDIV
      00FF4543H   PUBLIC    CODE     NEAR LAB  ?C?ULDIV
      00FF4541H   PUBLIC    CODE     NEAR LAB  ?C?ULIDIV

      ---         MODULE    ---      ---       ?C?SLDIV
      00FF4594H   PUBLIC    CODE     NEAR LAB  ?C?SLDIV

      ---         MODULE    ---      ---       ?C?BMOVENP
      00FF45CAH   PUBLIC    CODE     ---       ?C?BMOVENP
      00FF45C8H   PUBLIC    CODE     ---       ?C?BMOVENP8

      ---         MODULE    ---      ---       ABS
      00FF8C02H   PUBLIC    CODE     ---       abs?_

      ---         MODULE    ---      ---       memcpy
      00FF8AB1H   PUBLIC    CODE     ---       memcpy?_

      ---         MODULE    ---      ---       memset

      ---         MODULE    ---      ---       ?C?INITEDATA_END
      00FF906DH   PUBLIC    HCONST   WORD      ?C?INITEDATA_END

Program Size: data=8.1 edata+hdata=4055 xdata=0 const=1675 code=35875
L251 RUN COMPLETE.  0 WARNING(S),  0 ERROR(S)
