L251 LINKER/LOCATER V4.66.93.0                                                          04/15/2024  09:56:15  PAGE 1


L251 LINKER/LOCATER V4.66.93.0, INVOKED BY:
F:\KEIL_C251\C251\BIN\L251.EXE .\Out_File\board.obj, .\Out_File\common.obj, ..\..\Libraries\libraries\STC32_FPMU_LARGE_V
>> 1.0.LIB (STC32F_FPMU), .\Out_File\zf_adc.obj, .\Out_File\zf_delay.obj, .\Out_File\zf_eeprom.obj, .\Out_File\zf_exti.o
>> bj, .\Out_File\zf_gpio.obj, .\Out_File\zf_iic.obj, .\Out_File\zf_nvic.obj, .\Out_File\zf_pwm.obj, .\Out_File\zf_spi.o
>> bj, .\Out_File\zf_tim.obj, .\Out_File\zf_uart.obj, .\Out_File\zf_fifo.obj, .\Out_File\SEEKFREE_18TFT.obj, .\Out_File\
>> SEEKFREE_ABSOLUTE_ENCODER.obj, .\Out_File\SEEKFREE_BLUETOOTH_CH9141.obj, ..\..\Libraries\seekfree_peripheral\SEEKFREE
>> _CONFIG.LIB, .\Out_File\SEEKFREE_DL1A.obj, .\Out_File\SEEKFREE_FONT.obj, .\Out_File\SEEKFREE_ICM20602.obj, .\Out_File
>> \SEEKFREE_IMU660RA.obj, .\Out_File\SEEKFREE_IMU963RA.obj, .\Out_File\SEEKFREE_IPS114_SPI.obj, .\Out_File\SEEKFREE_MPU
>> 6050.obj, .\Out_File\SEEKFREE_OLED.obj, .\Out_File\SEEKFREE_PRINTF.obj, .\Out_File\SEEKFREE_TSL1401.obj, .\Out_File\S
>> EEKFREE_VIRSCO.obj, .\Out_File\SEEKFREE_WIRELESS.obj, .\Out_File\isr.obj, .\Out_File\main.obj, .\Out_File\Inductance.
>> obj, .\Out_File\Motor.obj, .\Out_File\encoder.obj, .\Out_File\direction.obj, .\Out_File\vofa.obj, .\Out_File\mpu6050.
>> obj, .\Out_File\TrackElement.obj, .\Out_File\menu.obj TO .\Out_File\SEEKFREE PRINT (.\Out_File\SEEKFREE.map) CASE DIS
>> ABLEWARNING (16, 57) REMOVEUNUSED CLASSES (EDATA (0X0-0X1FFF), HDATA (0X0-0X1FFF, 0XFE0000-0XFFFFFF))


CPU MODE:     251 SOURCE MODE
INTR FRAME:   4 BYTES SAVED ON INTERRUPT
MEMORY MODEL: XSMALL WITH FLOATING POINT ARITHMETIC


INPUT MODULES INCLUDED:
  .\Out_File\board.obj (board)
         COMMENT TYPE 0: C251 V5.60.0
  .\Out_File\common.obj (common)
         COMMENT TYPE 0: C251 V5.60.0
  ..\..\Libraries\libraries\STC32_FPMU_LARGE_V1.0.LIB (STC32F_FPMU)
         COMMENT TYPE 0: A251 V4.69.13.0
  .\Out_File\zf_adc.obj (zf_adc)
         COMMENT TYPE 0: C251 V5.60.0
  .\Out_File\zf_delay.obj (zf_delay)
         COMMENT TYPE 0: C251 V5.60.0
  .\Out_File\zf_eeprom.obj (zf_eeprom)
         COMMENT TYPE 0: C251 V5.60.0
  .\Out_File\zf_exti.obj (zf_exti)
         COMMENT TYPE 0: C251 V5.60.0
  .\Out_File\zf_gpio.obj (zf_gpio)
         COMMENT TYPE 0: C251 V5.60.0
  .\Out_File\zf_iic.obj (zf_iic)
         COMMENT TYPE 0: C251 V5.60.0
  .\Out_File\zf_nvic.obj (zf_nvic)
         COMMENT TYPE 0: C251 V5.60.0
  .\Out_File\zf_pwm.obj (zf_pwm)
         COMMENT TYPE 0: C251 V5.60.0
  .\Out_File\zf_spi.obj (zf_spi)
         COMMENT TYPE 0: C251 V5.60.0
  .\Out_File\zf_tim.obj (zf_tim)
         COMMENT TYPE 0: C251 V5.60.0
  .\Out_File\zf_uart.obj (zf_uart)
         COMMENT TYPE 0: C251 V5.60.0
  .\Out_File\zf_fifo.obj (zf_fifo)
         COMMENT TYPE 0: C251 V5.60.0
  .\Out_File\SEEKFREE_18TFT.obj (SEEKFREE_18TFT)
         COMMENT TYPE 0: C251 V5.60.0
  .\Out_File\SEEKFREE_ABSOLUTE_ENCODER.obj (SEEKFREE_ABSOLUTE_ENCODER)
         COMMENT TYPE 0: C251 V5.60.0
  .\Out_File\SEEKFREE_BLUETOOTH_CH9141.obj (SEEKFREE_BLUETOOTH_CH9141)
         COMMENT TYPE 0: C251 V5.60.0
  .\Out_File\SEEKFREE_DL1A.obj (SEEKFREE_DL1A)
         COMMENT TYPE 0: C251 V5.60.0
  .\Out_File\SEEKFREE_FONT.obj (SEEKFREE_FONT)
         COMMENT TYPE 0: C251 V5.60.0
  .\Out_File\SEEKFREE_ICM20602.obj (SEEKFREE_ICM20602)
         COMMENT TYPE 0: C251 V5.60.0
  .\Out_File\SEEKFREE_IMU660RA.obj (SEEKFREE_IMU660RA)
         COMMENT TYPE 0: C251 V5.60.0
  .\Out_File\SEEKFREE_IMU963RA.obj (SEEKFREE_IMU963RA)
L251 LINKER/LOCATER V4.66.93.0                                                        04/15/2024  09:56:15  PAGE 2


         COMMENT TYPE 0: C251 V5.60.0
  .\Out_File\SEEKFREE_IPS114_SPI.obj (SEEKFREE_IPS114_SPI)
         COMMENT TYPE 0: C251 V5.60.0
  .\Out_File\SEEKFREE_MPU6050.obj (SEEKFREE_MPU6050)
         COMMENT TYPE 0: C251 V5.60.0
  .\Out_File\SEEKFREE_OLED.obj (SEEKFREE_OLED)
         COMMENT TYPE 0: C251 V5.60.0
  .\Out_File\SEEKFREE_PRINTF.obj (SEEKFREE_PRINTF)
         COMMENT TYPE 0: C251 V5.60.0
  .\Out_File\SEEKFREE_TSL1401.obj (SEEKFREE_TSL1401)
         COMMENT TYPE 0: C251 V5.60.0
  .\Out_File\SEEKFREE_VIRSCO.obj (SEEKFREE_VIRSCO)
         COMMENT TYPE 0: C251 V5.60.0
  .\Out_File\SEEKFREE_WIRELESS.obj (SEEKFREE_WIRELESS)
         COMMENT TYPE 0: C251 V5.60.0
  .\Out_File\isr.obj (isr)
         COMMENT TYPE 0: C251 V5.60.0
  .\Out_File\main.obj (main)
         COMMENT TYPE 0: C251 V5.60.0
  .\Out_File\Inductance.obj (Inductance)
         COMMENT TYPE 0: C251 V5.60.0
  .\Out_File\Motor.obj (Motor)
         COMMENT TYPE 0: C251 V5.60.0
  .\Out_File\encoder.obj (encoder)
         COMMENT TYPE 0: C251 V5.60.0
  .\Out_File\direction.obj (direction)
         COMMENT TYPE 0: C251 V5.60.0
  .\Out_File\vofa.obj (vofa)
         COMMENT TYPE 0: C251 V5.60.0
  .\Out_File\mpu6050.obj (mpu6050)
         COMMENT TYPE 0: C251 V5.60.0
  .\Out_File\TrackElement.obj (TrackElement)
         COMMENT TYPE 0: C251 V5.60.0
  .\Out_File\menu.obj (menu)
         COMMENT TYPE 0: C251 V5.60.0
  ..\..\Libraries\seekfree_peripheral\SEEKFREE_CONFIG.LIB (SEEKFREE_CONFIG)
         COMMENT TYPE 0: C251 V5.60.0
  F:\KEIL_C251\C251\LIB\C2SFPXS.LIB (PRINTF)
         COMMENT TYPE 0: A251 V4.69.6.0
  F:\KEIL_C251\C251\LIB\C2SFPXS.LIB (?C?PRNFMT)
         COMMENT TYPE 0: A251 V4.69.6.0
  F:\KEIL_C251\C251\LIB\C2SFPXS.LIB (?C?FPCONVERT)
         COMMENT TYPE 0: A251 V4.69.6.0
  F:\KEIL_C251\C251\LIB\C2SFPXS.LIB (?C?FTNPWR)
         COMMENT TYPE 0: A251 V4.69.6.0
  F:\KEIL_C251\C251\LIB\C2SXS.LIB (?C_START)
         COMMENT TYPE 0: A251 V4.69.6.0
  F:\KEIL_C251\C251\LIB\C2SXS.LIB (?C?INITEDATA)
         COMMENT TYPE 0: A251 V4.69.6.0
  F:\KEIL_C251\C251\LIB\C2SXS.LIB (?C?SIDIV)
         COMMENT TYPE 0: A251 V4.69.6.0
  F:\KEIL_C251\C251\LIB\C2SXS.LIB (?C?LMUL)
         COMMENT TYPE 0: A251 V4.69.6.0
  F:\KEIL_C251\C251\LIB\C2SXS.LIB (?C?LIMUL)
         COMMENT TYPE 0: A251 V4.69.6.0
  F:\KEIL_C251\C251\LIB\C2SXS.LIB (?C?ULDIV)
         COMMENT TYPE 0: A251 V4.69.6.0
  F:\KEIL_C251\C251\LIB\C2SXS.LIB (?C?SLDIV)
         COMMENT TYPE 0: A251 V4.69.6.0
  F:\KEIL_C251\C251\LIB\C2SXS.LIB (?C?BMOVENP)
         COMMENT TYPE 0: A251 V4.69.6.0
  F:\KEIL_C251\C251\LIB\C2SXS.LIB (ABS)
         COMMENT TYPE 0: C251 V5.58.7
  F:\KEIL_C251\C251\LIB\C2SXS.LIB (memcpy)
         COMMENT TYPE 0: C251 V5.58.7
L251 LINKER/LOCATER V4.66.93.0                                                        04/15/2024  09:56:15  PAGE 3


  F:\KEIL_C251\C251\LIB\C2SXS.LIB (memset)
         COMMENT TYPE 0: C251 V5.58.7
  F:\KEIL_C251\C251\LIB\C2SXS.LIB (?C?INITEDATA_END)
         COMMENT TYPE 0: A251 V4.69.6.0


ACTIVE MEMORY CLASSES OF MODULE:  .\Out_File\SEEKFREE (board)

BASE        START       END         USED      MEMORY CLASS
==========================================================
000000H     000000H     001FFFH     000FA8H   EDATA
000000H     000000H     001FFFH               HDATA
            FE0000H     FFFFFFH                 
FF0000H     FF0000H     FFFFFFH     008E8AH   CODE
000000H     FF0000H     FFFFFFH     0005FBH   HCONST
FF0000H     FF0000H     FFFFFFH     000004H   CONST
000000H     000000H     00007FH     000008H   DATA


MEMORY MAP OF MODULE:  .\Out_File\SEEKFREE (board)


START     STOP      LENGTH    ALIGN  RELOC    MEMORY CLASS   SEGMENT NAME
=========================================================================
000000H   000007H   000008H   ---    AT..     DATA           "REG BANK 0"
000008H   00010FH   000108H   BYTE   UNIT     EDATA          ?ED?INDUCTANCE
000110H   000210H   000101H   BYTE   UNIT     EDATA          ?ED?SEEKFREE_TSL1401
000211H   000290H   000080H   BYTE   UNIT     EDATA          ?ED?VOFA
000291H   0002F0H   000060H   BYTE   UNIT     EDATA          ?ED?TRACKELEMENT
0002F1H   00034FH   00005FH   BYTE   UNIT     EDATA          ?ED?ZF_SPRINTF?SEEKFREE_PRINTF
000350H   0003A4H   000055H   BYTE   UNIT     EDATA          ?ED?SEEKFREE_BLUETOOTH_CH9141
0003A5H   0003F9H   000055H   BYTE   UNIT     EDATA          ?ED?SEEKFREE_WIRELESS
0003FAH   000431H   000038H   BYTE   UNIT     EDATA          ?ED?MOTOR
000432H   000461H   000030H   BYTE   UNIT     EDATA          ?ED?LCD_SHOWFLOAT_SIMSPI?SEEKFREE_18TFT
000462H   000491H   000030H   BYTE   UNIT     EDATA          ?ED?LCD_SHOWFLOAT?SEEKFREE_18TFT
000492H   0004C1H   000030H   BYTE   UNIT     EDATA          ?ED?IPS114_SHOWFLOAT_SIMSPI?SEEKFREE_IPS114_SPI
0004C2H   0004F1H   000030H   BYTE   UNIT     EDATA          ?ED?IPS114_SHOWFLOAT?SEEKFREE_IPS114_SPI
0004F2H   000521H   000030H   BYTE   UNIT     EDATA          ?ED?OLED_PRINTF_FLOAT_PX8?SEEKFREE_OLED
000522H   000551H   000030H   BYTE   UNIT     EDATA          ?ED?OLED_PRINTF_FLOAT?SEEKFREE_OLED
000552H   000581H   000030H   BYTE   UNIT     EDATA          ?ED?OLED_PRINTF_FLOAT_SPI?SEEKFREE_OLED
000582H   0005B1H   000030H   BYTE   UNIT     EDATA          ?ED?MPU6050
0005B2H   0005E0H   00002FH   BYTE   UNIT     EDATA          ?ED?DL1A_SET_MEASUREMENT_TIMING_BUDGET?SEEKFREE_DL1A
0005E1H   00060CH   00002CH   BYTE   UNIT     EDATA          ?ED?LCD_SHOWINT32_SIMSPI?SEEKFREE_18TFT
00060DH   000638H   00002CH   BYTE   UNIT     EDATA          ?ED?LCD_SHOWINT32?SEEKFREE_18TFT
000639H   000664H   00002CH   BYTE   UNIT     EDATA          ?ED?IPS114_SHOWINT32_SIMSPI?SEEKFREE_IPS114_SPI
000665H   000690H   00002CH   BYTE   UNIT     EDATA          ?ED?IPS114_SHOWINT32?SEEKFREE_IPS114_SPI
000691H   0006BCH   00002CH   BYTE   UNIT     EDATA          ?ED?OLED_PRINTF_INT32?SEEKFREE_OLED
0006BDH   0006E8H   00002CH   BYTE   UNIT     EDATA          ?ED?OLED_PRINTF_INT32_SPI?SEEKFREE_OLED
0006E9H   000710H   000028H   BYTE   UNIT     EDATA          ?ED?NORMALIZATION_TRACKING_ADC?INDUCTANCE
000711H   000738H   000028H   BYTE   UNIT     EDATA          ?ED?DIRECTION
000739H   000760H   000028H   BYTE   UNIT     EDATA          _EDATA_GROUP_
000761H   00077FH   00001FH   BYTE   UNIT     EDATA          ?ED?DL1A_GET_MEASUREMENT_TIMING_BUDGET?SEEKFREE_DL1A
000780H   00079DH   00001EH   BYTE   UNIT     EDATA          ?ED?ANGLE_RING?DIRECTION
00079EH   0007BBH   00001EH   BYTE   UNIT     EDATA          ?ED?GET_ANGLE?MPU6050
0007BCH   0007D5H   00001AH   BYTE   UNIT     EDATA          ?ED?ENCODER
0007D6H   0007EFH   00001AH   BYTE   UNIT     EDATA          ?ED?DIRCONTROL_2?DIRECTION
0007F0H   000809H   00001AH   BYTE   UNIT     EDATA          ?ED?SECOND__NWHUAN_MENU?MENU
00080AH   00081FH   000016H   BYTE   UNIT     EDATA          ?ED?WH_TURN_OUT?DIRECTION
000820H   000835H   000016H   BYTE   UNIT     EDATA          ?ED?NH_TURN_OUT?DIRECTION
000836H   00084BH   000016H   BYTE   UNIT     EDATA          ?ED?SEND4DATATOVOFA?VOFA
00084CH   000860H   000015H   BYTE   UNIT     EDATA          ?ED?DL1A_INIT?SEEKFREE_DL1A
000861H   000874H   000014H   BYTE   UNIT     EDATA          ?ED?PWM_INIT?ZF_PWM
000875H   000888H   000014H   BYTE   UNIT     EDATA          ?ED?PWM_FREQ?ZF_PWM
000889H   00089CH   000014H   BYTE   UNIT     EDATA          ?ED?NUMBER_CONVERSION_ASCII?SEEKFREE_PRINTF
00089DH   0008B0H   000014H   BYTE   UNIT     EDATA          ?ED?SQ?INDUCTANCE
L251 LINKER/LOCATER V4.66.93.0                                                        04/15/2024  09:56:15  PAGE 4


0008B1H   0008C3H   000013H   BYTE   UNIT     EDATA          ?ED?FIFO_READ_BUFFER?ZF_FIFO
0008C4H   0008D5H   000012H   BYTE   UNIT     EDATA          ?ED?SEEKFREE_IMU963RA
0008D6H   0008E7H   000012H   BYTE   UNIT     EDATA          ?ED?OLED_DIS_BMP?SEEKFREE_OLED
0008E8H   0008F9H   000012H   BYTE   UNIT     EDATA          ?ED?OLED_DIS_BMP_SPI?SEEKFREE_OLED
0008FAH   000909H   000010H   BYTE   UNIT     EDATA          ?ED?FIFO_WRITE_BUFFER?ZF_FIFO
00090AH   000919H   000010H   BYTE   UNIT     EDATA          ?ED?SECOND_ELEMENT_MENU?MENU
00091AH   000929H   000010H   BYTE   UNIT     EDATA          ?ED?SECOND_MOTOR_MENU?MENU
00092AH   000937H   00000EH   BYTE   UNIT     EDATA          ?ED?PWM_DUTY?ZF_PWM
000938H   000945H   00000EH   BYTE   UNIT     EDATA          ?ED?UART_INIT?ZF_UART
000946H   000953H   00000EH   BYTE   UNIT     EDATA          ?ED?OLED_PRINT_CHINESE?SEEKFREE_OLED
000954H   000961H   00000EH   BYTE   UNIT     EDATA          ?ED?OLED_PRINT_CHINESE_SPI?SEEKFREE_OLED
000962H   00096FH   00000EH   BYTE   UNIT     EDATA          ?ED?DATA_CONVERSION?SEEKFREE_VIRSCO
000970H   00097DH   00000EH   BYTE   UNIT     EDATA          ?ED?SPEED_PID_OUT?MOTOR
00097EH   00098AH   00000DH   BYTE   UNIT     EDATA          ?ED?ICM20602_SIMSPI_R_REG_BYTES?SEEKFREE_ICM20602
00098BH   000997H   00000DH   BYTE   UNIT     EDATA          ?ED?PRINTF_REVERSE_ORDER?SEEKFREE_PRINTF
000998H   0009A3H   00000CH   BYTE   UNIT     EDATA          ?ED?FIFO_INIT?ZF_FIFO
0009A4H   0009AFH   00000CH   BYTE   UNIT     EDATA          ?ED?LCD_SHOWINT16_SIMSPI?SEEKFREE_18TFT
0009B0H   0009BBH   00000CH   BYTE   UNIT     EDATA          ?ED?LCD_SHOWUINT16_SIMSPI?SEEKFREE_18TFT
0009BCH   0009C7H   00000CH   BYTE   UNIT     EDATA          ?ED?LCD_SHOWINT16?SEEKFREE_18TFT
0009C8H   0009D3H   00000CH   BYTE   UNIT     EDATA          ?ED?LCD_SHOWUINT16?SEEKFREE_18TFT
0009D4H   0009DFH   00000CH   BYTE   UNIT     EDATA          ?ED?SHOWIMAGE?SEEKFREE_18TFT
0009E0H   0009EBH   00000CH   BYTE   UNIT     EDATA          ?ED?BLUETOOTH_CH9141_READ_BUFF?SEEKFREE_BLUETOOTH_CH9141
0009ECH   0009F7H   00000CH   BYTE   UNIT     EDATA          ?ED?DL1A_GET_SPAD_INFO?SEEKFREE_DL1A
0009F8H   000A03H   00000CH   BYTE   UNIT     EDATA          ?ED?DL1A_GET_SEQUENCE_STEP_TIMEOUTS?SEEKFREE_DL1A
000A04H   000A0FH   00000CH   BYTE   UNIT     EDATA          ?ED?SEEKFREE_ICM20602
000A10H   000A1BH   00000CH   BYTE   UNIT     EDATA          ?ED?SEEKFREE_IMU660RA
000A1CH   000A27H   00000CH   BYTE   UNIT     EDATA          ?ED?IPS114_SHOWINT16_SIMSPI?SEEKFREE_IPS114_SPI
000A28H   000A33H   00000CH   BYTE   UNIT     EDATA          ?ED?IPS114_SHOWUINT16_SIMSPI?SEEKFREE_IPS114_SPI
000A34H   000A3FH   00000CH   BYTE   UNIT     EDATA          ?ED?IPS114_SHOWINT16?SEEKFREE_IPS114_SPI
000A40H   000A4BH   00000CH   BYTE   UNIT     EDATA          ?ED?IPS114_SHOWUINT16?SEEKFREE_IPS114_SPI
000A4CH   000A57H   00000CH   BYTE   UNIT     EDATA          ?ED?SEEKFREE_MPU6050
000A58H   000A63H   00000CH   BYTE   UNIT     EDATA          ?ED?WIRELESS_UART_READ_BUFF?SEEKFREE_WIRELESS
000A64H   000A6FH   00000CH   BYTE   UNIT     EDATA          ?ED?MOTOR_SET_PID?MOTOR
000A70H   000A7BH   00000CH   BYTE   UNIT     EDATA          ?ED?LOWPASSFILTER?MPU6050
000A7CH   000A86H   00000BH   BYTE   UNIT     EDATA          ?ED?OLED_UINT16_PX8?SEEKFREE_OLED
000A87H   000A91H   00000BH   BYTE   UNIT     EDATA          ?ED?OLED_UINT16?SEEKFREE_OLED
000A92H   000A9CH   00000BH   BYTE   UNIT     EDATA          ?ED?OLED_INT16?SEEKFREE_OLED
000A9DH   000AA7H   00000BH   BYTE   UNIT     EDATA          ?ED?OLED_UINT16_SPI?SEEKFREE_OLED
000AA8H   000AB2H   00000BH   BYTE   UNIT     EDATA          ?ED?OLED_INT16_SPI?SEEKFREE_OLED
000AB3H   000ABCH   00000AH   BYTE   UNIT     EDATA          ?ED?IAP_READ_BYTES?ZF_EEPROM
000ABDH   000AC6H   00000AH   BYTE   UNIT     EDATA          ?ED?IAP_WRITE_BYTES?ZF_EEPROM
000AC7H   000AD0H   00000AH   BYTE   UNIT     EDATA          ?ED?LCD_SHOWSTR_SIMSPI?SEEKFREE_18TFT
000AD1H   000ADAH   00000AH   BYTE   UNIT     EDATA          ?ED?LCD_SHOWSTR?SEEKFREE_18TFT
000ADBH   000AE4H   00000AH   BYTE   UNIT     EDATA          ?ED?BLUETOOTH_CH9141_SEND_BUFF?SEEKFREE_BLUETOOTH_CH9141
000AE5H   000AEEH   00000AH   BYTE   UNIT     EDATA          ?ED?DL1A_SIMIIC_READ_REGS?SEEKFREE_DL1A
000AEFH   000AF8H   00000AH   BYTE   UNIT     EDATA          ?ED?DL1A_SIMIIC_READ_REGS_1?SEEKFREE_DL1A
000AF9H   000B02H   00000AH   BYTE   UNIT     EDATA          ?ED?DL1A_ENCODE_TIMEOUT?SEEKFREE_DL1A
000B03H   000B0CH   00000AH   BYTE   UNIT     EDATA          ?ED?IPS114_SHOWSTR_SIMSPI?SEEKFREE_IPS114_SPI
000B0DH   000B16H   00000AH   BYTE   UNIT     EDATA          ?ED?IPS114_SHOWSTR?SEEKFREE_IPS114_SPI
000B17H   000B20H   00000AH   BYTE   UNIT     EDATA          ?ED?SEEKFREE_VIRSCO
000B21H   000B2AH   00000AH   BYTE   UNIT     EDATA          ?ED?MEDIANFILTER1?MPU6050
000B2BH   000B33H   000009H   BYTE   UNIT     EDATA          ?ED?LCD_SHOWINT8_SIMSPI?SEEKFREE_18TFT
000B34H   000B3CH   000009H   BYTE   UNIT     EDATA          ?ED?LCD_SHOWUINT8_SIMSPI?SEEKFREE_18TFT
000B3DH   000B45H   000009H   BYTE   UNIT     EDATA          ?ED?LCD_SHOWINT8?SEEKFREE_18TFT
000B46H   000B4EH   000009H   BYTE   UNIT     EDATA          ?ED?LCD_SHOWUINT8?SEEKFREE_18TFT
000B4FH   000B57H   000009H   BYTE   UNIT     EDATA          ?ED?DL1A_SIMIIC_WRITE_DATS?SEEKFREE_DL1A
000B58H   000B60H   000009H   BYTE   UNIT     EDATA          ?ED?DL1A_TIMEOUT_MICROSECONDS_TO_MCLKS?SEEKFREE_DL1A
000B61H   000B69H   000009H   BYTE   UNIT     EDATA          ?ED?DL1A_SET_SIGNAL_RATE_LIMIT?SEEKFREE_DL1A
000B6AH   000B72H   000009H   BYTE   UNIT     EDATA          ?ED?ICM20602_READ_REGISTERS?SEEKFREE_ICM20602
000B73H   000B7BH   000009H   BYTE   UNIT     EDATA          ?ED?IMU660RA_SIMSPI_W_REG_BYTES?SEEKFREE_IMU660RA
000B7CH   000B84H   000009H   BYTE   UNIT     EDATA          ?ED?IMU660RA_SIMSPI_R_REG_BYTES?SEEKFREE_IMU660RA
000B85H   000B8DH   000009H   BYTE   UNIT     EDATA          ?ED?IMU660RA_WRITE_REGISTERS?SEEKFREE_IMU660RA
000B8EH   000B96H   000009H   BYTE   UNIT     EDATA          ?ED?IMU660RA_READ_REGISTERS?SEEKFREE_IMU660RA
000B97H   000B9FH   000009H   BYTE   UNIT     EDATA          ?ED?IMU963RA_SIMSPI_R_REG_BYTES?SEEKFREE_IMU963RA
000BA0H   000BA8H   000009H   BYTE   UNIT     EDATA          ?ED?IMU963RA_READ_ACC_GYRO_REGISTERS?SEEKFREE_IMU963RA
L251 LINKER/LOCATER V4.66.93.0                                                        04/15/2024  09:56:15  PAGE 5


000BA9H   000BB1H   000009H   BYTE   UNIT     EDATA          ?ED?IPS114_SHOWINT8_SIMSPI?SEEKFREE_IPS114_SPI
000BB2H   000BBAH   000009H   BYTE   UNIT     EDATA          ?ED?IPS114_SHOWUINT8_SIMSPI?SEEKFREE_IPS114_SPI
000BBBH   000BC3H   000009H   BYTE   UNIT     EDATA          ?ED?IPS114_SHOWINT8?SEEKFREE_IPS114_SPI
000BC4H   000BCCH   000009H   BYTE   UNIT     EDATA          ?ED?IPS114_SHOWUINT8?SEEKFREE_IPS114_SPI
000BCDH   000BD5H   000009H   BYTE   UNIT     EDATA          ?ED?OLED_P6X8STR?SEEKFREE_OLED
000BD6H   000BDEH   000009H   BYTE   UNIT     EDATA          ?ED?OLED_P8X16STR?SEEKFREE_OLED
000BDFH   000BE7H   000009H   BYTE   UNIT     EDATA          ?ED?OLED_P6X8STR_SPI?SEEKFREE_OLED
000BE8H   000BF0H   000009H   BYTE   UNIT     EDATA          ?ED?OLED_P8X16STR_SPI?SEEKFREE_OLED
000BF1H   000BF9H   000009H   BYTE   UNIT     EDATA          ?ED?CRC_CHECK?SEEKFREE_VIRSCO
000BFAH   000C01H   000008H   BYTE   UNIT     EDATA          ?ED?SET_CLK?BOARD
000C02H   000C09H   000008H   BYTE   UNIT     EDATA          ?ED?UART_PUTBUFF?ZF_UART
000C0AH   000C11H   000008H   BYTE   UNIT     EDATA          ?ED?FIFO_HEAD_OFFSET?ZF_FIFO
000C12H   000C19H   000008H   BYTE   UNIT     EDATA          ?ED?FIFO_END_OFFSET?ZF_FIFO
000C1AH   000C21H   000008H   BYTE   UNIT     EDATA          ?ED?LCD_SET_REGION_SIMSPI?SEEKFREE_18TFT
000C22H   000C29H   000008H   BYTE   UNIT     EDATA          ?ED?LCD_SHOWCHAR_SIMSPI?SEEKFREE_18TFT
000C2AH   000C31H   000008H   BYTE   UNIT     EDATA          ?ED?LCD_SET_REGION?SEEKFREE_18TFT
000C32H   000C39H   000008H   BYTE   UNIT     EDATA          ?ED?LCD_SHOWCHAR?SEEKFREE_18TFT
000C3AH   000C41H   000008H   BYTE   UNIT     EDATA          ?ED?IPS114_SET_REGION_SIMSPI?SEEKFREE_IPS114_SPI
000C42H   000C49H   000008H   BYTE   UNIT     EDATA          ?ED?IPS114_SHOWCHAR_SIMSPI?SEEKFREE_IPS114_SPI
000C4AH   000C51H   000008H   BYTE   UNIT     EDATA          ?ED?IPS114_SET_REGION?SEEKFREE_IPS114_SPI
000C52H   000C59H   000008H   BYTE   UNIT     EDATA          ?ED?IPS114_SHOWCHAR?SEEKFREE_IPS114_SPI
000C5AH   000C61H   000008H   BYTE   UNIT     EDATA          ?ED?OLED_HEXASCII?SEEKFREE_OLED
000C62H   000C69H   000008H   BYTE   UNIT     EDATA          ?ED?OLED_HEXASCII_SPI?SEEKFREE_OLED
000C6AH   000C71H   000008H   BYTE   UNIT     EDATA          ?ED?SUB_PID?TRACKELEMENT
000C72H   000C78H   000007H   BYTE   UNIT     EDATA          ?ED?IIC_READ_REG_BYTES?ZF_IIC
000C79H   000C7FH   000007H   BYTE   UNIT     EDATA          ?ED?SPI_INIT?ZF_SPI
000C80H   000C86H   000007H   BYTE   UNIT     EDATA          ?ED?DL1A_TIMEOUT_MCLKS_TO_MICROSECONDS?SEEKFREE_DL1A
000C87H   000C8DH   000007H   BYTE   UNIT     EDATA          ?ED?IMU660RA_GET_ACC?SEEKFREE_IMU660RA
000C8EH   000C94H   000007H   BYTE   UNIT     EDATA          ?ED?IMU660RA_GET_GYRO?SEEKFREE_IMU660RA
000C95H   000C9BH   000007H   BYTE   UNIT     EDATA          ?ED?IMU963RA_GET_MAG?SEEKFREE_IMU963RA
000C9CH   000CA2H   000007H   BYTE   UNIT     EDATA          ?ED?MPU6050_SIMIIC_READ_REGS?SEEKFREE_MPU6050
000CA3H   000CA9H   000007H   BYTE   UNIT     EDATA          ?ED?CCD_SEND_DATA?SEEKFREE_TSL1401
000CAAH   000CAFH   000006H   BYTE   UNIT     EDATA          ?ED?ADC_ONCE?ZF_ADC
000CB0H   000CB5H   000006H   BYTE   UNIT     EDATA          ?ED?DELAY_US?ZF_DELAY
000CB6H   000CBBH   000006H   BYTE   UNIT     EDATA          ?ED?IIC_INIT?ZF_IIC
000CBCH   000CC1H   000006H   BYTE   UNIT     EDATA          ?ED?IIC_READ_REG?ZF_IIC
000CC2H   000CC7H   000006H   BYTE   UNIT     EDATA          ?ED?PIT_TIMER_MS?ZF_TIM
000CC8H   000CCDH   000006H   BYTE   UNIT     EDATA          ?ED?UART_PUTSTR?ZF_UART
000CCEH   000CD3H   000006H   BYTE   UNIT     EDATA          ?ED?LCD_DRAWPOINT_SIMSPI?SEEKFREE_18TFT
000CD4H   000CD9H   000006H   BYTE   UNIT     EDATA          ?ED?LCD_DRAWPOINT?SEEKFREE_18TFT
000CDAH   000CDFH   000006H   BYTE   UNIT     EDATA          ?ED?ICM20602_GET_ACC?SEEKFREE_ICM20602
000CE0H   000CE5H   000006H   BYTE   UNIT     EDATA          ?ED?ICM20602_GET_GYRO?SEEKFREE_ICM20602
000CE6H   000CEBH   000006H   BYTE   UNIT     EDATA          ?ED?ICM20602_ACC_TRANSITION?SEEKFREE_ICM20602
000CECH   000CF1H   000006H   BYTE   UNIT     EDATA          ?ED?ICM20602_GYRO_TRANSITION?SEEKFREE_ICM20602
000CF2H   000CF7H   000006H   BYTE   UNIT     EDATA          ?ED?IMU660RA_ACC_TRANSITION?SEEKFREE_IMU660RA
000CF8H   000CFDH   000006H   BYTE   UNIT     EDATA          ?ED?IMU660RA_GYRO_TRANSITION?SEEKFREE_IMU660RA
000CFEH   000D03H   000006H   BYTE   UNIT     EDATA          ?ED?IMU963RA_WRITE_MAG_REGISTER?SEEKFREE_IMU963RA
000D04H   000D09H   000006H   BYTE   UNIT     EDATA          ?ED?IMU963RA_GET_ACC?SEEKFREE_IMU963RA
000D0AH   000D0FH   000006H   BYTE   UNIT     EDATA          ?ED?IMU963RA_GET_GYRO?SEEKFREE_IMU963RA
000D10H   000D15H   000006H   BYTE   UNIT     EDATA          ?ED?IMU963RA_ACC_TRANSITION?SEEKFREE_IMU963RA
000D16H   000D1BH   000006H   BYTE   UNIT     EDATA          ?ED?IMU963RA_GYRO_TRANSITION?SEEKFREE_IMU963RA
000D1CH   000D21H   000006H   BYTE   UNIT     EDATA          ?ED?IMU963RA_MAG_TRANSITION?SEEKFREE_IMU963RA
000D22H   000D27H   000006H   BYTE   UNIT     EDATA          ?ED?IPS114_CLEAR_SIMSPI?SEEKFREE_IPS114_SPI
000D28H   000D2DH   000006H   BYTE   UNIT     EDATA          ?ED?IPS114_DRAWPOINT_SIMSPI?SEEKFREE_IPS114_SPI
000D2EH   000D33H   000006H   BYTE   UNIT     EDATA          ?ED?IPS114_CLEAR?SEEKFREE_IPS114_SPI
000D34H   000D39H   000006H   BYTE   UNIT     EDATA          ?ED?IPS114_DRAWPOINT?SEEKFREE_IPS114_SPI
000D3AH   000D3FH   000006H   BYTE   UNIT     EDATA          ?ED?MPU6050_GET_ACCDATA?SEEKFREE_MPU6050
000D40H   000D45H   000006H   BYTE   UNIT     EDATA          ?ED?MPU6050_GET_GYRO?SEEKFREE_MPU6050
000D46H   000D4BH   000006H   BYTE   UNIT     EDATA          ?ED?WIRELESS_UART_SEND_BUFF?SEEKFREE_WIRELESS
000D4CH   000D50H   000005H   BYTE   UNIT     EDATA          ?ED?ZF_UART
000D51H   000D55H   000005H   BYTE   UNIT     EDATA          ?ED?SIMSPI_R_REG_BYTE?SEEKFREE_ABSOLUTE_ENCODER
000D56H   000D5AH   000005H   BYTE   UNIT     EDATA          ?ED?ENCODER_SIMSPI_R_REG_BYTE?SEEKFREE_ABSOLUTE_ENCODER
000D5BH   000D5FH   000005H   BYTE   UNIT     EDATA          ?ED?SPI_R_REG_BYTE?SEEKFREE_ABSOLUTE_ENCODER
000D60H   000D64H   000005H   BYTE   UNIT     EDATA          ?ED?ENCODER_SPI_R_REG_BYTE?SEEKFREE_ABSOLUTE_ENCODER
000D65H   000D69H   000005H   BYTE   UNIT     EDATA          ?ED?DL1A_GET_SEQUENCE_STEP_ENABLES?SEEKFREE_DL1A
L251 LINKER/LOCATER V4.66.93.0                                                        04/15/2024  09:56:15  PAGE 6


000D6AH   000D6EH   000005H   BYTE   UNIT     EDATA          ?ED?DL1A_PERFORM_SINGLE_REF_CALIBRATION?SEEKFREE_DL1A
000D6FH   000D73H   000005H   BYTE   UNIT     EDATA          ?ED?ICM20602_SIMSPI_R_REG_BYTE?SEEKFREE_ICM20602
000D74H   000D78H   000005H   BYTE   UNIT     EDATA          ?ED?IMU963RA_SIMSPI_R_REG_BYTE?SEEKFREE_IMU963RA
000D79H   000D7DH   000005H   BYTE   UNIT     EDATA          ?ED?ISR
000D7EH   000D82H   000005H   BYTE   UNIT     EDATA          ?ED?FILTER_1?MOTOR
000D83H   000D86H   000004H   BYTE   UNIT     EDATA          ?ED?BOARD
000D87H   000D8AH   000004H   BYTE   UNIT     EDATA          ?ED?CLOCK_INIT?BOARD
000D8BH   000D8EH   000004H   BYTE   UNIT     EDATA          ?ED?ADC_INIT?ZF_ADC
000D8FH   000D92H   000004H   BYTE   UNIT     EDATA          ?ED?ZF_DELAY
000D93H   000D96H   000004H   BYTE   UNIT     EDATA          ?ED?DELAY_MS?ZF_DELAY
000D97H   000D9AH   000004H   BYTE   UNIT     EDATA          ?ED?IAP_ERASE_PAGE?ZF_EEPROM
000D9BH   000D9EH   000004H   BYTE   UNIT     EDATA          ?ED?EXIT_INIT?ZF_EXTI
000D9FH   000DA2H   000004H   BYTE   UNIT     EDATA          ?ED?GPIO_PULL_SET?ZF_GPIO
000DA3H   000DA6H   000004H   BYTE   UNIT     EDATA          ?ED?GPIO_MODE?ZF_GPIO
000DA7H   000DAAH   000004H   BYTE   UNIT     EDATA          ?ED?CTIMER_COUNT_READ?ZF_TIM
000DABH   000DAEH   000004H   BYTE   UNIT     EDATA          ?ED?FIFO_CLEAR?ZF_FIFO
000DAFH   000DB2H   000004H   BYTE   UNIT     EDATA          ?ED?FIFO_USED?ZF_FIFO
000DB3H   000DB6H   000004H   BYTE   UNIT     EDATA          ?ED?LCD_CLEAR_SIMSPI?SEEKFREE_18TFT
000DB7H   000DBAH   000004H   BYTE   UNIT     EDATA          ?ED?LCD_WRITEDATA_16BIT?SEEKFREE_18TFT
000DBBH   000DBEH   000004H   BYTE   UNIT     EDATA          ?ED?LCD_CLEAR?SEEKFREE_18TFT
000DBFH   000DC2H   000004H   BYTE   UNIT     EDATA          ?ED?ICM20602_SELF_CHECK?SEEKFREE_ICM20602
000DC3H   000DC6H   000004H   BYTE   UNIT     EDATA          ?ED?ICM20602_INIT?SEEKFREE_ICM20602
000DC7H   000DCAH   000004H   BYTE   UNIT     EDATA          ?ED?IMU660RA_SELF_CHECK?SEEKFREE_IMU660RA
000DCBH   000DCEH   000004H   BYTE   UNIT     EDATA          ?ED?IMU963RA_READ_MAG_REGISTER?SEEKFREE_IMU963RA
000DCFH   000DD2H   000004H   BYTE   UNIT     EDATA          ?ED?IMU963RA_ACC_GYRO_SELF_CHECK?SEEKFREE_IMU963RA
000DD3H   000DD6H   000004H   BYTE   UNIT     EDATA          ?ED?IMU963RA_MAG_SELF_CHECK?SEEKFREE_IMU963RA
000DD7H   000DDAH   000004H   BYTE   UNIT     EDATA          ?ED?IPS114_WRITEDATA_16BIT?SEEKFREE_IPS114_SPI
000DDBH   000DDEH   000004H   BYTE   UNIT     EDATA          ?ED?MAIN
000DDFH   000DE2H   000004H   BYTE   UNIT     EDATA          ?ED?LIMIT?MOTOR
000DE3H   000DE6H   000004H   BYTE   UNIT     EDATA          ?ED?MOTOR_PWM?MOTOR
000DE7H   000DEAH   000004H   BYTE   UNIT     EDATA          ?ED?SHOW_ALLVAL?MENU
000DEBH   000DEEH   000004H   BYTE   UNIT     EDATA          ?ED?FIRST_MENU?MENU
000DEFH   000DF1H   000003H   BYTE   UNIT     EDATA          ?ED?IIC_DELAY_US?ZF_IIC
000DF2H   000DF4H   000003H   BYTE   UNIT     EDATA          ?ED?WAIT?ZF_IIC
000DF5H   000DF7H   000003H   BYTE   UNIT     EDATA          ?ED?IIC_WRITE_REG?ZF_IIC
000DF8H   000DFAH   000003H   BYTE   UNIT     EDATA          ?ED?NVIC_SETPRIORITY?ZF_NVIC
000DFBH   000DFDH   000003H   BYTE   UNIT     EDATA          ?ED?UART_PUTCHAR?ZF_UART
000DFEH   000E00H   000003H   BYTE   UNIT     EDATA          ?ED?LCD_WRITEDATA_16BIT_SIMSPI?SEEKFREE_18TFT
000E01H   000E03H   000003H   BYTE   UNIT     EDATA          ?ED?ENCODER_SIMSPI_W_REG_BYTE?SEEKFREE_ABSOLUTE_ENCODER
000E04H   000E06H   000003H   BYTE   UNIT     EDATA          ?ED?ENCODER_SPI_W_REG_BYTE?SEEKFREE_ABSOLUTE_ENCODER
000E07H   000E09H   000003H   BYTE   UNIT     EDATA          ?ED?SEEKFREE_DL1A
000E0AH   000E0CH   000003H   BYTE   UNIT     EDATA          ?ED?DL1A_READ_CH?SEEKFREE_DL1A
000E0DH   000E0FH   000003H   BYTE   UNIT     EDATA          ?ED?DL1A_SIMIIC_WRITE_REG?SEEKFREE_DL1A
000E10H   000E12H   000003H   BYTE   UNIT     EDATA          ?ED?DL1A_SIMIIC_READ_REG?SEEKFREE_DL1A
000E13H   000E15H   000003H   BYTE   UNIT     EDATA          ?ED?DL1A_GET_VCSEL_PULSE_PERIOD?SEEKFREE_DL1A
000E16H   000E18H   000003H   BYTE   UNIT     EDATA          ?ED?DL1A_GET_DISTANCE?SEEKFREE_DL1A
000E19H   000E1BH   000003H   BYTE   UNIT     EDATA          ?ED?IMU660RA_READ_REGISTER?SEEKFREE_IMU660RA
000E1CH   000E1EH   000003H   BYTE   UNIT     EDATA          ?ED?IPS114_WRITEDATAI_16BIT_SIMSPI?SEEKFREE_IPS114_SPI
000E1FH   000E21H   000003H   BYTE   UNIT     EDATA          ?ED?MPU6050_READ_CH?SEEKFREE_MPU6050
000E22H   000E24H   000003H   BYTE   UNIT     EDATA          ?ED?MPU6050_SIMIIC_WRITE_REG?SEEKFREE_MPU6050
000E25H   000E27H   000003H   BYTE   UNIT     EDATA          ?ED?MPU6050_SIMIIC_READ_REG?SEEKFREE_MPU6050
000E28H   000E2AH   000003H   BYTE   UNIT     EDATA          ?ED?OLED_FILL?SEEKFREE_OLED
000E2BH   000E2DH   000003H   BYTE   UNIT     EDATA          ?ED?OLED_PUTPIXEL?SEEKFREE_OLED
000E2EH   000E30H   000003H   BYTE   UNIT     EDATA          ?ED?OLED_FILL_SPI?SEEKFREE_OLED
000E31H   000E33H   000003H   BYTE   UNIT     EDATA          ?ED?OLED_PUTPIXEL_SPI?SEEKFREE_OLED
000E34H   000E35H   000002H   BYTE   UNIT     EDATA          ?ED?COMMON
000E36H   000E37H   000002H   BYTE   UNIT     EDATA          ?ED?SEND_DATA?ZF_IIC
000E38H   000E39H   000002H   BYTE   UNIT     EDATA          ?ED?IIC_CHANGE_PIN?ZF_IIC
000E3AH   000E3BH   000002H   BYTE   UNIT     EDATA          ?ED?PWM_SET_GPIO?ZF_PWM
000E3CH   000E3DH   000002H   BYTE   UNIT     EDATA          ?ED?SPI_CHANGE_PIN?ZF_SPI
000E3EH   000E3FH   000002H   BYTE   UNIT     EDATA          ?ED?CTIMER_COUNT_INIT?ZF_TIM
000E40H   000E41H   000002H   BYTE   UNIT     EDATA          ?ED?CTIMER_COUNT_CLEAN?ZF_TIM
000E42H   000E43H   000002H   BYTE   UNIT     EDATA          ?ED?LCD_WRITEINDEX_SIMSPI?SEEKFREE_18TFT
000E44H   000E45H   000002H   BYTE   UNIT     EDATA          ?ED?LCD_WRITEDATA_SIMSPI?SEEKFREE_18TFT
000E46H   000E47H   000002H   BYTE   UNIT     EDATA          ?ED?ENCODER_DELAY_US?SEEKFREE_ABSOLUTE_ENCODER
L251 LINKER/LOCATER V4.66.93.0                                                        04/15/2024  09:56:15  PAGE 7


000E48H   000E49H   000002H   BYTE   UNIT     EDATA          ?ED?SIMSPI_WR_BYTE?SEEKFREE_ABSOLUTE_ENCODER
000E4AH   000E4BH   000002H   BYTE   UNIT     EDATA          ?ED?SIMSPI_W_REG_BYTE?SEEKFREE_ABSOLUTE_ENCODER
000E4CH   000E4DH   000002H   BYTE   UNIT     EDATA          ?ED?SET_ZERO_POSITION_SIMSPI?SEEKFREE_ABSOLUTE_ENCODER
000E4EH   000E4FH   000002H   BYTE   UNIT     EDATA          ?ED?ENCODER_ANGLE_SIMSPI?SEEKFREE_ABSOLUTE_ENCODER
000E50H   000E51H   000002H   BYTE   UNIT     EDATA          ?ED?SPI_W_REG_BYTE?SEEKFREE_ABSOLUTE_ENCODER
000E52H   000E53H   000002H   BYTE   UNIT     EDATA          ?ED?SET_ZERO_POSITION_SPI?SEEKFREE_ABSOLUTE_ENCODER
000E54H   000E55H   000002H   BYTE   UNIT     EDATA          ?ED?ENCODER_ANGLE_SPI?SEEKFREE_ABSOLUTE_ENCODER
000E56H   000E57H   000002H   BYTE   UNIT     EDATA          ?ED?DL1A_SIMIIC_DELAY?SEEKFREE_DL1A
000E58H   000E59H   000002H   BYTE   UNIT     EDATA          ?ED?DL1A_SEND_CH?SEEKFREE_DL1A
000E5AH   000E5BH   000002H   BYTE   UNIT     EDATA          ?ED?DL1A_DECODE_TIMEOUT?SEEKFREE_DL1A
000E5CH   000E5DH   000002H   BYTE   UNIT     EDATA          ?ED?ICM20602_SIMSPI_WR_BYTE?SEEKFREE_ICM20602
000E5EH   000E5FH   000002H   BYTE   UNIT     EDATA          ?ED?ICM20602_SIMSPI_W_REG_BYTE?SEEKFREE_ICM20602
000E60H   000E61H   000002H   BYTE   UNIT     EDATA          ?ED?ICM20602_WRITE_REGISTER?SEEKFREE_ICM20602
000E62H   000E63H   000002H   BYTE   UNIT     EDATA          ?ED?ICM20602_READ_REGISTER?SEEKFREE_ICM20602
000E64H   000E65H   000002H   BYTE   UNIT     EDATA          ?ED?IMU660RA_SIMSPI_WR_BYTE?SEEKFREE_IMU660RA
000E66H   000E67H   000002H   BYTE   UNIT     EDATA          ?ED?IMU660RA_SIMSPI_W_REG_BYTE?SEEKFREE_IMU660RA
000E68H   000E69H   000002H   BYTE   UNIT     EDATA          ?ED?IMU660RA_WRITE_REGISTER?SEEKFREE_IMU660RA
000E6AH   000E6BH   000002H   BYTE   UNIT     EDATA          ?ED?IMU963RA_SIMSPI_WR_BYTE?SEEKFREE_IMU963RA
000E6CH   000E6DH   000002H   BYTE   UNIT     EDATA          ?ED?IMU963RA_SIMSPI_W_REG_BYTE?SEEKFREE_IMU963RA
000E6EH   000E6FH   000002H   BYTE   UNIT     EDATA          ?ED?IMU963RA_WRITE_ACC_GYRO_REGISTER?SEEKFREE_IMU963RA
000E70H   000E71H   000002H   BYTE   UNIT     EDATA          ?ED?IMU963RA_READ_ACC_GYRO_REGISTER?SEEKFREE_IMU963RA
000E72H   000E73H   000002H   BYTE   UNIT     EDATA          ?ED?IMU963RA_CONNECT_MAG?SEEKFREE_IMU963RA
000E74H   000E75H   000002H   BYTE   UNIT     EDATA          ?ED?IPS114_WRITEINDEX_SIMSPI?SEEKFREE_IPS114_SPI
000E76H   000E77H   000002H   BYTE   UNIT     EDATA          ?ED?IPS114_WRITEDATA_SIMSPI?SEEKFREE_IPS114_SPI
000E78H   000E79H   000002H   BYTE   UNIT     EDATA          ?ED?MPU6050_SIMIIC_DELAY?SEEKFREE_MPU6050
000E7AH   000E7BH   000002H   BYTE   UNIT     EDATA          ?ED?MPU6050_SEND_CH?SEEKFREE_MPU6050
000E7CH   000E7DH   000002H   BYTE   UNIT     EDATA          ?ED?OLED_WRDAT?SEEKFREE_OLED
000E7EH   000E7FH   000002H   BYTE   UNIT     EDATA          ?ED?OLED_WRCMD?SEEKFREE_OLED
000E80H   000E81H   000002H   BYTE   UNIT     EDATA          ?ED?OLED_SET_POS?SEEKFREE_OLED
000E82H   000E83H   000002H   BYTE   UNIT     EDATA          ?ED?OLED_CLRPIXEL?SEEKFREE_OLED
000E84H   000E85H   000002H   BYTE   UNIT     EDATA          ?ED?OLED_SET_POS_SPI?SEEKFREE_OLED
000E86H   000E87H   000002H   BYTE   UNIT     EDATA          ?ED?OLED_CLRPIXEL_SPI?SEEKFREE_OLED
000E88H   000E89H   000002H   BYTE   UNIT     EDATA          ?ED?MAIN?MAIN
000E8AH   000E8BH   000002H   BYTE   UNIT     EDATA          ?ED?BUZZER?MOTOR
000E8CH   000E8DH   000002H   BYTE   UNIT     EDATA          ?ED?L_ENC_INTEGRAL?ENCODER
000E8EH   000E8FH   000002H   BYTE   UNIT     EDATA          ?ED?R_ENC_INTEGRAL?ENCODER
000E90H   000E91H   000002H   BYTE   UNIT     EDATA          ?ED?GYRO_ZERO_WANDER?MPU6050
000E92H   000E93H   000002H   BYTE   UNIT     EDATA          ?ED?DISTACE?TRACKELEMENT
000E94H   000E95H   000002H   BYTE   UNIT     EDATA          ?ED?SPEED_PLAN?TRACKELEMENT
000E96H   000E97H   000002H   BYTE   UNIT     EDATA          ?ED?TRACKING?TRACKELEMENT
000E98H   000E98H   000001H   BYTE   UNIT     EDATA          ?ED?PUTCHAR?BOARD
000E99H   000E99H   000001H   BYTE   UNIT     EDATA          ?ED?IAP_SET_TPS?ZF_EEPROM
000E9AH   000E9AH   000001H   BYTE   UNIT     EDATA          ?ED?START?ZF_IIC
000E9BH   000E9BH   000001H   BYTE   UNIT     EDATA          ?ED?RECV_ACK?ZF_IIC
000E9CH   000E9CH   000001H   BYTE   UNIT     EDATA          ?ED?SEND_ACK?ZF_IIC
000E9DH   000E9DH   000001H   BYTE   UNIT     EDATA          ?ED?STOP?ZF_IIC
000E9EH   000E9EH   000001H   BYTE   UNIT     EDATA          ?ED?SPI_MOSI?ZF_SPI
000E9FH   000E9FH   000001H   BYTE   UNIT     EDATA          ?ED?SPI_CHANGE_MODE?ZF_SPI
000EA0H   000EA0H   000001H   BYTE   UNIT     EDATA          ?ED?LCD_WRITEINDEX?SEEKFREE_18TFT
000EA1H   000EA1H   000001H   BYTE   UNIT     EDATA          ?ED?LCD_WRITEDATA?SEEKFREE_18TFT
000EA2H   000EA2H   000001H   BYTE   UNIT     EDATA          ?ED?ENCODER_SELF4_CHECK?SEEKFREE_ABSOLUTE_ENCODER
000EA3H   000EA3H   000001H   BYTE   UNIT     EDATA          ?ED?SPI_WR_BYTE?SEEKFREE_ABSOLUTE_ENCODER
000EA4H   000EA4H   000001H   BYTE   UNIT     EDATA          ?ED?ENCODER_SELF5_CHECK?SEEKFREE_ABSOLUTE_ENCODER
000EA5H   000EA5H   000001H   BYTE   UNIT     EDATA          ?ED?DL1A_SIMIIC_SENDACK?SEEKFREE_DL1A
000EA6H   000EA6H   000001H   BYTE   UNIT     EDATA          ?ED?IMU660RA_INIT?SEEKFREE_IMU660RA
000EA7H   000EA7H   000001H   BYTE   UNIT     EDATA          ?ED?IMU963RA_INIT?SEEKFREE_IMU963RA
000EA8H   000EA8H   000001H   BYTE   UNIT     EDATA          ?ED?IPS114_WRITEINDEX?SEEKFREE_IPS114_SPI
000EA9H   000EA9H   000001H   BYTE   UNIT     EDATA          ?ED?IPS114_WRITEDATA?SEEKFREE_IPS114_SPI
000EAAH   000EAAH   000001H   BYTE   UNIT     EDATA          ?ED?MPU6050_SIMIIC_SENDACK?SEEKFREE_MPU6050
000EABH   000EABH   000001H   BYTE   UNIT     EDATA          ?ED?OLED_WRDAT_SPI?SEEKFREE_OLED
000EACH   000EACH   000001H   BYTE   UNIT     EDATA          ?ED?OLED_WRCMD_SPI?SEEKFREE_OLED
000EADH   000EADH   000001H   BYTE   UNIT     EDATA          ?ED?CCD_COLLECT?SEEKFREE_TSL1401
000EAEH   000EAEH   000001H   BYTE   UNIT     EDATA          ?ED?WIRELESS_UART_SEND_BYTE?SEEKFREE_WIRELESS
000EAFH   000EAFH   000001H   BYTE   UNIT     EDATA          ?ED?UART1_ISR?ISR
000EB0H   000FAFH   000100H   BYTE   UNIT     EDATA          ?STACK
L251 LINKER/LOCATER V4.66.93.0                                                        04/15/2024  09:56:15  PAGE 8


000FB0H   FEFFFFH   FEF050H   ---    ---      **GAP**
FF0000H   FF0002H   000003H   ---    OFFS..   CODE           ?CO?start251?4
FF0003H   FF0005H   000003H   ---    OFFS..   CODE           ?PR?IV?0
FF0006H   FF0009H   000004H   BYTE   INSEG    CODE           ?PR?ENABLEGLOBALIRQ?BOARD
FF000AH   FF000AH   000001H   BYTE   INSEG    CODE           ?PR?INT1_ISR?ISR
FF000BH   FF000DH   000003H   ---    OFFS..   CODE           ?PR?IV?1
FF000EH   FF0011H   000004H   BYTE   UNIT     CODE           ?PR?FPADD?STC32F_FPMU
FF0012H   FF0012H   000001H   ---    ---      **GAP**
FF0013H   FF0015H   000003H   ---    OFFS..   CODE           ?PR?IV?2
FF0016H   FF0019H   000004H   BYTE   UNIT     CODE           ?PR?FPSUB?STC32F_FPMU
FF001AH   FF001AH   000001H   ---    ---      **GAP**
FF001BH   FF001DH   000003H   ---    OFFS..   CODE           ?PR?IV?3
FF001EH   FF0021H   000004H   BYTE   UNIT     CODE           ?PR?FPMUL?STC32F_FPMU
FF0022H   FF0022H   000001H   ---    ---      **GAP**
FF0023H   FF0025H   000003H   ---    OFFS..   CODE           ?PR?IV?4
FF0026H   FF0042H   00001DH   BYTE   INSEG    CODE           ?PR?MPU6050_SIMIIC_DELAY?SEEKFREE_MPU6050
FF0043H   FF0045H   000003H   ---    OFFS..   CODE           ?PR?IV?8
FF0046H   FF0051H   00000CH   BYTE   UNIT     CODE           ?PR?FPCMP?STC32F_FPMU
FF0052H   FF0052H   000001H   ---    ---      **GAP**
FF0053H   FF0055H   000003H   ---    OFFS..   CODE           ?PR?IV?10
FF0056H   FF0059H   000004H   BYTE   UNIT     CODE           ?PR?FPDIV?STC32F_FPMU
FF005AH   FF005AH   000001H   ---    ---      **GAP**
FF005BH   FF005DH   000003H   ---    OFFS..   CODE           ?PR?IV?11
FF005EH   FF0061H   000004H   BYTE   UNIT     CODE           ?PR?FCASTL?STC32F_FPMU
FF0062H   FF0062H   000001H   ---    ---      **GAP**
FF0063H   FF0065H   000003H   ---    OFFS..   CODE           ?PR?IV?12
FF0066H   FF007FH   00001AH   BYTE   INSEG    CODE           ?PR?BLUETOOTH_CH9141_UART_CALLBACK?SEEKFREE_BLUETOOTH_CH91
                                                             -41
FF0080H   FF0082H   000003H   ---    ---      **GAP**
FF0083H   FF0085H   000003H   ---    OFFS..   CODE           ?PR?IV?16
FF0086H   FF0089H   000004H   BYTE   INSEG    CODE           ?PR?INT0_ISR?ISR
FF008AH   FF008AH   000001H   ---    ---      **GAP**
FF008BH   FF008DH   000003H   ---    OFFS..   CODE           ?PR?IV?17
FF008EH   FF0091H   000004H   BYTE   INSEG    CODE           ?PR?INT2_ISR?ISR
FF0092H   FF0092H   000001H   ---    ---      **GAP**
FF0093H   FF0095H   000003H   ---    OFFS..   CODE           ?PR?IV?18
FF0096H   FF0099H   000004H   BYTE   INSEG    CODE           ?PR?INT3_ISR?ISR
FF009AH   FF009AH   000001H   ---    ---      **GAP**
FF009BH   FF009DH   000003H   ---    OFFS..   CODE           ?PR?IV?19
FF009EH   FF00A1H   000004H   BYTE   INSEG    CODE           ?PR?INT4_ISR?ISR
FF00A2H   FF00A2H   000001H   ---    ---      **GAP**
FF00A3H   FF00A5H   000003H   ---    OFFS..   CODE           ?PR?IV?20
FF00A6H   FF212CH   002087H   BYTE   UNIT     CODE           ?CO?SEEKFREE_CONFIG
FF212DH   FF2F34H   000E08H   BYTE   UNIT     CODE           ?CO?SEEKFREE_FONT
FF2F35H   FF3841H   00090DH   BYTE   INSEG    CODE           ?PR?GPIO_MODE?ZF_GPIO
FF3842H   FF3F1CH   0006DBH   BYTE   INSEG    CODE           ?PR?SECOND__NWHUAN_MENU?MENU
FF3F1DH   FF45ECH   0006D0H   BYTE   UNIT     CODE           ?C?LIB_CODE
FF45EDH   FF4C6EH   000682H   BYTE   INSEG    CODE           ?PR?NORMALIZATION_TRACKING_ADC?INDUCTANCE
FF4C6FH   FF52CFH   000661H   BYTE   INSEG    CODE           ?PR?ZF_SPRINTF?SEEKFREE_PRINTF
FF52D0H   FF58FBH   00062CH   BYTE   INSEG    CODE           ?PR?SET_CLK?BOARD
FF58FCH   FF5D02H   000407H   BYTE   INSEG    CODE           ?PR?SECOND_MOTOR_MENU?MENU
FF5D03H   FF60DCH   0003DAH   BYTE   INSEG    CODE           ?PR?PWM_INIT?ZF_PWM
FF60DDH   FF6494H   0003B8H   BYTE   INSEG    CODE           ?PR?PWM_SET_GPIO?ZF_PWM
FF6495H   FF6830H   00039CH   BYTE   INSEG    CODE           ?PR?FIRST_MENU?MENU
FF6831H   FF6AE3H   0002B3H   BYTE   INSEG    CODE           ?PR?UART_INIT?ZF_UART
FF6AE4H   FF6D08H   000225H   BYTE   INSEG    CODE           ?PR?SECOND_ELEMENT_MENU?MENU
FF6D09H   FF6E4DH   000145H   BYTE   INSEG    CODE           ?PR?OLED_PRINTF_FLOAT?SEEKFREE_OLED
FF6E4EH   FF6F92H   000145H   BYTE   INSEG    CODE           ?PR?OLED_PRINTF_FLOAT_PX8?SEEKFREE_OLED
FF6F93H   FF70CAH   000138H   BYTE   INSEG    CODE           ?PR?FIFO_WRITE_BUFFER?ZF_FIFO
FF70CBH   FF71F8H   00012EH   BYTE   INSEG    CODE           ?PR?SHOW_VAL?INDUCTANCE
FF71F9H   FF7319H   000121H   BYTE   INSEG    CODE           ?PR?OLED_P8X16STR?SEEKFREE_OLED
FF731AH   FF7431H   000118H   BYTE   INSEG    CODE           ?PR?PWM_DUTY?ZF_PWM
FF7432H   FF7548H   000117H   BYTE   INSEG    CODE           ?PR?NUMBER_CONVERSION_ASCII?SEEKFREE_PRINTF
FF7549H   FF7644H   0000FCH   BYTE   INSEG    CODE           ?PR?ERROR_SPEED?TRACKELEMENT
FF7645H   FF7736H   0000F2H   BYTE   INSEG    CODE           ?PR?MAIN?MAIN
L251 LINKER/LOCATER V4.66.93.0                                                        04/15/2024  09:56:15  PAGE 9


FF7737H   FF781BH   0000E5H   BYTE   INSEG    CODE           ?PR?PIT_TIMER_MS?ZF_TIM
FF781CH   FF78FDH   0000E2H   BYTE   INSEG    CODE           ?PR?GET_ANGLE?MPU6050
FF78FEH   FF79D9H   0000DCH   BYTE   INSEG    CODE           ?PR?SPEED_PID_OUT?MOTOR
FF79DAH   FF7AB2H   0000D9H   BYTE   INSEG    CODE           ?PR?MEDIANFILTER1?MPU6050
FF7AB3H   FF7B83H   0000D1H   BYTE   INSEG    CODE           ?PR?OLED_P6X8STR?SEEKFREE_OLED
FF7B84H   FF7C42H   0000BFH   BYTE   INSEG    CODE           ?PR?MOTOR_PWM?MOTOR
FF7C43H   FF7CFCH   0000BAH   BYTE   INSEG    CODE           ?PR?SQ?INDUCTANCE
FF7CFDH   FF7DB2H   0000B6H   BYTE   INSEG    CODE           ?PR?SECOND__SPEED_MENU?MENU
FF7DB3H   FF7E67H   0000B5H   BYTE   INSEG    CODE           ?PR?ADC_INIT?ZF_ADC
FF7E68H   FF7F1BH   0000B4H   BYTE   INSEG    CODE           ?PR?CTIMER_COUNT_READ?ZF_TIM
FF7F1CH   FF7FC3H   0000A8H   BYTE   INSEG    CODE           ?PR?OLED_INIT?SEEKFREE_OLED
FF7FC4H   FF8058H   000095H   BYTE   INSEG    CODE           ?PR?PRINTF_REVERSE_ORDER?SEEKFREE_PRINTF
FF8059H   FF80DFH   000087H   BYTE   INSEG    CODE           ?PR?NH_TURN_OUT?DIRECTION
FF80E0H   FF8156H   000077H   BYTE   INSEG    CODE           ?PR?BOARD_INIT?BOARD
FF8157H   FF81CBH   000075H   BYTE   INSEG    CODE           ?PR?UART_PUTCHAR?ZF_UART
FF81CCH   FF823EH   000073H   BYTE   INSEG    CODE           ?PR?OLED_INT16?SEEKFREE_OLED
FF823FH   FF82ADH   00006FH   BYTE   INSEG    CODE           ?PR?OLED_HEXASCII?SEEKFREE_OLED
FF82AEH   FF831AH   00006DH   BYTE   INSEG    CODE           ?PR?GYRO_ZERO_WANDER?MPU6050
FF831BH   FF8386H   00006CH   BYTE   INSEG    CODE           ?PR?MPU6050_SIMIIC_READ_REGS?SEEKFREE_MPU6050
FF8387H   FF83F0H   00006AH   BYTE   INSEG    CODE           ?PR?FIFO_HEAD_OFFSET?ZF_FIFO
FF83F1H   FF845AH   00006AH   BYTE   INSEG    CODE           ?PR?MPU6050_READ_CH?SEEKFREE_MPU6050
FF845BH   FF84C4H   00006AH   BYTE   INSEG    CODE           ?PR?WH_TURN_OUT?DIRECTION
FF84C5H   FF852BH   000067H   BYTE   INSEG    CODE           ?PR?TRACKING?TRACKELEMENT
FF852CH   FF8590H   000065H   BYTE   INSEG    CODE           ?PR?TM4_ISR?ENCODER
FF8591H   FF85F1H   000061H   BYTE   INSEG    CODE           ?PR?UART4_ISR?ISR
FF85F2H   FF8651H   000060H   BYTE   INSEG    CODE           ?PR?MPU6050_INIT?SEEKFREE_MPU6050
FF8652H   FF86AEH   00005DH   BYTE   INSEG    CODE           ?PR?CTIMER_COUNT_CLEAN?ZF_TIM
FF86AFH   FF870BH   00005DH   BYTE   INSEG    CODE           ?PR?OLED_FILL?SEEKFREE_OLED
FF870CH   FF8763H   000058H   BYTE   INSEG    CODE           ?PR?DIRCONTROL?DIRECTION
FF8764H   FF87B9H   000056H   BYTE   INSEG    CODE           ?PR?ADC_ONCE?ZF_ADC
FF87BAH   FF880DH   000054H   BYTE   INSEG    CODE           ?PR?CTIMER_COUNT_INIT?ZF_TIM
FF880EH   FF885FH   000052H   BYTE   INSEG    CODE           ?PR?MPU6050_GET_GYRO?SEEKFREE_MPU6050
FF8860H   FF88B1H   000052H   BYTE   INSEG    CODE           ?PR?MOTOR_INIT?MOTOR
FF88B2H   FF88FDH   00004CH   BYTE   INSEG    CODE           ?PR?OLED_WRCMD?SEEKFREE_OLED
FF88FEH   FF8949H   00004CH   BYTE   INSEG    CODE           ?PR?OLED_WRDAT?SEEKFREE_OLED
FF894AH   FF8994H   00004BH   BYTE   INSEG    CODE           ?PR?MOTOR_SET_PID?MOTOR
FF8995H   FF89DDH   000049H   BYTE   INSEG    CODE           ?PR?MPU6050_SEND_CH?SEEKFREE_MPU6050
FF89DEH   FF8A24H   000047H   BYTE   INSEG    CODE           ?PR?INDUCTANCE_INIT?INDUCTANCE
FF8A25H   FF8A66H   000042H   BYTE   INSEG    CODE           ?PR?UART1_ISR?ISR
FF8A67H   FF8A79H   000013H   BYTE   UNIT     CODE           ?C_C51STARTUP
FF8A7AH   FF8AA2H   000029H   BYTE   UNIT     CODE           ?C_C51STARTUP?2
FF8AA3H   FF8AA5H   000003H   BYTE   UNIT     CODE           ?C_C51STARTUP?3
FF8AA6H   FF8AE1H   00003CH   BYTE   INSEG    CODE           ?PR?SHOW_VAL_MENU?MENU
FF8AE2H   FF8B1CH   00003BH   BYTE   INSEG    CODE           ?PR?MPU6050_SIMIIC_READ_REG?SEEKFREE_MPU6050
FF8B1DH   FF8B57H   00003BH   BYTE   INSEG    CODE           ?PR?LIMIT?MOTOR
FF8B58H   FF8B8CH   000035H   BYTE   INSEG    CODE           ?PR?DELAY_MS?ZF_DELAY
FF8B8DH   FF8BC1H   000035H   BYTE   INSEG    CODE           ?PR?OLED_SET_POS?SEEKFREE_OLED
FF8BC2H   FF8BF4H   000033H   BYTE   INSEG    CODE           ?PR?MPU6050_SELF1_CHECK?SEEKFREE_MPU6050
FF8BF5H   FF8C23H   00002FH   BYTE   INSEG    CODE           ?PR?ENCODER_TIME_INIT?ENCODER
FF8C24H   FF8C52H   00002FH   BYTE   INSEG    CODE           ?PR?LOWPASSFILTER?MPU6050
FF8C53H   FF8C7CH   00002AH   BYTE   INSEG    CODE           ?PR?MPU6050_SIMIIC_WRITE_REG?SEEKFREE_MPU6050
FF8C7DH   FF8CA4H   000028H   BYTE   INSEG    CODE           ?PR?MPU6050_SIMIIC_SENDACK?SEEKFREE_MPU6050
FF8CA5H   FF8CCBH   000027H   BYTE   INSEG    CODE           ?PR?OLED_UINT16?SEEKFREE_OLED
FF8CCCH   FF8CF2H   000027H   BYTE   INSEG    CODE           ?PR?OLED_UINT16_PX8?SEEKFREE_OLED
FF8CF3H   FF8D18H   000026H   BYTE   INSEG    CODE           ?PR?R_ENCODER_PULSE?ENCODER
FF8D19H   FF8D3DH   000025H   BYTE   INSEG    CODE           ?PR?MEMCPY?_?MEMCPY
FF8D3EH   FF8D60H   000023H   BYTE   INSEG    CODE           ?PR?DELAY_INIT?ZF_DELAY
FF8D61H   FF8D82H   000022H   BYTE   INSEG    CODE           ?PR?L_ENCODER_PULSE?ENCODER
FF8D83H   FF8DA3H   000021H   BYTE   INSEG    CODE           ?PR?MPU6050_SCCB_WAITACK?SEEKFREE_MPU6050
FF8DA4H   FF8DBDH   00001AH   BYTE   INSEG    CODE           ?PR?WIRELESS_UART_CALLBACK?SEEKFREE_WIRELESS
FF8DBEH   FF8DD7H   00001AH   BYTE   INSEG    CODE           ?PR?UART2_ISR?ISR
FF8DD8H   FF8DF1H   00001AH   BYTE   INSEG    CODE           ?PR?UART3_ISR?ISR
FF8DF2H   FF8E08H   000017H   BYTE   INSEG    CODE           ?PR?TM0_ISR?ISR
FF8E09H   FF8E1EH   000016H   BYTE   INSEG    CODE           ?PR?MPU6050_SIMIIC_STOP?SEEKFREE_MPU6050
FF8E1FH   FF8E32H   000014H   BYTE   INSEG    CODE           ?PR?CLOCK_INIT?BOARD
L251 LINKER/LOCATER V4.66.93.0                                                        04/15/2024  09:56:15  PAGE 10


FF8E33H   FF8E45H   000013H   BYTE   INSEG    CODE           ?PR?MPU6050_SIMIIC_START?SEEKFREE_MPU6050
FF8E46H   FF8E57H   000012H   BYTE   INSEG    CODE           ?PR?PUTCHAR?BOARD
FF8E58H   FF8E68H   000011H   BYTE   INSEG    CODE           ?PR?ICACHEON?BOARD
FF8E69H   FF8E78H   000010H   BYTE   INSEG    CODE           ?PR?ABS?_?ABS
FF8E79H   FF8E82H   00000AH   BYTE   INSEG    CODE           ?PR?TM1_ISR?ISR
FF8E83H   FF8E88H   000006H   BYTE   UNIT     CODE           ?PR?CASTF?STC32F_FPMU
FF8E89H   FF8E8EH   000006H   BYTE   UNIT     CODE           ?PR?FCASTI?STC32F_FPMU
FF8E8FH   FF8E92H   000004H   BYTE   INSEG    CODE           ?PR?TM2_ISR?ISR
FF8E93H   FF8E96H   000004H   BYTE   INSEG    CODE           ?PR?TM3_ISR?ISR
FF8E97H   FF8E9AH   000004H   BYTE   UNIT     CONST          ?CO?PRINTF
FF8E9BH   FF9249H   0003AFH   BYTE   UNIT     HCONST         ?C_INITEDATA
FF924AH   FF9305H   0000BCH   BYTE   UNIT     HCONST         ?HC?MENU
FF9306H   FF935DH   000058H   BYTE   UNIT     HCONST         ?HC?ZF_PWM
FF935EH   FF93A8H   00004BH   BYTE   UNIT     HCONST         ?HC?SEEKFREE_IMU963RA
FF93A9H   FF93EDH   000045H   BYTE   UNIT     HCONST         ?HC?INDUCTANCE
FF93EEH   FF9422H   000035H   BYTE   UNIT     HCONST         ?HC?SEEKFREE_ICM20602
FF9423H   FF9456H   000034H   BYTE   UNIT     HCONST         ?HC?SEEKFREE_IMU660RA
FF9457H   FF946CH   000016H   BYTE   UNIT     HCONST         ?HC?SEEKFREE_MPU6050
FF946DH   FF947FH   000013H   BYTE   UNIT     HCONST         ?HC?SEEKFREE_DL1A
FF9480H   FF9489H   00000AH   BYTE   UNIT     HCONST         ?HC?SEEKFREE_OLED
FF948AH   FF948FH   000006H   BYTE   UNIT     HCONST         ?HC?SEEKFREE_18TFT
FF9490H   FF9495H   000006H   BYTE   UNIT     HCONST         ?HC?SEEKFREE_IPS114_SPI

* * * * * * * * *   R E M O V E D     S E G M E N T S   * * * * * * * *
   *DEL*:           000016H   BYTE   INSEG    CODE           ?PR?DISALBE_ICACHE?BOARD
   *DEL*:           000017H   BYTE   INSEG    CODE           ?PR?ENALBE_ICACHE?BOARD
   *DEL*:           000004H   BYTE   INSEG    CODE           ?PR?DISABLEGLOBALIRQ?BOARD
   *DEL*:           000004H   BYTE   UNIT     CODE           ?PR?SQRT?STC32F_FPMU
   *DEL*:           000006H   BYTE   UNIT     CODE           ?PR?FXAM?STC32F_FPMU
   *DEL*:           000007H   BYTE   UNIT     CODE           ?PR?FCHS?STC32F_FPMU
   *DEL*:           000007H   BYTE   UNIT     CODE           ?PR?FABS?STC32F_FPMU
   *DEL*:           000004H   BYTE   UNIT     CODE           ?PR?SIN?STC32F_FPMU
   *DEL*:           000004H   BYTE   UNIT     CODE           ?PR?COS?STC32F_FPMU
   *DEL*:           000004H   BYTE   UNIT     CODE           ?PR?TAN?STC32F_FPMU
   *DEL*:           00000AH   BYTE   UNIT     CODE           ?PR?ATAN?STC32F_FPMU
   *DEL*:           000006H   BYTE   UNIT     CODE           ?PR?FCASTC?STC32F_FPMU
   *DEL*:           000004H   BYTE   UNIT     CODE           ?PR?FCLEX?STC32F_FPMU
   *DEL*:           000004H   BYTE   UNIT     CODE           ?PR?FINIT?STC32F_FPMU
   *DEL*:           000006H   BYTE   UNIT     CODE           ?PR?FPSRR?STC32F_FPMU
   *DEL*:           000006H   BYTE   UNIT     CODE           ?PR?FPSRW?STC32F_FPMU
   *DEL*:           000006H   BYTE   UNIT     CODE           ?PR?FPCRR?STC32F_FPMU
   *DEL*:           000006H   BYTE   UNIT     CODE           ?PR?FPCRW?STC32F_FPMU
   *DEL*:           000033H   BYTE   INSEG    CODE           ?PR?DELAY_US?ZF_DELAY
   *DEL*:           00001AH   BYTE   INSEG    CODE           ?PR?IAP_SET_TPS?ZF_EEPROM
   *DEL*:           000015H   BYTE   INSEG    CODE           ?PR?EEPROM_TRIG?ZF_EEPROM
   *DEL*:           000029H   BYTE   INSEG    CODE           ?PR?IAP_ERASE_PAGE?ZF_EEPROM
   *DEL*:           000004H   BYTE   INSEG    CODE           ?PR?IAP_IDLE?ZF_EEPROM
   *DEL*:           00005FH   BYTE   INSEG    CODE           ?PR?IAP_READ_BYTES?ZF_EEPROM
   *DEL*:           000008H   BYTE   INSEG    CODE           ?PR?IAP_INIT?ZF_EEPROM
   *DEL*:           00005BH   BYTE   INSEG    CODE           ?PR?IAP_WRITE_BYTES?ZF_EEPROM
   *DEL*:           000012H   BYTE   INSEG    CODE           ?PR?IAP_GET_CMD_STATE?ZF_EEPROM
   *DEL*:           000066H   BYTE   INSEG    CODE           ?PR?EXIT_INIT?ZF_EXTI
   *DEL*:           000095H   BYTE   INSEG    CODE           ?PR?GPIO_PULL_SET?ZF_GPIO
   *DEL*:           000028H   BYTE   INSEG    CODE           ?PR?SEND_DATA?ZF_IIC
   *DEL*:           000037H   BYTE   INSEG    CODE           ?PR?IIC_CHANGE_PIN?ZF_IIC
   *DEL*:           00001CH   BYTE   INSEG    CODE           ?PR?RECV_DATA?ZF_IIC
   *DEL*:           000015H   BYTE   INSEG    CODE           ?PR?START?ZF_IIC
   *DEL*:           000057H   BYTE   INSEG    CODE           ?PR?WAIT?ZF_IIC
   *DEL*:           000021H   BYTE   INSEG    CODE           ?PR?SEND_ACK?ZF_IIC
   *DEL*:           000015H   BYTE   INSEG    CODE           ?PR?RECV_ACK?ZF_IIC
   *DEL*:           000015H   BYTE   INSEG    CODE           ?PR?STOP?ZF_IIC
   *DEL*:           00001EH   BYTE   INSEG    CODE           ?PR?SEND_NAK?ZF_IIC
   *DEL*:           00007AH   BYTE   INSEG    CODE           ?PR?IIC_INIT?ZF_IIC
   *DEL*:           000099H   BYTE   INSEG    CODE           ?PR?IIC_READ_REG?ZF_IIC
   *DEL*:           0000D4H   BYTE   INSEG    CODE           ?PR?IIC_READ_REG_BYTES?ZF_IIC
L251 LINKER/LOCATER V4.66.93.0                                                        04/15/2024  09:56:15  PAGE 11


   *DEL*:           00007CH   BYTE   INSEG    CODE           ?PR?IIC_WRITE_REG?ZF_IIC
   *DEL*:           000035H   BYTE   INSEG    CODE           ?PR?IIC_DELAY_US?ZF_IIC
   *DEL*:           0000B9H   BYTE   INSEG    CODE           ?PR?NVIC_SETPRIORITY?ZF_NVIC
   *DEL*:           0001ABH   BYTE   INSEG    CODE           ?PR?PWM_FREQ?ZF_PWM
   *DEL*:           000026H   BYTE   INSEG    CODE           ?PR?SPI_CHANGE_MODE?ZF_SPI
   *DEL*:           0000CCH   BYTE   INSEG    CODE           ?PR?SPI_CHANGE_PIN?ZF_SPI
   *DEL*:           0000F5H   BYTE   INSEG    CODE           ?PR?SPI_INIT?ZF_SPI
   *DEL*:           000012H   BYTE   INSEG    CODE           ?PR?SPI_MOSI?ZF_SPI
   *DEL*:           000039H   BYTE   INSEG    CODE           ?PR?UART_PUTBUFF?ZF_UART
   *DEL*:           00002BH   BYTE   INSEG    CODE           ?PR?UART_PUTSTR?ZF_UART
   *DEL*:           000183H   BYTE   INSEG    CODE           ?PR?FIFO_READ_BUFFER?ZF_FIFO
   *DEL*:           000043H   BYTE   INSEG    CODE           ?PR?FIFO_CLEAR?ZF_FIFO
   *DEL*:           000070H   BYTE   INSEG    CODE           ?PR?FIFO_END_OFFSET?ZF_FIFO
   *DEL*:           000025H   BYTE   INSEG    CODE           ?PR?FIFO_USED?ZF_FIFO
   *DEL*:           00006EH   BYTE   INSEG    CODE           ?PR?FIFO_INIT?ZF_FIFO
   *DEL*:           0000CDH   BYTE   INSEG    CODE           ?PR?LCD_SHOWUINT16?SEEKFREE_18TFT
   *DEL*:           0000CEH   BYTE   INSEG    CODE           ?PR?LCD_SHOWINT32_SIMSPI?SEEKFREE_18TFT
   *DEL*:           000119H   BYTE   INSEG    CODE           ?PR?LCD_SHOWINT16_SIMSPI?SEEKFREE_18TFT
   *DEL*:           0000CEH   BYTE   INSEG    CODE           ?PR?LCD_SHOWINT32?SEEKFREE_18TFT
   *DEL*:           000119H   BYTE   INSEG    CODE           ?PR?LCD_SHOWINT16?SEEKFREE_18TFT
   *DEL*:           000057H   BYTE   INSEG    CODE           ?PR?LCD_CLEAR_SIMSPI?SEEKFREE_18TFT
   *DEL*:           000057H   BYTE   INSEG    CODE           ?PR?LCD_CLEAR?SEEKFREE_18TFT
   *DEL*:           00005DH   BYTE   INSEG    CODE           ?PR?LCD_SHOWSTR_SIMSPI?SEEKFREE_18TFT
   *DEL*:           00005DH   BYTE   INSEG    CODE           ?PR?LCD_SHOWSTR?SEEKFREE_18TFT
   *DEL*:           00004CH   BYTE   INSEG    CODE           ?PR?LCD_WRITEINDEX_SIMSPI?SEEKFREE_18TFT
   *DEL*:           00004CH   BYTE   INSEG    CODE           ?PR?LCD_WRITEDATA_SIMSPI?SEEKFREE_18TFT
   *DEL*:           000015H   BYTE   INSEG    CODE           ?PR?LCD_WRITEINDEX?SEEKFREE_18TFT
   *DEL*:           000015H   BYTE   INSEG    CODE           ?PR?LCD_WRITEDATA?SEEKFREE_18TFT
   *DEL*:           000055H   BYTE   INSEG    CODE           ?PR?LCD_WRITEDATA_16BIT_SIMSPI?SEEKFREE_18TFT
   *DEL*:           000064H   BYTE   INSEG    CODE           ?PR?LCD_SET_REGION_SIMSPI?SEEKFREE_18TFT
   *DEL*:           0001FDH   BYTE   INSEG    CODE           ?PR?LCD_INIT_SIMSPI?SEEKFREE_18TFT
   *DEL*:           0000ECH   BYTE   INSEG    CODE           ?PR?SHOWIMAGE?SEEKFREE_18TFT
   *DEL*:           000064H   BYTE   INSEG    CODE           ?PR?LCD_SET_REGION?SEEKFREE_18TFT
   *DEL*:           0001F3H   BYTE   INSEG    CODE           ?PR?LCD_INIT?SEEKFREE_18TFT
   *DEL*:           0000A9H   BYTE   INSEG    CODE           ?PR?LCD_SHOWUINT8_SIMSPI?SEEKFREE_18TFT
   *DEL*:           0000A9H   BYTE   INSEG    CODE           ?PR?LCD_SHOWUINT8?SEEKFREE_18TFT
   *DEL*:           0000EBH   BYTE   INSEG    CODE           ?PR?LCD_SHOWINT8_SIMSPI?SEEKFREE_18TFT
   *DEL*:           0000EBH   BYTE   INSEG    CODE           ?PR?LCD_SHOWINT8?SEEKFREE_18TFT
   *DEL*:           00002AH   BYTE   INSEG    CODE           ?PR?LCD_WRITEDATA_16BIT?SEEKFREE_18TFT
   *DEL*:           000145H   BYTE   INSEG    CODE           ?PR?LCD_SHOWFLOAT_SIMSPI?SEEKFREE_18TFT
   *DEL*:           000023H   BYTE   INSEG    CODE           ?PR?LCD_DRAWPOINT_SIMSPI?SEEKFREE_18TFT
   *DEL*:           000145H   BYTE   INSEG    CODE           ?PR?LCD_SHOWFLOAT?SEEKFREE_18TFT
   *DEL*:           000023H   BYTE   INSEG    CODE           ?PR?LCD_DRAWPOINT?SEEKFREE_18TFT
   *DEL*:           0000BFH   BYTE   INSEG    CODE           ?PR?LCD_SHOWCHAR_SIMSPI?SEEKFREE_18TFT
   *DEL*:           0000BFH   BYTE   INSEG    CODE           ?PR?LCD_SHOWCHAR?SEEKFREE_18TFT
   *DEL*:           0000CDH   BYTE   INSEG    CODE           ?PR?LCD_SHOWUINT16_SIMSPI?SEEKFREE_18TFT
   *DEL*:           000013H   BYTE   INSEG    CODE           ?PR?ENCODER_SELF4_CHECK?SEEKFREE_ABSOLUTE_ENCODER
   *DEL*:           000013H   BYTE   INSEG    CODE           ?PR?ENCODER_SELF5_CHECK?SEEKFREE_ABSOLUTE_ENCODER
   *DEL*:           000042H   BYTE   INSEG    CODE           ?PR?ENCODER_SPI_R_REG_BYTE?SEEKFREE_ABSOLUTE_ENCODER
   *DEL*:           00000AH   BYTE   INSEG    CODE           ?PR?ENCODER_DELAY_US?SEEKFREE_ABSOLUTE_ENCODER
   *DEL*:           000053H   BYTE   INSEG    CODE           ?PR?ENCODER_SPI_W_REG_BYTE?SEEKFREE_ABSOLUTE_ENCODER
   *DEL*:           00002DH   BYTE   INSEG    CODE           ?PR?SIMSPI_R_REG_BYTE?SEEKFREE_ABSOLUTE_ENCODER
   *DEL*:           000029H   BYTE   INSEG    CODE           ?PR?SIMSPI_W_REG_BYTE?SEEKFREE_ABSOLUTE_ENCODER
   *DEL*:           000030H   BYTE   INSEG    CODE           ?PR?ENCODER_INIT_SPI?SEEKFREE_ABSOLUTE_ENCODER
   *DEL*:           00000CH   BYTE   INSEG    CODE           ?PR?SPI_WR_BYTE?SEEKFREE_ABSOLUTE_ENCODER
   *DEL*:           000032H   BYTE   INSEG    CODE           ?PR?SET_ZERO_POSITION_SIMSPI?SEEKFREE_ABSOLUTE_ENCODER
   *DEL*:           000035H   BYTE   INSEG    CODE           ?PR?ENCODER_ANGLE_SIMSPI?SEEKFREE_ABSOLUTE_ENCODER
   *DEL*:           00002DH   BYTE   INSEG    CODE           ?PR?SPI_R_REG_BYTE?SEEKFREE_ABSOLUTE_ENCODER
   *DEL*:           000029H   BYTE   INSEG    CODE           ?PR?SPI_W_REG_BYTE?SEEKFREE_ABSOLUTE_ENCODER
   *DEL*:           000042H   BYTE   INSEG    CODE           ?PR?ENCODER_SIMSPI_R_REG_BYTE?SEEKFREE_ABSOLUTE_ENCODER
   *DEL*:           000053H   BYTE   INSEG    CODE           ?PR?ENCODER_SIMSPI_W_REG_BYTE?SEEKFREE_ABSOLUTE_ENCODER
   *DEL*:           000010H   BYTE   INSEG    CODE           ?PR?ENCODER_INIT_SIMSPI?SEEKFREE_ABSOLUTE_ENCODER
   *DEL*:           000032H   BYTE   INSEG    CODE           ?PR?SET_ZERO_POSITION_SPI?SEEKFREE_ABSOLUTE_ENCODER
   *DEL*:           000053H   BYTE   INSEG    CODE           ?PR?SIMSPI_WR_BYTE?SEEKFREE_ABSOLUTE_ENCODER
   *DEL*:           000035H   BYTE   INSEG    CODE           ?PR?ENCODER_ANGLE_SPI?SEEKFREE_ABSOLUTE_ENCODER
L251 LINKER/LOCATER V4.66.93.0                                                        04/15/2024  09:56:15  PAGE 12


   *DEL*:           00002EH   BYTE   INSEG    CODE           ?PR?BLUETOOTH_CH9141_READ_BUFF?SEEKFREE_BLUETOOTH_CH9141
   *DEL*:           0000CCH   BYTE   INSEG    CODE           ?PR?BLUETOOTH_CH9141_SEND_BUFF?SEEKFREE_BLUETOOTH_CH9141
   *DEL*:           00003FH   BYTE   INSEG    CODE           ?PR?BLUETOOTH_CH9141_INIT?SEEKFREE_BLUETOOTH_CH9141
   *DEL*:           000028H   BYTE   INSEG    CODE           ?PR?DL1A_SIMIIC_SENDACK?SEEKFREE_DL1A
   *DEL*:           000051H   BYTE   INSEG    CODE           ?PR?DL1A_TIMEOUT_MICROSECONDS_TO_MCLKS?SEEKFREE_DL1A
   *DEL*:           000053H   BYTE   INSEG    CODE           ?PR?DL1A_TIMEOUT_MCLKS_TO_MICROSECONDS?SEEKFREE_DL1A
   *DEL*:           00003EH   BYTE   INSEG    CODE           ?PR?DL1A_SET_SIGNAL_RATE_LIMIT?SEEKFREE_DL1A
   *DEL*:           00006AH   BYTE   INSEG    CODE           ?PR?DL1A_READ_CH?SEEKFREE_DL1A
   *DEL*:           00002AH   BYTE   INSEG    CODE           ?PR?DL1A_DECODE_TIMEOUT?SEEKFREE_DL1A
   *DEL*:           000049H   BYTE   INSEG    CODE           ?PR?DL1A_SEND_CH?SEEKFREE_DL1A
   *DEL*:           000195H   BYTE   INSEG    CODE           ?PR?DL1A_GET_SPAD_INFO?SEEKFREE_DL1A
   *DEL*:           00007FH   BYTE   INSEG    CODE           ?PR?DL1A_ENCODE_TIMEOUT?SEEKFREE_DL1A
   *DEL*:           00008EH   BYTE   INSEG    CODE           ?PR?DL1A_GET_SEQUENCE_STEP_ENABLES?SEEKFREE_DL1A
   *DEL*:           000021H   BYTE   INSEG    CODE           ?PR?DL1A_SCCB_WAITACK?SEEKFREE_DL1A
   *DEL*:           00006CH   BYTE   INSEG    CODE           ?PR?DL1A_GET_DISTANCE?SEEKFREE_DL1A
   *DEL*:           00001FH   BYTE   INSEG    CODE           ?PR?DL1A_SIMIIC_DELAY?SEEKFREE_DL1A
   *DEL*:           0000ABH   BYTE   INSEG    CODE           ?PR?DL1A_PERFORM_SINGLE_REF_CALIBRATION?SEEKFREE_DL1A
   *DEL*:           000169H   BYTE   INSEG    CODE           ?PR?DL1A_GET_SEQUENCE_STEP_TIMEOUTS?SEEKFREE_DL1A
   *DEL*:           000013H   BYTE   INSEG    CODE           ?PR?DL1A_SIMIIC_START?SEEKFREE_DL1A
   *DEL*:           000068H   BYTE   INSEG    CODE           ?PR?DL1A_SIMIIC_READ_REGS?SEEKFREE_DL1A
   *DEL*:           0000B6H   BYTE   INSEG    CODE           ?PR?DL1A_GET_MEASUREMENT_TIMING_BUDGET?SEEKFREE_DL1A
   *DEL*:           000042H   BYTE   INSEG    CODE           ?PR?DL1A_SIMIIC_WRITE_DATS?SEEKFREE_DL1A
   *DEL*:           00003BH   BYTE   INSEG    CODE           ?PR?DL1A_SIMIIC_READ_REG?SEEKFREE_DL1A
   *DEL*:           000068H   BYTE   INSEG    CODE           ?PR?DL1A_SIMIIC_READ_REGS_1?SEEKFREE_DL1A
   *DEL*:           000149H   BYTE   INSEG    CODE           ?PR?DL1A_SET_MEASUREMENT_TIMING_BUDGET?SEEKFREE_DL1A
   *DEL*:           000016H   BYTE   INSEG    CODE           ?PR?DL1A_SIMIIC_STOP?SEEKFREE_DL1A
   *DEL*:           00002AH   BYTE   INSEG    CODE           ?PR?DL1A_SIMIIC_WRITE_REG?SEEKFREE_DL1A
   *DEL*:           0006AEH   BYTE   INSEG    CODE           ?PR?DL1A_INIT?SEEKFREE_DL1A
   *DEL*:           00007AH   BYTE   INSEG    CODE           ?PR?DL1A_GET_VCSEL_PULSE_PERIOD?SEEKFREE_DL1A
   *DEL*:           00001EH   BYTE   INSEG    CODE           ?PR?ICM20602_READ_REGISTER?SEEKFREE_ICM20602
   *DEL*:           00008DH   BYTE   INSEG    CODE           ?PR?ICM20602_GYRO_TRANSITION?SEEKFREE_ICM20602
   *DEL*:           00001AH   BYTE   INSEG    CODE           ?PR?ICM20602_WRITE_REGISTER?SEEKFREE_ICM20602
   *DEL*:           000059H   BYTE   INSEG    CODE           ?PR?ICM20602_SIMSPI_WR_BYTE?SEEKFREE_ICM20602
   *DEL*:           00004EH   BYTE   INSEG    CODE           ?PR?ICM20602_SELF_CHECK?SEEKFREE_ICM20602
   *DEL*:           000051H   BYTE   INSEG    CODE           ?PR?ICM20602_SIMSPI_R_REG_BYTES?SEEKFREE_ICM20602
   *DEL*:           000027H   BYTE   INSEG    CODE           ?PR?ICM20602_SIMSPI_R_REG_BYTE?SEEKFREE_ICM20602
   *DEL*:           00001BH   BYTE   INSEG    CODE           ?PR?ICM20602_SIMSPI_W_REG_BYTE?SEEKFREE_ICM20602
   *DEL*:           0000C2H   BYTE   INSEG    CODE           ?PR?ICM20602_INIT?SEEKFREE_ICM20602
   *DEL*:           000050H   BYTE   INSEG    CODE           ?PR?ICM20602_GET_ACC?SEEKFREE_ICM20602
   *DEL*:           000089H   BYTE   INSEG    CODE           ?PR?ICM20602_ACC_TRANSITION?SEEKFREE_ICM20602
   *DEL*:           000026H   BYTE   INSEG    CODE           ?PR?ICM20602_READ_REGISTERS?SEEKFREE_ICM20602
   *DEL*:           000050H   BYTE   INSEG    CODE           ?PR?ICM20602_GET_GYRO?SEEKFREE_ICM20602
   *DEL*:           000050H   BYTE   INSEG    CODE           ?PR?IMU660RA_GET_GYRO?SEEKFREE_IMU660RA
   *DEL*:           000022H   BYTE   INSEG    CODE           ?PR?IMU660RA_READ_REGISTER?SEEKFREE_IMU660RA
   *DEL*:           000022H   BYTE   INSEG    CODE           ?PR?IMU660RA_WRITE_REGISTERS?SEEKFREE_IMU660RA
   *DEL*:           0000A8H   BYTE   INSEG    CODE           ?PR?IMU660RA_GYRO_TRANSITION?SEEKFREE_IMU660RA
   *DEL*:           00001AH   BYTE   INSEG    CODE           ?PR?IMU660RA_WRITE_REGISTER?SEEKFREE_IMU660RA
   *DEL*:           000059H   BYTE   INSEG    CODE           ?PR?IMU660RA_SIMSPI_WR_BYTE?SEEKFREE_IMU660RA
   *DEL*:           00004BH   BYTE   INSEG    CODE           ?PR?IMU660RA_SELF_CHECK?SEEKFREE_IMU660RA
   *DEL*:           00004BH   BYTE   INSEG    CODE           ?PR?IMU660RA_SIMSPI_R_REG_BYTES?SEEKFREE_IMU660RA
   *DEL*:           00003EH   BYTE   INSEG    CODE           ?PR?IMU660RA_SIMSPI_W_REG_BYTES?SEEKFREE_IMU660RA
   *DEL*:           00001BH   BYTE   INSEG    CODE           ?PR?IMU660RA_SIMSPI_W_REG_BYTE?SEEKFREE_IMU660RA
   *DEL*:           0000AAH   BYTE   INSEG    CODE           ?PR?IMU660RA_INIT?SEEKFREE_IMU660RA
   *DEL*:           000050H   BYTE   INSEG    CODE           ?PR?IMU660RA_GET_ACC?SEEKFREE_IMU660RA
   *DEL*:           00007CH   BYTE   INSEG    CODE           ?PR?IMU660RA_ACC_TRANSITION?SEEKFREE_IMU660RA
   *DEL*:           000026H   BYTE   INSEG    CODE           ?PR?IMU660RA_READ_REGISTERS?SEEKFREE_IMU660RA
   *DEL*:           00008DH   BYTE   INSEG    CODE           ?PR?IMU963RA_ACC_TRANSITION?SEEKFREE_IMU963RA
   *DEL*:           000050H   BYTE   INSEG    CODE           ?PR?IMU963RA_GET_GYRO?SEEKFREE_IMU963RA
   *DEL*:           000051H   BYTE   INSEG    CODE           ?PR?IMU963RA_MAG_TRANSITION?SEEKFREE_IMU963RA
   *DEL*:           0000D2H   BYTE   INSEG    CODE           ?PR?IMU963RA_GYRO_TRANSITION?SEEKFREE_IMU963RA
   *DEL*:           000059H   BYTE   INSEG    CODE           ?PR?IMU963RA_SIMSPI_WR_BYTE?SEEKFREE_IMU963RA
   *DEL*:           00006CH   BYTE   INSEG    CODE           ?PR?IMU963RA_READ_MAG_REGISTER?SEEKFREE_IMU963RA
   *DEL*:           00003AH   BYTE   INSEG    CODE           ?PR?IMU963RA_CONNECT_MAG?SEEKFREE_IMU963RA
   *DEL*:           000026H   BYTE   INSEG    CODE           ?PR?IMU963RA_READ_ACC_GYRO_REGISTERS?SEEKFREE_IMU963RA
   *DEL*:           00007FH   BYTE   INSEG    CODE           ?PR?IMU963RA_WRITE_MAG_REGISTER?SEEKFREE_IMU963RA
L251 LINKER/LOCATER V4.66.93.0                                                        04/15/2024  09:56:15  PAGE 13


   *DEL*:           000023H   BYTE   INSEG    CODE           ?PR?IMU963RA_READ_ACC_GYRO_REGISTER?SEEKFREE_IMU963RA
   *DEL*:           00004BH   BYTE   INSEG    CODE           ?PR?IMU963RA_SIMSPI_R_REG_BYTES?SEEKFREE_IMU963RA
   *DEL*:           00002DH   BYTE   INSEG    CODE           ?PR?IMU963RA_SIMSPI_R_REG_BYTE?SEEKFREE_IMU963RA
   *DEL*:           000051H   BYTE   INSEG    CODE           ?PR?IMU963RA_MAG_SELF_CHECK?SEEKFREE_IMU963RA
   *DEL*:           00001AH   BYTE   INSEG    CODE           ?PR?IMU963RA_WRITE_ACC_GYRO_REGISTER?SEEKFREE_IMU963RA
   *DEL*:           000021H   BYTE   INSEG    CODE           ?PR?IMU963RA_SIMSPI_W_REG_BYTE?SEEKFREE_IMU963RA
   *DEL*:           00011DH   BYTE   INSEG    CODE           ?PR?IMU963RA_INIT?SEEKFREE_IMU963RA
   *DEL*:           00004EH   BYTE   INSEG    CODE           ?PR?IMU963RA_ACC_GYRO_SELF_CHECK?SEEKFREE_IMU963RA
   *DEL*:           000050H   BYTE   INSEG    CODE           ?PR?IMU963RA_GET_ACC?SEEKFREE_IMU963RA
   *DEL*:           00006BH   BYTE   INSEG    CODE           ?PR?IMU963RA_GET_MAG?SEEKFREE_IMU963RA
   *DEL*:           0000A9H   BYTE   INSEG    CODE           ?PR?IPS114_SHOWUINT8_SIMSPI?SEEKFREE_IPS114_SPI
   *DEL*:           0000A5H   BYTE   INSEG    CODE           ?PR?IPS114_SHOWUINT8?SEEKFREE_IPS114_SPI
   *DEL*:           0000EBH   BYTE   INSEG    CODE           ?PR?IPS114_SHOWINT8_SIMSPI?SEEKFREE_IPS114_SPI
   *DEL*:           0000E7H   BYTE   INSEG    CODE           ?PR?IPS114_SHOWINT8?SEEKFREE_IPS114_SPI
   *DEL*:           00002AH   BYTE   INSEG    CODE           ?PR?IPS114_WRITEDATA_16BIT?SEEKFREE_IPS114_SPI
   *DEL*:           000145H   BYTE   INSEG    CODE           ?PR?IPS114_SHOWFLOAT_SIMSPI?SEEKFREE_IPS114_SPI
   *DEL*:           000023H   BYTE   INSEG    CODE           ?PR?IPS114_DRAWPOINT_SIMSPI?SEEKFREE_IPS114_SPI
   *DEL*:           000145H   BYTE   INSEG    CODE           ?PR?IPS114_SHOWFLOAT?SEEKFREE_IPS114_SPI
   *DEL*:           000023H   BYTE   INSEG    CODE           ?PR?IPS114_DRAWPOINT?SEEKFREE_IPS114_SPI
   *DEL*:           0000BFH   BYTE   INSEG    CODE           ?PR?IPS114_SHOWCHAR_SIMSPI?SEEKFREE_IPS114_SPI
   *DEL*:           0000BFH   BYTE   INSEG    CODE           ?PR?IPS114_SHOWCHAR?SEEKFREE_IPS114_SPI
   *DEL*:           0000CDH   BYTE   INSEG    CODE           ?PR?IPS114_SHOWUINT16_SIMSPI?SEEKFREE_IPS114_SPI
   *DEL*:           0000CDH   BYTE   INSEG    CODE           ?PR?IPS114_SHOWUINT16?SEEKFREE_IPS114_SPI
   *DEL*:           0000CEH   BYTE   INSEG    CODE           ?PR?IPS114_SHOWINT32_SIMSPI?SEEKFREE_IPS114_SPI
   *DEL*:           000119H   BYTE   INSEG    CODE           ?PR?IPS114_SHOWINT16_SIMSPI?SEEKFREE_IPS114_SPI
   *DEL*:           0000CEH   BYTE   INSEG    CODE           ?PR?IPS114_SHOWINT32?SEEKFREE_IPS114_SPI
   *DEL*:           000115H   BYTE   INSEG    CODE           ?PR?IPS114_SHOWINT16?SEEKFREE_IPS114_SPI
   *DEL*:           00005FH   BYTE   INSEG    CODE           ?PR?IPS114_CLEAR_SIMSPI?SEEKFREE_IPS114_SPI
   *DEL*:           00005FH   BYTE   INSEG    CODE           ?PR?IPS114_CLEAR?SEEKFREE_IPS114_SPI
   *DEL*:           000055H   BYTE   INSEG    CODE           ?PR?IPS114_WRITEDATAI_16BIT_SIMSPI?SEEKFREE_IPS114_SPI
   *DEL*:           00005DH   BYTE   INSEG    CODE           ?PR?IPS114_SHOWSTR_SIMSPI?SEEKFREE_IPS114_SPI
   *DEL*:           00005DH   BYTE   INSEG    CODE           ?PR?IPS114_SHOWSTR?SEEKFREE_IPS114_SPI
   *DEL*:           00004CH   BYTE   INSEG    CODE           ?PR?IPS114_WRITEINDEX_SIMSPI?SEEKFREE_IPS114_SPI
   *DEL*:           00004CH   BYTE   INSEG    CODE           ?PR?IPS114_WRITEDATA_SIMSPI?SEEKFREE_IPS114_SPI
   *DEL*:           000015H   BYTE   INSEG    CODE           ?PR?IPS114_WRITEINDEX?SEEKFREE_IPS114_SPI
   *DEL*:           000015H   BYTE   INSEG    CODE           ?PR?IPS114_WRITEDATA?SEEKFREE_IPS114_SPI
   *DEL*:           000054H   BYTE   INSEG    CODE           ?PR?IPS114_SET_REGION_SIMSPI?SEEKFREE_IPS114_SPI
   *DEL*:           000154H   BYTE   INSEG    CODE           ?PR?IPS114_INIT_SIMSPI?SEEKFREE_IPS114_SPI
   *DEL*:           000054H   BYTE   INSEG    CODE           ?PR?IPS114_SET_REGION?SEEKFREE_IPS114_SPI
   *DEL*:           000176H   BYTE   INSEG    CODE           ?PR?IPS114_INIT?SEEKFREE_IPS114_SPI
   *DEL*:           000052H   BYTE   INSEG    CODE           ?PR?MPU6050_GET_ACCDATA?SEEKFREE_MPU6050
   *DEL*:           000047H   BYTE   INSEG    CODE           ?PR?OLED_PUTPIXEL?SEEKFREE_OLED
   *DEL*:           00006FH   BYTE   INSEG    CODE           ?PR?OLED_HEXASCII_SPI?SEEKFREE_OLED
   *DEL*:           00044DH   BYTE   INSEG    CODE           ?PR?OLED_DIS_BMP_SPI?SEEKFREE_OLED
   *DEL*:           000121H   BYTE   INSEG    CODE           ?PR?OLED_P8X16STR_SPI?SEEKFREE_OLED
   *DEL*:           000041H   BYTE   INSEG    CODE           ?PR?OLED_CLRPIXEL_SPI?SEEKFREE_OLED
   *DEL*:           0000C0H   BYTE   INSEG    CODE           ?PR?OLED_PRINT_CHINESE_SPI?SEEKFREE_OLED
   *DEL*:           0000CEH   BYTE   INSEG    CODE           ?PR?OLED_PRINTF_INT32?SEEKFREE_OLED
   *DEL*:           000048H   BYTE   INSEG    CODE           ?PR?OLED_PUTPIXEL_SPI?SEEKFREE_OLED
   *DEL*:           000036H   BYTE   INSEG    CODE           ?PR?OLED_SET_POS_SPI?SEEKFREE_OLED
   *DEL*:           000145H   BYTE   INSEG    CODE           ?PR?OLED_PRINTF_FLOAT_SPI?SEEKFREE_OLED
   *DEL*:           000015H   BYTE   INSEG    CODE           ?PR?OLED_WRCMD_SPI?SEEKFREE_OLED
   *DEL*:           000015H   BYTE   INSEG    CODE           ?PR?OLED_WRDAT_SPI?SEEKFREE_OLED
   *DEL*:           00005DH   BYTE   INSEG    CODE           ?PR?OLED_FILL_SPI?SEEKFREE_OLED
   *DEL*:           0000CEH   BYTE   INSEG    CODE           ?PR?OLED_PRINTF_INT32_SPI?SEEKFREE_OLED
   *DEL*:           000027H   BYTE   INSEG    CODE           ?PR?OLED_UINT16_SPI?SEEKFREE_OLED
   *DEL*:           0000D1H   BYTE   INSEG    CODE           ?PR?OLED_P6X8STR_SPI?SEEKFREE_OLED
   *DEL*:           000073H   BYTE   INSEG    CODE           ?PR?OLED_INT16_SPI?SEEKFREE_OLED
   *DEL*:           00046AH   BYTE   INSEG    CODE           ?PR?OLED_DIS_BMP?SEEKFREE_OLED
   *DEL*:           0000C8H   BYTE   INSEG    CODE           ?PR?OLED_INIT_SPI?SEEKFREE_OLED
   *DEL*:           000040H   BYTE   INSEG    CODE           ?PR?OLED_CLRPIXEL?SEEKFREE_OLED
   *DEL*:           0000C0H   BYTE   INSEG    CODE           ?PR?OLED_PRINT_CHINESE?SEEKFREE_OLED
   *DEL*:           00008AH   BYTE   INSEG    CODE           ?PR?CCD_SEND_DATA?SEEKFREE_TSL1401
   *DEL*:           000017H   BYTE   INSEG    CODE           ?PR?CCD_INIT?SEEKFREE_TSL1401
   *DEL*:           00005FH   BYTE   INSEG    CODE           ?PR?CCD_COLLECT?SEEKFREE_TSL1401
L251 LINKER/LOCATER V4.66.93.0                                                        04/15/2024  09:56:15  PAGE 14


   *DEL*:           00009AH   BYTE   INSEG    CODE           ?PR?CRC_CHECK?SEEKFREE_VIRSCO
   *DEL*:           0000DCH   BYTE   INSEG    CODE           ?PR?DATA_CONVERSION?SEEKFREE_VIRSCO
   *DEL*:           00002EH   BYTE   INSEG    CODE           ?PR?WIRELESS_UART_READ_BUFF?SEEKFREE_WIRELESS
   *DEL*:           000073H   BYTE   INSEG    CODE           ?PR?WIRELESS_UART_SEND_BUFF?SEEKFREE_WIRELESS
   *DEL*:           00003EH   BYTE   INSEG    CODE           ?PR?WIRELESS_UART_INIT?SEEKFREE_WIRELESS
   *DEL*:           00001DH   BYTE   INSEG    CODE           ?PR?WIRELESS_UART_SEND_BYTE?SEEKFREE_WIRELESS
   *DEL*:           000012H   BYTE   INSEG    CODE           ?PR?BUZZER?MOTOR
   *DEL*:           0000D5H   BYTE   INSEG    CODE           ?PR?FILTER_1?MOTOR
   *DEL*:           000048H   BYTE   INSEG    CODE           ?PR?L_ENC_INTEGRAL?ENCODER
   *DEL*:           000048H   BYTE   INSEG    CODE           ?PR?R_ENC_INTEGRAL?ENCODER
   *DEL*:           000007H   BYTE   INSEG    CODE           ?PR?ENCODER_READ_PULSE?ENCODER
   *DEL*:           000083H   BYTE   INSEG    CODE           ?PR?DIRCONTROL_2?DIRECTION
   *DEL*:           0000EAH   BYTE   INSEG    CODE           ?PR?ANGLE_RING?DIRECTION
   *DEL*:           000135H   BYTE   INSEG    CODE           ?PR?SEND4DATATOVOFA?VOFA
   *DEL*:           000298H   BYTE   INSEG    CODE           ?PR?ROUNDABOUT?TRACKELEMENT
   *DEL*:           000040H   BYTE   INSEG    CODE           ?PR?SUB_PID?TRACKELEMENT
   *DEL*:           000099H   BYTE   INSEG    CODE           ?PR?CROSSROAD?TRACKELEMENT
   *DEL*:           000038H   BYTE   INSEG    CODE           ?PR?DISTACE?TRACKELEMENT
   *DEL*:           0000DAH   BYTE   INSEG    CODE           ?PR?RIGHT_ANGLE?TRACKELEMENT
   *DEL*:           00008CH   BYTE   INSEG    CODE           ?PR?SPEED_PLAN?TRACKELEMENT
   *DEL*:           00005DH   BYTE   INSEG    CODE           ?PR?CARSTART_MENU?MENU
   *DEL*:           00005DH   BYTE   INSEG    CODE           ?PR?SHOW_ALLVAL?MENU
   *DEL*:           00001AH   BYTE   INSEG    CODE           ?PR?MEMSET?_?MEMSET



OVERLAY MAP OF MODULE:   .\Out_File\SEEKFREE (board)


FUNCTION/MODULE                               EDATA_GROUP
--> CALLED FUNCTION/MODULE                    START  STOP
=========================================================
UART1_Isr/isr                                 ----- -----

*** NEW ROOT ********************************

UART2_Isr/isr                                 ----- -----

*** NEW ROOT ********************************

UART3_Isr/isr                                 ----- -----

*** NEW ROOT ********************************

UART4_Isr/isr                                 ----- -----
  +--> wireless_uart_callback/SEEKFREE_WIRELESS
  +--> bluetooth_ch9141_uart_callback/SEEKFREE_BLUETOOTH_CH9141

wireless_uart_callback/SEEKFREE_WIRELESS      ----- -----
  +--> fifo_write_buffer/zf_fifo

fifo_write_buffer/zf_fifo                     ----- -----
  +--> memcpy?_/memcpy
  +--> fifo_head_offset/zf_fifo

memcpy?_/memcpy                               ----- -----

fifo_head_offset/zf_fifo                      ----- -----

bluetooth_ch9141_uart_callback/SEEKFREE_+     ----- -----
... BLUETOOTH_CH9141
  +--> fifo_write_buffer/zf_fifo

*** NEW ROOT ********************************

L251 LINKER/LOCATER V4.66.93.0                                                        04/15/2024  09:56:15  PAGE 15


INT0_Isr/isr                                  ----- -----

*** NEW ROOT ********************************

INT1_Isr/isr                                  ----- -----

*** NEW ROOT ********************************

INT2_Isr/isr                                  ----- -----

*** NEW ROOT ********************************

INT3_Isr/isr                                  ----- -----

*** NEW ROOT ********************************

INT4_Isr/isr                                  ----- -----

*** NEW ROOT ********************************

TM0_Isr/isr                                   ----- -----

*** NEW ROOT ********************************

TM1_Isr/isr                                   ----- -----

*** NEW ROOT ********************************

TM2_Isr/isr                                   ----- -----

*** NEW ROOT ********************************

TM3_Isr/isr                                   ----- -----

*** NEW ROOT ********************************

TM4_Isr/encoder                               ----- -----
  +--> L_Encoder_Pulse/encoder
  +--> R_Encoder_Pulse/encoder
  +--> NORMALIZATION_TRACKING_ADC/Inductance
  +--> Error_Speed/TrackElement
  +--> Tracking/TrackElement
  +--> ctimer_count_clean/zf_tim

L_Encoder_Pulse/encoder                       ----- -----
  +--> ctimer_count_read/zf_tim

ctimer_count_read/zf_tim                      ----- -----

R_Encoder_Pulse/encoder                       ----- -----
  +--> ctimer_count_read/zf_tim

NORMALIZATION_TRACKING_ADC/Inductance         ----- -----
  +--> adc_once/zf_adc
  +--> FCASTI/STC32F_FPMU
  +--> FPDIV/STC32F_FPMU
  +--> FPCMP/STC32F_FPMU
  +--> FPMUL/STC32F_FPMU
  +--> CASTF/STC32F_FPMU
  +--> sq/Inductance

adc_once/zf_adc                               ----- -----

FCASTI/STC32F_FPMU                            ----- -----

L251 LINKER/LOCATER V4.66.93.0                                                        04/15/2024  09:56:15  PAGE 16


FPDIV/STC32F_FPMU                             ----- -----

FPCMP/STC32F_FPMU                             ----- -----

FPMUL/STC32F_FPMU                             ----- -----

CASTF/STC32F_FPMU                             ----- -----

sq/Inductance                                 ----- -----
  +--> FPMUL/STC32F_FPMU
  +--> FPSUB/STC32F_FPMU

FPSUB/STC32F_FPMU                             ----- -----

Error_Speed/TrackElement                      ----- -----
  +--> FCASTI/STC32F_FPMU
  +--> FPMUL/STC32F_FPMU
  +--> CASTF/STC32F_FPMU

Tracking/TrackElement                         ----- -----
  +--> DirControl/direction
  +--> Speed_pid_Out/Motor
  +--> Motor_PWM/Motor

DirControl/direction                          ----- -----
  +--> wh_Turn_Out/direction
  +--> nh_Turn_Out/direction

wh_Turn_Out/direction                         ----- -----
  +--> FCASTI/STC32F_FPMU
  +--> FPSUB/STC32F_FPMU
  +--> FPMUL/STC32F_FPMU
  +--> FPADD/STC32F_FPMU
  +--> CASTF/STC32F_FPMU
  +--> limit/Motor

FPADD/STC32F_FPMU                             ----- -----

limit/Motor                                   ----- -----

nh_Turn_Out/direction                         ----- -----
  +--> Get_Angle/mpu6050
  +--> FPMUL/STC32F_FPMU
  +--> FCASTI/STC32F_FPMU
  +--> FPSUB/STC32F_FPMU
  +--> FPADD/STC32F_FPMU
  +--> CASTF/STC32F_FPMU
  +--> limit/Motor

Get_Angle/mpu6050                             ----- -----
  +--> gyro_zero_wander/mpu6050
  +--> FCASTI/STC32F_FPMU
  +--> FPSUB/STC32F_FPMU
  +--> lowPassFilter/mpu6050
  +--> CASTF/STC32F_FPMU
  +--> medianFilter1/mpu6050

gyro_zero_wander/mpu6050                      ----- -----
  +--> FCASTI/STC32F_FPMU
  +--> FPADD/STC32F_FPMU
  +--> FPDIV/STC32F_FPMU

lowPassFilter/mpu6050                         ----- -----
  +--> FPSUB/STC32F_FPMU
  +--> FPMUL/STC32F_FPMU
L251 LINKER/LOCATER V4.66.93.0                                                        04/15/2024  09:56:15  PAGE 17


  +--> FPADD/STC32F_FPMU

medianFilter1/mpu6050                         ----- -----

Speed_pid_Out/Motor                           ----- -----
  +--> FCASTI/STC32F_FPMU
  +--> CASTF/STC32F_FPMU
  +--> abs?_/ABS
  +--> FPMUL/STC32F_FPMU
  +--> FPADD/STC32F_FPMU
  +--> FPCMP/STC32F_FPMU
  +--> limit/Motor

abs?_/ABS                                     ----- -----

Motor_PWM/Motor                               ----- -----
  +--> FCASTI/STC32F_FPMU
  +--> FPMUL/STC32F_FPMU
  +--> CASTF/STC32F_FPMU
  +--> abs?_/ABS
  +--> pwm_duty/zf_pwm

pwm_duty/zf_pwm                               ----- -----
  +--> FCASTL/STC32F_FPMU
  +--> FPDIV/STC32F_FPMU
  +--> FPMUL/STC32F_FPMU
  +--> CASTF/STC32F_FPMU

FCASTL/STC32F_FPMU                            ----- -----

ctimer_count_clean/zf_tim                     ----- -----

*** NEW ROOT ********************************

?C_C51STARTUP                                 ----- -----

*** NEW ROOT ********************************

?C_C51STARTUP?3                               ----- -----
  +--> main/main

main/main                                     ----- -----
  +--> clock_init/board
  +--> board_init/board
  +--> mpu6050_init/SEEKFREE_MPU6050
  +--> uart_init/zf_uart
  +--> oled_init/SEEKFREE_OLED
  +--> oled_fill/SEEKFREE_OLED
  +--> delay_init/zf_delay
  +--> Inductance_Init/Inductance
  +--> Motor_Init/Motor
  +--> Motor_SET_PID/Motor
  +--> mpu6050_get_gyro/SEEKFREE_MPU6050
  +--> First_menu/menu
  +--> Second_Element_menu/menu
  +--> Second_Motor_menu/menu
  +--> Second__NWHuan_menu/menu
  +--> Second__Speed_menu/menu
  +--> Show_Val_Menu/menu
  +--> oled_printf_float/SEEKFREE_OLED
  +--> Encoder_Time_Init/encoder

clock_init/board                              ----- -----
  +--> set_clk/board

L251 LINKER/LOCATER V4.66.93.0                                                        04/15/2024  09:56:15  PAGE 18


set_clk/board                                 ----- -----

board_init/board                              ----- -----
  +--> delay_init/zf_delay
  +--> ICacheOn/board
  +--> uart_init/zf_uart
  +--> EnableGlobalIRQ/board

delay_init/zf_delay                           ----- -----
  +--> ?C?SLDIV/?C?SLDIV

?C?SLDIV/?C?SLDIV                             ----- -----
  +--> ?C?ULIDIV/?C?ULDIV

?C?ULIDIV/?C?ULDIV                            ----- -----

ICacheOn/board                                ----- -----

uart_init/zf_uart                             ----- -----
  +--> ?C?ULIDIV/?C?ULDIV

EnableGlobalIRQ/board                         ----- -----

mpu6050_init/SEEKFREE_MPU6050                 ----- -----
  +--> delay_ms/zf_delay
  +--> mpu6050_self1_check/SEEKFREE_MPU6050
  +--> mpu6050_simiic_write_reg/SEEKFREE_MPU6050

delay_ms/zf_delay                             ----- -----

mpu6050_self1_check/SEEKFREE_MPU6050          ----- -----
  +--> mpu6050_simiic_write_reg/SEEKFREE_MPU6050
  +--> mpu6050_simiic_read_reg/SEEKFREE_MPU6050
  +--> PRINTF/PRINTF

mpu6050_simiic_write_reg/SEEKFREE_MPU605+     ----- -----
... 0
  +--> mpu6050_simiic_start/SEEKFREE_MPU6050
  +--> mpu6050_send_ch/SEEKFREE_MPU6050
  +--> mpu6050_simiic_stop/SEEKFREE_MPU6050

mpu6050_simiic_start/SEEKFREE_MPU6050         ----- -----
  +--> mpu6050_simiic_delay/SEEKFREE_MPU6050

mpu6050_simiic_delay/SEEKFREE_MPU6050         ----- -----

mpu6050_send_ch/SEEKFREE_MPU6050              ----- -----
  +--> mpu6050_simiic_delay/SEEKFREE_MPU6050
  +--> mpu6050_sccb_waitack/SEEKFREE_MPU6050

mpu6050_sccb_waitack/SEEKFREE_MPU6050         ----- -----
  +--> mpu6050_simiic_delay/SEEKFREE_MPU6050

mpu6050_simiic_stop/SEEKFREE_MPU6050          ----- -----
  +--> mpu6050_simiic_delay/SEEKFREE_MPU6050

mpu6050_simiic_read_reg/SEEKFREE_MPU6050      ----- -----
  +--> mpu6050_simiic_start/SEEKFREE_MPU6050
  +--> mpu6050_send_ch/SEEKFREE_MPU6050
  +--> mpu6050_read_ch/SEEKFREE_MPU6050
  +--> mpu6050_simiic_stop/SEEKFREE_MPU6050

mpu6050_read_ch/SEEKFREE_MPU6050              ----- -----
  +--> mpu6050_simiic_delay/SEEKFREE_MPU6050
  +--> mpu6050_simiic_sendack/SEEKFREE_MPU6050
L251 LINKER/LOCATER V4.66.93.0                                                        04/15/2024  09:56:15  PAGE 19



mpu6050_simiic_sendack/SEEKFREE_MPU6050       ----- -----
  +--> mpu6050_simiic_delay/SEEKFREE_MPU6050

PRINTF/PRINTF                                 0739H 0760H
  +--> OUT/PRINTF

OUT/PRINTF                                    ----- -----
  +--> PUTCH/PRINTF

PUTCH/PRINTF                                  ----- -----
  +--> putchar/board
  +--> OUT/PRINTF

putchar/board                                 ----- -----
  +--> uart_putchar/zf_uart

uart_putchar/zf_uart                          ----- -----

oled_init/SEEKFREE_OLED                       ----- -----
  +--> delay_ms/zf_delay
  +--> oled_wrcmd/SEEKFREE_OLED
  +--> oled_fill/SEEKFREE_OLED
  +--> oled_set_pos/SEEKFREE_OLED

oled_wrcmd/SEEKFREE_OLED                      ----- -----

oled_fill/SEEKFREE_OLED                       ----- -----
  +--> oled_wrcmd/SEEKFREE_OLED
  +--> oled_wrdat/SEEKFREE_OLED

oled_wrdat/SEEKFREE_OLED                      ----- -----

oled_set_pos/SEEKFREE_OLED                    ----- -----
  +--> oled_wrcmd/SEEKFREE_OLED

Inductance_Init/Inductance                    ----- -----
  +--> adc_init/zf_adc

adc_init/zf_adc                               ----- -----

Motor_Init/Motor                              ----- -----
  +--> gpio_mode/zf_gpio
  +--> pwm_init/zf_pwm

gpio_mode/zf_gpio                             ----- -----

pwm_init/zf_pwm                               ----- -----
  +--> pwm_set_gpio/zf_pwm
  +--> ?C?ULIDIV/?C?ULDIV
  +--> FCASTL/STC32F_FPMU
  +--> FPDIV/STC32F_FPMU
  +--> FPMUL/STC32F_FPMU
  +--> CASTF/STC32F_FPMU

pwm_set_gpio/zf_pwm                           ----- -----
  +--> gpio_mode/zf_gpio

Motor_SET_PID/Motor                           ----- -----

mpu6050_get_gyro/SEEKFREE_MPU6050             ----- -----
  +--> mpu6050_simiic_read_regs/SEEKFREE_MPU6050

mpu6050_simiic_read_regs/SEEKFREE_MPU605+     ----- -----
... 0
L251 LINKER/LOCATER V4.66.93.0                                                        04/15/2024  09:56:15  PAGE 20


  +--> mpu6050_simiic_start/SEEKFREE_MPU6050
  +--> mpu6050_send_ch/SEEKFREE_MPU6050
  +--> mpu6050_read_ch/SEEKFREE_MPU6050
  +--> mpu6050_simiic_stop/SEEKFREE_MPU6050

First_menu/menu                               ----- -----
  +--> oled_p6x8str/SEEKFREE_OLED
  +--> delay_ms/zf_delay
  +--> oled_fill/SEEKFREE_OLED

oled_p6x8str/SEEKFREE_OLED                    ----- -----
  +--> oled_set_pos/SEEKFREE_OLED
  +--> oled_wrdat/SEEKFREE_OLED

Second_Element_menu/menu                      ----- -----
  +--> oled_p8x16str/SEEKFREE_OLED
  +--> delay_ms/zf_delay
  +--> oled_fill/SEEKFREE_OLED
  +--> oled_uint16_px8/SEEKFREE_OLED

oled_p8x16str/SEEKFREE_OLED                   ----- -----
  +--> oled_set_pos/SEEKFREE_OLED
  +--> oled_wrdat/SEEKFREE_OLED

oled_uint16_px8/SEEKFREE_OLED                 ----- -----
  +--> oled_hexascii/SEEKFREE_OLED
  +--> oled_p8x16str/SEEKFREE_OLED

oled_hexascii/SEEKFREE_OLED                   ----- -----

Second_Motor_menu/menu                        ----- -----
  +--> oled_p8x16str/SEEKFREE_OLED
  +--> oled_printf_float_px8/SEEKFREE_OLED
  +--> delay_ms/zf_delay
  +--> FCASTI/STC32F_FPMU
  +--> FPMUL/STC32F_FPMU
  +--> FPADD/STC32F_FPMU
  +--> oled_fill/SEEKFREE_OLED

oled_printf_float_px8/SEEKFREE_OLED           ----- -----
  +--> FPCMP/STC32F_FPMU
  +--> zf_sprintf/SEEKFREE_PRINTF
  +--> oled_p8x16str/SEEKFREE_OLED

zf_sprintf/SEEKFREE_PRINTF                    ----- -----
  +--> number_conversion_ascii/SEEKFREE_PRINTF
  +--> printf_reverse_order/SEEKFREE_PRINTF
  +--> memcpy?_/memcpy
  +--> CASTF/STC32F_FPMU
  +--> FPCMP/STC32F_FPMU
  +--> FCASTL/STC32F_FPMU
  +--> FPSUB/STC32F_FPMU
  +--> FPMUL/STC32F_FPMU

number_conversion_ascii/SEEKFREE_PRINTF       ----- -----
  +--> ?C?SLDIV/?C?SLDIV
  +--> ?C?ULIDIV/?C?ULDIV

printf_reverse_order/SEEKFREE_PRINTF          ----- -----

Second__NWHuan_menu/menu                      ----- -----
  +--> oled_fill/SEEKFREE_OLED
  +--> delay_ms/zf_delay
  +--> oled_p8x16str/SEEKFREE_OLED
  +--> oled_printf_float_px8/SEEKFREE_OLED
L251 LINKER/LOCATER V4.66.93.0                                                        04/15/2024  09:56:15  PAGE 21


  +--> FCASTI/STC32F_FPMU
  +--> FPMUL/STC32F_FPMU
  +--> FPADD/STC32F_FPMU

Second__Speed_menu/menu                       ----- -----
  +--> oled_fill/SEEKFREE_OLED
  +--> oled_p8x16str/SEEKFREE_OLED
  +--> oled_uint16_px8/SEEKFREE_OLED
  +--> delay_ms/zf_delay

Show_Val_Menu/menu                            ----- -----
  +--> NORMALIZATION_TRACKING_ADC/Inductance
  +--> show_val/Inductance
  +--> mpu6050_get_gyro/SEEKFREE_MPU6050
  +--> delay_ms/zf_delay
  +--> oled_fill/SEEKFREE_OLED

show_val/Inductance                           ----- -----
  +--> oled_p6x8str/SEEKFREE_OLED
  +--> oled_uint16/SEEKFREE_OLED
  +--> oled_int16/SEEKFREE_OLED
  +--> Get_Angle/mpu6050
  +--> oled_printf_float/SEEKFREE_OLED

oled_uint16/SEEKFREE_OLED                     ----- -----
  +--> oled_hexascii/SEEKFREE_OLED
  +--> oled_p6x8str/SEEKFREE_OLED

oled_int16/SEEKFREE_OLED                      ----- -----
  +--> oled_p6x8str/SEEKFREE_OLED
  +--> oled_hexascii/SEEKFREE_OLED

oled_printf_float/SEEKFREE_OLED               ----- -----
  +--> FPCMP/STC32F_FPMU
  +--> zf_sprintf/SEEKFREE_PRINTF
  +--> oled_p6x8str/SEEKFREE_OLED

Encoder_Time_Init/encoder                     ----- -----
  +--> pit_timer_ms/zf_tim
  +--> gpio_mode/zf_gpio
  +--> ctimer_count_init/zf_tim
  +--> EnableGlobalIRQ/board

pit_timer_ms/zf_tim                           ----- -----
  +--> ?C?SLDIV/?C?SLDIV

ctimer_count_init/zf_tim                      ----- -----

*** NEW ROOT ********************************

?C_C51STARTUP?2                               ----- -----



PUBLIC SYMBOLS OF MODULE:  .\Out_File\SEEKFREE (board)


      VALUE       CLASS    TYPE      PUBLIC SYMBOL NAME
      =================================================
      00000780H   EDATA    BYTE      ?Angle_Ring?BYTE
      00FF45CAH   CODE     ---       ?C?BMOVENP
      00FF45C8H   CODE     ---       ?C?BMOVENP8
      00FF8E83H   CODE     ---       ?C?CASTF
      000000FFH   NUMBER   ---       ?C?CODESEG
*DEL*:00000000H   CODE     ---       ?C?FCASTC
L251 LINKER/LOCATER V4.66.93.0                                                        04/15/2024  09:56:15  PAGE 22


      00FF8E89H   CODE     ---       ?C?FCASTI
      00FF005EH   CODE     ---       ?C?FCASTL
      00FF000EH   CODE     ---       ?C?FPADD
      00FF0046H   CODE     ---       ?C?FPCMP3
      00FF4393H   CODE     ---       ?C?FPCONVERT
      00FF0056H   CODE     ---       ?C?FPDIV
      00FF001EH   CODE     ---       ?C?FPMUL
*DEL*:00000000H   CODE     ---       ?C?FPNEG
      00FF444BH   CODE     ---       ?C?FPROUND
      00FF0016H   CODE     ---       ?C?FPSUB
      00FF44BEH   CODE     ---       ?C?FTNPWR
      00FF8A7AH   CODE     ---       ?C?INITEDATA
      00FF9248H   HCONST   WORD      ?C?INITEDATA_END
      00FF4538H   CODE     ---       ?C?LIMUL
      00FF4527H   CODE     ---       ?C?LMUL
      00FF3F76H   CODE     ---       ?C?PRNFMT
      00FF44F5H   CODE     ---       ?C?SIDIV
      00FF4594H   CODE     NEAR LAB  ?C?SLDIV
      00FF0000H   CODE     ---       ?C?STARTUP
      00FF4543H   CODE     NEAR LAB  ?C?ULDIV
      00FF4541H   CODE     NEAR LAB  ?C?ULIDIV
      00000001H   NUMBER   ---       ?C?XDATASEG
      00FF0000H   CODE     ---       ?C_STARTUP
      00000962H   EDATA    BYTE      ?data_conversion?BYTE
      000007D6H   EDATA    BYTE      ?DirControl_2?BYTE
      00000998H   EDATA    BYTE      ?fifo_init?BYTE
      000008B1H   EDATA    BYTE      ?fifo_read_buffer?BYTE
      000008FAH   EDATA    BYTE      ?fifo_write_buffer?BYTE
      00000AB3H   EDATA    BYTE      ?iap_read_bytes?BYTE
      00000ABDH   EDATA    BYTE      ?iap_write_bytes?BYTE
      00000CB2H   EDATA    BYTE      ?iic_init?BYTE
      000004C2H   EDATA    BYTE      ?ips114_showfloat?BYTE
      00000492H   EDATA    BYTE      ?ips114_showfloat_simspi?BYTE
      00000462H   EDATA    BYTE      ?lcd_showfloat?BYTE
      00000432H   EDATA    BYTE      ?lcd_showfloat_simspi?BYTE
      00000A70H   EDATA    BYTE      ?lowPassFilter?BYTE
      00000A64H   EDATA    BYTE      ?Motor_SET_PID?BYTE
      00000820H   EDATA    BYTE      ?nh_Turn_Out?BYTE
      00000889H   EDATA    BYTE      ?number_conversion_ascii?BYTE
      00000522H   EDATA    BYTE      ?oled_printf_float?BYTE
      000004F2H   EDATA    BYTE      ?oled_printf_float_px8?BYTE
      00000552H   EDATA    BYTE      ?oled_printf_float_spi?BYTE
      00000761H   EDATA    ---       ?printf?BYTE
      00000875H   EDATA    BYTE      ?pwm_freq?BYTE
      00000861H   EDATA    BYTE      ?pwm_init?BYTE
      00000832H   EDATA    BYTE      ?Send4DataToVofa?BYTE
      00000C73H   EDATA    BYTE      ?spi_init?BYTE
      00000938H   EDATA    BYTE      ?uart_init?BYTE
      0000080AH   EDATA    BYTE      ?wh_Turn_Out?BYTE
      00000319H   EDATA    BYTE      ?zf_sprintf?BYTE
      00FF8E69H   CODE     ---       abs?_
*SFR* 000000E0H   DATA     BYTE      ACC
      0000006CH   EDATA    INT       ad_diff
      00000032H   EDATA    ---       AD_NOR_VAL
      00000104H   EDATA    INT       ad_sum
      0000006EH   EDATA    ---       ad_value
*SFR* 000000BCH   DATA     BYTE      ADC_CONTR
      00FF7DB3H   CODE     ---       adc_init
      00000022H   EDATA    ---       ADC_MAX
      00000014H   EDATA    ---       ADC_MIN
      00FF8764H   CODE     ---       adc_once
*SFR* 000000BDH   DATA     BYTE      ADC_RES
*SFR* 000000BEH   DATA     BYTE      ADC_RESL
*SFR* 000000DEH   DATA     BYTE      ADCCFG
      000007C4H   EDATA    FLOAT     angle1
L251 LINKER/LOCATER V4.66.93.0                                                        04/15/2024  09:56:15  PAGE 23


      000002A9H   EDATA    FLOAT     Angle4
      00000295H   EDATA    FLOAT     Angle_D
      000002D9H   EDATA    INT       ANGLE_FLAG
      0000029DH   EDATA    FLOAT     Angle_I
      000002DDH   EDATA    FLOAT     angle_jifen
      000002A5H   EDATA    FLOAT     Angle_P
*DEL*:00000000H   CODE     ---       Angle_Ring
*DEL*:00000000H   CODE     ---       ATAN?_
*SFR* 000000EFH   DATA     BYTE      AUXINTIF
*SFR* 0000008EH   DATA     BYTE      AUXR
*SFR* 00000097H   DATA     BYTE      AUXR2
*DEL*:00000000H   CODE     ---       bluetooth_ch9141_init
*DEL*:00000000H   CODE     ---       bluetooth_ch9141_read_buff
*DEL*:00000000H   CODE     ---       bluetooth_ch9141_send_buff
      00FF0066H   CODE     ---       bluetooth_ch9141_uart_callback
      000002C5H   EDATA    LONG      bmq_jifen
      00FF80E0H   CODE     ---       board_init
      0000006AH   EDATA    INT       bug
      00000D4CH   EDATA    ---       busy
*DEL*:00000000H   CODE     ---       Buzzer
*SFR* 000000F1H   DATA     BYTE      CANICR
*DEL*:00000000H   CODE     ---       CarStart_Menu
*DEL*:00000000H   CODE     ---       ccd_collect
      00000111H   EDATA    ---       ccd_data
*DEL*:00000000H   CODE     ---       ccd_init
*DEL*:00000000H   CODE     ---       ccd_send_data
      00FF8E1FH   CODE     ---       clock_init
*SFR* 000000E6H   DATA     BYTE      CMPCR1
*SFR* 000000E7H   DATA     BYTE      CMPCR2
*DEL*:00000000H   CODE     ---       COS?_
*DEL*:00000000H   CODE     ---       CRC_CHECK
*DEL*:00000000H   CODE     ---       Crossroad
      00FF8652H   CODE     ---       ctimer_count_clean
      00FF87BAH   CODE     ---       ctimer_count_init
      00FF7E68H   CODE     ---       ctimer_count_read
*DEL*:00000000H   CODE     ---       data_conversion
      00000211H   EDATA    ---       DataToSend
      00FF8D3EH   CODE     ---       delay_init
      00FF8B58H   CODE     ---       delay_ms
*DEL*:00000000H   CODE     ---       delay_us
      000007CAH   EDATA    INT       dir_out
      00FF870CH   CODE     ---       DirControl
*DEL*:00000000H   CODE     ---       DirControl_2
*DEL*:00000000H   CODE     ---       DisableGlobalIRQ
*DEL*:00000000H   CODE     ---       disalbe_icache
*DEL*:00000000H   CODE     ---       Distace
      000002C1H   EDATA    LONG      Distance
      000002CFH   EDATA    INT       DISTANCE_FLAG
      00000E07H   EDATA    WORD      dl1a_distance_mm
      00000E09H   EDATA    BYTE      dl1a_finsh_flag
*DEL*:00000000H   CODE     ---       dl1a_get_distance
*DEL*:00000000H   CODE     ---       dl1a_init
      00FF00A6H   CODE     ---       dl1b_default_configuration
*SFR* 000000EDH   DATA     BYTE      DMAIR
*SFR* 00000083H   DATA     BYTE      DPH
*SFR* 00000082H   DATA     BYTE      DPL
*SFR* 000000A8H.7 DATA     BIT       EA
*DEL*:00000000H   CODE     ---       eeprom_trig
      000002B3H   EDATA    ---       Element_Order
      00FF0006H   CODE     ---       EnableGlobalIRQ
*DEL*:00000000H   CODE     ---       enalbe_icache
*DEL*:00000000H   CODE     ---       encoder_angle_simspi
*DEL*:00000000H   CODE     ---       encoder_angle_spi
*DEL*:00000000H   CODE     ---       encoder_delay_us
*DEL*:00000000H   CODE     ---       encoder_init_simspi
L251 LINKER/LOCATER V4.66.93.0                                                        04/15/2024  09:56:15  PAGE 24


*DEL*:00000000H   CODE     ---       encoder_init_spi
*DEL*:00000000H   CODE     ---       Encoder_Read_Pulse
*DEL*:00000000H   CODE     ---       encoder_self4_check
*DEL*:00000000H   CODE     ---       encoder_self5_check
*DEL*:00000000H   CODE     ---       encoder_simspi_r_reg_byte
*DEL*:00000000H   CODE     ---       encoder_simspi_w_reg_byte
*DEL*:00000000H   CODE     ---       encoder_spi_r_reg_byte
*DEL*:00000000H   CODE     ---       encoder_spi_w_reg_byte
      00FF8BF5H   CODE     ---       Encoder_Time_Init
      000002ADH   EDATA    INT       Err_speed
      00FF7549H   CODE     ---       Error_Speed
*SFR* 000000A8H.4 DATA     BIT       ES
*SFR* 000000A8H.1 DATA     BIT       ET0
*SFR* 000000A8H.3 DATA     BIT       ET1
*SFR* 000000A8H.0 DATA     BIT       EX0
*SFR* 000000A8H.2 DATA     BIT       EX1
*DEL*:00000000H   CODE     ---       exit_init
*SFR* 000000D0H.5 DATA     BIT       F0
*DEL*:00000000H   CODE     ---       FABS?_
*DEL*:00000000H   CODE     ---       FCLEX
*DEL*:00000000H   CODE     ---       fifo_clear
*DEL*:00000000H   CODE     ---       fifo_end_offset
      00FF8387H   CODE     ---       fifo_head_offset
*DEL*:00000000H   CODE     ---       fifo_init
*DEL*:00000000H   CODE     ---       fifo_read_buffer
*DEL*:00000000H   CODE     ---       fifo_used
      00FF6F93H   CODE     ---       fifo_write_buffer
*DEL*:00000000H   CODE     ---       filter_1
*DEL*:00000000H   CODE     ---       FINIT
      00FF6495H   CODE     ---       First_menu
      00000DDBH   EDATA    INT       flag
*DEL*:00000000H   CODE     ---       FPCRR
*DEL*:00000000H   CODE     ---       FPCRW
*DEL*:00000000H   CODE     ---       FPSRR
*DEL*:00000000H   CODE     ---       FPSRW
*DEL*:00000000H   CODE     ---       FXAM
      00FF781CH   CODE     ---       Get_Angle
      00FF2F35H   CODE     ---       gpio_mode
*DEL*:00000000H   CODE     ---       gpio_pull_set
      00FF82AEH   CODE     ---       gyro_zero_wander
*SFR* 000000F6H   DATA     BYTE      IAP_ADDRE
*SFR* 000000C3H   DATA     BYTE      IAP_ADDRH
*SFR* 000000C4H   DATA     BYTE      IAP_ADDRL
*SFR* 000000C5H   DATA     BYTE      IAP_CMD
*SFR* 000000C7H   DATA     BYTE      IAP_CONTR
*SFR* 000000C2H   DATA     BYTE      IAP_DATA
*DEL*:00000000H   CODE     ---       iap_erase_page
*DEL*:00000000H   CODE     ---       iap_get_cmd_state
*DEL*:00000000H   CODE     ---       iap_idle
*DEL*:00000000H   CODE     ---       iap_init
*DEL*:00000000H   CODE     ---       iap_read_bytes
*DEL*:00000000H   CODE     ---       iap_set_tps
*SFR* 000000F5H   DATA     BYTE      IAP_TPS
*SFR* 000000C6H   DATA     BYTE      IAP_TRIG
*DEL*:00000000H   CODE     ---       iap_write_bytes
      00FF8E58H   CODE     ---       ICacheOn
*SFR* 000000F7H   DATA     BYTE      ICHECR
*DEL*:00000000H   CODE     ---       icm20602_acc_transition
      00000A04H   EDATA    INT       icm20602_acc_x
      00000A06H   EDATA    INT       icm20602_acc_y
      00000A08H   EDATA    INT       icm20602_acc_z
*DEL*:00000000H   CODE     ---       icm20602_get_acc
*DEL*:00000000H   CODE     ---       icm20602_get_gyro
*DEL*:00000000H   CODE     ---       icm20602_gyro_transition
      00000A0AH   EDATA    INT       icm20602_gyro_x
L251 LINKER/LOCATER V4.66.93.0                                                        04/15/2024  09:56:15  PAGE 25


      00000A0CH   EDATA    INT       icm20602_gyro_y
      00000A0EH   EDATA    INT       icm20602_gyro_z
*DEL*:00000000H   CODE     ---       icm20602_init
*SFR* 000000A8H   DATA     BYTE      IE
*SFR* 000000AFH   DATA     BYTE      IE2
*DEL*:00000000H   CODE     ---       iic_change_pin
*DEL*:00000000H   CODE     ---       iic_delay_us
*DEL*:00000000H   CODE     ---       iic_init
*DEL*:00000000H   CODE     ---       iic_read_reg
*DEL*:00000000H   CODE     ---       iic_read_reg_bytes
*DEL*:00000000H   CODE     ---       iic_write_reg
*DEL*:00000000H   CODE     ---       imu660ra_acc_transition
      00000A10H   EDATA    INT       imu660ra_acc_x
      00000A12H   EDATA    INT       imu660ra_acc_y
      00000A14H   EDATA    INT       imu660ra_acc_z
      00FF012DH   CODE     ---       imu660ra_config_file
*DEL*:00000000H   CODE     ---       imu660ra_get_acc
*DEL*:00000000H   CODE     ---       imu660ra_get_gyro
*DEL*:00000000H   CODE     ---       imu660ra_gyro_transition
      00000A16H   EDATA    INT       imu660ra_gyro_x
      00000A18H   EDATA    INT       imu660ra_gyro_y
      00000A1AH   EDATA    INT       imu660ra_gyro_z
*DEL*:00000000H   CODE     ---       imu660ra_init
*DEL*:00000000H   CODE     ---       imu963ra_acc_transition
      000008C4H   EDATA    INT       imu963ra_acc_x
      000008C6H   EDATA    INT       imu963ra_acc_y
      000008C8H   EDATA    INT       imu963ra_acc_z
*DEL*:00000000H   CODE     ---       imu963ra_get_acc
*DEL*:00000000H   CODE     ---       imu963ra_get_gyro
*DEL*:00000000H   CODE     ---       imu963ra_get_mag
*DEL*:00000000H   CODE     ---       imu963ra_gyro_transition
      000008D0H   EDATA    INT       imu963ra_gyro_x
      000008D2H   EDATA    INT       imu963ra_gyro_y
      000008D4H   EDATA    INT       imu963ra_gyro_z
*DEL*:00000000H   CODE     ---       imu963ra_init
*DEL*:00000000H   CODE     ---       imu963ra_mag_transition
      000008CAH   EDATA    INT       imu963ra_mag_x
      000008CCH   EDATA    INT       imu963ra_mag_y
      000008CEH   EDATA    INT       imu963ra_mag_z
      000000FAH   EDATA    INT       Inductance_Error
      00FF89DEH   CODE     ---       Inductance_Init
      00FF0086H   CODE     ---       INT0_Isr
      00FF000AH   CODE     ---       INT1_Isr
      00FF008EH   CODE     ---       INT2_Isr
      00FF0096H   CODE     ---       INT3_Isr
      00FF009EH   CODE     ---       INT4_Isr
*SFR* 0000008FH   DATA     BYTE      INTCLKO
*SFR* 000000B8H   DATA     BYTE      IP
*SFR* 000000B5H   DATA     BYTE      IP2
*SFR* 000000B6H   DATA     BYTE      IP2H
*SFR* 000000DFH   DATA     BYTE      IP3
*SFR* 000000EEH   DATA     BYTE      IP3H
*SFR* 000000B7H   DATA     BYTE      IPH
*DEL*:00000000H   CODE     ---       ips114_clear
*DEL*:00000000H   CODE     ---       ips114_clear_simspi
*DEL*:00000000H   CODE     ---       ips114_drawpoint
*DEL*:00000000H   CODE     ---       ips114_drawpoint_simspi
*DEL*:00000000H   CODE     ---       ips114_init
*DEL*:00000000H   CODE     ---       ips114_init_simspi
*DEL*:00000000H   CODE     ---       ips114_set_region
*DEL*:00000000H   CODE     ---       ips114_set_region_simspi
*DEL*:00000000H   CODE     ---       ips114_showchar
*DEL*:00000000H   CODE     ---       ips114_showchar_simspi
*DEL*:00000000H   CODE     ---       ips114_showfloat
*DEL*:00000000H   CODE     ---       ips114_showfloat_simspi
L251 LINKER/LOCATER V4.66.93.0                                                        04/15/2024  09:56:15  PAGE 26


*DEL*:00000000H   CODE     ---       ips114_showint16
*DEL*:00000000H   CODE     ---       ips114_showint16_simspi
*DEL*:00000000H   CODE     ---       ips114_showint32
*DEL*:00000000H   CODE     ---       ips114_showint32_simspi
*DEL*:00000000H   CODE     ---       ips114_showint8
*DEL*:00000000H   CODE     ---       ips114_showint8_simspi
*DEL*:00000000H   CODE     ---       ips114_showstr
*DEL*:00000000H   CODE     ---       ips114_showstr_simspi
*DEL*:00000000H   CODE     ---       ips114_showuint16
*DEL*:00000000H   CODE     ---       ips114_showuint16_simspi
*DEL*:00000000H   CODE     ---       ips114_showuint8
*DEL*:00000000H   CODE     ---       ips114_showuint8_simspi
*DEL*:00000000H   CODE     ---       ips114_writeData
*DEL*:00000000H   CODE     ---       ips114_writedata_16bit
*DEL*:00000000H   CODE     ---       ips114_writeData_simspi
*DEL*:00000000H   CODE     ---       ips114_writeDatai_16bit_simspi
*DEL*:00000000H   CODE     ---       ips114_writeIndex
*DEL*:00000000H   CODE     ---       ips114_writeIndex_simspi
*SFR* 0000009DH   DATA     BYTE      IRCBAND
*SFR* 0000009FH   DATA     BYTE      IRTRIM
*SFR* 00000088H.0 DATA     BIT       IT0
*SFR* 00000088H.2 DATA     BIT       IT1
      00000108H   EDATA    WORD      L1
      000000FCH   EDATA    WORD      L1_NOR_ADC
      0000010EH   EDATA    WORD      L2
      00000100H   EDATA    WORD      L2_NOR_ADC
      0000000AH   EDATA    WORD      L3
      00000102H   EDATA    WORD      L3_NOR_ADC
*DEL*:00000000H   CODE     ---       L_Enc_integral
      00FF8D61H   CODE     ---       L_Encoder_Pulse
      000007C2H   EDATA    INT       L_Pulse
*DEL*:00000000H   CODE     ---       lcd_clear
*DEL*:00000000H   CODE     ---       lcd_clear_simspi
*DEL*:00000000H   CODE     ---       lcd_drawpoint
*DEL*:00000000H   CODE     ---       lcd_drawpoint_simspi
*DEL*:00000000H   CODE     ---       lcd_init
*DEL*:00000000H   CODE     ---       lcd_init_simspi
*DEL*:00000000H   CODE     ---       lcd_set_region
*DEL*:00000000H   CODE     ---       lcd_set_region_simspi
*DEL*:00000000H   CODE     ---       lcd_showchar
*DEL*:00000000H   CODE     ---       lcd_showchar_simspi
*DEL*:00000000H   CODE     ---       lcd_showfloat
*DEL*:00000000H   CODE     ---       lcd_showfloat_simspi
*DEL*:00000000H   CODE     ---       lcd_showint16
*DEL*:00000000H   CODE     ---       lcd_showint16_simspi
*DEL*:00000000H   CODE     ---       lcd_showint32
*DEL*:00000000H   CODE     ---       lcd_showint32_simspi
*DEL*:00000000H   CODE     ---       lcd_showint8
*DEL*:00000000H   CODE     ---       lcd_showint8_simspi
*DEL*:00000000H   CODE     ---       lcd_showstr
*DEL*:00000000H   CODE     ---       lcd_showstr_simspi
*DEL*:00000000H   CODE     ---       lcd_showuint16
*DEL*:00000000H   CODE     ---       lcd_showuint16_simspi
*DEL*:00000000H   CODE     ---       lcd_showuint8
*DEL*:00000000H   CODE     ---       lcd_showuint8_simspi
*DEL*:00000000H   CODE     ---       lcd_writeData
*DEL*:00000000H   CODE     ---       lcd_writedata_16bit
*DEL*:00000000H   CODE     ---       lcd_writeData_16bit_simspi
*DEL*:00000000H   CODE     ---       lcd_writeData_simspi
*DEL*:00000000H   CODE     ---       lcd_writeIndex
*DEL*:00000000H   CODE     ---       lcd_writeIndex_simspi
      00000030H   EDATA    WORD      Left_Val
      00FF8B1DH   CODE     ---       limit
*SFR* 000000F9H   DATA     BYTE      LINICR
      00FF8C24H   CODE     ---       lowPassFilter
L251 LINKER/LOCATER V4.66.93.0                                                        04/15/2024  09:56:15  PAGE 27


      0000010CH   EDATA    WORD      M1
      000000FEH   EDATA    WORD      M1_NOR_ADC
      00FF7645H   CODE     ---       main
      00FF79DAH   CODE     ---       medianFilter1
      00FF8D19H   CODE     ---       memcpy?_
*DEL*:00000000H   CODE     ---       memset?_
      00000DDDH   EDATA    INT       menu
      00000422H   EDATA    FLOAT     Motor_I
      00FF8860H   CODE     ---       Motor_Init
      00000426H   EDATA    FLOAT     Motor_P
      000003FAH   EDATA    ---       Motor_pid
      00FF7B84H   CODE     ---       Motor_PWM
      00FF894AH   CODE     ---       Motor_SET_PID
      00000A4CH   EDATA    INT       mpu6050_acc_x
      00000A4EH   EDATA    INT       mpu6050_acc_y
      00000A50H   EDATA    INT       mpu6050_acc_z
*DEL*:00000000H   CODE     ---       mpu6050_get_accdata
      00FF880EH   CODE     ---       mpu6050_get_gyro
      00000A52H   EDATA    INT       mpu6050_gyro_x
      00000A54H   EDATA    INT       mpu6050_gyro_y
      00000A56H   EDATA    INT       mpu6050_gyro_z
      00FF85F2H   CODE     ---       mpu6050_init
      00FF8AE2H   CODE     ---       mpu6050_simiic_read_reg
      00FF831BH   CODE     ---       mpu6050_simiic_read_regs
      00000711H   EDATA    FLOAT     Nh_D
      000007BCH   EDATA    INT       nh_out
      00000719H   EDATA    FLOAT     Nh_P
      00FF8059H   CODE     ---       nh_Turn_Out
      0000004EH   EDATA    ---       NOR_VAL
      00FF45EDH   CODE     ---       NORMALIZATION_TRACKING_ADC
      00FF7432H   CODE     ---       number_conversion_ascii
*DEL*:00000000H   CODE     ---       NVIC_SetPriority
      00FF2D0DH   CODE     ---       oled_6x8
      00FF212DH   CODE     ---       oled_8x16
*DEL*:00000000H   CODE     ---       oled_clrpixel
*DEL*:00000000H   CODE     ---       oled_clrpixel_spi
*DEL*:00000000H   CODE     ---       oled_dis_bmp
*DEL*:00000000H   CODE     ---       oled_dis_bmp_spi
      00FF86AFH   CODE     ---       oled_fill
*DEL*:00000000H   CODE     ---       oled_fill_spi
      00FF823FH   CODE     ---       oled_hexascii
*DEL*:00000000H   CODE     ---       oled_hexascii_spi
      00FF7F1CH   CODE     ---       oled_init
*DEL*:00000000H   CODE     ---       oled_init_spi
      00FF81CCH   CODE     ---       oled_int16
*DEL*:00000000H   CODE     ---       oled_int16_spi
      00FF7AB3H   CODE     ---       oled_p6x8str
*DEL*:00000000H   CODE     ---       oled_p6x8str_spi
      00FF71F9H   CODE     ---       oled_p8x16str
*DEL*:00000000H   CODE     ---       oled_p8x16str_spi
*DEL*:00000000H   CODE     ---       oled_print_chinese
*DEL*:00000000H   CODE     ---       oled_print_chinese_spi
      00FF6D09H   CODE     ---       oled_printf_float
      00FF6E4EH   CODE     ---       oled_printf_float_px8
*DEL*:00000000H   CODE     ---       oled_printf_float_spi
*DEL*:00000000H   CODE     ---       oled_printf_int32
*DEL*:00000000H   CODE     ---       oled_printf_int32_spi
*DEL*:00000000H   CODE     ---       oled_putpixel
*DEL*:00000000H   CODE     ---       oled_putpixel_spi
      00FF8B8DH   CODE     ---       oled_set_pos
*DEL*:00000000H   CODE     ---       oled_set_pos_spi
      00FF8CA5H   CODE     ---       oled_uint16
      00FF8CCCH   CODE     ---       oled_uint16_px8
*DEL*:00000000H   CODE     ---       oled_uint16_spi
      00FF88B2H   CODE     ---       oled_wrcmd
L251 LINKER/LOCATER V4.66.93.0                                                        04/15/2024  09:56:15  PAGE 28


*DEL*:00000000H   CODE     ---       oled_wrcmd_spi
      00FF88FEH   CODE     ---       oled_wrdat
*DEL*:00000000H   CODE     ---       oled_wrdat_spi
*SFR* 00000080H   DATA     BYTE      P0
*SFR* 00000080H.0 DATA     BIT       P00
*SFR* 00000080H.4 DATA     BIT       P04
*SFR* 00000080H.7 DATA     BIT       P07
*SFR* 00000094H   DATA     BYTE      P0M0
*SFR* 00000093H   DATA     BYTE      P0M1
*SFR* 00000090H   DATA     BYTE      P1
*SFR* 00000090H.3 DATA     BIT       P13
*SFR* 00000090H.5 DATA     BIT       P15
*SFR* 00000090H.6 DATA     BIT       P16
*SFR* 00000092H   DATA     BYTE      P1M0
*SFR* 00000091H   DATA     BYTE      P1M1
*SFR* 000000A0H   DATA     BYTE      P2
*SFR* 000000A0H.0 DATA     BIT       P20
*SFR* 000000A0H.1 DATA     BIT       P21
*SFR* 000000A0H.2 DATA     BIT       P22
*SFR* 000000A0H.3 DATA     BIT       P23
*SFR* 000000A0H.4 DATA     BIT       P24
*SFR* 000000A0H.5 DATA     BIT       P25
*SFR* 000000A0H.6 DATA     BIT       P26
*SFR* 000000A0H.7 DATA     BIT       P27
*SFR* 00000096H   DATA     BYTE      P2M0
*SFR* 00000095H   DATA     BYTE      P2M1
*SFR* 000000B0H   DATA     BYTE      P3
*SFR* 000000B0H.2 DATA     BIT       P32
*SFR* 000000B0H.3 DATA     BIT       P33
*SFR* 000000B0H.6 DATA     BIT       P36
*SFR* 000000B0H.7 DATA     BIT       P37
*SFR* 000000B2H   DATA     BYTE      P3M0
*SFR* 000000B1H   DATA     BYTE      P3M1
*SFR* 000000C0H   DATA     BYTE      P4
*SFR* 000000C0H.0 DATA     BIT       P40
*SFR* 000000C0H.1 DATA     BIT       P41
*SFR* 000000C0H.2 DATA     BIT       P42
*SFR* 000000C0H.3 DATA     BIT       P43
*SFR* 000000C0H.4 DATA     BIT       P44
*SFR* 000000B4H   DATA     BYTE      P4M0
*SFR* 000000B3H   DATA     BYTE      P4M1
*SFR* 000000C8H   DATA     BYTE      P5
*SFR* 000000C8H.0 DATA     BIT       P50
*SFR* 000000C8H.2 DATA     BIT       P52
*SFR* 000000CAH   DATA     BYTE      P5M0
*SFR* 000000C9H   DATA     BYTE      P5M1
*SFR* 000000E8H   DATA     BYTE      P6
*SFR* 000000CCH   DATA     BYTE      P6M0
*SFR* 000000CBH   DATA     BYTE      P6M1
*SFR* 000000F8H   DATA     BYTE      P7
*SFR* 000000E2H   DATA     BYTE      P7M0
*SFR* 000000E1H   DATA     BYTE      P7M1
*SFR* 000000A2H   DATA     BYTE      P_SW1
*SFR* 000000BAH   DATA     BYTE      P_SW2
*SFR* 000000BBH   DATA     BYTE      P_SW3
*SFR* 00000087H   DATA     BYTE      PCON
      00FF7737H   CODE     ---       pit_timer_ms
      00FF3F1DH   CODE     NEAR LAB  printf
      00FF7FC4H   CODE     ---       printf_reverse_order
*SFR* 000000D0H   DATA     BYTE      PSW
      00FF8E46H   CODE     ---       putchar
      00FF9326H   HCONST   ---       PWM_ARR_ADDR
      00FF932EH   HCONST   ---       PWM_CCER_ADDR
      00FF933EH   HCONST   ---       PWM_CCMR_ADDR
      00FF9306H   HCONST   ---       PWM_CCR_ADDR
L251 LINKER/LOCATER V4.66.93.0                                                        04/15/2024  09:56:15  PAGE 29


      00FF731AH   CODE     ---       pwm_duty
*DEL*:00000000H   CODE     ---       pwm_freq
      00FF5D03H   CODE     ---       pwm_init
      00FF60DDH   CODE     ---       pwm_set_gpio
      0000000CH   EDATA    WORD      R1
      00000106H   EDATA    WORD      R1_NOR_ADC
      0000000EH   EDATA    WORD      R2
      0000010AH   EDATA    WORD      R2_NOR_ADC
      00000010H   EDATA    WORD      R3
      00000008H   EDATA    WORD      R3_NOR_ADC
*DEL*:00000000H   CODE     ---       R_Enc_integral
      00FF8CF3H   CODE     ---       R_Encoder_Pulse
      000007C8H   EDATA    INT       R_Pulse
      000002A3H   EDATA    INT       RAngle_Flag
*DEL*:00000000H   CODE     ---       recv_ack
*DEL*:00000000H   CODE     ---       recv_data
*DEL*:00000000H   CODE     ---       Right_Angle
      00000012H   EDATA    WORD      Right_Val
      000002BBH   EDATA    INT       ring_flag
      000002D1H   EDATA    INT       RING_FLAG1
      000002D3H   EDATA    INT       RING_FLAG2
      000002D5H   EDATA    INT       RING_FLAG3
      000002D7H   EDATA    INT       RING_FLAG4
*DEL*:00000000H   CODE     ---       Roundabout
*SFR* 000000FFH   DATA     BYTE      RSTCFG
*SFR* 0000009BH   DATA     BYTE      S2BUF
*SFR* 0000009AH   DATA     BYTE      S2CON
*SFR* 000000ADH   DATA     BYTE      S3BUF
*SFR* 000000ACH   DATA     BYTE      S3CON
*SFR* 000000FEH   DATA     BYTE      S4BUF
*SFR* 000000FDH   DATA     BYTE      S4CON
*SFR* 00000099H   DATA     BYTE      SBUF
*SFR* 00000098H   DATA     BYTE      SCON
      00FF3842H   CODE     ---       Second__NWHuan_menu
      00FF7CFDH   CODE     ---       Second__Speed_menu
      00FF6AE4H   CODE     ---       Second_Element_menu
      00FF58FCH   CODE     ---       Second_Motor_menu
*DEL*:00000000H   CODE     ---       Send4DataToVofa
*DEL*:00000000H   CODE     ---       send_ack
*DEL*:00000000H   CODE     ---       send_data
*DEL*:00000000H   CODE     ---       send_nak
      00FF52D0H   CODE     ---       set_clk
      000002CDH   EDATA    INT       set_speed
*DEL*:00000000H   CODE     ---       set_zero_position_simspi
*DEL*:00000000H   CODE     ---       set_zero_position_spi
      000002B1H   EDATA    INT       shizi_flag
*DEL*:00000000H   CODE     ---       Show_AllVal
      00FF70CBH   CODE     ---       show_val
      00FF8AA6H   CODE     ---       Show_Val_Menu
*DEL*:00000000H   CODE     ---       showimage
*DEL*:00000000H   CODE     ---       simspi_r_reg_byte
*DEL*:00000000H   CODE     ---       simspi_w_reg_byte
*DEL*:00000000H   CODE     ---       simspi_wr_byte
*DEL*:00000000H   CODE     ---       SIN?_
*SFR* 000000CEH   DATA     BYTE      SPCTL
*SFR* 000000CFH   DATA     BYTE      SPDAT
      000007BEH   EDATA    INT       speed
      00FF78FEH   CODE     ---       Speed_pid_Out
*DEL*:00000000H   CODE     ---       Speed_Plan
      000002A1H   EDATA    INT       Speed_Plan1
*DEL*:00000000H   CODE     ---       spi_change_mode
*DEL*:00000000H   CODE     ---       spi_change_pin
*DEL*:00000000H   CODE     ---       spi_init
*DEL*:00000000H   CODE     ---       spi_mosi
*DEL*:00000000H   CODE     ---       spi_r_reg_byte
L251 LINKER/LOCATER V4.66.93.0                                                        04/15/2024  09:56:15  PAGE 30


*DEL*:00000000H   CODE     ---       spi_w_reg_byte
*DEL*:00000000H   CODE     ---       spi_wr_byte
*SFR* 000000CDH   DATA     BYTE      SPSTAT
      00FF7C43H   CODE     ---       sq
*DEL*:00000000H   CODE     ---       SQRT?_
*DEL*:00000000H   CODE     ---       start
*DEL*:00000000H   CODE     ---       stop
      00000291H   EDATA    FLOAT     Sub_motor_i
      00000299H   EDATA    FLOAT     Sub_motor_p
*DEL*:00000000H   CODE     ---       Sub_Pid
      000002AFH   EDATA    INT       Sub_speed
      000002BDH   EDATA    FLOAT     Sub_wh_d
      000002C9H   EDATA    FLOAT     Sub_wh_p
      000007C0H   EDATA    INT       Sum_Pulse
      00000D83H   EDATA    LONG      sys_clk
      00000D79H   EDATA    DWORD     SysTickFlag
*SFR* 000000D6H   DATA     BYTE      T2H
*SFR* 000000D7H   DATA     BYTE      T2L
*SFR* 000000D4H   DATA     BYTE      T3H
*SFR* 000000D5H   DATA     BYTE      T3L
*SFR* 000000D2H   DATA     BYTE      T4H
*SFR* 000000D3H   DATA     BYTE      T4L
*SFR* 000000DDH   DATA     BYTE      T4T3M
*SFR* 000000AEH   DATA     BYTE      TA
*DEL*:00000000H   CODE     ---       TAN?_
*SFR* 00000088H   DATA     BYTE      TCON
      00FF271DH   CODE     ---       tft_ascii
*SFR* 0000008CH   DATA     BYTE      TH0
*SFR* 0000008DH   DATA     BYTE      TH1
*SFR* 0000008AH   DATA     BYTE      TL0
*SFR* 0000008BH   DATA     BYTE      TL1
      00FF8DF2H   CODE     ---       TM0_Isr
      00FF8E79H   CODE     ---       TM1_Isr
      00FF8E8FH   CODE     ---       TM2_Isr
      00FF8E93H   CODE     ---       TM3_Isr
      00FF852CH   CODE     ---       TM4_Isr
*SFR* 00000089H   DATA     BYTE      TMOD
*SFR* 00000088H.4 DATA     BIT       TR0
*SFR* 00000088H.6 DATA     BIT       TR1
      000002DBH   EDATA    INT       Track_flag
      00FF84C5H   CODE     ---       Tracking
      00000110H   EDATA    BYTE      tsl1401_finish_flag
      00FF8A25H   CODE     ---       UART1_Isr
      00FF8DBEH   CODE     ---       UART2_Isr
      00FF8DD8H   CODE     ---       UART3_Isr
      00FF8591H   CODE     ---       UART4_Isr
      00FF6831H   CODE     ---       uart_init
*DEL*:00000000H   CODE     ---       uart_putbuff
      00FF8157H   CODE     ---       uart_putchar
*DEL*:00000000H   CODE     ---       uart_putstr
*SFR* 000000F4H   DATA     BYTE      USBCON
      00000B17H   EDATA    ---       virtual_scope_data
*SFR* 000000A6H   DATA     BYTE      VRTRIM
*DEL*:00000000H   CODE     ---       wait
*SFR* 000000C1H   DATA     BYTE      WDT_CONTR
      00000715H   EDATA    FLOAT     Wh_D
      0000071DH   EDATA    FLOAT     Wh_P
      00FF845BH   CODE     ---       wh_Turn_Out
      00000E34H   EDATA    INT       wireless_type
      00FF8DA4H   CODE     ---       wireless_uart_callback
*DEL*:00000000H   CODE     ---       wireless_uart_init
*DEL*:00000000H   CODE     ---       wireless_uart_read_buff
*DEL*:00000000H   CODE     ---       wireless_uart_send_buff
*DEL*:00000000H   CODE     ---       wireless_uart_send_byte
*SFR* 000000E9H   DATA     BYTE      WTST
L251 LINKER/LOCATER V4.66.93.0                                                        04/15/2024  09:56:15  PAGE 31


      00000D8FH   EDATA    WORD      zf_delay_ms
      00000D91H   EDATA    WORD      zf_delay_us
      00FF4C6FH   CODE     ---       zf_sprintf



SYMBOL TABLE OF MODULE:  .\Out_File\SEEKFREE (board)

      VALUE       REP       CLASS    TYPE      SYMBOL NAME
      ====================================================
      ---         MODULE    ---      ---       board
      00FF0006H   PUBLIC    CODE     ---       EnableGlobalIRQ
      00FF80E0H   PUBLIC    CODE     ---       board_init
      00FF8E1FH   PUBLIC    CODE     ---       clock_init
      00FF8E58H   PUBLIC    CODE     ---       ICacheOn
      00FF52D0H   PUBLIC    CODE     ---       set_clk
      00FF8E46H   PUBLIC    CODE     ---       putchar
      00000D83H   PUBLIC    EDATA    LONG      sys_clk
      00000094H   SFRSYM    DATA     BYTE      P0M0
      000000D0H   SFRSYM    DATA     BYTE      PSW
      0000009DH   SFRSYM    DATA     BYTE      IRCBAND
      00000097H   SFRSYM    DATA     BYTE      AUXR2
      000000EFH   SFRSYM    DATA     BYTE      AUXINTIF
      000000FDH   SFRSYM    DATA     BYTE      S4CON
      000000ACH   SFRSYM    DATA     BYTE      S3CON
      0000009AH   SFRSYM    DATA     BYTE      S2CON
      000000A6H   SFRSYM    DATA     BYTE      VRTRIM
      000000B7H   SFRSYM    DATA     BYTE      IPH
      000000CDH   SFRSYM    DATA     BYTE      SPSTAT
      000000DDH   SFRSYM    DATA     BYTE      T4T3M
      0000009FH   SFRSYM    DATA     BYTE      IRTRIM
      000000C1H   SFRSYM    DATA     BYTE      WDT_CONTR
      000000E9H   SFRSYM    DATA     BYTE      WTST
      000000DFH   SFRSYM    DATA     BYTE      IP3
      000000F4H   SFRSYM    DATA     BYTE      USBCON
      000000B5H   SFRSYM    DATA     BYTE      IP2
      000000FFH   SFRSYM    DATA     BYTE      RSTCFG
      000000C7H   SFRSYM    DATA     BYTE      IAP_CONTR
      000000F9H   SFRSYM    DATA     BYTE      LINICR
      0000008EH   SFRSYM    DATA     BYTE      AUXR
      000000AFH   SFRSYM    DATA     BYTE      IE2
      00000088H   SFRSYM    DATA     BYTE      TCON
      00000089H   SFRSYM    DATA     BYTE      TMOD
      00000098H   SFRSYM    DATA     BYTE      SCON
      000000F1H   SFRSYM    DATA     BYTE      CANICR
      00000087H   SFRSYM    DATA     BYTE      PCON
      000000BCH   SFRSYM    DATA     BYTE      ADC_CONTR
      000000F7H   SFRSYM    DATA     BYTE      ICHECR
      000000E7H   SFRSYM    DATA     BYTE      CMPCR2
      000000E6H   SFRSYM    DATA     BYTE      CMPCR1
      000000DEH   SFRSYM    DATA     BYTE      ADCCFG
      000000B8H   SFRSYM    DATA     BYTE      IP
      0000008FH   SFRSYM    DATA     BYTE      INTCLKO
      000000AEH   SFRSYM    DATA     BYTE      TA
      000000EEH   SFRSYM    DATA     BYTE      IP3H
      000000B6H   SFRSYM    DATA     BYTE      IP2H
      000000A8H   SFRSYM    DATA     BYTE      IE
      000000BBH   SFRSYM    DATA     BYTE      P_SW3
      000000BAH   SFRSYM    DATA     BYTE      P_SW2
      000000A2H   SFRSYM    DATA     BYTE      P_SW1
      000000CEH   SFRSYM    DATA     BYTE      SPCTL
      000000F8H   SFRSYM    DATA     BYTE      P7
      000000A8H.7 SFRSYM    DATA     BIT       EA
      000000E8H   SFRSYM    DATA     BYTE      P6
      000000C8H   SFRSYM    DATA     BYTE      P5
L251 LINKER/LOCATER V4.66.93.0                                                        04/15/2024  09:56:15  PAGE 32


      000000C0H   SFRSYM    DATA     BYTE      P4
      000000C9H   SFRSYM    DATA     BYTE      P5M1
      000000B0H   SFRSYM    DATA     BYTE      P3
      000000B3H   SFRSYM    DATA     BYTE      P4M1
      000000CAH   SFRSYM    DATA     BYTE      P5M0
      000000A0H   SFRSYM    DATA     BYTE      P2
      000000B1H   SFRSYM    DATA     BYTE      P3M1
      000000B4H   SFRSYM    DATA     BYTE      P4M0
      00000090H   SFRSYM    DATA     BYTE      P1
      00000095H   SFRSYM    DATA     BYTE      P2M1
      000000B2H   SFRSYM    DATA     BYTE      P3M0
      00000080H   SFRSYM    DATA     BYTE      P0
      00000091H   SFRSYM    DATA     BYTE      P1M1
      00000096H   SFRSYM    DATA     BYTE      P2M0
      00000092H   SFRSYM    DATA     BYTE      P1M0
      00000093H   SFRSYM    DATA     BYTE      P0M1

      00FF52D0H   BLOCK     CODE     ---       LVL=0
      00000BFAH   SYMBOL    EDATA    DWORD     clock
      00FF52D4H   BLOCK     CODE     NEAR LAB  LVL=1
      00000BFEH   SYMBOL    EDATA    DWORD     temp_sys_clk
      ---         BLOCKEND  ---      ---       LVL=1
      00FF52D0H   LINE      CODE     ---       #35
      00FF52D4H   LINE      CODE     ---       #36
      00FF52D4H   LINE      CODE     ---       #37
      00FF52DAH   LINE      CODE     ---       #40
      00FF53BBH   LINE      CODE     ---       #42
      00FF53BBH   LINE      CODE     ---       #44
      00FF53C8H   LINE      CODE     ---       #45
      00FF53D5H   LINE      CODE     ---       #46
      00FF53E2H   LINE      CODE     ---       #47
      00FF53E6H   LINE      CODE     ---       #48
      00FF53E9H   LINE      CODE     ---       #49
      00FF53EAH   LINE      CODE     ---       #50
      00FF53EBH   LINE      CODE     ---       #51
      00FF53ECH   LINE      CODE     ---       #52
      00FF53EDH   LINE      CODE     ---       #53
      00FF53FAH   LINE      CODE     ---       #54
      00FF5402H   LINE      CODE     ---       #55
      00FF5405H   LINE      CODE     ---       #57
      00FF5405H   LINE      CODE     ---       #59
      00FF5412H   LINE      CODE     ---       #60
      00FF541FH   LINE      CODE     ---       #61
      00FF542CH   LINE      CODE     ---       #62
      00FF5430H   LINE      CODE     ---       #63
      00FF5433H   LINE      CODE     ---       #64
      00FF5434H   LINE      CODE     ---       #65
      00FF5435H   LINE      CODE     ---       #66
      00FF5436H   LINE      CODE     ---       #67
      00FF5437H   LINE      CODE     ---       #68
      00FF5444H   LINE      CODE     ---       #69
      00FF544CH   LINE      CODE     ---       #70
      00FF544FH   LINE      CODE     ---       #72
      00FF544FH   LINE      CODE     ---       #74
      00FF545CH   LINE      CODE     ---       #75
      00FF5469H   LINE      CODE     ---       #76
      00FF5476H   LINE      CODE     ---       #77
      00FF547AH   LINE      CODE     ---       #78
      00FF547DH   LINE      CODE     ---       #79
      00FF547EH   LINE      CODE     ---       #80
      00FF547FH   LINE      CODE     ---       #81
      00FF5480H   LINE      CODE     ---       #82
      00FF5481H   LINE      CODE     ---       #83
      00FF548EH   LINE      CODE     ---       #84
      00FF5496H   LINE      CODE     ---       #85
L251 LINKER/LOCATER V4.66.93.0                                                        04/15/2024  09:56:15  PAGE 33


      00FF5499H   LINE      CODE     ---       #87
      00FF5499H   LINE      CODE     ---       #89
      00FF54A6H   LINE      CODE     ---       #90
      00FF54B3H   LINE      CODE     ---       #91
      00FF54C0H   LINE      CODE     ---       #92
      00FF54C4H   LINE      CODE     ---       #93
      00FF54C5H   LINE      CODE     ---       #94
      00FF54C6H   LINE      CODE     ---       #95
      00FF54C7H   LINE      CODE     ---       #96
      00FF54C8H   LINE      CODE     ---       #97
      00FF54CBH   LINE      CODE     ---       #98
      00FF54D8H   LINE      CODE     ---       #99
      00FF54E0H   LINE      CODE     ---       #100
      00FF54E3H   LINE      CODE     ---       #102
      00FF54E3H   LINE      CODE     ---       #104
      00FF54F0H   LINE      CODE     ---       #105
      00FF54FDH   LINE      CODE     ---       #106
      00FF550AH   LINE      CODE     ---       #107
      00FF550EH   LINE      CODE     ---       #108
      00FF5511H   LINE      CODE     ---       #109
      00FF5512H   LINE      CODE     ---       #110
      00FF5513H   LINE      CODE     ---       #111
      00FF5514H   LINE      CODE     ---       #112
      00FF5515H   LINE      CODE     ---       #113
      00FF5522H   LINE      CODE     ---       #114
      00FF552AH   LINE      CODE     ---       #115
      00FF552DH   LINE      CODE     ---       #117
      00FF552DH   LINE      CODE     ---       #119
      00FF553AH   LINE      CODE     ---       #120
      00FF5547H   LINE      CODE     ---       #121
      00FF5554H   LINE      CODE     ---       #122
      00FF5558H   LINE      CODE     ---       #123
      00FF555BH   LINE      CODE     ---       #124
      00FF555CH   LINE      CODE     ---       #125
      00FF555DH   LINE      CODE     ---       #126
      00FF555EH   LINE      CODE     ---       #127
      00FF555FH   LINE      CODE     ---       #128
      00FF556CH   LINE      CODE     ---       #129
      00FF5574H   LINE      CODE     ---       #130
      00FF5577H   LINE      CODE     ---       #132
      00FF5577H   LINE      CODE     ---       #134
      00FF5584H   LINE      CODE     ---       #135
      00FF5591H   LINE      CODE     ---       #136
      00FF559EH   LINE      CODE     ---       #137
      00FF55A2H   LINE      CODE     ---       #138
      00FF55A5H   LINE      CODE     ---       #139
      00FF55A6H   LINE      CODE     ---       #140
      00FF55A7H   LINE      CODE     ---       #141
      00FF55A8H   LINE      CODE     ---       #142
      00FF55A9H   LINE      CODE     ---       #143
      00FF55B6H   LINE      CODE     ---       #144
      00FF55BEH   LINE      CODE     ---       #145
      00FF55C1H   LINE      CODE     ---       #147
      00FF55C1H   LINE      CODE     ---       #149
      00FF55CEH   LINE      CODE     ---       #150
      00FF55DBH   LINE      CODE     ---       #151
      00FF55E8H   LINE      CODE     ---       #152
      00FF55ECH   LINE      CODE     ---       #153
      00FF55EFH   LINE      CODE     ---       #154
      00FF55F0H   LINE      CODE     ---       #155
      00FF55F1H   LINE      CODE     ---       #156
      00FF55F2H   LINE      CODE     ---       #157
      00FF55F3H   LINE      CODE     ---       #158
      00FF5600H   LINE      CODE     ---       #159
      00FF5608H   LINE      CODE     ---       #160
L251 LINKER/LOCATER V4.66.93.0                                                        04/15/2024  09:56:15  PAGE 34


      00FF560BH   LINE      CODE     ---       #162
      00FF560BH   LINE      CODE     ---       #164
      00FF5618H   LINE      CODE     ---       #165
      00FF5625H   LINE      CODE     ---       #166
      00FF5632H   LINE      CODE     ---       #167
      00FF5636H   LINE      CODE     ---       #168
      00FF5639H   LINE      CODE     ---       #169
      00FF563AH   LINE      CODE     ---       #170
      00FF563BH   LINE      CODE     ---       #171
      00FF563CH   LINE      CODE     ---       #172
      00FF563DH   LINE      CODE     ---       #173
      00FF564AH   LINE      CODE     ---       #174
      00FF5652H   LINE      CODE     ---       #175
      00FF5655H   LINE      CODE     ---       #177
      00FF5655H   LINE      CODE     ---       #179
      00FF5662H   LINE      CODE     ---       #180
      00FF566FH   LINE      CODE     ---       #181
      00FF567CH   LINE      CODE     ---       #182
      00FF5680H   LINE      CODE     ---       #183
      00FF5683H   LINE      CODE     ---       #184
      00FF5684H   LINE      CODE     ---       #185
      00FF5685H   LINE      CODE     ---       #186
      00FF5686H   LINE      CODE     ---       #187
      00FF5687H   LINE      CODE     ---       #188
      00FF5694H   LINE      CODE     ---       #189
      00FF569CH   LINE      CODE     ---       #190
      00FF569FH   LINE      CODE     ---       #192
      00FF569FH   LINE      CODE     ---       #194
      00FF56ACH   LINE      CODE     ---       #195
      00FF56B9H   LINE      CODE     ---       #196
      00FF56C6H   LINE      CODE     ---       #197
      00FF56CAH   LINE      CODE     ---       #198
      00FF56CEH   LINE      CODE     ---       #199
      00FF56CFH   LINE      CODE     ---       #200
      00FF56D0H   LINE      CODE     ---       #201
      00FF56D1H   LINE      CODE     ---       #202
      00FF56D2H   LINE      CODE     ---       #203
      00FF56DFH   LINE      CODE     ---       #204
      00FF56E7H   LINE      CODE     ---       #205
      00FF56EAH   LINE      CODE     ---       #207
      00FF56EAH   LINE      CODE     ---       #209
      00FF56F7H   LINE      CODE     ---       #210
      00FF5704H   LINE      CODE     ---       #211
      00FF5711H   LINE      CODE     ---       #212
      00FF5715H   LINE      CODE     ---       #213
      00FF5719H   LINE      CODE     ---       #214
      00FF571AH   LINE      CODE     ---       #215
      00FF571BH   LINE      CODE     ---       #216
      00FF571CH   LINE      CODE     ---       #217
      00FF571DH   LINE      CODE     ---       #218
      00FF572AH   LINE      CODE     ---       #219
      00FF5732H   LINE      CODE     ---       #220
      00FF5735H   LINE      CODE     ---       #222
      00FF5735H   LINE      CODE     ---       #224
      00FF5742H   LINE      CODE     ---       #225
      00FF574FH   LINE      CODE     ---       #226
      00FF575CH   LINE      CODE     ---       #227
      00FF5760H   LINE      CODE     ---       #228
      00FF5764H   LINE      CODE     ---       #229
      00FF5765H   LINE      CODE     ---       #230
      00FF5766H   LINE      CODE     ---       #231
      00FF5767H   LINE      CODE     ---       #232
      00FF5768H   LINE      CODE     ---       #233
      00FF5775H   LINE      CODE     ---       #234
      00FF577DH   LINE      CODE     ---       #235
L251 LINKER/LOCATER V4.66.93.0                                                        04/15/2024  09:56:15  PAGE 35


      00FF5780H   LINE      CODE     ---       #237
      00FF5780H   LINE      CODE     ---       #239
      00FF578DH   LINE      CODE     ---       #240
      00FF579AH   LINE      CODE     ---       #241
      00FF57A7H   LINE      CODE     ---       #242
      00FF57ABH   LINE      CODE     ---       #243
      00FF57AFH   LINE      CODE     ---       #244
      00FF57B0H   LINE      CODE     ---       #245
      00FF57B1H   LINE      CODE     ---       #246
      00FF57B2H   LINE      CODE     ---       #247
      00FF57B3H   LINE      CODE     ---       #248
      00FF57C0H   LINE      CODE     ---       #249
      00FF57C8H   LINE      CODE     ---       #250
      00FF57CBH   LINE      CODE     ---       #252
      00FF57CBH   LINE      CODE     ---       #254
      00FF57D8H   LINE      CODE     ---       #255
      00FF57E5H   LINE      CODE     ---       #256
      00FF57F2H   LINE      CODE     ---       #257
      00FF57F6H   LINE      CODE     ---       #258
      00FF57FAH   LINE      CODE     ---       #259
      00FF57FBH   LINE      CODE     ---       #260
      00FF57FCH   LINE      CODE     ---       #261
      00FF57FDH   LINE      CODE     ---       #262
      00FF57FEH   LINE      CODE     ---       #263
      00FF580BH   LINE      CODE     ---       #264
      00FF5813H   LINE      CODE     ---       #265
      00FF5816H   LINE      CODE     ---       #267
      00FF5816H   LINE      CODE     ---       #269
      00FF5823H   LINE      CODE     ---       #270
      00FF5830H   LINE      CODE     ---       #271
      00FF583DH   LINE      CODE     ---       #272
      00FF5841H   LINE      CODE     ---       #273
      00FF5845H   LINE      CODE     ---       #274
      00FF5846H   LINE      CODE     ---       #275
      00FF5847H   LINE      CODE     ---       #276
      00FF5848H   LINE      CODE     ---       #277
      00FF5849H   LINE      CODE     ---       #278
      00FF5856H   LINE      CODE     ---       #279
      00FF585EH   LINE      CODE     ---       #280
      00FF5861H   LINE      CODE     ---       #282
      00FF5861H   LINE      CODE     ---       #284
      00FF586EH   LINE      CODE     ---       #285
      00FF587BH   LINE      CODE     ---       #286
      00FF5888H   LINE      CODE     ---       #287
      00FF588CH   LINE      CODE     ---       #288
      00FF5890H   LINE      CODE     ---       #289
      00FF5891H   LINE      CODE     ---       #290
      00FF5892H   LINE      CODE     ---       #291
      00FF5893H   LINE      CODE     ---       #292
      00FF5894H   LINE      CODE     ---       #293
      00FF58A1H   LINE      CODE     ---       #294
      00FF58A9H   LINE      CODE     ---       #295
      00FF58ABH   LINE      CODE     ---       #307
      00FF58ABH   LINE      CODE     ---       #309
      00FF58B8H   LINE      CODE     ---       #310
      00FF58C5H   LINE      CODE     ---       #311
      00FF58D2H   LINE      CODE     ---       #312
      00FF58D6H   LINE      CODE     ---       #313
      00FF58DAH   LINE      CODE     ---       #314
      00FF58DBH   LINE      CODE     ---       #315
      00FF58DCH   LINE      CODE     ---       #316
      00FF58DDH   LINE      CODE     ---       #317
      00FF58DEH   LINE      CODE     ---       #318
      00FF58EBH   LINE      CODE     ---       #319
      00FF58F7H   LINE      CODE     ---       #320
L251 LINKER/LOCATER V4.66.93.0                                                        04/15/2024  09:56:15  PAGE 36


      00FF58F7H   LINE      CODE     ---       #321
      00FF58F7H   LINE      CODE     ---       #323
      00FF58FBH   LINE      CODE     ---       #324
      ---         BLOCKEND  ---      ---       LVL=0

      00FF8E46H   BLOCK     CODE     ---       LVL=0
      00000E98H   SYMBOL    EDATA    CHAR      c
      00FF8E46H   LINE      CODE     ---       #333
      00FF8E4AH   LINE      CODE     ---       #335
      00FF8E53H   LINE      CODE     ---       #337
      00FF8E57H   LINE      CODE     ---       #338
      ---         BLOCKEND  ---      ---       LVL=0

      00FF0006H   BLOCK     CODE     ---       LVL=0
      00FF0006H   LINE      CODE     ---       #347
      00FF0006H   LINE      CODE     ---       #349
      00FF0009H   LINE      CODE     ---       #350
      ---         BLOCKEND  ---      ---       LVL=0

      00FF8E58H   BLOCK     CODE     ---       LVL=0
      00FF8E58H   LINE      CODE     ---       #385
      00FF8E58H   LINE      CODE     ---       #387
      00FF8E59H   LINE      CODE     ---       #388
      00FF8E5AH   LINE      CODE     ---       #389
      00FF8E5EH   LINE      CODE     ---       #391
      00FF8E62H   LINE      CODE     ---       #393
      00FF8E66H   LINE      CODE     ---       #395
      00FF8E67H   LINE      CODE     ---       #396
      00FF8E68H   LINE      CODE     ---       #397
      ---         BLOCKEND  ---      ---       LVL=0

      00FF8E1FH   BLOCK     CODE     ---       LVL=0
      00000D87H   SYMBOL    EDATA    DWORD     clock
      00FF8E1FH   LINE      CODE     ---       #399
      00FF8E23H   LINE      CODE     ---       #401
      00FF8E27H   LINE      CODE     ---       #409
      00FF8E32H   LINE      CODE     ---       #413
      ---         BLOCKEND  ---      ---       LVL=0

      00FF80E0H   BLOCK     CODE     ---       LVL=0
      00FF80E0H   LINE      CODE     ---       #416
      00FF80E0H   LINE      CODE     ---       #419
      00FF80E3H   LINE      CODE     ---       #422
      00FF80E6H   LINE      CODE     ---       #423
      00FF80E9H   LINE      CODE     ---       #424
      00FF80ECH   LINE      CODE     ---       #425
      00FF80EFH   LINE      CODE     ---       #426
      00FF80F2H   LINE      CODE     ---       #427
      00FF80F5H   LINE      CODE     ---       #428
      00FF80F8H   LINE      CODE     ---       #429
      00FF80FBH   LINE      CODE     ---       #430
      00FF80FEH   LINE      CODE     ---       #431
      00FF8101H   LINE      CODE     ---       #432
      00FF8104H   LINE      CODE     ---       #433
      00FF8107H   LINE      CODE     ---       #452
      00FF810AH   LINE      CODE     ---       #454
      00FF811AH   LINE      CODE     ---       #459
      00FF811DH   LINE      CODE     ---       #460
      00FF811DH   LINE      CODE     ---       #464
      00FF8120H   LINE      CODE     ---       #465
      00FF8123H   LINE      CODE     ---       #466
      00FF8126H   LINE      CODE     ---       #467
      00FF8129H   LINE      CODE     ---       #468
      00FF812CH   LINE      CODE     ---       #469
      00FF812FH   LINE      CODE     ---       #470
L251 LINKER/LOCATER V4.66.93.0                                                        04/15/2024  09:56:15  PAGE 37


      00FF8132H   LINE      CODE     ---       #471
      00FF8135H   LINE      CODE     ---       #472
      00FF8138H   LINE      CODE     ---       #474
      00FF8153H   LINE      CODE     ---       #475
      00FF8156H   LINE      CODE     ---       #476
      ---         BLOCKEND  ---      ---       LVL=0

      ---         MODULE    ---      ---       common
      00000E34H   PUBLIC    EDATA    INT       wireless_type
      000000D0H   SFRSYM    DATA     BYTE      PSW
      0000009DH   SFRSYM    DATA     BYTE      IRCBAND
      00000097H   SFRSYM    DATA     BYTE      AUXR2
      000000EFH   SFRSYM    DATA     BYTE      AUXINTIF
      000000FDH   SFRSYM    DATA     BYTE      S4CON
      000000ACH   SFRSYM    DATA     BYTE      S3CON
      0000009AH   SFRSYM    DATA     BYTE      S2CON
      000000B7H   SFRSYM    DATA     BYTE      IPH
      000000CDH   SFRSYM    DATA     BYTE      SPSTAT
      000000DDH   SFRSYM    DATA     BYTE      T4T3M
      000000C1H   SFRSYM    DATA     BYTE      WDT_CONTR
      000000DFH   SFRSYM    DATA     BYTE      IP3
      000000F4H   SFRSYM    DATA     BYTE      USBCON
      000000B5H   SFRSYM    DATA     BYTE      IP2
      000000FFH   SFRSYM    DATA     BYTE      RSTCFG
      000000C7H   SFRSYM    DATA     BYTE      IAP_CONTR
      000000F9H   SFRSYM    DATA     BYTE      LINICR
      0000008EH   SFRSYM    DATA     BYTE      AUXR
      000000AFH   SFRSYM    DATA     BYTE      IE2
      00000088H   SFRSYM    DATA     BYTE      TCON
      00000089H   SFRSYM    DATA     BYTE      TMOD
      00000098H   SFRSYM    DATA     BYTE      SCON
      000000F1H   SFRSYM    DATA     BYTE      CANICR
      00000087H   SFRSYM    DATA     BYTE      PCON
      000000BCH   SFRSYM    DATA     BYTE      ADC_CONTR
      000000E7H   SFRSYM    DATA     BYTE      CMPCR2
      000000E6H   SFRSYM    DATA     BYTE      CMPCR1
      000000DEH   SFRSYM    DATA     BYTE      ADCCFG
      000000B8H   SFRSYM    DATA     BYTE      IP
      0000008FH   SFRSYM    DATA     BYTE      INTCLKO
      000000EEH   SFRSYM    DATA     BYTE      IP3H
      000000B6H   SFRSYM    DATA     BYTE      IP2H
      000000A8H   SFRSYM    DATA     BYTE      IE
      000000BBH   SFRSYM    DATA     BYTE      P_SW3
      000000BAH   SFRSYM    DATA     BYTE      P_SW2
      000000A2H   SFRSYM    DATA     BYTE      P_SW1
      000000CEH   SFRSYM    DATA     BYTE      SPCTL
      000000F8H   SFRSYM    DATA     BYTE      P7
      000000E8H   SFRSYM    DATA     BYTE      P6
      000000C8H   SFRSYM    DATA     BYTE      P5
      000000C0H   SFRSYM    DATA     BYTE      P4
      000000B0H   SFRSYM    DATA     BYTE      P3
      000000A0H   SFRSYM    DATA     BYTE      P2
      00000090H   SFRSYM    DATA     BYTE      P1
      00000080H   SFRSYM    DATA     BYTE      P0

      ---         MODULE    ---      ---       STC32F_FPMU
      00FF8E83H   PUBLIC    CODE     ---       ?C?CASTF
      00FF8E89H   PUBLIC    CODE     ---       ?C?FCASTI
      00FF005EH   PUBLIC    CODE     ---       ?C?FCASTL
      00FF000EH   PUBLIC    CODE     ---       ?C?FPADD
      00FF0046H   PUBLIC    CODE     ---       ?C?FPCMP3
      00FF0056H   PUBLIC    CODE     ---       ?C?FPDIV
      00FF001EH   PUBLIC    CODE     ---       ?C?FPMUL
      00FF0016H   PUBLIC    CODE     ---       ?C?FPSUB
      000000E0H   SFRSYM    DATA     BYTE      ACC
L251 LINKER/LOCATER V4.66.93.0                                                        04/15/2024  09:56:15  PAGE 38


      000000EDH   SFRSYM    DATA     BYTE      DMAIR
      00000083H   SFRSYM    DATA     BYTE      DPH
      00000082H   SFRSYM    DATA     BYTE      DPL
      0000001CH   SYMBOL    NUMBER   ---       DMA_FPADD
      00000030H   SYMBOL    NUMBER   ---       DMA_FPATAN
      00000027H   SYMBOL    NUMBER   ---       DMA_FPCLD
      00000032H   SYMBOL    NUMBER   ---       DMA_FPCLEX
      00000021H   SYMBOL    NUMBER   ---       DMA_FPCMP
      0000002EH   SYMBOL    NUMBER   ---       DMA_FPCOS
      00000035H   SYMBOL    NUMBER   ---       DMA_FPCRR
      00000036H   SYMBOL    NUMBER   ---       DMA_FPCRW
      00000023H   SYMBOL    NUMBER   ---       DMA_FPCST
      0000001FH   SYMBOL    NUMBER   ---       DMA_FPDIV
      00000028H   SYMBOL    NUMBER   ---       DMA_FPILD
      00000031H   SYMBOL    NUMBER   ---       DMA_FPINIT
      00000024H   SYMBOL    NUMBER   ---       DMA_FPIST
      00000029H   SYMBOL    NUMBER   ---       DMA_FPLLD
      00000025H   SYMBOL    NUMBER   ---       DMA_FPLST
      0000001EH   SYMBOL    NUMBER   ---       DMA_FPMUL
      0000002DH   SYMBOL    NUMBER   ---       DMA_FPSIN
      00000020H   SYMBOL    NUMBER   ---       DMA_FPSQRT
      00000033H   SYMBOL    NUMBER   ---       DMA_FPSRR
      00000034H   SYMBOL    NUMBER   ---       DMA_FPSRW
      0000001DH   SYMBOL    NUMBER   ---       DMA_FPSUB
      0000002FH   SYMBOL    NUMBER   ---       DMA_FPTAN
      00000022H   SYMBOL    NUMBER   ---       DMA_FPXAM
      00000001H   SYMBOL    NUMBER   ---       FP_CONV_EN
      00000001H   SYMBOL    NUMBER   ---       FP_REGS_EN
      00000001H   SYMBOL    NUMBER   ---       FP_TRIG_EN

      00FF000EH   BLOCK     CODE     NEAR LAB  LVL=0
      00FF000EH   LINE      CODE     ---       #62
      00FF0011H   LINE      CODE     ---       #63
      ---         BLOCKEND  ---      ---       LVL=0

      00FF0016H   BLOCK     CODE     NEAR LAB  LVL=0
      00FF0016H   LINE      CODE     ---       #72
      00FF0019H   LINE      CODE     ---       #73
      ---         BLOCKEND  ---      ---       LVL=0

      00FF001EH   BLOCK     CODE     NEAR LAB  LVL=0
      00FF001EH   LINE      CODE     ---       #82
      00FF0021H   LINE      CODE     ---       #83
      ---         BLOCKEND  ---      ---       LVL=0

      00FF0056H   BLOCK     CODE     NEAR LAB  LVL=0
      00FF0056H   LINE      CODE     ---       #92
      00FF0059H   LINE      CODE     ---       #93
      ---         BLOCKEND  ---      ---       LVL=0

      00FF0046H   BLOCK     CODE     NEAR LAB  LVL=0
      00FF0046H   LINE      CODE     ---       #113
      00FF0049H   LINE      CODE     ---       #114
      00FF004BH   LINE      CODE     ---       #115
      00FF004DH   LINE      CODE     ---       #116
      00FF004FH   LINE      CODE     ---       #117
      00FF0051H   LINE      CODE     ---       #118
      ---         BLOCKEND  ---      ---       LVL=0

      00FF8E83H   BLOCK     CODE     NEAR LAB  LVL=0
      00FF8E83H   LINE      CODE     ---       #213
      00FF8E86H   LINE      CODE     ---       #214
      00FF8E88H   LINE      CODE     ---       #215
      ---         BLOCKEND  ---      ---       LVL=0

L251 LINKER/LOCATER V4.66.93.0                                                        04/15/2024  09:56:15  PAGE 39


      00FF8E89H   BLOCK     CODE     NEAR LAB  LVL=0
      00FF8E89H   LINE      CODE     ---       #235
      00FF8E8BH   LINE      CODE     ---       #236
      00FF8E8EH   LINE      CODE     ---       #237
      ---         BLOCKEND  ---      ---       LVL=0

      00FF005EH   BLOCK     CODE     NEAR LAB  LVL=0
      00FF005EH   LINE      CODE     ---       #246
      00FF0061H   LINE      CODE     ---       #247
      ---         BLOCKEND  ---      ---       LVL=0

      ---         MODULE    ---      ---       zf_adc
      00FF8764H   PUBLIC    CODE     ---       adc_once
      00FF7DB3H   PUBLIC    CODE     ---       adc_init
      00000094H   SFRSYM    DATA     BYTE      P0M0
      000000D0H   SFRSYM    DATA     BYTE      PSW
      0000009DH   SFRSYM    DATA     BYTE      IRCBAND
      00000097H   SFRSYM    DATA     BYTE      AUXR2
      000000EFH   SFRSYM    DATA     BYTE      AUXINTIF
      000000FDH   SFRSYM    DATA     BYTE      S4CON
      000000ACH   SFRSYM    DATA     BYTE      S3CON
      0000009AH   SFRSYM    DATA     BYTE      S2CON
      000000B7H   SFRSYM    DATA     BYTE      IPH
      000000CDH   SFRSYM    DATA     BYTE      SPSTAT
      000000BEH   SFRSYM    DATA     BYTE      ADC_RESL
      000000DDH   SFRSYM    DATA     BYTE      T4T3M
      000000C1H   SFRSYM    DATA     BYTE      WDT_CONTR
      000000DFH   SFRSYM    DATA     BYTE      IP3
      000000F4H   SFRSYM    DATA     BYTE      USBCON
      000000B5H   SFRSYM    DATA     BYTE      IP2
      000000FFH   SFRSYM    DATA     BYTE      RSTCFG
      000000C7H   SFRSYM    DATA     BYTE      IAP_CONTR
      000000F9H   SFRSYM    DATA     BYTE      LINICR
      0000008EH   SFRSYM    DATA     BYTE      AUXR
      000000AFH   SFRSYM    DATA     BYTE      IE2
      00000088H   SFRSYM    DATA     BYTE      TCON
      00000089H   SFRSYM    DATA     BYTE      TMOD
      00000098H   SFRSYM    DATA     BYTE      SCON
      000000F1H   SFRSYM    DATA     BYTE      CANICR
      00000087H   SFRSYM    DATA     BYTE      PCON
      000000BCH   SFRSYM    DATA     BYTE      ADC_CONTR
      000000E7H   SFRSYM    DATA     BYTE      CMPCR2
      000000E6H   SFRSYM    DATA     BYTE      CMPCR1
      000000DEH   SFRSYM    DATA     BYTE      ADCCFG
      000000B8H   SFRSYM    DATA     BYTE      IP
      0000008FH   SFRSYM    DATA     BYTE      INTCLKO
      000000EEH   SFRSYM    DATA     BYTE      IP3H
      000000B6H   SFRSYM    DATA     BYTE      IP2H
      000000BDH   SFRSYM    DATA     BYTE      ADC_RES
      000000A8H   SFRSYM    DATA     BYTE      IE
      000000BBH   SFRSYM    DATA     BYTE      P_SW3
      000000BAH   SFRSYM    DATA     BYTE      P_SW2
      000000A2H   SFRSYM    DATA     BYTE      P_SW1
      000000CEH   SFRSYM    DATA     BYTE      SPCTL
      000000F8H   SFRSYM    DATA     BYTE      P7
      000000E8H   SFRSYM    DATA     BYTE      P6
      000000C8H   SFRSYM    DATA     BYTE      P5
      000000C0H   SFRSYM    DATA     BYTE      P4
      000000B0H   SFRSYM    DATA     BYTE      P3
      000000A0H   SFRSYM    DATA     BYTE      P2
      00000090H   SFRSYM    DATA     BYTE      P1
      00000080H   SFRSYM    DATA     BYTE      P0
      00000091H   SFRSYM    DATA     BYTE      P1M1
      00000092H   SFRSYM    DATA     BYTE      P1M0
      00000093H   SFRSYM    DATA     BYTE      P0M1
L251 LINKER/LOCATER V4.66.93.0                                                        04/15/2024  09:56:15  PAGE 40



      00FF7DB3H   BLOCK     CODE     ---       LVL=0
      00000D8BH   SYMBOL    EDATA    INT       adcn
      00000D8DH   SYMBOL    EDATA    INT       speed
      00FF7DB3H   LINE      CODE     ---       #32
      00FF7DBBH   LINE      CODE     ---       #34
      00FF7DBEH   LINE      CODE     ---       #36
      00FF7DC1H   LINE      CODE     ---       #37
      00FF7DC9H   LINE      CODE     ---       #39
      00FF7DDBH   LINE      CODE     ---       #42
      00FF7DF6H   LINE      CODE     ---       #43
      00FF7E0FH   LINE      CODE     ---       #44
      00FF7E11H   LINE      CODE     ---       #45
      00FF7E21H   LINE      CODE     ---       #48
      00FF7E3CH   LINE      CODE     ---       #49
      00FF7E55H   LINE      CODE     ---       #50
      00FF7E55H   LINE      CODE     ---       #52
      00FF7E64H   LINE      CODE     ---       #54
      00FF7E67H   LINE      CODE     ---       #55
      ---         BLOCKEND  ---      ---       LVL=0

      00FF8764H   BLOCK     CODE     ---       LVL=0
      00000CAAH   SYMBOL    EDATA    INT       adcn
      00000CACH   SYMBOL    EDATA    INT       resolution
      00FF876CH   BLOCK     CODE     NEAR LAB  LVL=1
      00000CAEH   SYMBOL    EDATA    WORD      adc_value
      ---         BLOCKEND  ---      ---       LVL=1
      00FF8764H   LINE      CODE     ---       #66
      00FF876CH   LINE      CODE     ---       #67
      00FF876CH   LINE      CODE     ---       #70
      00FF876FH   LINE      CODE     ---       #71
      00FF8777H   LINE      CODE     ---       #73
      00FF877AH   LINE      CODE     ---       #74
      00FF877FH   LINE      CODE     ---       #75
      00FF8782H   LINE      CODE     ---       #77
      00FF878AH   LINE      CODE     ---       #78
      00FF8792H   LINE      CODE     ---       #79
      00FF87A0H   LINE      CODE     ---       #81
      00FF87A3H   LINE      CODE     ---       #82
      00FF87A6H   LINE      CODE     ---       #84
      00FF87B9H   LINE      CODE     ---       #87
      00FF87B9H   LINE      CODE     ---       #88
      ---         BLOCKEND  ---      ---       LVL=0

      ---         MODULE    ---      ---       zf_delay
      00FF8D3EH   PUBLIC    CODE     ---       delay_init
      00FF8B58H   PUBLIC    CODE     ---       delay_ms
      00000D8FH   PUBLIC    EDATA    WORD      zf_delay_ms
      00000D91H   PUBLIC    EDATA    WORD      zf_delay_us
      000000D0H   SFRSYM    DATA     BYTE      PSW
      0000009DH   SFRSYM    DATA     BYTE      IRCBAND
      00000097H   SFRSYM    DATA     BYTE      AUXR2
      000000EFH   SFRSYM    DATA     BYTE      AUXINTIF
      000000FDH   SFRSYM    DATA     BYTE      S4CON
      000000ACH   SFRSYM    DATA     BYTE      S3CON
      0000009AH   SFRSYM    DATA     BYTE      S2CON
      000000B7H   SFRSYM    DATA     BYTE      IPH
      000000CDH   SFRSYM    DATA     BYTE      SPSTAT
      000000DDH   SFRSYM    DATA     BYTE      T4T3M
      000000C1H   SFRSYM    DATA     BYTE      WDT_CONTR
      000000DFH   SFRSYM    DATA     BYTE      IP3
      000000F4H   SFRSYM    DATA     BYTE      USBCON
      000000B5H   SFRSYM    DATA     BYTE      IP2
      000000FFH   SFRSYM    DATA     BYTE      RSTCFG
      000000C7H   SFRSYM    DATA     BYTE      IAP_CONTR
L251 LINKER/LOCATER V4.66.93.0                                                        04/15/2024  09:56:15  PAGE 41


      000000F9H   SFRSYM    DATA     BYTE      LINICR
      0000008EH   SFRSYM    DATA     BYTE      AUXR
      000000AFH   SFRSYM    DATA     BYTE      IE2
      00000088H   SFRSYM    DATA     BYTE      TCON
      00000089H   SFRSYM    DATA     BYTE      TMOD
      00000098H   SFRSYM    DATA     BYTE      SCON
      000000F1H   SFRSYM    DATA     BYTE      CANICR
      00000087H   SFRSYM    DATA     BYTE      PCON
      000000BCH   SFRSYM    DATA     BYTE      ADC_CONTR
      000000E7H   SFRSYM    DATA     BYTE      CMPCR2
      000000E6H   SFRSYM    DATA     BYTE      CMPCR1
      000000DEH   SFRSYM    DATA     BYTE      ADCCFG
      000000B8H   SFRSYM    DATA     BYTE      IP
      0000008FH   SFRSYM    DATA     BYTE      INTCLKO
      000000EEH   SFRSYM    DATA     BYTE      IP3H
      000000B6H   SFRSYM    DATA     BYTE      IP2H
      000000A8H   SFRSYM    DATA     BYTE      IE
      000000BBH   SFRSYM    DATA     BYTE      P_SW3
      000000BAH   SFRSYM    DATA     BYTE      P_SW2
      000000A2H   SFRSYM    DATA     BYTE      P_SW1
      000000CEH   SFRSYM    DATA     BYTE      SPCTL
      000000F8H   SFRSYM    DATA     BYTE      P7
      000000E8H   SFRSYM    DATA     BYTE      P6
      000000C8H   SFRSYM    DATA     BYTE      P5
      000000C0H   SFRSYM    DATA     BYTE      P4
      000000B0H   SFRSYM    DATA     BYTE      P3
      000000A0H   SFRSYM    DATA     BYTE      P2
      00000090H   SFRSYM    DATA     BYTE      P1
      00000080H   SFRSYM    DATA     BYTE      P0

      00FF8D3EH   BLOCK     CODE     ---       LVL=0
      00FF8D3EH   LINE      CODE     ---       #34
      00FF8D3EH   LINE      CODE     ---       #36
      00FF8D4DH   LINE      CODE     ---       #37
      00FF8D60H   LINE      CODE     ---       #38
      ---         BLOCKEND  ---      ---       LVL=0

      00FF8B58H   BLOCK     CODE     ---       LVL=0
      00000D93H   SYMBOL    EDATA    WORD      ms
      00FF8B5CH   BLOCK     CODE     NEAR LAB  LVL=1
      00000D95H   SYMBOL    EDATA    WORD      i
      ---         BLOCKEND  ---      ---       LVL=1
      00FF8B58H   LINE      CODE     ---       #46
      00FF8B5CH   LINE      CODE     ---       #47
      00FF8B5CH   LINE      CODE     ---       #49
      00FF8B5CH   LINE      CODE     ---       #50
      00FF8B64H   LINE      CODE     ---       #51
      00FF8B78H   LINE      CODE     ---       #52
      00FF8B8CH   LINE      CODE     ---       #53
      ---         BLOCKEND  ---      ---       LVL=0
      00000CB0H   SYMBOL    EDATA    DWORD     us
      00000CB4H   SYMBOL    EDATA    WORD      i

      ---         MODULE    ---      ---       zf_eeprom
      00000AB3H   PUBLIC    EDATA    BYTE      ?iap_read_bytes?BYTE
      00000ABDH   PUBLIC    EDATA    BYTE      ?iap_write_bytes?BYTE
      000000D0H   SFRSYM    DATA     BYTE      PSW
      0000009DH   SFRSYM    DATA     BYTE      IRCBAND
      000000D0H.5 SFRSYM    DATA     BIT       F0
      00000097H   SFRSYM    DATA     BYTE      AUXR2
      000000C6H   SFRSYM    DATA     BYTE      IAP_TRIG
      000000EFH   SFRSYM    DATA     BYTE      AUXINTIF
      000000FDH   SFRSYM    DATA     BYTE      S4CON
      000000ACH   SFRSYM    DATA     BYTE      S3CON
      0000009AH   SFRSYM    DATA     BYTE      S2CON
L251 LINKER/LOCATER V4.66.93.0                                                        04/15/2024  09:56:15  PAGE 42


      000000B7H   SFRSYM    DATA     BYTE      IPH
      000000CDH   SFRSYM    DATA     BYTE      SPSTAT
      000000DDH   SFRSYM    DATA     BYTE      T4T3M
      000000C1H   SFRSYM    DATA     BYTE      WDT_CONTR
      000000C2H   SFRSYM    DATA     BYTE      IAP_DATA
      000000DFH   SFRSYM    DATA     BYTE      IP3
      000000F4H   SFRSYM    DATA     BYTE      USBCON
      000000B5H   SFRSYM    DATA     BYTE      IP2
      000000FFH   SFRSYM    DATA     BYTE      RSTCFG
      000000C7H   SFRSYM    DATA     BYTE      IAP_CONTR
      000000F9H   SFRSYM    DATA     BYTE      LINICR
      0000008EH   SFRSYM    DATA     BYTE      AUXR
      000000AFH   SFRSYM    DATA     BYTE      IE2
      00000088H   SFRSYM    DATA     BYTE      TCON
      00000089H   SFRSYM    DATA     BYTE      TMOD
      00000098H   SFRSYM    DATA     BYTE      SCON
      000000F5H   SFRSYM    DATA     BYTE      IAP_TPS
      000000F1H   SFRSYM    DATA     BYTE      CANICR
      00000087H   SFRSYM    DATA     BYTE      PCON
      000000BCH   SFRSYM    DATA     BYTE      ADC_CONTR
      000000E7H   SFRSYM    DATA     BYTE      CMPCR2
      000000E6H   SFRSYM    DATA     BYTE      CMPCR1
      000000C4H   SFRSYM    DATA     BYTE      IAP_ADDRL
      000000C3H   SFRSYM    DATA     BYTE      IAP_ADDRH
      000000F6H   SFRSYM    DATA     BYTE      IAP_ADDRE
      000000DEH   SFRSYM    DATA     BYTE      ADCCFG
      000000B8H   SFRSYM    DATA     BYTE      IP
      0000008FH   SFRSYM    DATA     BYTE      INTCLKO
      000000EEH   SFRSYM    DATA     BYTE      IP3H
      000000B6H   SFRSYM    DATA     BYTE      IP2H
      000000C5H   SFRSYM    DATA     BYTE      IAP_CMD
      000000A8H   SFRSYM    DATA     BYTE      IE
      000000BBH   SFRSYM    DATA     BYTE      P_SW3
      000000BAH   SFRSYM    DATA     BYTE      P_SW2
      000000A2H   SFRSYM    DATA     BYTE      P_SW1
      000000CEH   SFRSYM    DATA     BYTE      SPCTL
      000000F8H   SFRSYM    DATA     BYTE      P7
      000000A8H.7 SFRSYM    DATA     BIT       EA
      000000E8H   SFRSYM    DATA     BYTE      P6
      000000C8H   SFRSYM    DATA     BYTE      P5
      000000C0H   SFRSYM    DATA     BYTE      P4
      000000B0H   SFRSYM    DATA     BYTE      P3
      000000A0H   SFRSYM    DATA     BYTE      P2
      00000090H   SFRSYM    DATA     BYTE      P1
      00000080H   SFRSYM    DATA     BYTE      P0
      00000E99H   SYMBOL    EDATA    BYTE      write_time
      00000AB3H   SYMBOL    EDATA    DWORD     addr
      00000AB7H   SYMBOL    EDATA    ---       buf
      00000ABBH   SYMBOL    EDATA    WORD      len
      00000ABDH   SYMBOL    EDATA    DWORD     addr
      00000AC1H   SYMBOL    EDATA    ---       buf
      00000AC5H   SYMBOL    EDATA    WORD      len
      00000D97H   SYMBOL    EDATA    DWORD     addr

      ---         MODULE    ---      ---       zf_exti
      000000D0H   SFRSYM    DATA     BYTE      PSW
      0000009DH   SFRSYM    DATA     BYTE      IRCBAND
      00000097H   SFRSYM    DATA     BYTE      AUXR2
      000000EFH   SFRSYM    DATA     BYTE      AUXINTIF
      000000FDH   SFRSYM    DATA     BYTE      S4CON
      000000ACH   SFRSYM    DATA     BYTE      S3CON
      0000009AH   SFRSYM    DATA     BYTE      S2CON
      000000B7H   SFRSYM    DATA     BYTE      IPH
      000000CDH   SFRSYM    DATA     BYTE      SPSTAT
      000000DDH   SFRSYM    DATA     BYTE      T4T3M
L251 LINKER/LOCATER V4.66.93.0                                                        04/15/2024  09:56:15  PAGE 43


      000000C1H   SFRSYM    DATA     BYTE      WDT_CONTR
      00000088H.2 SFRSYM    DATA     BIT       IT1
      000000A8H.2 SFRSYM    DATA     BIT       EX1
      00000088H.0 SFRSYM    DATA     BIT       IT0
      000000A8H.0 SFRSYM    DATA     BIT       EX0
      000000DFH   SFRSYM    DATA     BYTE      IP3
      000000F4H   SFRSYM    DATA     BYTE      USBCON
      000000B5H   SFRSYM    DATA     BYTE      IP2
      000000FFH   SFRSYM    DATA     BYTE      RSTCFG
      000000C7H   SFRSYM    DATA     BYTE      IAP_CONTR
      000000F9H   SFRSYM    DATA     BYTE      LINICR
      0000008EH   SFRSYM    DATA     BYTE      AUXR
      000000AFH   SFRSYM    DATA     BYTE      IE2
      00000088H   SFRSYM    DATA     BYTE      TCON
      00000089H   SFRSYM    DATA     BYTE      TMOD
      00000098H   SFRSYM    DATA     BYTE      SCON
      000000F1H   SFRSYM    DATA     BYTE      CANICR
      00000087H   SFRSYM    DATA     BYTE      PCON
      000000BCH   SFRSYM    DATA     BYTE      ADC_CONTR
      000000E7H   SFRSYM    DATA     BYTE      CMPCR2
      000000E6H   SFRSYM    DATA     BYTE      CMPCR1
      000000DEH   SFRSYM    DATA     BYTE      ADCCFG
      000000B8H   SFRSYM    DATA     BYTE      IP
      0000008FH   SFRSYM    DATA     BYTE      INTCLKO
      000000EEH   SFRSYM    DATA     BYTE      IP3H
      000000B6H   SFRSYM    DATA     BYTE      IP2H
      000000A8H   SFRSYM    DATA     BYTE      IE
      000000BBH   SFRSYM    DATA     BYTE      P_SW3
      000000BAH   SFRSYM    DATA     BYTE      P_SW2
      000000A2H   SFRSYM    DATA     BYTE      P_SW1
      000000CEH   SFRSYM    DATA     BYTE      SPCTL
      000000F8H   SFRSYM    DATA     BYTE      P7
      000000E8H   SFRSYM    DATA     BYTE      P6
      000000C8H   SFRSYM    DATA     BYTE      P5
      000000C0H   SFRSYM    DATA     BYTE      P4
      000000B0H   SFRSYM    DATA     BYTE      P3
      000000A0H   SFRSYM    DATA     BYTE      P2
      00000090H   SFRSYM    DATA     BYTE      P1
      00000080H   SFRSYM    DATA     BYTE      P0
      00000D9BH   SYMBOL    EDATA    INT       int_n
      00000D9DH   SYMBOL    EDATA    INT       mode

      ---         MODULE    ---      ---       zf_gpio
      00FF2F35H   PUBLIC    CODE     ---       gpio_mode
      00000094H   SFRSYM    DATA     BYTE      P0M0
      000000D0H   SFRSYM    DATA     BYTE      PSW
      0000009DH   SFRSYM    DATA     BYTE      IRCBAND
      00000097H   SFRSYM    DATA     BYTE      AUXR2
      000000EFH   SFRSYM    DATA     BYTE      AUXINTIF
      000000FDH   SFRSYM    DATA     BYTE      S4CON
      000000ACH   SFRSYM    DATA     BYTE      S3CON
      0000009AH   SFRSYM    DATA     BYTE      S2CON
      000000B7H   SFRSYM    DATA     BYTE      IPH
      000000CDH   SFRSYM    DATA     BYTE      SPSTAT
      000000DDH   SFRSYM    DATA     BYTE      T4T3M
      000000C1H   SFRSYM    DATA     BYTE      WDT_CONTR
      000000DFH   SFRSYM    DATA     BYTE      IP3
      000000F4H   SFRSYM    DATA     BYTE      USBCON
      000000B5H   SFRSYM    DATA     BYTE      IP2
      000000FFH   SFRSYM    DATA     BYTE      RSTCFG
      000000C7H   SFRSYM    DATA     BYTE      IAP_CONTR
      000000F9H   SFRSYM    DATA     BYTE      LINICR
      0000008EH   SFRSYM    DATA     BYTE      AUXR
      000000AFH   SFRSYM    DATA     BYTE      IE2
      00000088H   SFRSYM    DATA     BYTE      TCON
L251 LINKER/LOCATER V4.66.93.0                                                        04/15/2024  09:56:15  PAGE 44


      00000089H   SFRSYM    DATA     BYTE      TMOD
      00000098H   SFRSYM    DATA     BYTE      SCON
      000000F1H   SFRSYM    DATA     BYTE      CANICR
      00000087H   SFRSYM    DATA     BYTE      PCON
      000000BCH   SFRSYM    DATA     BYTE      ADC_CONTR
      000000E7H   SFRSYM    DATA     BYTE      CMPCR2
      000000E6H   SFRSYM    DATA     BYTE      CMPCR1
      000000DEH   SFRSYM    DATA     BYTE      ADCCFG
      000000B8H   SFRSYM    DATA     BYTE      IP
      0000008FH   SFRSYM    DATA     BYTE      INTCLKO
      000000EEH   SFRSYM    DATA     BYTE      IP3H
      000000B6H   SFRSYM    DATA     BYTE      IP2H
      000000A8H   SFRSYM    DATA     BYTE      IE
      000000BBH   SFRSYM    DATA     BYTE      P_SW3
      000000BAH   SFRSYM    DATA     BYTE      P_SW2
      000000A2H   SFRSYM    DATA     BYTE      P_SW1
      000000CEH   SFRSYM    DATA     BYTE      SPCTL
      000000F8H   SFRSYM    DATA     BYTE      P7
      000000E1H   SFRSYM    DATA     BYTE      P7M1
      000000E8H   SFRSYM    DATA     BYTE      P6
      000000C8H   SFRSYM    DATA     BYTE      P5
      000000CBH   SFRSYM    DATA     BYTE      P6M1
      000000E2H   SFRSYM    DATA     BYTE      P7M0
      000000C0H   SFRSYM    DATA     BYTE      P4
      000000C9H   SFRSYM    DATA     BYTE      P5M1
      000000CCH   SFRSYM    DATA     BYTE      P6M0
      000000B0H   SFRSYM    DATA     BYTE      P3
      000000B3H   SFRSYM    DATA     BYTE      P4M1
      000000CAH   SFRSYM    DATA     BYTE      P5M0
      000000A0H   SFRSYM    DATA     BYTE      P2
      000000B1H   SFRSYM    DATA     BYTE      P3M1
      000000B4H   SFRSYM    DATA     BYTE      P4M0
      00000090H   SFRSYM    DATA     BYTE      P1
      00000095H   SFRSYM    DATA     BYTE      P2M1
      000000B2H   SFRSYM    DATA     BYTE      P3M0
      00000080H   SFRSYM    DATA     BYTE      P0
      00000091H   SFRSYM    DATA     BYTE      P1M1
      00000096H   SFRSYM    DATA     BYTE      P2M0
      00000092H   SFRSYM    DATA     BYTE      P1M0
      00000093H   SFRSYM    DATA     BYTE      P0M1
      00000D9FH   SYMBOL    EDATA    INT       pin
      00000DA1H   SYMBOL    EDATA    INT       pull

      00FF2F35H   BLOCK     CODE     ---       LVL=0
      00000DA3H   SYMBOL    EDATA    INT       pin
      00000DA5H   SYMBOL    EDATA    INT       mode
      00FF2F35H   LINE      CODE     ---       #54
      00FF2F3DH   LINE      CODE     ---       #56
      00FF2F4AH   LINE      CODE     ---       #58
      00FF2F5AH   LINE      CODE     ---       #60
      00FF2F75H   LINE      CODE     ---       #61
      00FF2F90H   LINE      CODE     ---       #62
      00FF2F90H   LINE      CODE     ---       #63
      00FF2FA2H   LINE      CODE     ---       #65
      00FF2FBDH   LINE      CODE     ---       #66
      00FF2FD8H   LINE      CODE     ---       #67
      00FF2FD8H   LINE      CODE     ---       #68
      00FF2FEAH   LINE      CODE     ---       #70
      00FF3005H   LINE      CODE     ---       #71
      00FF3020H   LINE      CODE     ---       #72
      00FF3020H   LINE      CODE     ---       #74
      00FF3032H   LINE      CODE     ---       #76
      00FF304DH   LINE      CODE     ---       #77
      00FF3068H   LINE      CODE     ---       #78
      00FF3068H   LINE      CODE     ---       #79
L251 LINKER/LOCATER V4.66.93.0                                                        04/15/2024  09:56:15  PAGE 45


      00FF307AH   LINE      CODE     ---       #81
      00FF3095H   LINE      CODE     ---       #82
      00FF30B0H   LINE      CODE     ---       #83
      00FF30B0H   LINE      CODE     ---       #84
      00FF30C2H   LINE      CODE     ---       #86
      00FF30DDH   LINE      CODE     ---       #87
      00FF30F8H   LINE      CODE     ---       #88
      00FF30F8H   LINE      CODE     ---       #89
      00FF310AH   LINE      CODE     ---       #91
      00FF3125H   LINE      CODE     ---       #92
      00FF3140H   LINE      CODE     ---       #93
      00FF3140H   LINE      CODE     ---       #94
      00FF3155H   LINE      CODE     ---       #96
      00FF3170H   LINE      CODE     ---       #97
      00FF318BH   LINE      CODE     ---       #98
      00FF318EH   LINE      CODE     ---       #100
      00FF319DH   LINE      CODE     ---       #102
      00FF31ADH   LINE      CODE     ---       #104
      00FF31C8H   LINE      CODE     ---       #105
      00FF31E1H   LINE      CODE     ---       #106
      00FF31E1H   LINE      CODE     ---       #107
      00FF31F3H   LINE      CODE     ---       #109
      00FF320EH   LINE      CODE     ---       #110
      00FF3227H   LINE      CODE     ---       #111
      00FF3227H   LINE      CODE     ---       #112
      00FF3239H   LINE      CODE     ---       #114
      00FF3254H   LINE      CODE     ---       #115
      00FF326DH   LINE      CODE     ---       #116
      00FF326DH   LINE      CODE     ---       #118
      00FF327FH   LINE      CODE     ---       #120
      00FF329AH   LINE      CODE     ---       #121
      00FF32B3H   LINE      CODE     ---       #122
      00FF32B3H   LINE      CODE     ---       #123
      00FF32C5H   LINE      CODE     ---       #125
      00FF32E0H   LINE      CODE     ---       #126
      00FF32F9H   LINE      CODE     ---       #127
      00FF32F9H   LINE      CODE     ---       #128
      00FF330BH   LINE      CODE     ---       #130
      00FF3326H   LINE      CODE     ---       #131
      00FF333FH   LINE      CODE     ---       #132
      00FF333FH   LINE      CODE     ---       #133
      00FF3351H   LINE      CODE     ---       #135
      00FF336CH   LINE      CODE     ---       #136
      00FF3385H   LINE      CODE     ---       #137
      00FF3385H   LINE      CODE     ---       #138
      00FF339AH   LINE      CODE     ---       #140
      00FF33B5H   LINE      CODE     ---       #141
      00FF33CEH   LINE      CODE     ---       #142
      00FF33D1H   LINE      CODE     ---       #145
      00FF33E0H   LINE      CODE     ---       #147
      00FF33F0H   LINE      CODE     ---       #149
      00FF3409H   LINE      CODE     ---       #150
      00FF3424H   LINE      CODE     ---       #151
      00FF3424H   LINE      CODE     ---       #152
      00FF3436H   LINE      CODE     ---       #154
      00FF344FH   LINE      CODE     ---       #155
      00FF346AH   LINE      CODE     ---       #156
      00FF346AH   LINE      CODE     ---       #157
      00FF347CH   LINE      CODE     ---       #159
      00FF3495H   LINE      CODE     ---       #160
      00FF34B0H   LINE      CODE     ---       #161
      00FF34B0H   LINE      CODE     ---       #163
      00FF34C2H   LINE      CODE     ---       #165
      00FF34DBH   LINE      CODE     ---       #166
      00FF34F6H   LINE      CODE     ---       #167
L251 LINKER/LOCATER V4.66.93.0                                                        04/15/2024  09:56:15  PAGE 46


      00FF34F6H   LINE      CODE     ---       #168
      00FF3508H   LINE      CODE     ---       #170
      00FF3521H   LINE      CODE     ---       #171
      00FF353CH   LINE      CODE     ---       #172
      00FF353CH   LINE      CODE     ---       #173
      00FF354EH   LINE      CODE     ---       #175
      00FF3567H   LINE      CODE     ---       #176
      00FF3582H   LINE      CODE     ---       #177
      00FF3582H   LINE      CODE     ---       #178
      00FF3594H   LINE      CODE     ---       #180
      00FF35ADH   LINE      CODE     ---       #181
      00FF35C8H   LINE      CODE     ---       #182
      00FF35C8H   LINE      CODE     ---       #183
      00FF35DDH   LINE      CODE     ---       #185
      00FF35F6H   LINE      CODE     ---       #186
      00FF3611H   LINE      CODE     ---       #187
      00FF3614H   LINE      CODE     ---       #189
      00FF3623H   LINE      CODE     ---       #191
      00FF3633H   LINE      CODE     ---       #193
      00FF364CH   LINE      CODE     ---       #194
      00FF3665H   LINE      CODE     ---       #195
      00FF3665H   LINE      CODE     ---       #196
      00FF3677H   LINE      CODE     ---       #198
      00FF3690H   LINE      CODE     ---       #199
      00FF36A9H   LINE      CODE     ---       #200
      00FF36A9H   LINE      CODE     ---       #201
      00FF36BBH   LINE      CODE     ---       #203
      00FF36D4H   LINE      CODE     ---       #204
      00FF36EDH   LINE      CODE     ---       #205
      00FF36EDH   LINE      CODE     ---       #207
      00FF36FFH   LINE      CODE     ---       #209
      00FF3718H   LINE      CODE     ---       #210
      00FF3731H   LINE      CODE     ---       #211
      00FF3731H   LINE      CODE     ---       #212
      00FF3743H   LINE      CODE     ---       #214
      00FF375CH   LINE      CODE     ---       #215
      00FF3775H   LINE      CODE     ---       #216
      00FF3775H   LINE      CODE     ---       #217
      00FF3787H   LINE      CODE     ---       #219
      00FF37A0H   LINE      CODE     ---       #220
      00FF37B9H   LINE      CODE     ---       #221
      00FF37B9H   LINE      CODE     ---       #222
      00FF37CBH   LINE      CODE     ---       #224
      00FF37E4H   LINE      CODE     ---       #225
      00FF37FDH   LINE      CODE     ---       #226
      00FF37FDH   LINE      CODE     ---       #227
      00FF380FH   LINE      CODE     ---       #229
      00FF3828H   LINE      CODE     ---       #230
      00FF3841H   LINE      CODE     ---       #231
      00FF3841H   LINE      CODE     ---       #233
      ---         BLOCKEND  ---      ---       LVL=0

      ---         MODULE    ---      ---       zf_iic
      00000CB2H   PUBLIC    EDATA    BYTE      ?iic_init?BYTE
      000000D0H   SFRSYM    DATA     BYTE      PSW
      0000009DH   SFRSYM    DATA     BYTE      IRCBAND
      00000097H   SFRSYM    DATA     BYTE      AUXR2
      000000EFH   SFRSYM    DATA     BYTE      AUXINTIF
      000000FDH   SFRSYM    DATA     BYTE      S4CON
      000000ACH   SFRSYM    DATA     BYTE      S3CON
      0000009AH   SFRSYM    DATA     BYTE      S2CON
      000000B7H   SFRSYM    DATA     BYTE      IPH
      000000CDH   SFRSYM    DATA     BYTE      SPSTAT
      000000DDH   SFRSYM    DATA     BYTE      T4T3M
      000000C1H   SFRSYM    DATA     BYTE      WDT_CONTR
L251 LINKER/LOCATER V4.66.93.0                                                        04/15/2024  09:56:15  PAGE 47


      000000DFH   SFRSYM    DATA     BYTE      IP3
      000000F4H   SFRSYM    DATA     BYTE      USBCON
      000000B5H   SFRSYM    DATA     BYTE      IP2
      000000FFH   SFRSYM    DATA     BYTE      RSTCFG
      000000C7H   SFRSYM    DATA     BYTE      IAP_CONTR
      000000F9H   SFRSYM    DATA     BYTE      LINICR
      0000008EH   SFRSYM    DATA     BYTE      AUXR
      000000AFH   SFRSYM    DATA     BYTE      IE2
      00000088H   SFRSYM    DATA     BYTE      TCON
      00000089H   SFRSYM    DATA     BYTE      TMOD
      00000098H   SFRSYM    DATA     BYTE      SCON
      000000F1H   SFRSYM    DATA     BYTE      CANICR
      00000087H   SFRSYM    DATA     BYTE      PCON
      000000BCH   SFRSYM    DATA     BYTE      ADC_CONTR
      000000E7H   SFRSYM    DATA     BYTE      CMPCR2
      000000E6H   SFRSYM    DATA     BYTE      CMPCR1
      000000DEH   SFRSYM    DATA     BYTE      ADCCFG
      000000B8H   SFRSYM    DATA     BYTE      IP
      0000008FH   SFRSYM    DATA     BYTE      INTCLKO
      000000EEH   SFRSYM    DATA     BYTE      IP3H
      000000B6H   SFRSYM    DATA     BYTE      IP2H
      000000A8H   SFRSYM    DATA     BYTE      IE
      000000BBH   SFRSYM    DATA     BYTE      P_SW3
      000000BAH   SFRSYM    DATA     BYTE      P_SW2
      000000A2H   SFRSYM    DATA     BYTE      P_SW1
      000000CEH   SFRSYM    DATA     BYTE      SPCTL
      000000F8H   SFRSYM    DATA     BYTE      P7
      000000E8H   SFRSYM    DATA     BYTE      P6
      000000C8H   SFRSYM    DATA     BYTE      P5
      000000C0H   SFRSYM    DATA     BYTE      P4
      000000B0H   SFRSYM    DATA     BYTE      P3
      000000A0H   SFRSYM    DATA     BYTE      P2
      00000090H   SFRSYM    DATA     BYTE      P1
      00000080H   SFRSYM    DATA     BYTE      P0
      00000DEFH   SYMBOL    EDATA    WORD      x
      00000DF1H   SYMBOL    EDATA    BYTE      i
      00000DF2H   SYMBOL    EDATA    WORD      count
      00000DF4H   SYMBOL    EDATA    BYTE      ret
      00000E9AH   SYMBOL    EDATA    BYTE      ret
      00000E36H   SYMBOL    EDATA    CHAR      dat
      00000E37H   SYMBOL    EDATA    BYTE      ret
      00000E9BH   SYMBOL    EDATA    BYTE      ret
      00000E9CH   SYMBOL    EDATA    BYTE      ret
      00000E9DH   SYMBOL    EDATA    BYTE      ret
      00000CB6H   SYMBOL    EDATA    INT       iic_n
      00000CB8H   SYMBOL    EDATA    DWORD     wait_time
      00000DF5H   SYMBOL    EDATA    BYTE      dev_add
      00000DF6H   SYMBOL    EDATA    BYTE      reg
      00000DF7H   SYMBOL    EDATA    BYTE      dat
      00000CBCH   SYMBOL    EDATA    BYTE      dev_add
      00000CBDH   SYMBOL    EDATA    BYTE      reg
      00000CBEH   SYMBOL    EDATA    ---       dat
      00000C72H   SYMBOL    EDATA    BYTE      dev_add
      00000C73H   SYMBOL    EDATA    BYTE      reg
      00000C74H   SYMBOL    EDATA    ---       dat
      00000C78H   SYMBOL    EDATA    BYTE      num
      00000E38H   SYMBOL    EDATA    INT       iic_n

      ---         MODULE    ---      ---       zf_nvic
      000000D0H   SFRSYM    DATA     BYTE      PSW
      0000009DH   SFRSYM    DATA     BYTE      IRCBAND
      00000097H   SFRSYM    DATA     BYTE      AUXR2
      000000EFH   SFRSYM    DATA     BYTE      AUXINTIF
      000000FDH   SFRSYM    DATA     BYTE      S4CON
      000000ACH   SFRSYM    DATA     BYTE      S3CON
L251 LINKER/LOCATER V4.66.93.0                                                        04/15/2024  09:56:15  PAGE 48


      0000009AH   SFRSYM    DATA     BYTE      S2CON
      000000B7H   SFRSYM    DATA     BYTE      IPH
      000000CDH   SFRSYM    DATA     BYTE      SPSTAT
      000000DDH   SFRSYM    DATA     BYTE      T4T3M
      000000C1H   SFRSYM    DATA     BYTE      WDT_CONTR
      000000DFH   SFRSYM    DATA     BYTE      IP3
      000000F4H   SFRSYM    DATA     BYTE      USBCON
      000000B5H   SFRSYM    DATA     BYTE      IP2
      000000FFH   SFRSYM    DATA     BYTE      RSTCFG
      000000C7H   SFRSYM    DATA     BYTE      IAP_CONTR
      000000F9H   SFRSYM    DATA     BYTE      LINICR
      0000008EH   SFRSYM    DATA     BYTE      AUXR
      000000AFH   SFRSYM    DATA     BYTE      IE2
      00000088H   SFRSYM    DATA     BYTE      TCON
      00000089H   SFRSYM    DATA     BYTE      TMOD
      00000098H   SFRSYM    DATA     BYTE      SCON
      000000F1H   SFRSYM    DATA     BYTE      CANICR
      00000087H   SFRSYM    DATA     BYTE      PCON
      000000BCH   SFRSYM    DATA     BYTE      ADC_CONTR
      000000E7H   SFRSYM    DATA     BYTE      CMPCR2
      000000E6H   SFRSYM    DATA     BYTE      CMPCR1
      000000DEH   SFRSYM    DATA     BYTE      ADCCFG
      000000B8H   SFRSYM    DATA     BYTE      IP
      0000008FH   SFRSYM    DATA     BYTE      INTCLKO
      000000EEH   SFRSYM    DATA     BYTE      IP3H
      000000B6H   SFRSYM    DATA     BYTE      IP2H
      000000A8H   SFRSYM    DATA     BYTE      IE
      000000BBH   SFRSYM    DATA     BYTE      P_SW3
      000000BAH   SFRSYM    DATA     BYTE      P_SW2
      000000A2H   SFRSYM    DATA     BYTE      P_SW1
      000000CEH   SFRSYM    DATA     BYTE      SPCTL
      000000F8H   SFRSYM    DATA     BYTE      P7
      000000E8H   SFRSYM    DATA     BYTE      P6
      000000C8H   SFRSYM    DATA     BYTE      P5
      000000C0H   SFRSYM    DATA     BYTE      P4
      000000B0H   SFRSYM    DATA     BYTE      P3
      000000A0H   SFRSYM    DATA     BYTE      P2
      00000090H   SFRSYM    DATA     BYTE      P1
      00000080H   SFRSYM    DATA     BYTE      P0
      00000DF8H   SYMBOL    EDATA    INT       irqn
      00000DFAH   SYMBOL    EDATA    BYTE      priority

      ---         MODULE    ---      ---       zf_pwm
      00FF731AH   PUBLIC    CODE     ---       pwm_duty
      00FF60DDH   PUBLIC    CODE     ---       pwm_set_gpio
      00FF5D03H   PUBLIC    CODE     ---       pwm_init
      00FF9306H   PUBLIC    HCONST   ---       PWM_CCR_ADDR
      00FF9326H   PUBLIC    HCONST   ---       PWM_ARR_ADDR
      00FF932EH   PUBLIC    HCONST   ---       PWM_CCER_ADDR
      00FF933EH   PUBLIC    HCONST   ---       PWM_CCMR_ADDR
      00000861H   PUBLIC    EDATA    BYTE      ?pwm_init?BYTE
      00000875H   PUBLIC    EDATA    BYTE      ?pwm_freq?BYTE
      000000D0H   SFRSYM    DATA     BYTE      PSW
      0000009DH   SFRSYM    DATA     BYTE      IRCBAND
      00000097H   SFRSYM    DATA     BYTE      AUXR2
      000000EFH   SFRSYM    DATA     BYTE      AUXINTIF
      000000FDH   SFRSYM    DATA     BYTE      S4CON
      000000ACH   SFRSYM    DATA     BYTE      S3CON
      0000009AH   SFRSYM    DATA     BYTE      S2CON
      000000B7H   SFRSYM    DATA     BYTE      IPH
      000000CDH   SFRSYM    DATA     BYTE      SPSTAT
      000000DDH   SFRSYM    DATA     BYTE      T4T3M
      000000C1H   SFRSYM    DATA     BYTE      WDT_CONTR
      000000DFH   SFRSYM    DATA     BYTE      IP3
      000000F4H   SFRSYM    DATA     BYTE      USBCON
L251 LINKER/LOCATER V4.66.93.0                                                        04/15/2024  09:56:15  PAGE 49


      000000B5H   SFRSYM    DATA     BYTE      IP2
      000000FFH   SFRSYM    DATA     BYTE      RSTCFG
      000000C7H   SFRSYM    DATA     BYTE      IAP_CONTR
      000000F9H   SFRSYM    DATA     BYTE      LINICR
      0000008EH   SFRSYM    DATA     BYTE      AUXR
      000000AFH   SFRSYM    DATA     BYTE      IE2
      00000088H   SFRSYM    DATA     BYTE      TCON
      00000089H   SFRSYM    DATA     BYTE      TMOD
      00000098H   SFRSYM    DATA     BYTE      SCON
      000000F1H   SFRSYM    DATA     BYTE      CANICR
      00000087H   SFRSYM    DATA     BYTE      PCON
      000000BCH   SFRSYM    DATA     BYTE      ADC_CONTR
      000000E7H   SFRSYM    DATA     BYTE      CMPCR2
      000000E6H   SFRSYM    DATA     BYTE      CMPCR1
      000000DEH   SFRSYM    DATA     BYTE      ADCCFG
      000000B8H   SFRSYM    DATA     BYTE      IP
      0000008FH   SFRSYM    DATA     BYTE      INTCLKO
      000000EEH   SFRSYM    DATA     BYTE      IP3H
      000000B6H   SFRSYM    DATA     BYTE      IP2H
      000000A8H   SFRSYM    DATA     BYTE      IE
      000000BBH   SFRSYM    DATA     BYTE      P_SW3
      000000BAH   SFRSYM    DATA     BYTE      P_SW2
      000000A2H   SFRSYM    DATA     BYTE      P_SW1
      000000CEH   SFRSYM    DATA     BYTE      SPCTL
      000000F8H   SFRSYM    DATA     BYTE      P7
      000000E8H   SFRSYM    DATA     BYTE      P6
      000000C8H   SFRSYM    DATA     BYTE      P5
      000000C0H   SFRSYM    DATA     BYTE      P4
      000000B0H   SFRSYM    DATA     BYTE      P3
      000000A0H   SFRSYM    DATA     BYTE      P2
      00000090H   SFRSYM    DATA     BYTE      P1
      00000080H   SFRSYM    DATA     BYTE      P0

      00FF60DDH   BLOCK     CODE     ---       LVL=0
      00000E3AH   SYMBOL    EDATA    INT       pwmch
      00FF60DDH   LINE      CODE     ---       #49
      00FF60E1H   LINE      CODE     ---       #51
      00FF6256H   LINE      CODE     ---       #53
      00FF6256H   LINE      CODE     ---       #55
      00FF6261H   LINE      CODE     ---       #56
      00FF6264H   LINE      CODE     ---       #58
      00FF6264H   LINE      CODE     ---       #60
      00FF626FH   LINE      CODE     ---       #61
      00FF6272H   LINE      CODE     ---       #63
      00FF6272H   LINE      CODE     ---       #65
      00FF627DH   LINE      CODE     ---       #66
      00FF6280H   LINE      CODE     ---       #68
      00FF6280H   LINE      CODE     ---       #70
      00FF628BH   LINE      CODE     ---       #71
      00FF628EH   LINE      CODE     ---       #73
      00FF628EH   LINE      CODE     ---       #75
      00FF6299H   LINE      CODE     ---       #76
      00FF629CH   LINE      CODE     ---       #78
      00FF629CH   LINE      CODE     ---       #80
      00FF62A7H   LINE      CODE     ---       #81
      00FF62AAH   LINE      CODE     ---       #84
      00FF62AAH   LINE      CODE     ---       #86
      00FF62B5H   LINE      CODE     ---       #87
      00FF62B8H   LINE      CODE     ---       #89
      00FF62B8H   LINE      CODE     ---       #91
      00FF62C3H   LINE      CODE     ---       #92
      00FF62C6H   LINE      CODE     ---       #94
      00FF62C6H   LINE      CODE     ---       #96
      00FF62D1H   LINE      CODE     ---       #97
      00FF62D4H   LINE      CODE     ---       #99
L251 LINKER/LOCATER V4.66.93.0                                                        04/15/2024  09:56:15  PAGE 50


      00FF62D4H   LINE      CODE     ---       #101
      00FF62DFH   LINE      CODE     ---       #102
      00FF62E2H   LINE      CODE     ---       #104
      00FF62E2H   LINE      CODE     ---       #106
      00FF62EDH   LINE      CODE     ---       #107
      00FF62F0H   LINE      CODE     ---       #109
      00FF62F0H   LINE      CODE     ---       #111
      00FF62FBH   LINE      CODE     ---       #112
      00FF62FEH   LINE      CODE     ---       #115
      00FF62FEH   LINE      CODE     ---       #117
      00FF6309H   LINE      CODE     ---       #118
      00FF630CH   LINE      CODE     ---       #120
      00FF630CH   LINE      CODE     ---       #122
      00FF6317H   LINE      CODE     ---       #123
      00FF631AH   LINE      CODE     ---       #125
      00FF631AH   LINE      CODE     ---       #127
      00FF6325H   LINE      CODE     ---       #128
      00FF6328H   LINE      CODE     ---       #130
      00FF6328H   LINE      CODE     ---       #132
      00FF6333H   LINE      CODE     ---       #133
      00FF6336H   LINE      CODE     ---       #135
      00FF6336H   LINE      CODE     ---       #137
      00FF6341H   LINE      CODE     ---       #138
      00FF6344H   LINE      CODE     ---       #140
      00FF6344H   LINE      CODE     ---       #142
      00FF634FH   LINE      CODE     ---       #143
      00FF6352H   LINE      CODE     ---       #147
      00FF6352H   LINE      CODE     ---       #149
      00FF635DH   LINE      CODE     ---       #150
      00FF6360H   LINE      CODE     ---       #152
      00FF6360H   LINE      CODE     ---       #154
      00FF636BH   LINE      CODE     ---       #155
      00FF636EH   LINE      CODE     ---       #157
      00FF636EH   LINE      CODE     ---       #159
      00FF6379H   LINE      CODE     ---       #160
      00FF637CH   LINE      CODE     ---       #162
      00FF637CH   LINE      CODE     ---       #164
      00FF6387H   LINE      CODE     ---       #165
      00FF638AH   LINE      CODE     ---       #167
      00FF638AH   LINE      CODE     ---       #169
      00FF6395H   LINE      CODE     ---       #170
      00FF6398H   LINE      CODE     ---       #172
      00FF6398H   LINE      CODE     ---       #174
      00FF63A3H   LINE      CODE     ---       #175
      00FF63A6H   LINE      CODE     ---       #177
      00FF63A6H   LINE      CODE     ---       #179
      00FF63B1H   LINE      CODE     ---       #180
      00FF63B4H   LINE      CODE     ---       #182
      00FF63B4H   LINE      CODE     ---       #184
      00FF63BFH   LINE      CODE     ---       #185
      00FF63C2H   LINE      CODE     ---       #189
      00FF63C2H   LINE      CODE     ---       #191
      00FF63CDH   LINE      CODE     ---       #192
      00FF63D0H   LINE      CODE     ---       #194
      00FF63D0H   LINE      CODE     ---       #196
      00FF63DBH   LINE      CODE     ---       #197
      00FF63DEH   LINE      CODE     ---       #199
      00FF63DEH   LINE      CODE     ---       #201
      00FF63E7H   LINE      CODE     ---       #202
      00FF63EAH   LINE      CODE     ---       #204
      00FF63EAH   LINE      CODE     ---       #206
      00FF63F5H   LINE      CODE     ---       #207
      00FF63F8H   LINE      CODE     ---       #210
      00FF63F8H   LINE      CODE     ---       #212
      00FF6403H   LINE      CODE     ---       #213
L251 LINKER/LOCATER V4.66.93.0                                                        04/15/2024  09:56:15  PAGE 51


      00FF6406H   LINE      CODE     ---       #215
      00FF6406H   LINE      CODE     ---       #217
      00FF6411H   LINE      CODE     ---       #218
      00FF6414H   LINE      CODE     ---       #220
      00FF6414H   LINE      CODE     ---       #222
      00FF641FH   LINE      CODE     ---       #223
      00FF6421H   LINE      CODE     ---       #225
      00FF6421H   LINE      CODE     ---       #227
      00FF642CH   LINE      CODE     ---       #228
      00FF642EH   LINE      CODE     ---       #232
      00FF642EH   LINE      CODE     ---       #234
      00FF6439H   LINE      CODE     ---       #235
      00FF643BH   LINE      CODE     ---       #237
      00FF643BH   LINE      CODE     ---       #239
      00FF6446H   LINE      CODE     ---       #240
      00FF6448H   LINE      CODE     ---       #242
      00FF6448H   LINE      CODE     ---       #244
      00FF6453H   LINE      CODE     ---       #245
      00FF6455H   LINE      CODE     ---       #247
      00FF6455H   LINE      CODE     ---       #249
      00FF6460H   LINE      CODE     ---       #250
      00FF6462H   LINE      CODE     ---       #254
      00FF6462H   LINE      CODE     ---       #256
      00FF646DH   LINE      CODE     ---       #257
      00FF646FH   LINE      CODE     ---       #259
      00FF646FH   LINE      CODE     ---       #261
      00FF647AH   LINE      CODE     ---       #262
      00FF647CH   LINE      CODE     ---       #264
      00FF647CH   LINE      CODE     ---       #266
      00FF6487H   LINE      CODE     ---       #267
      00FF6489H   LINE      CODE     ---       #269
      00FF6489H   LINE      CODE     ---       #271
      00FF6494H   LINE      CODE     ---       #272
      00FF6494H   LINE      CODE     ---       #275
      00FF6494H   LINE      CODE     ---       #277
      ---         BLOCKEND  ---      ---       LVL=0

      00FF5D03H   BLOCK     CODE     ---       LVL=0
      00000861H   SYMBOL    EDATA    INT       pwmch
      00000863H   SYMBOL    EDATA    DWORD     freq
      00000867H   SYMBOL    EDATA    DWORD     duty
      00FF5D0BH   BLOCK     CODE     NEAR LAB  LVL=1
      0000086BH   SYMBOL    EDATA    DWORD     match_temp
      0000086FH   SYMBOL    EDATA    DWORD     period_temp
      00000873H   SYMBOL    EDATA    WORD      freq_div
      ---         BLOCKEND  ---      ---       LVL=1
      00FF5D03H   LINE      CODE     ---       #290
      00FF5D0BH   LINE      CODE     ---       #291
      00FF5D0BH   LINE      CODE     ---       #295
      00FF5D11H   LINE      CODE     ---       #298
      00FF5D14H   LINE      CODE     ---       #301
      00FF5D1BH   LINE      CODE     ---       #305
      00FF5D2EH   LINE      CODE     ---       #306
      00FF5D3DH   LINE      CODE     ---       #307
      00FF5D58H   LINE      CODE     ---       #309
      00FF5D62H   LINE      CODE     ---       #311
      00FF5D89H   LINE      CODE     ---       #312
      00FF5D8BH   LINE      CODE     ---       #315
      00FF5D99H   LINE      CODE     ---       #316
      00FF5D99H   LINE      CODE     ---       #319
      00FF5DA8H   LINE      CODE     ---       #322
      00FF5DD9H   LINE      CODE     ---       #323
      00FF5E10H   LINE      CODE     ---       #326
      00FF5E62H   LINE      CODE     ---       #329
      00FF5E75H   LINE      CODE     ---       #330
L251 LINKER/LOCATER V4.66.93.0                                                        04/15/2024  09:56:15  PAGE 52


      00FF5E84H   LINE      CODE     ---       #332
      00FF5E91H   LINE      CODE     ---       #333
      00FF5E9EH   LINE      CODE     ---       #334
      00FF5EA1H   LINE      CODE     ---       #337
      00FF5EDFH   LINE      CODE     ---       #338
      00FF5F12H   LINE      CODE     ---       #341
      00FF5F72H   LINE      CODE     ---       #345
      00FF5F85H   LINE      CODE     ---       #346
      00FF5F94H   LINE      CODE     ---       #348
      00FF5FA1H   LINE      CODE     ---       #349
      00FF5FAEH   LINE      CODE     ---       #350
      00FF5FAEH   LINE      CODE     ---       #353
      00FF5FE0H   LINE      CODE     ---       #354
      00FF6018H   LINE      CODE     ---       #357
      00FF6046H   LINE      CODE     ---       #358
      00FF607AH   LINE      CODE     ---       #361
      00FF60ABH   LINE      CODE     ---       #362
      00FF60DCH   LINE      CODE     ---       #367
      ---         BLOCKEND  ---      ---       LVL=0

      00FF731AH   BLOCK     CODE     ---       LVL=0
      0000092AH   SYMBOL    EDATA    INT       pwmch
      0000092CH   SYMBOL    EDATA    DWORD     duty
      00FF7322H   BLOCK     CODE     NEAR LAB  LVL=1
      00000930H   SYMBOL    EDATA    DWORD     match_temp
      00000934H   SYMBOL    EDATA    DWORD     arr
      ---         BLOCKEND  ---      ---       LVL=1
      00FF731AH   LINE      CODE     ---       #377
      00FF7322H   LINE      CODE     ---       #378
      00FF7322H   LINE      CODE     ---       #380
      00FF738EH   LINE      CODE     ---       #384
      00FF7398H   LINE      CODE     ---       #386
      00FF73BFH   LINE      CODE     ---       #387
      00FF73C1H   LINE      CODE     ---       #390
      00FF73CFH   LINE      CODE     ---       #391
      00FF73CFH   LINE      CODE     ---       #396
      00FF73FDH   LINE      CODE     ---       #397
      00FF7431H   LINE      CODE     ---       #401
      ---         BLOCKEND  ---      ---       LVL=0
      00000875H   SYMBOL    EDATA    INT       pwmch
      00000877H   SYMBOL    EDATA    DWORD     freq
      0000087BH   SYMBOL    EDATA    DWORD     duty
      0000087FH   SYMBOL    EDATA    DWORD     match_temp
      00000883H   SYMBOL    EDATA    DWORD     period_temp
      00000887H   SYMBOL    EDATA    WORD      freq_div

      ---         MODULE    ---      ---       zf_spi
      00000C73H   PUBLIC    EDATA    BYTE      ?spi_init?BYTE
      000000CFH   SFRSYM    DATA     BYTE      SPDAT
      000000D0H   SFRSYM    DATA     BYTE      PSW
      0000009DH   SFRSYM    DATA     BYTE      IRCBAND
      00000097H   SFRSYM    DATA     BYTE      AUXR2
      000000EFH   SFRSYM    DATA     BYTE      AUXINTIF
      000000FDH   SFRSYM    DATA     BYTE      S4CON
      000000ACH   SFRSYM    DATA     BYTE      S3CON
      0000009AH   SFRSYM    DATA     BYTE      S2CON
      000000B7H   SFRSYM    DATA     BYTE      IPH
      000000CDH   SFRSYM    DATA     BYTE      SPSTAT
      000000DDH   SFRSYM    DATA     BYTE      T4T3M
      000000C1H   SFRSYM    DATA     BYTE      WDT_CONTR
      000000DFH   SFRSYM    DATA     BYTE      IP3
      000000F4H   SFRSYM    DATA     BYTE      USBCON
      000000B5H   SFRSYM    DATA     BYTE      IP2
      000000FFH   SFRSYM    DATA     BYTE      RSTCFG
      000000C7H   SFRSYM    DATA     BYTE      IAP_CONTR
L251 LINKER/LOCATER V4.66.93.0                                                        04/15/2024  09:56:15  PAGE 53


      000000F9H   SFRSYM    DATA     BYTE      LINICR
      0000008EH   SFRSYM    DATA     BYTE      AUXR
      000000AFH   SFRSYM    DATA     BYTE      IE2
      00000088H   SFRSYM    DATA     BYTE      TCON
      00000089H   SFRSYM    DATA     BYTE      TMOD
      00000098H   SFRSYM    DATA     BYTE      SCON
      000000F1H   SFRSYM    DATA     BYTE      CANICR
      00000087H   SFRSYM    DATA     BYTE      PCON
      000000BCH   SFRSYM    DATA     BYTE      ADC_CONTR
      000000E7H   SFRSYM    DATA     BYTE      CMPCR2
      000000E6H   SFRSYM    DATA     BYTE      CMPCR1
      000000DEH   SFRSYM    DATA     BYTE      ADCCFG
      000000B8H   SFRSYM    DATA     BYTE      IP
      0000008FH   SFRSYM    DATA     BYTE      INTCLKO
      000000EEH   SFRSYM    DATA     BYTE      IP3H
      000000B6H   SFRSYM    DATA     BYTE      IP2H
      000000A8H   SFRSYM    DATA     BYTE      IE
      000000BBH   SFRSYM    DATA     BYTE      P_SW3
      000000BAH   SFRSYM    DATA     BYTE      P_SW2
      000000A2H   SFRSYM    DATA     BYTE      P_SW1
      000000CEH   SFRSYM    DATA     BYTE      SPCTL
      000000F8H   SFRSYM    DATA     BYTE      P7
      000000E8H   SFRSYM    DATA     BYTE      P6
      000000C8H   SFRSYM    DATA     BYTE      P5
      000000C0H   SFRSYM    DATA     BYTE      P4
      000000B0H   SFRSYM    DATA     BYTE      P3
      000000A0H   SFRSYM    DATA     BYTE      P2
      00000090H   SFRSYM    DATA     BYTE      P1
      00000080H   SFRSYM    DATA     BYTE      P0
      00000C79H   SYMBOL    EDATA    INT       spi_n
      00000C7BH   SYMBOL    EDATA    BYTE      mode
      00000C7CH   SYMBOL    EDATA    INT       mstr
      00000C7EH   SYMBOL    EDATA    INT       baud
      00000E9EH   SYMBOL    EDATA    BYTE      dat
      00000E3CH   SYMBOL    EDATA    INT       spi_n
      00000E9FH   SYMBOL    EDATA    BYTE      mode

      ---         MODULE    ---      ---       zf_tim
      00FF7E68H   PUBLIC    CODE     ---       ctimer_count_read
      00FF7737H   PUBLIC    CODE     ---       pit_timer_ms
      00FF87BAH   PUBLIC    CODE     ---       ctimer_count_init
      00FF8652H   PUBLIC    CODE     ---       ctimer_count_clean
      000000D0H   SFRSYM    DATA     BYTE      PSW
      0000009DH   SFRSYM    DATA     BYTE      IRCBAND
      00000097H   SFRSYM    DATA     BYTE      AUXR2
      000000EFH   SFRSYM    DATA     BYTE      AUXINTIF
      000000FDH   SFRSYM    DATA     BYTE      S4CON
      000000ACH   SFRSYM    DATA     BYTE      S3CON
      0000009AH   SFRSYM    DATA     BYTE      S2CON
      000000B7H   SFRSYM    DATA     BYTE      IPH
      000000CDH   SFRSYM    DATA     BYTE      SPSTAT
      000000DDH   SFRSYM    DATA     BYTE      T4T3M
      000000C1H   SFRSYM    DATA     BYTE      WDT_CONTR
      00000088H.6 SFRSYM    DATA     BIT       TR1
      00000088H.4 SFRSYM    DATA     BIT       TR0
      000000D3H   SFRSYM    DATA     BYTE      T4L
      000000D5H   SFRSYM    DATA     BYTE      T3L
      000000D7H   SFRSYM    DATA     BYTE      T2L
      0000008BH   SFRSYM    DATA     BYTE      TL1
      0000008AH   SFRSYM    DATA     BYTE      TL0
      000000D2H   SFRSYM    DATA     BYTE      T4H
      000000D4H   SFRSYM    DATA     BYTE      T3H
      000000D6H   SFRSYM    DATA     BYTE      T2H
      0000008DH   SFRSYM    DATA     BYTE      TH1
      0000008CH   SFRSYM    DATA     BYTE      TH0
L251 LINKER/LOCATER V4.66.93.0                                                        04/15/2024  09:56:15  PAGE 54


      000000DFH   SFRSYM    DATA     BYTE      IP3
      000000F4H   SFRSYM    DATA     BYTE      USBCON
      000000B5H   SFRSYM    DATA     BYTE      IP2
      000000FFH   SFRSYM    DATA     BYTE      RSTCFG
      000000A8H.3 SFRSYM    DATA     BIT       ET1
      000000A8H.1 SFRSYM    DATA     BIT       ET0
      000000C7H   SFRSYM    DATA     BYTE      IAP_CONTR
      000000F9H   SFRSYM    DATA     BYTE      LINICR
      0000008EH   SFRSYM    DATA     BYTE      AUXR
      000000AFH   SFRSYM    DATA     BYTE      IE2
      00000088H   SFRSYM    DATA     BYTE      TCON
      00000089H   SFRSYM    DATA     BYTE      TMOD
      00000098H   SFRSYM    DATA     BYTE      SCON
      000000F1H   SFRSYM    DATA     BYTE      CANICR
      00000087H   SFRSYM    DATA     BYTE      PCON
      000000BCH   SFRSYM    DATA     BYTE      ADC_CONTR
      000000E7H   SFRSYM    DATA     BYTE      CMPCR2
      000000E6H   SFRSYM    DATA     BYTE      CMPCR1
      000000DEH   SFRSYM    DATA     BYTE      ADCCFG
      000000B8H   SFRSYM    DATA     BYTE      IP
      0000008FH   SFRSYM    DATA     BYTE      INTCLKO
      000000EEH   SFRSYM    DATA     BYTE      IP3H
      000000B6H   SFRSYM    DATA     BYTE      IP2H
      000000A8H   SFRSYM    DATA     BYTE      IE
      000000BBH   SFRSYM    DATA     BYTE      P_SW3
      000000BAH   SFRSYM    DATA     BYTE      P_SW2
      000000A2H   SFRSYM    DATA     BYTE      P_SW1
      000000CEH   SFRSYM    DATA     BYTE      SPCTL
      000000F8H   SFRSYM    DATA     BYTE      P7
      000000E8H   SFRSYM    DATA     BYTE      P6
      000000C8H   SFRSYM    DATA     BYTE      P5
      000000C0H   SFRSYM    DATA     BYTE      P4
      000000B0H   SFRSYM    DATA     BYTE      P3
      000000A0H   SFRSYM    DATA     BYTE      P2
      00000090H   SFRSYM    DATA     BYTE      P1
      00000080H   SFRSYM    DATA     BYTE      P0

      00FF87BAH   BLOCK     CODE     ---       LVL=0
      00000E3EH   SYMBOL    EDATA    INT       tim_n
      00FF87BAH   LINE      CODE     ---       #39
      00FF87BEH   LINE      CODE     ---       #42
      00FF87D2H   LINE      CODE     ---       #44
      00FF87D2H   LINE      CODE     ---       #46
      00FF87D5H   LINE      CODE     ---       #47
      00FF87D8H   LINE      CODE     ---       #48
      00FF87DBH   LINE      CODE     ---       #49
      00FF87DEH   LINE      CODE     ---       #50
      00FF87E0H   LINE      CODE     ---       #53
      00FF87E0H   LINE      CODE     ---       #55
      00FF87E3H   LINE      CODE     ---       #56
      00FF87E6H   LINE      CODE     ---       #57
      00FF87E9H   LINE      CODE     ---       #58
      00FF87ECH   LINE      CODE     ---       #59
      00FF87EEH   LINE      CODE     ---       #62
      00FF87EEH   LINE      CODE     ---       #64
      00FF87F1H   LINE      CODE     ---       #65
      00FF87F4H   LINE      CODE     ---       #66
      00FF87F7H   LINE      CODE     ---       #67
      00FF87F9H   LINE      CODE     ---       #70
      00FF87F9H   LINE      CODE     ---       #72
      00FF87FCH   LINE      CODE     ---       #73
      00FF87FFH   LINE      CODE     ---       #74
      00FF8802H   LINE      CODE     ---       #75
      00FF8804H   LINE      CODE     ---       #78
      00FF8804H   LINE      CODE     ---       #80
L251 LINKER/LOCATER V4.66.93.0                                                        04/15/2024  09:56:15  PAGE 55


      00FF8807H   LINE      CODE     ---       #81
      00FF880AH   LINE      CODE     ---       #82
      00FF880DH   LINE      CODE     ---       #83
      00FF880DH   LINE      CODE     ---       #86
      00FF880DH   LINE      CODE     ---       #87
      ---         BLOCKEND  ---      ---       LVL=0

      00FF7E68H   BLOCK     CODE     ---       LVL=0
      00000DA7H   SYMBOL    EDATA    INT       tim_n
      00FF7E6CH   BLOCK     CODE     NEAR LAB  LVL=1
      00000DA9H   SYMBOL    EDATA    WORD      dat
      ---         BLOCKEND  ---      ---       LVL=1
      00FF7E68H   LINE      CODE     ---       #95
      00FF7E6CH   LINE      CODE     ---       #96
      00FF7E6CH   LINE      CODE     ---       #97
      00FF7E72H   LINE      CODE     ---       #99
      00FF7E8DH   LINE      CODE     ---       #101
      00FF7E8DH   LINE      CODE     ---       #103
      00FF7E99H   LINE      CODE     ---       #104
      00FF7EA7H   LINE      CODE     ---       #105
      00FF7EA9H   LINE      CODE     ---       #107
      00FF7EA9H   LINE      CODE     ---       #109
      00FF7EB5H   LINE      CODE     ---       #110
      00FF7EC3H   LINE      CODE     ---       #111
      00FF7EC5H   LINE      CODE     ---       #113
      00FF7EC5H   LINE      CODE     ---       #115
      00FF7ED1H   LINE      CODE     ---       #116
      00FF7EDFH   LINE      CODE     ---       #117
      00FF7EE1H   LINE      CODE     ---       #119
      00FF7EE1H   LINE      CODE     ---       #121
      00FF7EEDH   LINE      CODE     ---       #122
      00FF7EFBH   LINE      CODE     ---       #123
      00FF7EFDH   LINE      CODE     ---       #125
      00FF7EFDH   LINE      CODE     ---       #127
      00FF7F09H   LINE      CODE     ---       #128
      00FF7F17H   LINE      CODE     ---       #129
      00FF7F17H   LINE      CODE     ---       #132
      00FF7F17H   LINE      CODE     ---       #133
      00FF7F1BH   LINE      CODE     ---       #134
      ---         BLOCKEND  ---      ---       LVL=0

      00FF8652H   BLOCK     CODE     ---       LVL=0
      00000E40H   SYMBOL    EDATA    INT       tim_n
      00FF8652H   LINE      CODE     ---       #143
      00FF8656H   LINE      CODE     ---       #145
      00FF866AH   LINE      CODE     ---       #147
      00FF866AH   LINE      CODE     ---       #149
      00FF866DH   LINE      CODE     ---       #150
      00FF8670H   LINE      CODE     ---       #151
      00FF8673H   LINE      CODE     ---       #152
      00FF8676H   LINE      CODE     ---       #153
      00FF8678H   LINE      CODE     ---       #155
      00FF8678H   LINE      CODE     ---       #157
      00FF867BH   LINE      CODE     ---       #158
      00FF867EH   LINE      CODE     ---       #159
      00FF8681H   LINE      CODE     ---       #160
      00FF8684H   LINE      CODE     ---       #161
      00FF8686H   LINE      CODE     ---       #163
      00FF8686H   LINE      CODE     ---       #165
      00FF8689H   LINE      CODE     ---       #166
      00FF868CH   LINE      CODE     ---       #167
      00FF868FH   LINE      CODE     ---       #168
      00FF8692H   LINE      CODE     ---       #169
      00FF8694H   LINE      CODE     ---       #171
      00FF8694H   LINE      CODE     ---       #173
L251 LINKER/LOCATER V4.66.93.0                                                        04/15/2024  09:56:15  PAGE 56


      00FF8697H   LINE      CODE     ---       #174
      00FF869AH   LINE      CODE     ---       #175
      00FF869DH   LINE      CODE     ---       #176
      00FF86A0H   LINE      CODE     ---       #177
      00FF86A2H   LINE      CODE     ---       #179
      00FF86A2H   LINE      CODE     ---       #181
      00FF86A5H   LINE      CODE     ---       #182
      00FF86A8H   LINE      CODE     ---       #183
      00FF86ABH   LINE      CODE     ---       #184
      00FF86AEH   LINE      CODE     ---       #185
      00FF86AEH   LINE      CODE     ---       #187
      00FF86AEH   LINE      CODE     ---       #188
      ---         BLOCKEND  ---      ---       LVL=0

      00FF7737H   BLOCK     CODE     ---       LVL=0
      00000CC2H   SYMBOL    EDATA    INT       tim_n
      00000CC4H   SYMBOL    EDATA    WORD      time_ms
      00FF773FH   BLOCK     CODE     NEAR LAB  LVL=1
      00000CC6H   SYMBOL    EDATA    WORD      temp
      ---         BLOCKEND  ---      ---       LVL=1
      00FF7737H   LINE      CODE     ---       #198
      00FF773FH   LINE      CODE     ---       #199
      00FF773FH   LINE      CODE     ---       #201
      00FF7762H   LINE      CODE     ---       #203
      00FF776CH   LINE      CODE     ---       #205
      00FF7770H   LINE      CODE     ---       #206
      00FF7776H   LINE      CODE     ---       #207
      00FF7780H   LINE      CODE     ---       #208
      00FF7783H   LINE      CODE     ---       #209
      00FF7786H   LINE      CODE     ---       #210
      00FF7789H   LINE      CODE     ---       #211
      00FF7795H   LINE      CODE     ---       #213
      00FF7799H   LINE      CODE     ---       #214
      00FF779FH   LINE      CODE     ---       #215
      00FF77A9H   LINE      CODE     ---       #216
      00FF77ACH   LINE      CODE     ---       #217
      00FF77AFH   LINE      CODE     ---       #218
      00FF77B1H   LINE      CODE     ---       #219
      00FF77BDH   LINE      CODE     ---       #221
      00FF77C3H   LINE      CODE     ---       #222
      00FF77CDH   LINE      CODE     ---       #223
      00FF77D0H   LINE      CODE     ---       #224
      00FF77D3H   LINE      CODE     ---       #225
      00FF77D5H   LINE      CODE     ---       #226
      00FF77E1H   LINE      CODE     ---       #228
      00FF77E7H   LINE      CODE     ---       #229
      00FF77F1H   LINE      CODE     ---       #230
      00FF77F4H   LINE      CODE     ---       #231
      00FF77F7H   LINE      CODE     ---       #232
      00FF77F9H   LINE      CODE     ---       #233
      00FF7805H   LINE      CODE     ---       #235
      00FF780BH   LINE      CODE     ---       #236
      00FF7815H   LINE      CODE     ---       #237
      00FF7818H   LINE      CODE     ---       #238
      00FF781BH   LINE      CODE     ---       #239
      ---         BLOCKEND  ---      ---       LVL=0

      ---         MODULE    ---      ---       zf_uart
      00FF8157H   PUBLIC    CODE     ---       uart_putchar
      00FF6831H   PUBLIC    CODE     ---       uart_init
      00000D4CH   PUBLIC    EDATA    ---       busy
      00000938H   PUBLIC    EDATA    BYTE      ?uart_init?BYTE
      000000D0H   SFRSYM    DATA     BYTE      PSW
      0000009DH   SFRSYM    DATA     BYTE      IRCBAND
      00000097H   SFRSYM    DATA     BYTE      AUXR2
L251 LINKER/LOCATER V4.66.93.0                                                        04/15/2024  09:56:15  PAGE 57


      000000EFH   SFRSYM    DATA     BYTE      AUXINTIF
      000000FDH   SFRSYM    DATA     BYTE      S4CON
      000000ACH   SFRSYM    DATA     BYTE      S3CON
      0000009AH   SFRSYM    DATA     BYTE      S2CON
      000000FEH   SFRSYM    DATA     BYTE      S4BUF
      000000ADH   SFRSYM    DATA     BYTE      S3BUF
      0000009BH   SFRSYM    DATA     BYTE      S2BUF
      000000B7H   SFRSYM    DATA     BYTE      IPH
      000000CDH   SFRSYM    DATA     BYTE      SPSTAT
      000000DDH   SFRSYM    DATA     BYTE      T4T3M
      000000C1H   SFRSYM    DATA     BYTE      WDT_CONTR
      00000088H.6 SFRSYM    DATA     BIT       TR1
      000000D3H   SFRSYM    DATA     BYTE      T4L
      000000D5H   SFRSYM    DATA     BYTE      T3L
      000000D7H   SFRSYM    DATA     BYTE      T2L
      0000008BH   SFRSYM    DATA     BYTE      TL1
      000000D2H   SFRSYM    DATA     BYTE      T4H
      000000D4H   SFRSYM    DATA     BYTE      T3H
      000000D6H   SFRSYM    DATA     BYTE      T2H
      0000008DH   SFRSYM    DATA     BYTE      TH1
      000000DFH   SFRSYM    DATA     BYTE      IP3
      000000F4H   SFRSYM    DATA     BYTE      USBCON
      000000B5H   SFRSYM    DATA     BYTE      IP2
      000000FFH   SFRSYM    DATA     BYTE      RSTCFG
      000000C7H   SFRSYM    DATA     BYTE      IAP_CONTR
      000000F9H   SFRSYM    DATA     BYTE      LINICR
      0000008EH   SFRSYM    DATA     BYTE      AUXR
      000000AFH   SFRSYM    DATA     BYTE      IE2
      00000088H   SFRSYM    DATA     BYTE      TCON
      00000089H   SFRSYM    DATA     BYTE      TMOD
      00000098H   SFRSYM    DATA     BYTE      SCON
      000000F1H   SFRSYM    DATA     BYTE      CANICR
      00000087H   SFRSYM    DATA     BYTE      PCON
      00000099H   SFRSYM    DATA     BYTE      SBUF
      000000BCH   SFRSYM    DATA     BYTE      ADC_CONTR
      000000E7H   SFRSYM    DATA     BYTE      CMPCR2
      000000E6H   SFRSYM    DATA     BYTE      CMPCR1
      000000DEH   SFRSYM    DATA     BYTE      ADCCFG
      000000B8H   SFRSYM    DATA     BYTE      IP
      000000A8H.4 SFRSYM    DATA     BIT       ES
      0000008FH   SFRSYM    DATA     BYTE      INTCLKO
      000000EEH   SFRSYM    DATA     BYTE      IP3H
      000000B6H   SFRSYM    DATA     BYTE      IP2H
      000000A8H   SFRSYM    DATA     BYTE      IE
      000000BBH   SFRSYM    DATA     BYTE      P_SW3
      000000BAH   SFRSYM    DATA     BYTE      P_SW2
      000000A2H   SFRSYM    DATA     BYTE      P_SW1
      000000CEH   SFRSYM    DATA     BYTE      SPCTL
      000000F8H   SFRSYM    DATA     BYTE      P7
      000000E8H   SFRSYM    DATA     BYTE      P6
      000000C8H   SFRSYM    DATA     BYTE      P5
      000000C0H   SFRSYM    DATA     BYTE      P4
      000000C9H   SFRSYM    DATA     BYTE      P5M1
      000000B0H   SFRSYM    DATA     BYTE      P3
      000000CAH   SFRSYM    DATA     BYTE      P5M0
      000000A0H   SFRSYM    DATA     BYTE      P2
      00000090H   SFRSYM    DATA     BYTE      P1
      00000080H   SFRSYM    DATA     BYTE      P0

      00FF6831H   BLOCK     CODE     ---       LVL=0
      00000938H   SYMBOL    EDATA    INT       uart_n
      0000093AH   SYMBOL    EDATA    INT       uart_rx_pin
      0000093CH   SYMBOL    EDATA    INT       uart_tx_pin
      0000093EH   SYMBOL    EDATA    DWORD     baud
      00000942H   SYMBOL    EDATA    INT       tim_n
L251 LINKER/LOCATER V4.66.93.0                                                        04/15/2024  09:56:15  PAGE 58


      00FF6841H   BLOCK     CODE     NEAR LAB  LVL=1
      00000944H   SYMBOL    EDATA    WORD      brt
      ---         BLOCKEND  ---      ---       LVL=1
      00FF6831H   LINE      CODE     ---       #45
      00FF6841H   LINE      CODE     ---       #46
      00FF6841H   LINE      CODE     ---       #49
      00FF6868H   LINE      CODE     ---       #52
      00FF688AH   LINE      CODE     ---       #54
      00FF688AH   LINE      CODE     ---       #56
      00FF6896H   LINE      CODE     ---       #58
      00FF6899H   LINE      CODE     ---       #59
      00FF689DH   LINE      CODE     ---       #60
      00FF68A3H   LINE      CODE     ---       #61
      00FF68ADH   LINE      CODE     ---       #62
      00FF68B0H   LINE      CODE     ---       #63
      00FF68B3H   LINE      CODE     ---       #64
      00FF68B8H   LINE      CODE     ---       #65
      00FF68BAH   LINE      CODE     ---       #66
      00FF68C6H   LINE      CODE     ---       #68
      00FF68C9H   LINE      CODE     ---       #69
      00FF68CFH   LINE      CODE     ---       #70
      00FF68D9H   LINE      CODE     ---       #71
      00FF68DCH   LINE      CODE     ---       #72
      00FF68DCH   LINE      CODE     ---       #73
      00FF68DFH   LINE      CODE     ---       #74
      00FF68F5H   LINE      CODE     ---       #76
      00FF68F9H   LINE      CODE     ---       #77
      00FF68FBH   LINE      CODE     ---       #78
      00FF6913H   LINE      CODE     ---       #80
      00FF6916H   LINE      CODE     ---       #81
      00FF6918H   LINE      CODE     ---       #82
      00FF6930H   LINE      CODE     ---       #84
      00FF6933H   LINE      CODE     ---       #85
      00FF6935H   LINE      CODE     ---       #86
      00FF694DH   LINE      CODE     ---       #88
      00FF6950H   LINE      CODE     ---       #89
      00FF6950H   LINE      CODE     ---       #90
      00FF6955H   LINE      CODE     ---       #91
      00FF6958H   LINE      CODE     ---       #92
      00FF695BH   LINE      CODE     ---       #95
      00FF695BH   LINE      CODE     ---       #97
      00FF6967H   LINE      CODE     ---       #99
      00FF696AH   LINE      CODE     ---       #100
      00FF6970H   LINE      CODE     ---       #101
      00FF697AH   LINE      CODE     ---       #102
      00FF697DH   LINE      CODE     ---       #103
      00FF697DH   LINE      CODE     ---       #105
      00FF6980H   LINE      CODE     ---       #106
      00FF6998H   LINE      CODE     ---       #108
      00FF699CH   LINE      CODE     ---       #109
      00FF699EH   LINE      CODE     ---       #110
      00FF69B6H   LINE      CODE     ---       #112
      00FF69B9H   LINE      CODE     ---       #113
      00FF69B9H   LINE      CODE     ---       #115
      00FF69BCH   LINE      CODE     ---       #116
      00FF69C1H   LINE      CODE     ---       #117
      00FF69C4H   LINE      CODE     ---       #120
      00FF69C4H   LINE      CODE     ---       #122
      00FF69D0H   LINE      CODE     ---       #124
      00FF69D3H   LINE      CODE     ---       #125
      00FF69D9H   LINE      CODE     ---       #126
      00FF69E3H   LINE      CODE     ---       #127
      00FF69E6H   LINE      CODE     ---       #128
      00FF69E8H   LINE      CODE     ---       #129
      00FF69F4H   LINE      CODE     ---       #131
L251 LINKER/LOCATER V4.66.93.0                                                        04/15/2024  09:56:15  PAGE 59


      00FF69F7H   LINE      CODE     ---       #132
      00FF69FDH   LINE      CODE     ---       #133
      00FF6A07H   LINE      CODE     ---       #134
      00FF6A0AH   LINE      CODE     ---       #135
      00FF6A0AH   LINE      CODE     ---       #137
      00FF6A0DH   LINE      CODE     ---       #138
      00FF6A25H   LINE      CODE     ---       #140
      00FF6A29H   LINE      CODE     ---       #141
      00FF6A2BH   LINE      CODE     ---       #142
      00FF6A43H   LINE      CODE     ---       #144
      00FF6A46H   LINE      CODE     ---       #145
      00FF6A46H   LINE      CODE     ---       #147
      00FF6A49H   LINE      CODE     ---       #148
      00FF6A4EH   LINE      CODE     ---       #149
      00FF6A51H   LINE      CODE     ---       #152
      00FF6A51H   LINE      CODE     ---       #154
      00FF6A5DH   LINE      CODE     ---       #156
      00FF6A60H   LINE      CODE     ---       #157
      00FF6A66H   LINE      CODE     ---       #158
      00FF6A70H   LINE      CODE     ---       #159
      00FF6A74H   LINE      CODE     ---       #160
      00FF6A76H   LINE      CODE     ---       #161
      00FF6A82H   LINE      CODE     ---       #163
      00FF6A85H   LINE      CODE     ---       #164
      00FF6A8BH   LINE      CODE     ---       #165
      00FF6A95H   LINE      CODE     ---       #166
      00FF6A98H   LINE      CODE     ---       #167
      00FF6A98H   LINE      CODE     ---       #169
      00FF6A9BH   LINE      CODE     ---       #170
      00FF6AB3H   LINE      CODE     ---       #172
      00FF6AB7H   LINE      CODE     ---       #173
      00FF6AB9H   LINE      CODE     ---       #174
      00FF6AD1H   LINE      CODE     ---       #176
      00FF6AD4H   LINE      CODE     ---       #177
      00FF6AD8H   LINE      CODE     ---       #178
      00FF6ADBH   LINE      CODE     ---       #179
      00FF6ADBH   LINE      CODE     ---       #180
      00FF6ADEH   LINE      CODE     ---       #181
      00FF6AE3H   LINE      CODE     ---       #182
      00FF6AE3H   LINE      CODE     ---       #185
      00FF6AE3H   LINE      CODE     ---       #187
      ---         BLOCKEND  ---      ---       LVL=0

      00FF8157H   BLOCK     CODE     ---       LVL=0
      00000DFBH   SYMBOL    EDATA    INT       uart_n
      00000DFDH   SYMBOL    EDATA    BYTE      dat
      00FF8157H   LINE      CODE     ---       #196
      00FF815FH   LINE      CODE     ---       #198
      00FF8171H   LINE      CODE     ---       #200
      00FF8171H   LINE      CODE     ---       #201
      00FF817AH   LINE      CODE     ---       #202
      00FF8180H   LINE      CODE     ---       #203
      00FF8186H   LINE      CODE     ---       #204
      00FF8188H   LINE      CODE     ---       #205
      00FF8188H   LINE      CODE     ---       #206
      00FF8191H   LINE      CODE     ---       #207
      00FF8197H   LINE      CODE     ---       #208
      00FF819DH   LINE      CODE     ---       #209
      00FF819FH   LINE      CODE     ---       #210
      00FF819FH   LINE      CODE     ---       #211
      00FF81A8H   LINE      CODE     ---       #212
      00FF81AEH   LINE      CODE     ---       #213
      00FF81B4H   LINE      CODE     ---       #214
      00FF81B6H   LINE      CODE     ---       #215
      00FF81B6H   LINE      CODE     ---       #216
L251 LINKER/LOCATER V4.66.93.0                                                        04/15/2024  09:56:15  PAGE 60


      00FF81BFH   LINE      CODE     ---       #217
      00FF81C5H   LINE      CODE     ---       #218
      00FF81CBH   LINE      CODE     ---       #219
      00FF81CBH   LINE      CODE     ---       #220
      00FF81CBH   LINE      CODE     ---       #221
      ---         BLOCKEND  ---      ---       LVL=0
      00000C02H   SYMBOL    EDATA    INT       uart_n
      00000C04H   SYMBOL    EDATA    ---       p
      00000C08H   SYMBOL    EDATA    WORD      len
      00000CC8H   SYMBOL    EDATA    INT       uart_n
      00000CCAH   SYMBOL    EDATA    ---       str

      ---         MODULE    ---      ---       zf_fifo
      00FF8387H   PUBLIC    CODE     ---       fifo_head_offset
      00FF6F93H   PUBLIC    CODE     ---       fifo_write_buffer
      00000998H   PUBLIC    EDATA    BYTE      ?fifo_init?BYTE
      000008FAH   PUBLIC    EDATA    BYTE      ?fifo_write_buffer?BYTE
      000008B1H   PUBLIC    EDATA    BYTE      ?fifo_read_buffer?BYTE
      000000D0H   SFRSYM    DATA     BYTE      PSW
      0000009DH   SFRSYM    DATA     BYTE      IRCBAND
      00000097H   SFRSYM    DATA     BYTE      AUXR2
      000000EFH   SFRSYM    DATA     BYTE      AUXINTIF
      000000FDH   SFRSYM    DATA     BYTE      S4CON
      000000ACH   SFRSYM    DATA     BYTE      S3CON
      0000009AH   SFRSYM    DATA     BYTE      S2CON
      000000B7H   SFRSYM    DATA     BYTE      IPH
      000000CDH   SFRSYM    DATA     BYTE      SPSTAT
      000000DDH   SFRSYM    DATA     BYTE      T4T3M
      000000C1H   SFRSYM    DATA     BYTE      WDT_CONTR
      000000DFH   SFRSYM    DATA     BYTE      IP3
      000000F4H   SFRSYM    DATA     BYTE      USBCON
      000000B5H   SFRSYM    DATA     BYTE      IP2
      000000FFH   SFRSYM    DATA     BYTE      RSTCFG
      000000C7H   SFRSYM    DATA     BYTE      IAP_CONTR
      000000F9H   SFRSYM    DATA     BYTE      LINICR
      0000008EH   SFRSYM    DATA     BYTE      AUXR
      000000AFH   SFRSYM    DATA     BYTE      IE2
      00000088H   SFRSYM    DATA     BYTE      TCON
      00000089H   SFRSYM    DATA     BYTE      TMOD
      00000098H   SFRSYM    DATA     BYTE      SCON
      000000F1H   SFRSYM    DATA     BYTE      CANICR
      00000087H   SFRSYM    DATA     BYTE      PCON
      000000BCH   SFRSYM    DATA     BYTE      ADC_CONTR
      000000E7H   SFRSYM    DATA     BYTE      CMPCR2
      000000E6H   SFRSYM    DATA     BYTE      CMPCR1
      000000DEH   SFRSYM    DATA     BYTE      ADCCFG
      000000B8H   SFRSYM    DATA     BYTE      IP
      0000008FH   SFRSYM    DATA     BYTE      INTCLKO
      000000EEH   SFRSYM    DATA     BYTE      IP3H
      000000B6H   SFRSYM    DATA     BYTE      IP2H
      000000A8H   SFRSYM    DATA     BYTE      IE
      000000BBH   SFRSYM    DATA     BYTE      P_SW3
      000000BAH   SFRSYM    DATA     BYTE      P_SW2
      000000A2H   SFRSYM    DATA     BYTE      P_SW1
      000000CEH   SFRSYM    DATA     BYTE      SPCTL
      000000F8H   SFRSYM    DATA     BYTE      P7
      000000E8H   SFRSYM    DATA     BYTE      P6
      000000C8H   SFRSYM    DATA     BYTE      P5
      000000C0H   SFRSYM    DATA     BYTE      P4
      000000B0H   SFRSYM    DATA     BYTE      P3
      000000A0H   SFRSYM    DATA     BYTE      P2
      00000090H   SFRSYM    DATA     BYTE      P1
      00000080H   SFRSYM    DATA     BYTE      P0
      00000998H   SYMBOL    EDATA    ---       fifo
      0000099CH   SYMBOL    EDATA    ---       buffer_addr
L251 LINKER/LOCATER V4.66.93.0                                                        04/15/2024  09:56:15  PAGE 61


      000009A0H   SYMBOL    EDATA    DWORD     size

      00FF8387H   BLOCK     CODE     ---       LVL=0
      00000C0AH   SYMBOL    EDATA    ---       fifo
      00000C0EH   SYMBOL    EDATA    DWORD     offset
      00FF8387H   LINE      CODE     ---       #61
      00FF838FH   LINE      CODE     ---       #63
      00FF83A9H   LINE      CODE     ---       #65
      00FF83ABH   LINE      CODE     ---       #67
      00FF83D0H   LINE      CODE     ---       #68
      00FF83F0H   LINE      CODE     ---       #69
      ---         BLOCKEND  ---      ---       LVL=0
      00000C12H   SYMBOL    EDATA    ---       fifo
      00000C16H   SYMBOL    EDATA    DWORD     offset
      00000DABH   SYMBOL    EDATA    ---       fifo
      00000DAFH   SYMBOL    EDATA    ---       fifo

      00FF6F93H   BLOCK     CODE     ---       LVL=0
      000008FAH   SYMBOL    EDATA    ---       fifo
      000008FEH   SYMBOL    EDATA    ---       dat
      00000902H   SYMBOL    EDATA    DWORD     length
      00FF6F9BH   BLOCK     CODE     NEAR LAB  LVL=1
      00000906H   SYMBOL    EDATA    DWORD     temp_length
      ---         BLOCKEND  ---      ---       LVL=1
      00FF6F93H   LINE      CODE     ---       #120
      00FF6F9BH   LINE      CODE     ---       #121
      00FF6F9BH   LINE      CODE     ---       #124
      00FF6FB5H   LINE      CODE     ---       #126
      00FF6FD7H   LINE      CODE     ---       #128
      00FF6FE6H   LINE      CODE     ---       #130
      00FF700FH   LINE      CODE     ---       #131
      00FF701AH   LINE      CODE     ---       #132
      00FF702AH   LINE      CODE     ---       #133
      00FF705DH   LINE      CODE     ---       #134
      00FF706EH   LINE      CODE     ---       #135
      00FF7070H   LINE      CODE     ---       #138
      00FF7099H   LINE      CODE     ---       #139
      00FF70A4H   LINE      CODE     ---       #140
      00FF70A4H   LINE      CODE     ---       #142
      00FF70C0H   LINE      CODE     ---       #143
      00FF70C2H   LINE      CODE     ---       #146
      00FF70C8H   LINE      CODE     ---       #147
      00FF70C8H   LINE      CODE     ---       #149
      00FF70CAH   LINE      CODE     ---       #150
      ---         BLOCKEND  ---      ---       LVL=0
      000008B1H   SYMBOL    EDATA    ---       fifo
      000008B5H   SYMBOL    EDATA    ---       dat
      000008B9H   SYMBOL    EDATA    ---       length
      000008BDH   SYMBOL    EDATA    INT       flag
      000008BFH   SYMBOL    EDATA    BYTE      data_check
      000008C0H   SYMBOL    EDATA    DWORD     temp_length

      ---         MODULE    ---      ---       SEEKFREE_18TFT
      00000432H   PUBLIC    EDATA    BYTE      ?lcd_showfloat_simspi?BYTE
      00000462H   PUBLIC    EDATA    BYTE      ?lcd_showfloat?BYTE
      000000D0H   SFRSYM    DATA     BYTE      PSW
      0000009DH   SFRSYM    DATA     BYTE      IRCBAND
      00000097H   SFRSYM    DATA     BYTE      AUXR2
      000000EFH   SFRSYM    DATA     BYTE      AUXINTIF
      000000FDH   SFRSYM    DATA     BYTE      S4CON
      000000ACH   SFRSYM    DATA     BYTE      S3CON
      0000009AH   SFRSYM    DATA     BYTE      S2CON
      000000B7H   SFRSYM    DATA     BYTE      IPH
      000000CDH   SFRSYM    DATA     BYTE      SPSTAT
      000000DDH   SFRSYM    DATA     BYTE      T4T3M
L251 LINKER/LOCATER V4.66.93.0                                                        04/15/2024  09:56:15  PAGE 62


      000000C1H   SFRSYM    DATA     BYTE      WDT_CONTR
      000000DFH   SFRSYM    DATA     BYTE      IP3
      000000F4H   SFRSYM    DATA     BYTE      USBCON
      000000B5H   SFRSYM    DATA     BYTE      IP2
      000000FFH   SFRSYM    DATA     BYTE      RSTCFG
      000000C7H   SFRSYM    DATA     BYTE      IAP_CONTR
      000000F9H   SFRSYM    DATA     BYTE      LINICR
      0000008EH   SFRSYM    DATA     BYTE      AUXR
      000000AFH   SFRSYM    DATA     BYTE      IE2
      000000A0H.5 SFRSYM    DATA     BIT       P25
      00000088H   SFRSYM    DATA     BYTE      TCON
      00000089H   SFRSYM    DATA     BYTE      TMOD
      000000A0H.3 SFRSYM    DATA     BIT       P23
      00000098H   SFRSYM    DATA     BYTE      SCON
      000000A0H.2 SFRSYM    DATA     BIT       P22
      000000A0H.1 SFRSYM    DATA     BIT       P21
      000000A0H.0 SFRSYM    DATA     BIT       P20
      000000F1H   SFRSYM    DATA     BYTE      CANICR
      00000087H   SFRSYM    DATA     BYTE      PCON
      000000BCH   SFRSYM    DATA     BYTE      ADC_CONTR
      000000E7H   SFRSYM    DATA     BYTE      CMPCR2
      000000E6H   SFRSYM    DATA     BYTE      CMPCR1
      000000DEH   SFRSYM    DATA     BYTE      ADCCFG
      000000B8H   SFRSYM    DATA     BYTE      IP
      0000008FH   SFRSYM    DATA     BYTE      INTCLKO
      000000EEH   SFRSYM    DATA     BYTE      IP3H
      000000B6H   SFRSYM    DATA     BYTE      IP2H
      000000A8H   SFRSYM    DATA     BYTE      IE
      000000BBH   SFRSYM    DATA     BYTE      P_SW3
      000000BAH   SFRSYM    DATA     BYTE      P_SW2
      000000A2H   SFRSYM    DATA     BYTE      P_SW1
      000000CEH   SFRSYM    DATA     BYTE      SPCTL
      000000F8H   SFRSYM    DATA     BYTE      P7
      000000E8H   SFRSYM    DATA     BYTE      P6
      000000C8H   SFRSYM    DATA     BYTE      P5
      000000C0H   SFRSYM    DATA     BYTE      P4
      000000B0H   SFRSYM    DATA     BYTE      P3
      000000A0H   SFRSYM    DATA     BYTE      P2
      00000090H   SFRSYM    DATA     BYTE      P1
      00000080H   SFRSYM    DATA     BYTE      P0
      00000E42H   SYMBOL    EDATA    BYTE      dat
      00000E43H   SYMBOL    EDATA    BYTE      i
      00000E44H   SYMBOL    EDATA    BYTE      dat
      00000E45H   SYMBOL    EDATA    BYTE      i
      00000DFEH   SYMBOL    EDATA    WORD      dat
      00000E00H   SYMBOL    EDATA    BYTE      i
      00000C1AH   SYMBOL    EDATA    WORD      x_start
      00000C1CH   SYMBOL    EDATA    WORD      y_start
      00000C1EH   SYMBOL    EDATA    WORD      x_end
      00000C20H   SYMBOL    EDATA    WORD      y_end
      00000DB3H   SYMBOL    EDATA    INT       color
      00000DB5H   SYMBOL    EDATA    BYTE      i
      00000DB6H   SYMBOL    EDATA    BYTE      j
      00000CCEH   SYMBOL    EDATA    WORD      x
      00000CD0H   SYMBOL    EDATA    WORD      y
      00000CD2H   SYMBOL    EDATA    WORD      color
      00000C22H   SYMBOL    EDATA    WORD      x
      00000C24H   SYMBOL    EDATA    WORD      y
      00000C26H   SYMBOL    EDATA    CHAR      dat
      00000C27H   SYMBOL    EDATA    BYTE      i
      00000C28H   SYMBOL    EDATA    BYTE      j
      00000C29H   SYMBOL    EDATA    BYTE      temp
      00000AC7H   SYMBOL    EDATA    WORD      x
      00000AC9H   SYMBOL    EDATA    WORD      y
      00000ACBH   SYMBOL    EDATA    ---       dat
L251 LINKER/LOCATER V4.66.93.0                                                        04/15/2024  09:56:15  PAGE 63


      00000ACFH   SYMBOL    EDATA    WORD      j
      00000B2BH   SYMBOL    EDATA    WORD      x
      00000B2DH   SYMBOL    EDATA    WORD      y
      00000B2FH   SYMBOL    EDATA    CHAR      dat
      00000B30H   SYMBOL    EDATA    ---       a
      00000B33H   SYMBOL    EDATA    BYTE      i
      00000B34H   SYMBOL    EDATA    WORD      x
      00000B36H   SYMBOL    EDATA    WORD      y
      00000B38H   SYMBOL    EDATA    BYTE      dat
      00000B39H   SYMBOL    EDATA    ---       a
      00000B3CH   SYMBOL    EDATA    BYTE      i
      000009A4H   SYMBOL    EDATA    WORD      x
      000009A6H   SYMBOL    EDATA    WORD      y
      000009A8H   SYMBOL    EDATA    INT       dat
      000009AAH   SYMBOL    EDATA    ---       a
      000009AFH   SYMBOL    EDATA    BYTE      i
      000009B0H   SYMBOL    EDATA    WORD      x
      000009B2H   SYMBOL    EDATA    WORD      y
      000009B4H   SYMBOL    EDATA    WORD      dat
      000009B6H   SYMBOL    EDATA    ---       a
      000009BBH   SYMBOL    EDATA    BYTE      i
      000005E1H   SYMBOL    EDATA    WORD      x
      000005E3H   SYMBOL    EDATA    WORD      y
      000005E5H   SYMBOL    EDATA    LONG      dat
      000005E9H   SYMBOL    EDATA    BYTE      num
      000005EAH   SYMBOL    EDATA    ---       buff
      0000060CH   SYMBOL    EDATA    BYTE      length
      00000432H   SYMBOL    EDATA    WORD      x
      00000434H   SYMBOL    EDATA    WORD      y
      00000436H   SYMBOL    EDATA    FLOAT     dat
      0000043AH   SYMBOL    EDATA    BYTE      num
      0000043BH   SYMBOL    EDATA    BYTE      pointnum
      0000043CH   SYMBOL    EDATA    BYTE      length
      0000043DH   SYMBOL    EDATA    ---       buff
      0000045FH   SYMBOL    EDATA    CHAR      start
      00000460H   SYMBOL    EDATA    CHAR      end
      00000461H   SYMBOL    EDATA    CHAR      point
      00000EA0H   SYMBOL    EDATA    BYTE      dat
      00000EA1H   SYMBOL    EDATA    BYTE      dat
      00000DB7H   SYMBOL    EDATA    WORD      dat
      00000DB9H   SYMBOL    EDATA    ---       dat1
      00000C2AH   SYMBOL    EDATA    WORD      x_start
      00000C2CH   SYMBOL    EDATA    WORD      y_start
      00000C2EH   SYMBOL    EDATA    WORD      x_end
      00000C30H   SYMBOL    EDATA    WORD      y_end
      00000DBBH   SYMBOL    EDATA    INT       color
      00000DBDH   SYMBOL    EDATA    BYTE      i
      00000DBEH   SYMBOL    EDATA    BYTE      j
      00000CD4H   SYMBOL    EDATA    WORD      x
      00000CD6H   SYMBOL    EDATA    WORD      y
      00000CD8H   SYMBOL    EDATA    WORD      color
      00000C32H   SYMBOL    EDATA    WORD      x
      00000C34H   SYMBOL    EDATA    WORD      y
      00000C36H   SYMBOL    EDATA    CHAR      dat
      00000C37H   SYMBOL    EDATA    BYTE      i
      00000C38H   SYMBOL    EDATA    BYTE      j
      00000C39H   SYMBOL    EDATA    BYTE      temp
      00000AD1H   SYMBOL    EDATA    WORD      x
      00000AD3H   SYMBOL    EDATA    WORD      y
      00000AD5H   SYMBOL    EDATA    ---       dat
      00000AD9H   SYMBOL    EDATA    WORD      j
      00000B3DH   SYMBOL    EDATA    WORD      x
      00000B3FH   SYMBOL    EDATA    WORD      y
      00000B41H   SYMBOL    EDATA    CHAR      dat
      00000B42H   SYMBOL    EDATA    ---       a
L251 LINKER/LOCATER V4.66.93.0                                                        04/15/2024  09:56:15  PAGE 64


      00000B45H   SYMBOL    EDATA    BYTE      i
      00000B46H   SYMBOL    EDATA    WORD      x
      00000B48H   SYMBOL    EDATA    WORD      y
      00000B4AH   SYMBOL    EDATA    BYTE      dat
      00000B4BH   SYMBOL    EDATA    ---       a
      00000B4EH   SYMBOL    EDATA    BYTE      i
      000009BCH   SYMBOL    EDATA    WORD      x
      000009BEH   SYMBOL    EDATA    WORD      y
      000009C0H   SYMBOL    EDATA    INT       dat
      000009C2H   SYMBOL    EDATA    ---       a
      000009C7H   SYMBOL    EDATA    BYTE      i
      000009C8H   SYMBOL    EDATA    WORD      x
      000009CAH   SYMBOL    EDATA    WORD      y
      000009CCH   SYMBOL    EDATA    WORD      dat
      000009CEH   SYMBOL    EDATA    ---       a
      000009D3H   SYMBOL    EDATA    BYTE      i
      0000060DH   SYMBOL    EDATA    WORD      x
      0000060FH   SYMBOL    EDATA    WORD      y
      00000611H   SYMBOL    EDATA    LONG      dat
      00000615H   SYMBOL    EDATA    BYTE      num
      00000616H   SYMBOL    EDATA    ---       buff
      00000638H   SYMBOL    EDATA    BYTE      length
      00000462H   SYMBOL    EDATA    WORD      x
      00000464H   SYMBOL    EDATA    WORD      y
      00000466H   SYMBOL    EDATA    FLOAT     dat
      0000046AH   SYMBOL    EDATA    BYTE      num
      0000046BH   SYMBOL    EDATA    BYTE      pointnum
      0000046CH   SYMBOL    EDATA    BYTE      length
      0000046DH   SYMBOL    EDATA    ---       buff
      0000048FH   SYMBOL    EDATA    CHAR      start
      00000490H   SYMBOL    EDATA    CHAR      end
      00000491H   SYMBOL    EDATA    CHAR      point
      000009D4H   SYMBOL    EDATA    ---       p
      000009D8H   SYMBOL    EDATA    INT       i
      000009DAH   SYMBOL    EDATA    INT       j
      000009DCH   SYMBOL    EDATA    INT       k
      000009DEH   SYMBOL    EDATA    BYTE      picH
      000009DFH   SYMBOL    EDATA    BYTE      picL

      ---         MODULE    ---      ---       SEEKFREE_ABSOLUTE_ENCODER
      000000D0H   SFRSYM    DATA     BYTE      PSW
      0000009DH   SFRSYM    DATA     BYTE      IRCBAND
      00000097H   SFRSYM    DATA     BYTE      AUXR2
      000000EFH   SFRSYM    DATA     BYTE      AUXINTIF
      000000FDH   SFRSYM    DATA     BYTE      S4CON
      000000ACH   SFRSYM    DATA     BYTE      S3CON
      0000009AH   SFRSYM    DATA     BYTE      S2CON
      000000B7H   SFRSYM    DATA     BYTE      IPH
      000000CDH   SFRSYM    DATA     BYTE      SPSTAT
      000000DDH   SFRSYM    DATA     BYTE      T4T3M
      000000C1H   SFRSYM    DATA     BYTE      WDT_CONTR
      000000DFH   SFRSYM    DATA     BYTE      IP3
      000000F4H   SFRSYM    DATA     BYTE      USBCON
      000000B5H   SFRSYM    DATA     BYTE      IP2
      000000FFH   SFRSYM    DATA     BYTE      RSTCFG
      000000C7H   SFRSYM    DATA     BYTE      IAP_CONTR
      000000F9H   SFRSYM    DATA     BYTE      LINICR
      0000008EH   SFRSYM    DATA     BYTE      AUXR
      000000AFH   SFRSYM    DATA     BYTE      IE2
      000000A0H.7 SFRSYM    DATA     BIT       P27
      000000A0H.6 SFRSYM    DATA     BIT       P26
      000000A0H.5 SFRSYM    DATA     BIT       P25
      000000A0H.4 SFRSYM    DATA     BIT       P24
      00000088H   SFRSYM    DATA     BYTE      TCON
      00000089H   SFRSYM    DATA     BYTE      TMOD
L251 LINKER/LOCATER V4.66.93.0                                                        04/15/2024  09:56:15  PAGE 65


      00000098H   SFRSYM    DATA     BYTE      SCON
      000000A0H.2 SFRSYM    DATA     BIT       P22
      000000F1H   SFRSYM    DATA     BYTE      CANICR
      00000087H   SFRSYM    DATA     BYTE      PCON
      000000BCH   SFRSYM    DATA     BYTE      ADC_CONTR
      000000E7H   SFRSYM    DATA     BYTE      CMPCR2
      000000E6H   SFRSYM    DATA     BYTE      CMPCR1
      000000DEH   SFRSYM    DATA     BYTE      ADCCFG
      000000B8H   SFRSYM    DATA     BYTE      IP
      0000008FH   SFRSYM    DATA     BYTE      INTCLKO
      000000EEH   SFRSYM    DATA     BYTE      IP3H
      000000B6H   SFRSYM    DATA     BYTE      IP2H
      000000A8H   SFRSYM    DATA     BYTE      IE
      000000BBH   SFRSYM    DATA     BYTE      P_SW3
      000000BAH   SFRSYM    DATA     BYTE      P_SW2
      000000A2H   SFRSYM    DATA     BYTE      P_SW1
      000000CEH   SFRSYM    DATA     BYTE      SPCTL
      000000F8H   SFRSYM    DATA     BYTE      P7
      000000E8H   SFRSYM    DATA     BYTE      P6
      000000C8H   SFRSYM    DATA     BYTE      P5
      000000C0H   SFRSYM    DATA     BYTE      P4
      000000B0H   SFRSYM    DATA     BYTE      P3
      000000A0H   SFRSYM    DATA     BYTE      P2
      00000090H   SFRSYM    DATA     BYTE      P1
      00000080H   SFRSYM    DATA     BYTE      P0
      00000E46H   SYMBOL    EDATA    WORD      x
      00000E48H   SYMBOL    EDATA    BYTE      byte
      00000E49H   SYMBOL    EDATA    BYTE      i
      00000E4AH   SYMBOL    EDATA    BYTE      cmd
      00000E4BH   SYMBOL    EDATA    BYTE      val
      00000D51H   SYMBOL    EDATA    BYTE      cmd
      00000D52H   SYMBOL    EDATA    ---       val
      00000E01H   SYMBOL    EDATA    BYTE      cmd
      00000E02H   SYMBOL    EDATA    BYTE      val
      00000E03H   SYMBOL    EDATA    BYTE      dat
      00000D56H   SYMBOL    EDATA    BYTE      cmd
      00000D57H   SYMBOL    EDATA    ---       val
      00000E4CH   SYMBOL    EDATA    WORD      zero_position
      00000E4EH   SYMBOL    EDATA    WORD      angle
      00000EA2H   SYMBOL    EDATA    BYTE      val
      00000EA3H   SYMBOL    EDATA    BYTE      byte
      00000E50H   SYMBOL    EDATA    BYTE      cmd
      00000E51H   SYMBOL    EDATA    BYTE      val
      00000D5BH   SYMBOL    EDATA    BYTE      cmd
      00000D5CH   SYMBOL    EDATA    ---       val
      00000E04H   SYMBOL    EDATA    BYTE      cmd
      00000E05H   SYMBOL    EDATA    BYTE      val
      00000E06H   SYMBOL    EDATA    BYTE      dat
      00000D60H   SYMBOL    EDATA    BYTE      cmd
      00000D61H   SYMBOL    EDATA    ---       val
      00000E52H   SYMBOL    EDATA    WORD      zero_position
      00000E54H   SYMBOL    EDATA    WORD      angle
      00000EA4H   SYMBOL    EDATA    BYTE      val

      ---         MODULE    ---      ---       SEEKFREE_BLUETOOTH_CH9141
      00FF0066H   PUBLIC    CODE     ---       bluetooth_ch9141_uart_callback
      000000D0H   SFRSYM    DATA     BYTE      PSW
      0000009DH   SFRSYM    DATA     BYTE      IRCBAND
      00000097H   SFRSYM    DATA     BYTE      AUXR2
      000000EFH   SFRSYM    DATA     BYTE      AUXINTIF
      000000FDH   SFRSYM    DATA     BYTE      S4CON
      000000ACH   SFRSYM    DATA     BYTE      S3CON
      0000009AH   SFRSYM    DATA     BYTE      S2CON
      000000FEH   SFRSYM    DATA     BYTE      S4BUF
      000000B7H   SFRSYM    DATA     BYTE      IPH
L251 LINKER/LOCATER V4.66.93.0                                                        04/15/2024  09:56:15  PAGE 66


      000000CDH   SFRSYM    DATA     BYTE      SPSTAT
      000000DDH   SFRSYM    DATA     BYTE      T4T3M
      000000C1H   SFRSYM    DATA     BYTE      WDT_CONTR
      000000DFH   SFRSYM    DATA     BYTE      IP3
      000000F4H   SFRSYM    DATA     BYTE      USBCON
      000000B5H   SFRSYM    DATA     BYTE      IP2
      000000FFH   SFRSYM    DATA     BYTE      RSTCFG
      000000C7H   SFRSYM    DATA     BYTE      IAP_CONTR
      000000F9H   SFRSYM    DATA     BYTE      LINICR
      0000008EH   SFRSYM    DATA     BYTE      AUXR
      000000AFH   SFRSYM    DATA     BYTE      IE2
      00000080H.7 SFRSYM    DATA     BIT       P07
      00000088H   SFRSYM    DATA     BYTE      TCON
      00000089H   SFRSYM    DATA     BYTE      TMOD
      00000098H   SFRSYM    DATA     BYTE      SCON
      000000F1H   SFRSYM    DATA     BYTE      CANICR
      00000087H   SFRSYM    DATA     BYTE      PCON
      000000BCH   SFRSYM    DATA     BYTE      ADC_CONTR
      000000E7H   SFRSYM    DATA     BYTE      CMPCR2
      000000E6H   SFRSYM    DATA     BYTE      CMPCR1
      000000DEH   SFRSYM    DATA     BYTE      ADCCFG
      000000B8H   SFRSYM    DATA     BYTE      IP
      0000008FH   SFRSYM    DATA     BYTE      INTCLKO
      000000EEH   SFRSYM    DATA     BYTE      IP3H
      000000B6H   SFRSYM    DATA     BYTE      IP2H
      000000A8H   SFRSYM    DATA     BYTE      IE
      000000BBH   SFRSYM    DATA     BYTE      P_SW3
      000000BAH   SFRSYM    DATA     BYTE      P_SW2
      000000A2H   SFRSYM    DATA     BYTE      P_SW1
      000000CEH   SFRSYM    DATA     BYTE      SPCTL
      000000F8H   SFRSYM    DATA     BYTE      P7
      000000E8H   SFRSYM    DATA     BYTE      P6
      000000C8H   SFRSYM    DATA     BYTE      P5
      000000C0H   SFRSYM    DATA     BYTE      P4
      000000B0H   SFRSYM    DATA     BYTE      P3
      000000A0H   SFRSYM    DATA     BYTE      P2
      00000090H   SFRSYM    DATA     BYTE      P1
      00000080H   SFRSYM    DATA     BYTE      P0
      00000350H   SYMBOL    EDATA    ---       bluetooth_ch9141_buffer
      00000390H   SYMBOL    EDATA    BYTE      bluetooth_ch9141_data
      00000391H   SYMBOL    EDATA    ---       bluetooth_ch9141_fifo

      00FF0066H   BLOCK     CODE     ---       LVL=0
      00FF0066H   LINE      CODE     ---       #67
      00FF0066H   LINE      CODE     ---       #70
      00FF006CH   LINE      CODE     ---       #71
      00FF007FH   LINE      CODE     ---       #72
      ---         BLOCKEND  ---      ---       LVL=0
      00000ADBH   SYMBOL    EDATA    ---       buff
      00000ADFH   SYMBOL    EDATA    DWORD     len
      00000AE3H   SYMBOL    EDATA    WORD      time_count
      000009E0H   SYMBOL    EDATA    ---       buff
      000009E4H   SYMBOL    EDATA    DWORD     len
      000009E8H   SYMBOL    EDATA    DWORD     data_len

      ---         MODULE    ---      ---       SEEKFREE_DL1A
      00000E07H   PUBLIC    EDATA    WORD      dl1a_distance_mm
      00000E09H   PUBLIC    EDATA    BYTE      dl1a_finsh_flag
      000000D0H   SFRSYM    DATA     BYTE      PSW
      0000009DH   SFRSYM    DATA     BYTE      IRCBAND
      00000097H   SFRSYM    DATA     BYTE      AUXR2
      000000EFH   SFRSYM    DATA     BYTE      AUXINTIF
      000000FDH   SFRSYM    DATA     BYTE      S4CON
      000000ACH   SFRSYM    DATA     BYTE      S3CON
      0000009AH   SFRSYM    DATA     BYTE      S2CON
L251 LINKER/LOCATER V4.66.93.0                                                        04/15/2024  09:56:15  PAGE 67


      000000B7H   SFRSYM    DATA     BYTE      IPH
      000000CDH   SFRSYM    DATA     BYTE      SPSTAT
      000000DDH   SFRSYM    DATA     BYTE      T4T3M
      000000C1H   SFRSYM    DATA     BYTE      WDT_CONTR
      000000DFH   SFRSYM    DATA     BYTE      IP3
      000000F4H   SFRSYM    DATA     BYTE      USBCON
      000000B5H   SFRSYM    DATA     BYTE      IP2
      000000FFH   SFRSYM    DATA     BYTE      RSTCFG
      000000C7H   SFRSYM    DATA     BYTE      IAP_CONTR
      000000F9H   SFRSYM    DATA     BYTE      LINICR
      0000008EH   SFRSYM    DATA     BYTE      AUXR
      000000AFH   SFRSYM    DATA     BYTE      IE2
      00000090H.5 SFRSYM    DATA     BIT       P15
      000000A0H.4 SFRSYM    DATA     BIT       P24
      000000B0H.3 SFRSYM    DATA     BIT       P33
      00000088H   SFRSYM    DATA     BYTE      TCON
      00000089H   SFRSYM    DATA     BYTE      TMOD
      00000098H   SFRSYM    DATA     BYTE      SCON
      000000F1H   SFRSYM    DATA     BYTE      CANICR
      00000087H   SFRSYM    DATA     BYTE      PCON
      000000BCH   SFRSYM    DATA     BYTE      ADC_CONTR
      000000E7H   SFRSYM    DATA     BYTE      CMPCR2
      000000E6H   SFRSYM    DATA     BYTE      CMPCR1
      000000DEH   SFRSYM    DATA     BYTE      ADCCFG
      000000B8H   SFRSYM    DATA     BYTE      IP
      0000008FH   SFRSYM    DATA     BYTE      INTCLKO
      000000EEH   SFRSYM    DATA     BYTE      IP3H
      000000B6H   SFRSYM    DATA     BYTE      IP2H
      000000A8H   SFRSYM    DATA     BYTE      IE
      000000BBH   SFRSYM    DATA     BYTE      P_SW3
      000000BAH   SFRSYM    DATA     BYTE      P_SW2
      000000A2H   SFRSYM    DATA     BYTE      P_SW1
      000000CEH   SFRSYM    DATA     BYTE      SPCTL
      000000F8H   SFRSYM    DATA     BYTE      P7
      000000E8H   SFRSYM    DATA     BYTE      P6
      000000C8H   SFRSYM    DATA     BYTE      P5
      000000C0H   SFRSYM    DATA     BYTE      P4
      000000B0H   SFRSYM    DATA     BYTE      P3
      000000A0H   SFRSYM    DATA     BYTE      P2
      00000090H   SFRSYM    DATA     BYTE      P1
      00000080H   SFRSYM    DATA     BYTE      P0
      00000E56H   SYMBOL    EDATA    WORD      j
      00000EA5H   SYMBOL    EDATA    BYTE      ack_dat
      00000E58H   SYMBOL    EDATA    BYTE      c
      00000E59H   SYMBOL    EDATA    BYTE      i
      00000E0AH   SYMBOL    EDATA    BYTE      ack_x
      00000E0BH   SYMBOL    EDATA    BYTE      i
      00000E0CH   SYMBOL    EDATA    BYTE      c
      00000B4FH   SYMBOL    EDATA    BYTE      dev_add
      00000B50H   SYMBOL    EDATA    ---       dat
      00000B54H   SYMBOL    EDATA    DWORD     len
      00000E0DH   SYMBOL    EDATA    BYTE      dev_add
      00000E0EH   SYMBOL    EDATA    BYTE      reg
      00000E0FH   SYMBOL    EDATA    BYTE      dat
      00000E10H   SYMBOL    EDATA    BYTE      dev_add
      00000E11H   SYMBOL    EDATA    BYTE      reg
      00000E12H   SYMBOL    EDATA    BYTE      dat
      00000AE5H   SYMBOL    EDATA    BYTE      dev_add
      00000AE6H   SYMBOL    EDATA    BYTE      reg
      00000AE7H   SYMBOL    EDATA    ---       dat_add
      00000AEBH   SYMBOL    EDATA    DWORD     num
      00000AEFH   SYMBOL    EDATA    BYTE      dev_add
      00000AF0H   SYMBOL    EDATA    BYTE      reg
      00000AF1H   SYMBOL    EDATA    ---       dat_add
      00000AF5H   SYMBOL    EDATA    DWORD     num
L251 LINKER/LOCATER V4.66.93.0                                                        04/15/2024  09:56:15  PAGE 68


      000009ECH   SYMBOL    EDATA    ---       index
      000009F0H   SYMBOL    EDATA    ---       type_is_aperture
      000009F4H   SYMBOL    EDATA    BYTE      tmp
      000009F5H   SYMBOL    EDATA    BYTE      return_state
      000009F6H   SYMBOL    EDATA    WORD      loop_count
      00000C80H   SYMBOL    EDATA    WORD      timeout_period_mclks
      00000C82H   SYMBOL    EDATA    BYTE      vcsel_period_pclks
      00000C83H   SYMBOL    EDATA    DWORD     macro_period_ns
      00000B58H   SYMBOL    EDATA    DWORD     timeout_period_us
      00000B5CH   SYMBOL    EDATA    BYTE      vcsel_period_pclks
      00000B5DH   SYMBOL    EDATA    DWORD     macro_period_ns
      00000E5AH   SYMBOL    EDATA    WORD      reg_val
      00000AF9H   SYMBOL    EDATA    WORD      timeout_mclks
      00000AFBH   SYMBOL    EDATA    DWORD     ls_byte
      00000AFFH   SYMBOL    EDATA    WORD      ms_byte
      00000B01H   SYMBOL    EDATA    WORD      return_data
      00000D65H   SYMBOL    EDATA    ---       enables
      00000D69H   SYMBOL    EDATA    BYTE      sequence_config
      00000E13H   SYMBOL    EDATA    INT       type
      00000E15H   SYMBOL    EDATA    BYTE      data_buffer
      000009F8H   SYMBOL    EDATA    ---       enables
      000009FCH   SYMBOL    EDATA    ---       timeouts
      00000A00H   SYMBOL    EDATA    ---       reg_buffer
      00000A02H   SYMBOL    EDATA    WORD      reg16_buffer
      00000D6AH   SYMBOL    EDATA    BYTE      vhv_init_byte
      00000D6BH   SYMBOL    EDATA    BYTE      return_state
      00000D6CH   SYMBOL    EDATA    BYTE      data_buffer
      00000D6DH   SYMBOL    EDATA    WORD      loop_count
      000005B2H   SYMBOL    EDATA    DWORD     budget_us
      000005B6H   SYMBOL    EDATA    BYTE      return_state
      000005B7H   SYMBOL    EDATA    ---       data_buffer
      000005BAH   SYMBOL    EDATA    WORD      dat
      000005BCH   SYMBOL    EDATA    DWORD     used_budget_us
      000005C0H   SYMBOL    EDATA    DWORD     final_range_timeout_us
      000005C4H   SYMBOL    EDATA    WORD      final_range_timeout_mclks
      000005C6H   SYMBOL    EDATA    ---       enables
      000005CBH   SYMBOL    EDATA    ---       timeouts
      00000761H   SYMBOL    EDATA    ---       enables
      00000766H   SYMBOL    EDATA    ---       timeouts
      0000077CH   SYMBOL    EDATA    DWORD     budget_us
      00000B61H   SYMBOL    EDATA    FLOAT     limit_mcps
      00000B65H   SYMBOL    EDATA    ---       data_buffer
      00000B68H   SYMBOL    EDATA    WORD      limit_mcps_16bit
      00000E16H   SYMBOL    EDATA    ---       reg_databuffer
      0000084CH   SYMBOL    EDATA    DWORD     measurement_timing_budget_us
      00000850H   SYMBOL    EDATA    BYTE      stop_variable
      00000851H   SYMBOL    EDATA    BYTE      return_state
      00000852H   SYMBOL    EDATA    BYTE      reg_data_buffer
      00000853H   SYMBOL    EDATA    ---       ref_spad_map
      00000859H   SYMBOL    EDATA    ---       data_buffer
      00000860H   SYMBOL    EDATA    BYTE      i

      ---         MODULE    ---      ---       SEEKFREE_FONT
      00FF212DH   PUBLIC    CODE     ---       oled_8x16
      00FF271DH   PUBLIC    CODE     ---       tft_ascii
      00FF2D0DH   PUBLIC    CODE     ---       oled_6x8
      000000D0H   SFRSYM    DATA     BYTE      PSW
      0000009DH   SFRSYM    DATA     BYTE      IRCBAND
      00000097H   SFRSYM    DATA     BYTE      AUXR2
      000000EFH   SFRSYM    DATA     BYTE      AUXINTIF
      000000FDH   SFRSYM    DATA     BYTE      S4CON
      000000ACH   SFRSYM    DATA     BYTE      S3CON
      0000009AH   SFRSYM    DATA     BYTE      S2CON
      000000B7H   SFRSYM    DATA     BYTE      IPH
      000000CDH   SFRSYM    DATA     BYTE      SPSTAT
L251 LINKER/LOCATER V4.66.93.0                                                        04/15/2024  09:56:15  PAGE 69


      000000DDH   SFRSYM    DATA     BYTE      T4T3M
      000000C1H   SFRSYM    DATA     BYTE      WDT_CONTR
      000000DFH   SFRSYM    DATA     BYTE      IP3
      000000F4H   SFRSYM    DATA     BYTE      USBCON
      000000B5H   SFRSYM    DATA     BYTE      IP2
      000000FFH   SFRSYM    DATA     BYTE      RSTCFG
      000000C7H   SFRSYM    DATA     BYTE      IAP_CONTR
      000000F9H   SFRSYM    DATA     BYTE      LINICR
      0000008EH   SFRSYM    DATA     BYTE      AUXR
      000000AFH   SFRSYM    DATA     BYTE      IE2
      00000088H   SFRSYM    DATA     BYTE      TCON
      00000089H   SFRSYM    DATA     BYTE      TMOD
      00000098H   SFRSYM    DATA     BYTE      SCON
      000000F1H   SFRSYM    DATA     BYTE      CANICR
      00000087H   SFRSYM    DATA     BYTE      PCON
      000000BCH   SFRSYM    DATA     BYTE      ADC_CONTR
      000000E7H   SFRSYM    DATA     BYTE      CMPCR2
      000000E6H   SFRSYM    DATA     BYTE      CMPCR1
      000000DEH   SFRSYM    DATA     BYTE      ADCCFG
      000000B8H   SFRSYM    DATA     BYTE      IP
      0000008FH   SFRSYM    DATA     BYTE      INTCLKO
      000000EEH   SFRSYM    DATA     BYTE      IP3H
      000000B6H   SFRSYM    DATA     BYTE      IP2H
      000000A8H   SFRSYM    DATA     BYTE      IE
      000000BBH   SFRSYM    DATA     BYTE      P_SW3
      000000BAH   SFRSYM    DATA     BYTE      P_SW2
      000000A2H   SFRSYM    DATA     BYTE      P_SW1
      000000CEH   SFRSYM    DATA     BYTE      SPCTL
      000000F8H   SFRSYM    DATA     BYTE      P7
      000000E8H   SFRSYM    DATA     BYTE      P6
      000000C8H   SFRSYM    DATA     BYTE      P5
      000000C0H   SFRSYM    DATA     BYTE      P4
      000000B0H   SFRSYM    DATA     BYTE      P3
      000000A0H   SFRSYM    DATA     BYTE      P2
      00000090H   SFRSYM    DATA     BYTE      P1
      00000080H   SFRSYM    DATA     BYTE      P0

      ---         MODULE    ---      ---       SEEKFREE_ICM20602
      00000A04H   PUBLIC    EDATA    INT       icm20602_acc_x
      00000A06H   PUBLIC    EDATA    INT       icm20602_acc_y
      00000A08H   PUBLIC    EDATA    INT       icm20602_acc_z
      00000A0AH   PUBLIC    EDATA    INT       icm20602_gyro_x
      00000A0CH   PUBLIC    EDATA    INT       icm20602_gyro_y
      00000A0EH   PUBLIC    EDATA    INT       icm20602_gyro_z
      000000D0H   SFRSYM    DATA     BYTE      PSW
      0000009DH   SFRSYM    DATA     BYTE      IRCBAND
      00000097H   SFRSYM    DATA     BYTE      AUXR2
      000000EFH   SFRSYM    DATA     BYTE      AUXINTIF
      000000FDH   SFRSYM    DATA     BYTE      S4CON
      000000ACH   SFRSYM    DATA     BYTE      S3CON
      0000009AH   SFRSYM    DATA     BYTE      S2CON
      000000B7H   SFRSYM    DATA     BYTE      IPH
      000000CDH   SFRSYM    DATA     BYTE      SPSTAT
      000000DDH   SFRSYM    DATA     BYTE      T4T3M
      000000C1H   SFRSYM    DATA     BYTE      WDT_CONTR
      000000DFH   SFRSYM    DATA     BYTE      IP3
      000000F4H   SFRSYM    DATA     BYTE      USBCON
      000000B5H   SFRSYM    DATA     BYTE      IP2
      000000FFH   SFRSYM    DATA     BYTE      RSTCFG
      000000C7H   SFRSYM    DATA     BYTE      IAP_CONTR
      000000F9H   SFRSYM    DATA     BYTE      LINICR
      0000008EH   SFRSYM    DATA     BYTE      AUXR
      000000AFH   SFRSYM    DATA     BYTE      IE2
      000000C0H.3 SFRSYM    DATA     BIT       P43
      000000C0H.2 SFRSYM    DATA     BIT       P42
L251 LINKER/LOCATER V4.66.93.0                                                        04/15/2024  09:56:15  PAGE 70


      00000088H   SFRSYM    DATA     BYTE      TCON
      00000089H   SFRSYM    DATA     BYTE      TMOD
      000000C0H.1 SFRSYM    DATA     BIT       P41
      00000098H   SFRSYM    DATA     BYTE      SCON
      000000C0H.0 SFRSYM    DATA     BIT       P40
      000000F1H   SFRSYM    DATA     BYTE      CANICR
      00000087H   SFRSYM    DATA     BYTE      PCON
      000000BCH   SFRSYM    DATA     BYTE      ADC_CONTR
      000000E7H   SFRSYM    DATA     BYTE      CMPCR2
      000000E6H   SFRSYM    DATA     BYTE      CMPCR1
      000000DEH   SFRSYM    DATA     BYTE      ADCCFG
      000000B8H   SFRSYM    DATA     BYTE      IP
      0000008FH   SFRSYM    DATA     BYTE      INTCLKO
      000000EEH   SFRSYM    DATA     BYTE      IP3H
      000000B6H   SFRSYM    DATA     BYTE      IP2H
      000000A8H   SFRSYM    DATA     BYTE      IE
      000000BBH   SFRSYM    DATA     BYTE      P_SW3
      000000BAH   SFRSYM    DATA     BYTE      P_SW2
      000000A2H   SFRSYM    DATA     BYTE      P_SW1
      000000CEH   SFRSYM    DATA     BYTE      SPCTL
      000000F8H   SFRSYM    DATA     BYTE      P7
      000000E8H   SFRSYM    DATA     BYTE      P6
      000000C8H   SFRSYM    DATA     BYTE      P5
      000000C0H   SFRSYM    DATA     BYTE      P4
      000000B0H   SFRSYM    DATA     BYTE      P3
      000000A0H   SFRSYM    DATA     BYTE      P2
      00000090H   SFRSYM    DATA     BYTE      P1
      00000080H   SFRSYM    DATA     BYTE      P0
      00000E5CH   SYMBOL    EDATA    BYTE      byte
      00000E5DH   SYMBOL    EDATA    BYTE      i
      00000E5EH   SYMBOL    EDATA    BYTE      cmd
      00000E5FH   SYMBOL    EDATA    BYTE      val
      00000D6FH   SYMBOL    EDATA    BYTE      cmd
      00000D70H   SYMBOL    EDATA    ---       val
      0000097EH   SYMBOL    EDATA    BYTE      cmd
      0000097FH   SYMBOL    EDATA    ---       val
      00000983H   SYMBOL    EDATA    DWORD     num
      00000987H   SYMBOL    EDATA    DWORD     i
      00000E60H   SYMBOL    EDATA    BYTE      reg
      00000E61H   SYMBOL    EDATA    BYTE      dat
      00000E62H   SYMBOL    EDATA    BYTE      reg
      00000E63H   SYMBOL    EDATA    BYTE      dat
      00000B6AH   SYMBOL    EDATA    BYTE      reg
      00000B6BH   SYMBOL    EDATA    ---       dat
      00000B6FH   SYMBOL    EDATA    DWORD     len
      00000DBFH   SYMBOL    EDATA    BYTE      dat
      00000DC0H   SYMBOL    EDATA    BYTE      return_state
      00000DC1H   SYMBOL    EDATA    WORD      timeout_count
      00000CDAH   SYMBOL    EDATA    ---       dat
      00000CE0H   SYMBOL    EDATA    ---       dat
      00000CE6H   SYMBOL    EDATA    INT       acc_value
      00000CE8H   SYMBOL    EDATA    FLOAT     acc_data
      00000CECH   SYMBOL    EDATA    INT       gyro_value
      00000CEEH   SYMBOL    EDATA    FLOAT     gyro_data
      00000DC3H   SYMBOL    EDATA    BYTE      val
      00000DC4H   SYMBOL    EDATA    BYTE      return_state
      00000DC5H   SYMBOL    EDATA    WORD      timeout_count

      ---         MODULE    ---      ---       SEEKFREE_IMU660RA
      00000A10H   PUBLIC    EDATA    INT       imu660ra_acc_x
      00000A12H   PUBLIC    EDATA    INT       imu660ra_acc_y
      00000A14H   PUBLIC    EDATA    INT       imu660ra_acc_z
      00000A16H   PUBLIC    EDATA    INT       imu660ra_gyro_x
      00000A18H   PUBLIC    EDATA    INT       imu660ra_gyro_y
      00000A1AH   PUBLIC    EDATA    INT       imu660ra_gyro_z
L251 LINKER/LOCATER V4.66.93.0                                                        04/15/2024  09:56:15  PAGE 71


      000000D0H   SFRSYM    DATA     BYTE      PSW
      0000009DH   SFRSYM    DATA     BYTE      IRCBAND
      00000097H   SFRSYM    DATA     BYTE      AUXR2
      000000EFH   SFRSYM    DATA     BYTE      AUXINTIF
      000000FDH   SFRSYM    DATA     BYTE      S4CON
      000000ACH   SFRSYM    DATA     BYTE      S3CON
      0000009AH   SFRSYM    DATA     BYTE      S2CON
      000000B7H   SFRSYM    DATA     BYTE      IPH
      000000CDH   SFRSYM    DATA     BYTE      SPSTAT
      000000DDH   SFRSYM    DATA     BYTE      T4T3M
      000000C1H   SFRSYM    DATA     BYTE      WDT_CONTR
      000000DFH   SFRSYM    DATA     BYTE      IP3
      000000F4H   SFRSYM    DATA     BYTE      USBCON
      000000B5H   SFRSYM    DATA     BYTE      IP2
      000000FFH   SFRSYM    DATA     BYTE      RSTCFG
      000000C7H   SFRSYM    DATA     BYTE      IAP_CONTR
      000000F9H   SFRSYM    DATA     BYTE      LINICR
      0000008EH   SFRSYM    DATA     BYTE      AUXR
      000000AFH   SFRSYM    DATA     BYTE      IE2
      000000C0H.3 SFRSYM    DATA     BIT       P43
      000000C0H.2 SFRSYM    DATA     BIT       P42
      00000088H   SFRSYM    DATA     BYTE      TCON
      00000089H   SFRSYM    DATA     BYTE      TMOD
      000000C0H.1 SFRSYM    DATA     BIT       P41
      00000098H   SFRSYM    DATA     BYTE      SCON
      000000C0H.0 SFRSYM    DATA     BIT       P40
      000000F1H   SFRSYM    DATA     BYTE      CANICR
      00000087H   SFRSYM    DATA     BYTE      PCON
      000000BCH   SFRSYM    DATA     BYTE      ADC_CONTR
      000000E7H   SFRSYM    DATA     BYTE      CMPCR2
      000000E6H   SFRSYM    DATA     BYTE      CMPCR1
      000000DEH   SFRSYM    DATA     BYTE      ADCCFG
      000000B8H   SFRSYM    DATA     BYTE      IP
      0000008FH   SFRSYM    DATA     BYTE      INTCLKO
      000000EEH   SFRSYM    DATA     BYTE      IP3H
      000000B6H   SFRSYM    DATA     BYTE      IP2H
      000000A8H   SFRSYM    DATA     BYTE      IE
      000000BBH   SFRSYM    DATA     BYTE      P_SW3
      000000BAH   SFRSYM    DATA     BYTE      P_SW2
      000000A2H   SFRSYM    DATA     BYTE      P_SW1
      000000CEH   SFRSYM    DATA     BYTE      SPCTL
      000000F8H   SFRSYM    DATA     BYTE      P7
      000000E8H   SFRSYM    DATA     BYTE      P6
      000000C8H   SFRSYM    DATA     BYTE      P5
      000000C0H   SFRSYM    DATA     BYTE      P4
      000000B0H   SFRSYM    DATA     BYTE      P3
      000000A0H   SFRSYM    DATA     BYTE      P2
      00000090H   SFRSYM    DATA     BYTE      P1
      00000080H   SFRSYM    DATA     BYTE      P0
      00000E64H   SYMBOL    EDATA    BYTE      byte
      00000E65H   SYMBOL    EDATA    BYTE      i
      00000E66H   SYMBOL    EDATA    BYTE      cmd
      00000E67H   SYMBOL    EDATA    BYTE      val
      00000B73H   SYMBOL    EDATA    BYTE      cmd
      00000B74H   SYMBOL    EDATA    ---       dat_addr
      00000B78H   SYMBOL    EDATA    DWORD     len
      00000B7CH   SYMBOL    EDATA    BYTE      cmd
      00000B7DH   SYMBOL    EDATA    ---       val
      00000B81H   SYMBOL    EDATA    DWORD     num
      00000E68H   SYMBOL    EDATA    BYTE      reg
      00000E69H   SYMBOL    EDATA    BYTE      dat
      00000B85H   SYMBOL    EDATA    BYTE      reg
      00000B86H   SYMBOL    EDATA    ---       dat
      00000B8AH   SYMBOL    EDATA    DWORD     len
      00000E19H   SYMBOL    EDATA    BYTE      reg
L251 LINKER/LOCATER V4.66.93.0                                                        04/15/2024  09:56:15  PAGE 72


      00000E1AH   SYMBOL    EDATA    ---       dat
      00000B8EH   SYMBOL    EDATA    BYTE      reg
      00000B8FH   SYMBOL    EDATA    ---       dat
      00000B93H   SYMBOL    EDATA    DWORD     len
      00000DC7H   SYMBOL    EDATA    BYTE      dat
      00000DC8H   SYMBOL    EDATA    BYTE      return_state
      00000DC9H   SYMBOL    EDATA    WORD      timeout_count
      00000C87H   SYMBOL    EDATA    ---       dat
      00000C8EH   SYMBOL    EDATA    ---       dat
      00000CF2H   SYMBOL    EDATA    INT       acc_value
      00000CF4H   SYMBOL    EDATA    FLOAT     acc_dat
      00000CF8H   SYMBOL    EDATA    INT       gyro_value
      00000CFAH   SYMBOL    EDATA    FLOAT     gyro_dat
      00000EA6H   SYMBOL    EDATA    BYTE      return_state

      ---         MODULE    ---      ---       SEEKFREE_IMU963RA
      000008C4H   PUBLIC    EDATA    INT       imu963ra_acc_x
      000008C6H   PUBLIC    EDATA    INT       imu963ra_acc_y
      000008C8H   PUBLIC    EDATA    INT       imu963ra_acc_z
      000008CAH   PUBLIC    EDATA    INT       imu963ra_mag_x
      000008CCH   PUBLIC    EDATA    INT       imu963ra_mag_y
      000008CEH   PUBLIC    EDATA    INT       imu963ra_mag_z
      000008D0H   PUBLIC    EDATA    INT       imu963ra_gyro_x
      000008D2H   PUBLIC    EDATA    INT       imu963ra_gyro_y
      000008D4H   PUBLIC    EDATA    INT       imu963ra_gyro_z
      000000D0H   SFRSYM    DATA     BYTE      PSW
      0000009DH   SFRSYM    DATA     BYTE      IRCBAND
      00000097H   SFRSYM    DATA     BYTE      AUXR2
      000000EFH   SFRSYM    DATA     BYTE      AUXINTIF
      000000FDH   SFRSYM    DATA     BYTE      S4CON
      000000ACH   SFRSYM    DATA     BYTE      S3CON
      0000009AH   SFRSYM    DATA     BYTE      S2CON
      000000B7H   SFRSYM    DATA     BYTE      IPH
      000000CDH   SFRSYM    DATA     BYTE      SPSTAT
      000000DDH   SFRSYM    DATA     BYTE      T4T3M
      000000C1H   SFRSYM    DATA     BYTE      WDT_CONTR
      000000DFH   SFRSYM    DATA     BYTE      IP3
      000000F4H   SFRSYM    DATA     BYTE      USBCON
      000000B5H   SFRSYM    DATA     BYTE      IP2
      000000FFH   SFRSYM    DATA     BYTE      RSTCFG
      000000C7H   SFRSYM    DATA     BYTE      IAP_CONTR
      000000F9H   SFRSYM    DATA     BYTE      LINICR
      0000008EH   SFRSYM    DATA     BYTE      AUXR
      000000AFH   SFRSYM    DATA     BYTE      IE2
      000000C0H.3 SFRSYM    DATA     BIT       P43
      000000C0H.2 SFRSYM    DATA     BIT       P42
      00000088H   SFRSYM    DATA     BYTE      TCON
      00000089H   SFRSYM    DATA     BYTE      TMOD
      000000C0H.1 SFRSYM    DATA     BIT       P41
      00000098H   SFRSYM    DATA     BYTE      SCON
      000000C0H.0 SFRSYM    DATA     BIT       P40
      000000F1H   SFRSYM    DATA     BYTE      CANICR
      00000087H   SFRSYM    DATA     BYTE      PCON
      000000BCH   SFRSYM    DATA     BYTE      ADC_CONTR
      000000E7H   SFRSYM    DATA     BYTE      CMPCR2
      000000E6H   SFRSYM    DATA     BYTE      CMPCR1
      000000DEH   SFRSYM    DATA     BYTE      ADCCFG
      000000B8H   SFRSYM    DATA     BYTE      IP
      0000008FH   SFRSYM    DATA     BYTE      INTCLKO
      000000EEH   SFRSYM    DATA     BYTE      IP3H
      000000B6H   SFRSYM    DATA     BYTE      IP2H
      000000A8H   SFRSYM    DATA     BYTE      IE
      000000BBH   SFRSYM    DATA     BYTE      P_SW3
      000000BAH   SFRSYM    DATA     BYTE      P_SW2
      000000A2H   SFRSYM    DATA     BYTE      P_SW1
L251 LINKER/LOCATER V4.66.93.0                                                        04/15/2024  09:56:15  PAGE 73


      000000CEH   SFRSYM    DATA     BYTE      SPCTL
      000000F8H   SFRSYM    DATA     BYTE      P7
      000000E8H   SFRSYM    DATA     BYTE      P6
      000000C8H   SFRSYM    DATA     BYTE      P5
      000000C0H   SFRSYM    DATA     BYTE      P4
      000000B0H   SFRSYM    DATA     BYTE      P3
      000000A0H   SFRSYM    DATA     BYTE      P2
      00000090H   SFRSYM    DATA     BYTE      P1
      00000080H   SFRSYM    DATA     BYTE      P0
      00000E6AH   SYMBOL    EDATA    BYTE      byte
      00000E6BH   SYMBOL    EDATA    BYTE      i
      00000E6CH   SYMBOL    EDATA    BYTE      cmd
      00000E6DH   SYMBOL    EDATA    BYTE      val
      00000D74H   SYMBOL    EDATA    BYTE      cmd
      00000D75H   SYMBOL    EDATA    ---       val
      00000B97H   SYMBOL    EDATA    BYTE      cmd
      00000B98H   SYMBOL    EDATA    ---       val
      00000B9CH   SYMBOL    EDATA    DWORD     num
      00000E6EH   SYMBOL    EDATA    BYTE      reg
      00000E6FH   SYMBOL    EDATA    BYTE      dat
      00000E70H   SYMBOL    EDATA    BYTE      reg
      00000E71H   SYMBOL    EDATA    BYTE      dat
      00000BA0H   SYMBOL    EDATA    BYTE      reg
      00000BA1H   SYMBOL    EDATA    ---       dat
      00000BA5H   SYMBOL    EDATA    DWORD     len
      00000CFEH   SYMBOL    EDATA    BYTE      addr
      00000CFFH   SYMBOL    EDATA    BYTE      reg
      00000D00H   SYMBOL    EDATA    BYTE      dat
      00000D01H   SYMBOL    EDATA    BYTE      return_state
      00000D02H   SYMBOL    EDATA    WORD      timeout_count
      00000DCBH   SYMBOL    EDATA    BYTE      addr
      00000DCCH   SYMBOL    EDATA    BYTE      reg
      00000DCDH   SYMBOL    EDATA    WORD      timeout_count
      00000E72H   SYMBOL    EDATA    BYTE      addr
      00000E73H   SYMBOL    EDATA    BYTE      reg
      00000DCFH   SYMBOL    EDATA    BYTE      return_state
      00000DD0H   SYMBOL    EDATA    BYTE      dat
      00000DD1H   SYMBOL    EDATA    WORD      timeout_count
      00000DD3H   SYMBOL    EDATA    BYTE      return_state
      00000DD4H   SYMBOL    EDATA    BYTE      dat
      00000DD5H   SYMBOL    EDATA    WORD      timeout_count
      00000D04H   SYMBOL    EDATA    ---       dat
      00000D0AH   SYMBOL    EDATA    ---       dat
      00000C95H   SYMBOL    EDATA    BYTE      temp_status
      00000C96H   SYMBOL    EDATA    ---       dat
      00000D10H   SYMBOL    EDATA    INT       acc_value
      00000D12H   SYMBOL    EDATA    FLOAT     acc_dat
      00000D16H   SYMBOL    EDATA    INT       gyro_value
      00000D18H   SYMBOL    EDATA    FLOAT     gyro_dat
      00000D1CH   SYMBOL    EDATA    INT       mag_value
      00000D1EH   SYMBOL    EDATA    FLOAT     mag_dat
      00000EA7H   SYMBOL    EDATA    BYTE      return_state

      ---         MODULE    ---      ---       SEEKFREE_IPS114_SPI
      00000492H   PUBLIC    EDATA    BYTE      ?ips114_showfloat_simspi?BYTE
      000004C2H   PUBLIC    EDATA    BYTE      ?ips114_showfloat?BYTE
      000000D0H   SFRSYM    DATA     BYTE      PSW
      0000009DH   SFRSYM    DATA     BYTE      IRCBAND
      00000097H   SFRSYM    DATA     BYTE      AUXR2
      000000EFH   SFRSYM    DATA     BYTE      AUXINTIF
      000000FDH   SFRSYM    DATA     BYTE      S4CON
      000000ACH   SFRSYM    DATA     BYTE      S3CON
      0000009AH   SFRSYM    DATA     BYTE      S2CON
      000000B7H   SFRSYM    DATA     BYTE      IPH
      000000CDH   SFRSYM    DATA     BYTE      SPSTAT
L251 LINKER/LOCATER V4.66.93.0                                                        04/15/2024  09:56:15  PAGE 74


      000000DDH   SFRSYM    DATA     BYTE      T4T3M
      000000C1H   SFRSYM    DATA     BYTE      WDT_CONTR
      000000DFH   SFRSYM    DATA     BYTE      IP3
      000000F4H   SFRSYM    DATA     BYTE      USBCON
      000000B5H   SFRSYM    DATA     BYTE      IP2
      000000FFH   SFRSYM    DATA     BYTE      RSTCFG
      000000C7H   SFRSYM    DATA     BYTE      IAP_CONTR
      000000F9H   SFRSYM    DATA     BYTE      LINICR
      0000008EH   SFRSYM    DATA     BYTE      AUXR
      000000AFH   SFRSYM    DATA     BYTE      IE2
      000000A0H.7 SFRSYM    DATA     BIT       P27
      000000A0H.5 SFRSYM    DATA     BIT       P25
      00000088H   SFRSYM    DATA     BYTE      TCON
      00000089H   SFRSYM    DATA     BYTE      TMOD
      000000A0H.3 SFRSYM    DATA     BIT       P23
      00000098H   SFRSYM    DATA     BYTE      SCON
      000000A0H.2 SFRSYM    DATA     BIT       P22
      000000A0H.1 SFRSYM    DATA     BIT       P21
      000000A0H.0 SFRSYM    DATA     BIT       P20
      000000F1H   SFRSYM    DATA     BYTE      CANICR
      00000087H   SFRSYM    DATA     BYTE      PCON
      000000BCH   SFRSYM    DATA     BYTE      ADC_CONTR
      000000E7H   SFRSYM    DATA     BYTE      CMPCR2
      000000E6H   SFRSYM    DATA     BYTE      CMPCR1
      000000DEH   SFRSYM    DATA     BYTE      ADCCFG
      000000B8H   SFRSYM    DATA     BYTE      IP
      0000008FH   SFRSYM    DATA     BYTE      INTCLKO
      000000EEH   SFRSYM    DATA     BYTE      IP3H
      000000B6H   SFRSYM    DATA     BYTE      IP2H
      000000A8H   SFRSYM    DATA     BYTE      IE
      000000BBH   SFRSYM    DATA     BYTE      P_SW3
      000000BAH   SFRSYM    DATA     BYTE      P_SW2
      000000A2H   SFRSYM    DATA     BYTE      P_SW1
      000000CEH   SFRSYM    DATA     BYTE      SPCTL
      000000F8H   SFRSYM    DATA     BYTE      P7
      000000E8H   SFRSYM    DATA     BYTE      P6
      000000C8H   SFRSYM    DATA     BYTE      P5
      000000C0H   SFRSYM    DATA     BYTE      P4
      000000B0H   SFRSYM    DATA     BYTE      P3
      000000A0H   SFRSYM    DATA     BYTE      P2
      00000090H   SFRSYM    DATA     BYTE      P1
      00000080H   SFRSYM    DATA     BYTE      P0
      00000E74H   SYMBOL    EDATA    BYTE      dat
      00000E75H   SYMBOL    EDATA    BYTE      i
      00000E76H   SYMBOL    EDATA    BYTE      dat
      00000E77H   SYMBOL    EDATA    BYTE      i
      00000E1CH   SYMBOL    EDATA    WORD      dat
      00000E1EH   SYMBOL    EDATA    BYTE      i
      00000C3AH   SYMBOL    EDATA    WORD      x1
      00000C3CH   SYMBOL    EDATA    WORD      y1
      00000C3EH   SYMBOL    EDATA    WORD      x2
      00000C40H   SYMBOL    EDATA    WORD      y2
      00000D22H   SYMBOL    EDATA    WORD      color
      00000D24H   SYMBOL    EDATA    WORD      i
      00000D26H   SYMBOL    EDATA    WORD      j
      00000D28H   SYMBOL    EDATA    WORD      x
      00000D2AH   SYMBOL    EDATA    WORD      y
      00000D2CH   SYMBOL    EDATA    WORD      color
      00000C42H   SYMBOL    EDATA    WORD      x
      00000C44H   SYMBOL    EDATA    WORD      y
      00000C46H   SYMBOL    EDATA    CHAR      dat
      00000C47H   SYMBOL    EDATA    BYTE      i
      00000C48H   SYMBOL    EDATA    BYTE      j
      00000C49H   SYMBOL    EDATA    BYTE      temp
      00000B03H   SYMBOL    EDATA    WORD      x
L251 LINKER/LOCATER V4.66.93.0                                                        04/15/2024  09:56:15  PAGE 75


      00000B05H   SYMBOL    EDATA    WORD      y
      00000B07H   SYMBOL    EDATA    ---       dat
      00000B0BH   SYMBOL    EDATA    WORD      j
      00000BA9H   SYMBOL    EDATA    WORD      x
      00000BABH   SYMBOL    EDATA    WORD      y
      00000BADH   SYMBOL    EDATA    CHAR      dat
      00000BAEH   SYMBOL    EDATA    ---       a
      00000BB1H   SYMBOL    EDATA    BYTE      i
      00000BB2H   SYMBOL    EDATA    WORD      x
      00000BB4H   SYMBOL    EDATA    WORD      y
      00000BB6H   SYMBOL    EDATA    BYTE      dat
      00000BB7H   SYMBOL    EDATA    ---       a
      00000BBAH   SYMBOL    EDATA    BYTE      i
      00000A1CH   SYMBOL    EDATA    WORD      x
      00000A1EH   SYMBOL    EDATA    WORD      y
      00000A20H   SYMBOL    EDATA    INT       dat
      00000A22H   SYMBOL    EDATA    ---       a
      00000A27H   SYMBOL    EDATA    BYTE      i
      00000A28H   SYMBOL    EDATA    WORD      x
      00000A2AH   SYMBOL    EDATA    WORD      y
      00000A2CH   SYMBOL    EDATA    WORD      dat
      00000A2EH   SYMBOL    EDATA    ---       a
      00000A33H   SYMBOL    EDATA    BYTE      i
      00000639H   SYMBOL    EDATA    WORD      x
      0000063BH   SYMBOL    EDATA    WORD      y
      0000063DH   SYMBOL    EDATA    LONG      dat
      00000641H   SYMBOL    EDATA    BYTE      num
      00000642H   SYMBOL    EDATA    ---       buff
      00000664H   SYMBOL    EDATA    BYTE      length
      00000492H   SYMBOL    EDATA    WORD      x
      00000494H   SYMBOL    EDATA    WORD      y
      00000496H   SYMBOL    EDATA    FLOAT     dat
      0000049AH   SYMBOL    EDATA    BYTE      num
      0000049BH   SYMBOL    EDATA    BYTE      pointnum
      0000049CH   SYMBOL    EDATA    BYTE      length
      0000049DH   SYMBOL    EDATA    ---       buff
      000004BFH   SYMBOL    EDATA    CHAR      start
      000004C0H   SYMBOL    EDATA    CHAR      end
      000004C1H   SYMBOL    EDATA    CHAR      point
      00000EA8H   SYMBOL    EDATA    BYTE      dat
      00000EA9H   SYMBOL    EDATA    BYTE      dat
      00000DD7H   SYMBOL    EDATA    WORD      dat
      00000DD9H   SYMBOL    EDATA    ---       dat1
      00000C4AH   SYMBOL    EDATA    WORD      x1
      00000C4CH   SYMBOL    EDATA    WORD      y1
      00000C4EH   SYMBOL    EDATA    WORD      x2
      00000C50H   SYMBOL    EDATA    WORD      y2
      00000D2EH   SYMBOL    EDATA    WORD      color
      00000D30H   SYMBOL    EDATA    WORD      i
      00000D32H   SYMBOL    EDATA    WORD      j
      00000D34H   SYMBOL    EDATA    WORD      x
      00000D36H   SYMBOL    EDATA    WORD      y
      00000D38H   SYMBOL    EDATA    WORD      color
      00000C52H   SYMBOL    EDATA    WORD      x
      00000C54H   SYMBOL    EDATA    WORD      y
      00000C56H   SYMBOL    EDATA    CHAR      dat
      00000C57H   SYMBOL    EDATA    BYTE      i
      00000C58H   SYMBOL    EDATA    BYTE      j
      00000C59H   SYMBOL    EDATA    BYTE      temp
      00000B0DH   SYMBOL    EDATA    WORD      x
      00000B0FH   SYMBOL    EDATA    WORD      y
      00000B11H   SYMBOL    EDATA    ---       dat
      00000B15H   SYMBOL    EDATA    WORD      j
      00000BBBH   SYMBOL    EDATA    WORD      x
      00000BBDH   SYMBOL    EDATA    WORD      y
L251 LINKER/LOCATER V4.66.93.0                                                        04/15/2024  09:56:15  PAGE 76


      00000BBFH   SYMBOL    EDATA    CHAR      dat
      00000BC0H   SYMBOL    EDATA    ---       a
      00000BC3H   SYMBOL    EDATA    BYTE      i
      00000BC4H   SYMBOL    EDATA    WORD      x
      00000BC6H   SYMBOL    EDATA    WORD      y
      00000BC8H   SYMBOL    EDATA    BYTE      dat
      00000BC9H   SYMBOL    EDATA    ---       a
      00000BCCH   SYMBOL    EDATA    BYTE      i
      00000A34H   SYMBOL    EDATA    WORD      x
      00000A36H   SYMBOL    EDATA    WORD      y
      00000A38H   SYMBOL    EDATA    INT       dat
      00000A3AH   SYMBOL    EDATA    ---       a
      00000A3FH   SYMBOL    EDATA    BYTE      i
      00000A40H   SYMBOL    EDATA    WORD      x
      00000A42H   SYMBOL    EDATA    WORD      y
      00000A44H   SYMBOL    EDATA    WORD      dat
      00000A46H   SYMBOL    EDATA    ---       a
      00000A4BH   SYMBOL    EDATA    BYTE      i
      00000665H   SYMBOL    EDATA    WORD      x
      00000667H   SYMBOL    EDATA    WORD      y
      00000669H   SYMBOL    EDATA    LONG      dat
      0000066DH   SYMBOL    EDATA    BYTE      num
      0000066EH   SYMBOL    EDATA    ---       buff
      00000690H   SYMBOL    EDATA    BYTE      length
      000004C2H   SYMBOL    EDATA    WORD      x
      000004C4H   SYMBOL    EDATA    WORD      y
      000004C6H   SYMBOL    EDATA    FLOAT     dat
      000004CAH   SYMBOL    EDATA    BYTE      num
      000004CBH   SYMBOL    EDATA    BYTE      pointnum
      000004CCH   SYMBOL    EDATA    BYTE      length
      000004CDH   SYMBOL    EDATA    ---       buff
      000004EFH   SYMBOL    EDATA    CHAR      start
      000004F0H   SYMBOL    EDATA    CHAR      end
      000004F1H   SYMBOL    EDATA    CHAR      point

      ---         MODULE    ---      ---       SEEKFREE_MPU6050
      00FF831BH   PUBLIC    CODE     ---       mpu6050_simiic_read_regs
      00FF8AE2H   PUBLIC    CODE     ---       mpu6050_simiic_read_reg
      00FF85F2H   PUBLIC    CODE     ---       mpu6050_init
      00FF880EH   PUBLIC    CODE     ---       mpu6050_get_gyro
      00000A4CH   PUBLIC    EDATA    INT       mpu6050_acc_x
      00000A4EH   PUBLIC    EDATA    INT       mpu6050_acc_y
      00000A50H   PUBLIC    EDATA    INT       mpu6050_acc_z
      00000A52H   PUBLIC    EDATA    INT       mpu6050_gyro_x
      00000A54H   PUBLIC    EDATA    INT       mpu6050_gyro_y
      00000A56H   PUBLIC    EDATA    INT       mpu6050_gyro_z
      000000D0H   SFRSYM    DATA     BYTE      PSW
      0000009DH   SFRSYM    DATA     BYTE      IRCBAND
      00000097H   SFRSYM    DATA     BYTE      AUXR2
      000000EFH   SFRSYM    DATA     BYTE      AUXINTIF
      000000FDH   SFRSYM    DATA     BYTE      S4CON
      000000ACH   SFRSYM    DATA     BYTE      S3CON
      0000009AH   SFRSYM    DATA     BYTE      S2CON
      000000B7H   SFRSYM    DATA     BYTE      IPH
      000000CDH   SFRSYM    DATA     BYTE      SPSTAT
      000000DDH   SFRSYM    DATA     BYTE      T4T3M
      000000C1H   SFRSYM    DATA     BYTE      WDT_CONTR
      000000DFH   SFRSYM    DATA     BYTE      IP3
      000000F4H   SFRSYM    DATA     BYTE      USBCON
      000000B5H   SFRSYM    DATA     BYTE      IP2
      000000FFH   SFRSYM    DATA     BYTE      RSTCFG
      000000C7H   SFRSYM    DATA     BYTE      IAP_CONTR
      000000F9H   SFRSYM    DATA     BYTE      LINICR
      0000008EH   SFRSYM    DATA     BYTE      AUXR
      000000AFH   SFRSYM    DATA     BYTE      IE2
L251 LINKER/LOCATER V4.66.93.0                                                        04/15/2024  09:56:15  PAGE 77


      00000088H   SFRSYM    DATA     BYTE      TCON
      00000089H   SFRSYM    DATA     BYTE      TMOD
      000000C0H.1 SFRSYM    DATA     BIT       P41
      00000098H   SFRSYM    DATA     BYTE      SCON
      000000C0H.0 SFRSYM    DATA     BIT       P40
      000000F1H   SFRSYM    DATA     BYTE      CANICR
      00000087H   SFRSYM    DATA     BYTE      PCON
      000000BCH   SFRSYM    DATA     BYTE      ADC_CONTR
      000000E7H   SFRSYM    DATA     BYTE      CMPCR2
      000000E6H   SFRSYM    DATA     BYTE      CMPCR1
      000000DEH   SFRSYM    DATA     BYTE      ADCCFG
      000000B8H   SFRSYM    DATA     BYTE      IP
      0000008FH   SFRSYM    DATA     BYTE      INTCLKO
      000000EEH   SFRSYM    DATA     BYTE      IP3H
      000000B6H   SFRSYM    DATA     BYTE      IP2H
      000000A8H   SFRSYM    DATA     BYTE      IE
      000000BBH   SFRSYM    DATA     BYTE      P_SW3
      000000BAH   SFRSYM    DATA     BYTE      P_SW2
      000000A2H   SFRSYM    DATA     BYTE      P_SW1
      000000CEH   SFRSYM    DATA     BYTE      SPCTL
      000000F8H   SFRSYM    DATA     BYTE      P7
      000000E8H   SFRSYM    DATA     BYTE      P6
      000000C8H   SFRSYM    DATA     BYTE      P5
      000000C0H   SFRSYM    DATA     BYTE      P4
      000000B0H   SFRSYM    DATA     BYTE      P3
      000000A0H   SFRSYM    DATA     BYTE      P2
      00000090H   SFRSYM    DATA     BYTE      P1
      00000080H   SFRSYM    DATA     BYTE      P0
      00FF8E33H   SYMBOL    CODE     ---       mpu6050_simiic_start
      00FF8E09H   SYMBOL    CODE     ---       mpu6050_simiic_stop
      00FF8C53H   SYMBOL    CODE     ---       mpu6050_simiic_write_reg
      00FF8BC2H   SYMBOL    CODE     ---       mpu6050_self1_check
      00FF8C7DH   SYMBOL    CODE     ---       mpu6050_simiic_sendack
      00FF83F1H   SYMBOL    CODE     ---       mpu6050_read_ch
      00FF8995H   SYMBOL    CODE     ---       mpu6050_send_ch
      00FF8D83H   SYMBOL    CODE     ---       mpu6050_sccb_waitack
      00FF0026H   SYMBOL    CODE     ---       mpu6050_simiic_delay

      00FF0026H   BLOCK     CODE     ---       LVL=0
      00000E78H   SYMBOL    EDATA    WORD      j
      00FF0026H   LINE      CODE     ---       #52
      00FF0026H   LINE      CODE     ---       #53
      00FF0026H   LINE      CODE     ---       #54
      00FF002CH   LINE      CODE     ---       #55
      00FF0042H   LINE      CODE     ---       #56
      ---         BLOCKEND  ---      ---       LVL=0

      00FF8E33H   BLOCK     CODE     ---       LVL=0
      00FF8E33H   LINE      CODE     ---       #59
      00FF8E33H   LINE      CODE     ---       #61
      00FF8E36H   LINE      CODE     ---       #62
      00FF8E39H   LINE      CODE     ---       #63
      00FF8E3CH   LINE      CODE     ---       #64
      00FF8E3FH   LINE      CODE     ---       #65
      00FF8E42H   LINE      CODE     ---       #66
      00FF8E45H   LINE      CODE     ---       #67
      ---         BLOCKEND  ---      ---       LVL=0

      00FF8E09H   BLOCK     CODE     ---       LVL=0
      00FF8E09H   LINE      CODE     ---       #70
      00FF8E09H   LINE      CODE     ---       #72
      00FF8E0CH   LINE      CODE     ---       #73
      00FF8E0FH   LINE      CODE     ---       #74
      00FF8E12H   LINE      CODE     ---       #75
      00FF8E15H   LINE      CODE     ---       #76
L251 LINKER/LOCATER V4.66.93.0                                                        04/15/2024  09:56:15  PAGE 78


      00FF8E18H   LINE      CODE     ---       #77
      00FF8E1BH   LINE      CODE     ---       #78
      00FF8E1EH   LINE      CODE     ---       #79
      ---         BLOCKEND  ---      ---       LVL=0

      00FF8C7DH   BLOCK     CODE     ---       LVL=0
      00000EAAH   SYMBOL    EDATA    BYTE      ack_dat
      00FF8C7DH   LINE      CODE     ---       #83
      00FF8C81H   LINE      CODE     ---       #85
      00FF8C84H   LINE      CODE     ---       #86
      00FF8C87H   LINE      CODE     ---       #87
      00FF8C95H   LINE      CODE     ---       #88
      00FF8C98H   LINE      CODE     ---       #90
      00FF8C9BH   LINE      CODE     ---       #91
      00FF8C9EH   LINE      CODE     ---       #92
      00FF8CA1H   LINE      CODE     ---       #93
      00FF8CA4H   LINE      CODE     ---       #94
      ---         BLOCKEND  ---      ---       LVL=0

      00FF8D83H   BLOCK     CODE     ---       LVL=0
      00FF8D83H   LINE      CODE     ---       #97
      00FF8D83H   LINE      CODE     ---       #99
      00FF8D86H   LINE      CODE     ---       #101
      00FF8D89H   LINE      CODE     ---       #103
      00FF8D8CH   LINE      CODE     ---       #104
      00FF8D8FH   LINE      CODE     ---       #106
      00FF8D92H   LINE      CODE     ---       #109
      00FF8D95H   LINE      CODE     ---       #110
      00FF8D99H   LINE      CODE     ---       #111
      00FF8D99H   LINE      CODE     ---       #113
      00FF8D9CH   LINE      CODE     ---       #114
      00FF8D9FH   LINE      CODE     ---       #115
      00FF8DA3H   LINE      CODE     ---       #116
      ---         BLOCKEND  ---      ---       LVL=0

      00FF8995H   BLOCK     CODE     ---       LVL=0
      00000E7AH   SYMBOL    EDATA    BYTE      c
      00FF8999H   BLOCK     CODE     NEAR LAB  LVL=1
      00000E7BH   SYMBOL    EDATA    BYTE      i
      ---         BLOCKEND  ---      ---       LVL=1
      00FF8995H   LINE      CODE     ---       #122
      00FF8999H   LINE      CODE     ---       #123
      00FF8999H   LINE      CODE     ---       #124
      00FF899FH   LINE      CODE     ---       #125
      00FF89A1H   LINE      CODE     ---       #127
      00FF89ADH   LINE      CODE     ---       #128
      00FF89B0H   LINE      CODE     ---       #129
      00FF89BAH   LINE      CODE     ---       #130
      00FF89BDH   LINE      CODE     ---       #131
      00FF89C0H   LINE      CODE     ---       #132
      00FF89C3H   LINE      CODE     ---       #133
      00FF89C6H   LINE      CODE     ---       #134
      00FF89DAH   LINE      CODE     ---       #135
      00FF89DDH   LINE      CODE     ---       #136
      ---         BLOCKEND  ---      ---       LVL=0

      00FF83F1H   BLOCK     CODE     ---       LVL=0
      00000E1FH   SYMBOL    EDATA    BYTE      ack_x
      00FF83F5H   BLOCK     CODE     NEAR LAB  LVL=1
      00000E20H   SYMBOL    EDATA    BYTE      i
      00000E21H   SYMBOL    EDATA    BYTE      c
      ---         BLOCKEND  ---      ---       LVL=1
      00FF83F1H   LINE      CODE     ---       #142
      00FF83F5H   LINE      CODE     ---       #143
      00FF83F5H   LINE      CODE     ---       #146
L251 LINKER/LOCATER V4.66.93.0                                                        04/15/2024  09:56:15  PAGE 79


      00FF83FAH   LINE      CODE     ---       #147
      00FF83FDH   LINE      CODE     ---       #148
      00FF8400H   LINE      CODE     ---       #149
      00FF8403H   LINE      CODE     ---       #151
      00FF840AH   LINE      CODE     ---       #153
      00FF840DH   LINE      CODE     ---       #154
      00FF8410H   LINE      CODE     ---       #155
      00FF8413H   LINE      CODE     ---       #156
      00FF8416H   LINE      CODE     ---       #157
      00FF8419H   LINE      CODE     ---       #158
      00FF8423H   LINE      CODE     ---       #159
      00FF8426H   LINE      CODE     ---       #161
      00FF8432H   LINE      CODE     ---       #162
      00FF8449H   LINE      CODE     ---       #165
      00FF844CH   LINE      CODE     ---       #166
      00FF844FH   LINE      CODE     ---       #167
      00FF8456H   LINE      CODE     ---       #169
      00FF845AH   LINE      CODE     ---       #170
      ---         BLOCKEND  ---      ---       LVL=0

      00FF8C53H   BLOCK     CODE     ---       LVL=0
      00000E22H   SYMBOL    EDATA    BYTE      dev_add
      00000E23H   SYMBOL    EDATA    BYTE      reg
      00000E24H   SYMBOL    EDATA    BYTE      dat
      00FF8C53H   LINE      CODE     ---       #182
      00FF8C5FH   LINE      CODE     ---       #184
      00FF8C62H   LINE      CODE     ---       #185
      00FF8C6BH   LINE      CODE     ---       #186
      00FF8C72H   LINE      CODE     ---       #187
      00FF8C79H   LINE      CODE     ---       #188
      00FF8C7CH   LINE      CODE     ---       #189
      ---         BLOCKEND  ---      ---       LVL=0

      00FF8AE2H   BLOCK     CODE     ---       LVL=0
      00000E25H   SYMBOL    EDATA    BYTE      dev_add
      00000E26H   SYMBOL    EDATA    BYTE      reg
      00FF8AEAH   BLOCK     CODE     NEAR LAB  LVL=1
      00000E27H   SYMBOL    EDATA    BYTE      dat
      ---         BLOCKEND  ---      ---       LVL=1
      00FF8AE2H   LINE      CODE     ---       #200
      00FF8AEAH   LINE      CODE     ---       #201
      00FF8AEAH   LINE      CODE     ---       #203
      00FF8AEDH   LINE      CODE     ---       #204
      00FF8AF6H   LINE      CODE     ---       #205
      00FF8AFDH   LINE      CODE     ---       #208
      00FF8B00H   LINE      CODE     ---       #209
      00FF8B0DH   LINE      CODE     ---       #210
      00FF8B15H   LINE      CODE     ---       #211
      00FF8B18H   LINE      CODE     ---       #213
      00FF8B1CH   LINE      CODE     ---       #214
      ---         BLOCKEND  ---      ---       LVL=0

      00FF831BH   BLOCK     CODE     ---       LVL=0
      00000C9CH   SYMBOL    EDATA    BYTE      dev_add
      00000C9DH   SYMBOL    EDATA    BYTE      reg
      00000C9EH   SYMBOL    EDATA    ---       dat_add
      00000CA2H   SYMBOL    EDATA    BYTE      num
      00FF831BH   LINE      CODE     ---       #227
      00FF832BH   LINE      CODE     ---       #229
      00FF832EH   LINE      CODE     ---       #230
      00FF8337H   LINE      CODE     ---       #231
      00FF833EH   LINE      CODE     ---       #234
      00FF8341H   LINE      CODE     ---       #235
      00FF834EH   LINE      CODE     ---       #236
      00FF8350H   LINE      CODE     ---       #238
L251 LINKER/LOCATER V4.66.93.0                                                        04/15/2024  09:56:15  PAGE 80


      00FF835CH   LINE      CODE     ---       #239
      00FF8366H   LINE      CODE     ---       #240
      00FF8378H   LINE      CODE     ---       #241
      00FF8383H   LINE      CODE     ---       #242
      00FF8386H   LINE      CODE     ---       #243
      ---         BLOCKEND  ---      ---       LVL=0

      00FF8BC2H   BLOCK     CODE     ---       LVL=0
      00FF8BC2H   LINE      CODE     ---       #252
      00FF8BC2H   LINE      CODE     ---       #254
      00FF8BCCH   LINE      CODE     ---       #255
      00FF8BD7H   LINE      CODE     ---       #256
      00FF8BE4H   LINE      CODE     ---       #258
      00FF8BEFH   LINE      CODE     ---       #259
      00FF8BF3H   LINE      CODE     ---       #265
      00FF8BF3H   LINE      CODE     ---       #267
      00FF8BF4H   LINE      CODE     ---       #269
      ---         BLOCKEND  ---      ---       LVL=0

      00FF85F2H   BLOCK     CODE     ---       LVL=0
      00FF85F2H   LINE      CODE     ---       #279
      00FF85F2H   LINE      CODE     ---       #281
      00FF85F9H   LINE      CODE     ---       #283
      00FF8601H   LINE      CODE     ---       #285
      00FF8605H   LINE      CODE     ---       #286
      00FF8605H   LINE      CODE     ---       #287
      00FF860FH   LINE      CODE     ---       #288
      00FF861AH   LINE      CODE     ---       #289
      00FF8625H   LINE      CODE     ---       #290
      00FF8630H   LINE      CODE     ---       #291
      00FF863BH   LINE      CODE     ---       #292
      00FF8645H   LINE      CODE     ---       #293
      00FF8650H   LINE      CODE     ---       #294
      00FF8651H   LINE      CODE     ---       #295
      ---         BLOCKEND  ---      ---       LVL=0
      00000D3AH   SYMBOL    EDATA    ---       dat

      00FF880EH   BLOCK     CODE     ---       LVL=0
      00000D40H   SYMBOL    EDATA    ---       dat
      00FF880EH   LINE      CODE     ---       #323
      00FF880EH   LINE      CODE     ---       #324
      00FF880EH   LINE      CODE     ---       #326
      00FF881DH   LINE      CODE     ---       #327
      00FF8833H   LINE      CODE     ---       #328
      00FF8849H   LINE      CODE     ---       #329
      00FF885FH   LINE      CODE     ---       #330
      ---         BLOCKEND  ---      ---       LVL=0

      ---         MODULE    ---      ---       SEEKFREE_OLED
      00FF8B8DH   PUBLIC    CODE     ---       oled_set_pos
      00FF6D09H   PUBLIC    CODE     ---       oled_printf_float
      00FF6E4EH   PUBLIC    CODE     ---       oled_printf_float_px8
      00FF88B2H   PUBLIC    CODE     ---       oled_wrcmd
      00FF88FEH   PUBLIC    CODE     ---       oled_wrdat
      00FF86AFH   PUBLIC    CODE     ---       oled_fill
      00FF8CA5H   PUBLIC    CODE     ---       oled_uint16
      00FF8CCCH   PUBLIC    CODE     ---       oled_uint16_px8
      00FF7AB3H   PUBLIC    CODE     ---       oled_p6x8str
      00FF81CCH   PUBLIC    CODE     ---       oled_int16
      00FF7F1CH   PUBLIC    CODE     ---       oled_init
      00FF823FH   PUBLIC    CODE     ---       oled_hexascii
      00FF71F9H   PUBLIC    CODE     ---       oled_p8x16str
      000004F2H   PUBLIC    EDATA    BYTE      ?oled_printf_float_px8?BYTE
      00000522H   PUBLIC    EDATA    BYTE      ?oled_printf_float?BYTE
      00000552H   PUBLIC    EDATA    BYTE      ?oled_printf_float_spi?BYTE
L251 LINKER/LOCATER V4.66.93.0                                                        04/15/2024  09:56:15  PAGE 81


      000000D0H   SFRSYM    DATA     BYTE      PSW
      0000009DH   SFRSYM    DATA     BYTE      IRCBAND
      00000097H   SFRSYM    DATA     BYTE      AUXR2
      000000EFH   SFRSYM    DATA     BYTE      AUXINTIF
      000000FDH   SFRSYM    DATA     BYTE      S4CON
      000000ACH   SFRSYM    DATA     BYTE      S3CON
      0000009AH   SFRSYM    DATA     BYTE      S2CON
      000000B7H   SFRSYM    DATA     BYTE      IPH
      000000CDH   SFRSYM    DATA     BYTE      SPSTAT
      000000DDH   SFRSYM    DATA     BYTE      T4T3M
      000000C1H   SFRSYM    DATA     BYTE      WDT_CONTR
      000000DFH   SFRSYM    DATA     BYTE      IP3
      000000F4H   SFRSYM    DATA     BYTE      USBCON
      000000B5H   SFRSYM    DATA     BYTE      IP2
      000000FFH   SFRSYM    DATA     BYTE      RSTCFG
      000000C7H   SFRSYM    DATA     BYTE      IAP_CONTR
      000000F9H   SFRSYM    DATA     BYTE      LINICR
      0000008EH   SFRSYM    DATA     BYTE      AUXR
      000000AFH   SFRSYM    DATA     BYTE      IE2
      000000A0H.7 SFRSYM    DATA     BIT       P27
      000000A0H.5 SFRSYM    DATA     BIT       P25
      00000088H   SFRSYM    DATA     BYTE      TCON
      00000089H   SFRSYM    DATA     BYTE      TMOD
      000000A0H.3 SFRSYM    DATA     BIT       P23
      00000098H   SFRSYM    DATA     BYTE      SCON
      000000A0H.2 SFRSYM    DATA     BIT       P22
      000000A0H.1 SFRSYM    DATA     BIT       P21
      000000A0H.0 SFRSYM    DATA     BIT       P20
      000000F1H   SFRSYM    DATA     BYTE      CANICR
      00000087H   SFRSYM    DATA     BYTE      PCON
      000000BCH   SFRSYM    DATA     BYTE      ADC_CONTR
      000000E7H   SFRSYM    DATA     BYTE      CMPCR2
      000000E6H   SFRSYM    DATA     BYTE      CMPCR1
      000000DEH   SFRSYM    DATA     BYTE      ADCCFG
      000000B8H   SFRSYM    DATA     BYTE      IP
      0000008FH   SFRSYM    DATA     BYTE      INTCLKO
      000000EEH   SFRSYM    DATA     BYTE      IP3H
      000000B6H   SFRSYM    DATA     BYTE      IP2H
      000000A8H   SFRSYM    DATA     BYTE      IE
      000000BBH   SFRSYM    DATA     BYTE      P_SW3
      000000BAH   SFRSYM    DATA     BYTE      P_SW2
      000000A2H   SFRSYM    DATA     BYTE      P_SW1
      000000CEH   SFRSYM    DATA     BYTE      SPCTL
      000000F8H   SFRSYM    DATA     BYTE      P7
      000000E8H   SFRSYM    DATA     BYTE      P6
      000000C8H   SFRSYM    DATA     BYTE      P5
      000000C0H   SFRSYM    DATA     BYTE      P4
      000000B0H   SFRSYM    DATA     BYTE      P3
      000000A0H   SFRSYM    DATA     BYTE      P2
      00000090H   SFRSYM    DATA     BYTE      P1
      00000080H   SFRSYM    DATA     BYTE      P0

      00FF88FEH   BLOCK     CODE     ---       LVL=0
      00000E7CH   SYMBOL    EDATA    BYTE      dat
      00FF8902H   BLOCK     CODE     NEAR LAB  LVL=1
      00000E7DH   SYMBOL    EDATA    BYTE      i
      ---         BLOCKEND  ---      ---       LVL=1
      00FF88FEH   LINE      CODE     ---       #47
      00FF8902H   LINE      CODE     ---       #48
      00FF8902H   LINE      CODE     ---       #49
      00FF8908H   LINE      CODE     ---       #51
      00FF890BH   LINE      CODE     ---       #52
      00FF890EH   LINE      CODE     ---       #53
      00FF8911H   LINE      CODE     ---       #54
      00FF8913H   LINE      CODE     ---       #56
L251 LINKER/LOCATER V4.66.93.0                                                        04/15/2024  09:56:15  PAGE 82


      00FF891FH   LINE      CODE     ---       #57
      00FF8922H   LINE      CODE     ---       #58
      00FF8925H   LINE      CODE     ---       #60
      00FF8928H   LINE      CODE     ---       #61
      00FF8932H   LINE      CODE     ---       #62
      00FF8946H   LINE      CODE     ---       #63
      00FF8949H   LINE      CODE     ---       #64
      ---         BLOCKEND  ---      ---       LVL=0

      00FF88B2H   BLOCK     CODE     ---       LVL=0
      00000E7EH   SYMBOL    EDATA    BYTE      cmd
      00FF88B6H   BLOCK     CODE     NEAR LAB  LVL=1
      00000E7FH   SYMBOL    EDATA    BYTE      i
      ---         BLOCKEND  ---      ---       LVL=1
      00FF88B2H   LINE      CODE     ---       #98
      00FF88B6H   LINE      CODE     ---       #99
      00FF88B6H   LINE      CODE     ---       #100
      00FF88BCH   LINE      CODE     ---       #102
      00FF88BFH   LINE      CODE     ---       #103
      00FF88C2H   LINE      CODE     ---       #104
      00FF88C5H   LINE      CODE     ---       #106
      00FF88C7H   LINE      CODE     ---       #108
      00FF88D3H   LINE      CODE     ---       #109
      00FF88D6H   LINE      CODE     ---       #110
      00FF88D9H   LINE      CODE     ---       #112
      00FF88DCH   LINE      CODE     ---       #113
      00FF88E6H   LINE      CODE     ---       #114
      00FF88FAH   LINE      CODE     ---       #115
      00FF88FDH   LINE      CODE     ---       #116
      ---         BLOCKEND  ---      ---       LVL=0

      00FF823FH   BLOCK     CODE     ---       LVL=0
      00000C5AH   SYMBOL    EDATA    WORD      hex
      00000C5CH   SYMBOL    EDATA    ---       Print
      00FF8247H   BLOCK     CODE     NEAR LAB  LVL=1
      00000C60H   SYMBOL    EDATA    BYTE      hexcheck
      00000C61H   SYMBOL    EDATA    BYTE      TEMP
      ---         BLOCKEND  ---      ---       LVL=1
      00FF823FH   LINE      CODE     ---       #125
      00FF8247H   LINE      CODE     ---       #126
      00FF8247H   LINE      CODE     ---       #129
      00FF824DH   LINE      CODE     ---       #130
      00FF825DH   LINE      CODE     ---       #131
      00FF825FH   LINE      CODE     ---       #133
      00FF826BH   LINE      CODE     ---       #134
      00FF827BH   LINE      CODE     ---       #135
      00FF8289H   LINE      CODE     ---       #136
      00FF82A4H   LINE      CODE     ---       #137
      00FF82ADH   LINE      CODE     ---       #139
      ---         BLOCKEND  ---      ---       LVL=0

      00FF7F1CH   BLOCK     CODE     ---       LVL=0
      00FF7F1CH   LINE      CODE     ---       #148
      00FF7F1CH   LINE      CODE     ---       #151
      00FF7F1FH   LINE      CODE     ---       #152
      00FF7F22H   LINE      CODE     ---       #154
      00FF7F25H   LINE      CODE     ---       #155
      00FF7F2CH   LINE      CODE     ---       #156
      00FF7F2FH   LINE      CODE     ---       #158
      00FF7F34H   LINE      CODE     ---       #159
      00FF7F38H   LINE      CODE     ---       #160
      00FF7F3DH   LINE      CODE     ---       #161
      00FF7F42H   LINE      CODE     ---       #162
      00FF7F47H   LINE      CODE     ---       #163
      00FF7F4CH   LINE      CODE     ---       #166
L251 LINKER/LOCATER V4.66.93.0                                                        04/15/2024  09:56:15  PAGE 83


      00FF7F51H   LINE      CODE     ---       #167
      00FF7F56H   LINE      CODE     ---       #173
      00FF7F5BH   LINE      CODE     ---       #174
      00FF7F60H   LINE      CODE     ---       #175
      00FF7F65H   LINE      CODE     ---       #176
      00FF7F6AH   LINE      CODE     ---       #177
      00FF7F6EH   LINE      CODE     ---       #178
      00FF7F73H   LINE      CODE     ---       #179
      00FF7F78H   LINE      CODE     ---       #180
      00FF7F7DH   LINE      CODE     ---       #181
      00FF7F82H   LINE      CODE     ---       #182
      00FF7F87H   LINE      CODE     ---       #183
      00FF7F8CH   LINE      CODE     ---       #184
      00FF7F91H   LINE      CODE     ---       #185
      00FF7F96H   LINE      CODE     ---       #186
      00FF7F9BH   LINE      CODE     ---       #187
      00FF7FA0H   LINE      CODE     ---       #188
      00FF7FA5H   LINE      CODE     ---       #189
      00FF7FAAH   LINE      CODE     ---       #190
      00FF7FAFH   LINE      CODE     ---       #191
      00FF7FB4H   LINE      CODE     ---       #192
      00FF7FB9H   LINE      CODE     ---       #193
      00FF7FBDH   LINE      CODE     ---       #194
      00FF7FC3H   LINE      CODE     ---       #195
      ---         BLOCKEND  ---      ---       LVL=0

      00FF8B8DH   BLOCK     CODE     ---       LVL=0
      00000E80H   SYMBOL    EDATA    BYTE      x
      00000E81H   SYMBOL    EDATA    BYTE      y
      00FF8B8DH   LINE      CODE     ---       #205
      00FF8B95H   LINE      CODE     ---       #207
      00FF8BA0H   LINE      CODE     ---       #208
      00FF8BB6H   LINE      CODE     ---       #209
      00FF8BC1H   LINE      CODE     ---       #210
      ---         BLOCKEND  ---      ---       LVL=0

      00FF86AFH   BLOCK     CODE     ---       LVL=0
      00000E28H   SYMBOL    EDATA    BYTE      bmp_data
      00FF86B3H   BLOCK     CODE     NEAR LAB  LVL=1
      00000E29H   SYMBOL    EDATA    BYTE      y
      00000E2AH   SYMBOL    EDATA    BYTE      x
      ---         BLOCKEND  ---      ---       LVL=1
      00FF86AFH   LINE      CODE     ---       #219
      00FF86B3H   LINE      CODE     ---       #220
      00FF86B3H   LINE      CODE     ---       #223
      00FF86BAH   LINE      CODE     ---       #225
      00FF86C5H   LINE      CODE     ---       #226
      00FF86CAH   LINE      CODE     ---       #227
      00FF86CFH   LINE      CODE     ---       #228
      00FF86F4H   LINE      CODE     ---       #229
      00FF870BH   LINE      CODE     ---       #230
      ---         BLOCKEND  ---      ---       LVL=0
      00000E2BH   SYMBOL    EDATA    BYTE      x
      00000E2CH   SYMBOL    EDATA    BYTE      y
      00000E2DH   SYMBOL    EDATA    BYTE      data1
      00000E82H   SYMBOL    EDATA    BYTE      x
      00000E83H   SYMBOL    EDATA    BYTE      y

      00FF7AB3H   BLOCK     CODE     ---       LVL=0
      00000BCDH   SYMBOL    EDATA    BYTE      x
      00000BCEH   SYMBOL    EDATA    BYTE      y
      00000BCFH   SYMBOL    EDATA    ---       ch
      00FF7ABFH   BLOCK     CODE     NEAR LAB  LVL=1
      00000BD3H   SYMBOL    EDATA    BYTE      c
      00000BD4H   SYMBOL    EDATA    BYTE      i
L251 LINKER/LOCATER V4.66.93.0                                                        04/15/2024  09:56:15  PAGE 84


      00000BD5H   SYMBOL    EDATA    BYTE      j
      ---         BLOCKEND  ---      ---       LVL=1
      00FF7AB3H   LINE      CODE     ---       #279
      00FF7ABFH   LINE      CODE     ---       #280
      00FF7ABFH   LINE      CODE     ---       #281
      00FF7ACEH   LINE      CODE     ---       #282
      00FF7AD1H   LINE      CODE     ---       #284
      00FF7AECH   LINE      CODE     ---       #285
      00FF7B08H   LINE      CODE     ---       #286
      00FF7B13H   LINE      CODE     ---       #287
      00FF7B53H   LINE      CODE     ---       #288
      00FF7B5FH   LINE      CODE     ---       #289
      00FF7B6CH   LINE      CODE     ---       #290
      00FF7B83H   LINE      CODE     ---       #291
      ---         BLOCKEND  ---      ---       LVL=0

      00FF71F9H   BLOCK     CODE     ---       LVL=0
      00000BD6H   SYMBOL    EDATA    BYTE      x
      00000BD7H   SYMBOL    EDATA    BYTE      y
      00000BD8H   SYMBOL    EDATA    ---       ch
      00FF7205H   BLOCK     CODE     NEAR LAB  LVL=1
      00000BDCH   SYMBOL    EDATA    BYTE      c
      00000BDDH   SYMBOL    EDATA    BYTE      i
      00000BDEH   SYMBOL    EDATA    BYTE      j
      ---         BLOCKEND  ---      ---       LVL=1
      00FF71F9H   LINE      CODE     ---       #302
      00FF7205H   LINE      CODE     ---       #303
      00FF7205H   LINE      CODE     ---       #304
      00FF7214H   LINE      CODE     ---       #306
      00FF7217H   LINE      CODE     ---       #308
      00FF7232H   LINE      CODE     ---       #309
      00FF724EH   LINE      CODE     ---       #311
      00FF7259H   LINE      CODE     ---       #312
      00FF7299H   LINE      CODE     ---       #314
      00FF72A9H   LINE      CODE     ---       #315
      00FF72E9H   LINE      CODE     ---       #317
      00FF72F5H   LINE      CODE     ---       #318
      00FF7302H   LINE      CODE     ---       #319
      00FF7319H   LINE      CODE     ---       #320
      ---         BLOCKEND  ---      ---       LVL=0

      00FF8CCCH   BLOCK     CODE     ---       LVL=0
      00000A7CH   SYMBOL    EDATA    BYTE      x
      00000A7DH   SYMBOL    EDATA    BYTE      y
      00000A7EH   SYMBOL    EDATA    WORD      num
      00FF8CD8H   BLOCK     CODE     NEAR LAB  LVL=1
      00000A80H   SYMBOL    EDATA    ---       ch
      ---         BLOCKEND  ---      ---       LVL=1
      00FF8CCCH   LINE      CODE     ---       #331
      00FF8CD8H   LINE      CODE     ---       #332
      00FF8CD8H   LINE      CODE     ---       #335
      00FF8CE3H   LINE      CODE     ---       #338
      00FF8CF2H   LINE      CODE     ---       #339
      ---         BLOCKEND  ---      ---       LVL=0

      00FF8CA5H   BLOCK     CODE     ---       LVL=0
      00000A87H   SYMBOL    EDATA    BYTE      x
      00000A88H   SYMBOL    EDATA    BYTE      y
      00000A89H   SYMBOL    EDATA    WORD      num
      00FF8CB1H   BLOCK     CODE     NEAR LAB  LVL=1
      00000A8BH   SYMBOL    EDATA    ---       ch
      ---         BLOCKEND  ---      ---       LVL=1
      00FF8CA5H   LINE      CODE     ---       #350
      00FF8CB1H   LINE      CODE     ---       #351
      00FF8CB1H   LINE      CODE     ---       #354
L251 LINKER/LOCATER V4.66.93.0                                                        04/15/2024  09:56:15  PAGE 85


      00FF8CBCH   LINE      CODE     ---       #356
      00FF8CCBH   LINE      CODE     ---       #358
      ---         BLOCKEND  ---      ---       LVL=0

      00FF81CCH   BLOCK     CODE     ---       LVL=0
      00000A92H   SYMBOL    EDATA    BYTE      x
      00000A93H   SYMBOL    EDATA    BYTE      y
      00000A94H   SYMBOL    EDATA    INT       num
      00FF81D8H   BLOCK     CODE     NEAR LAB  LVL=1
      00000A96H   SYMBOL    EDATA    ---       ch
      ---         BLOCKEND  ---      ---       LVL=1
      00FF81CCH   LINE      CODE     ---       #369
      00FF81D8H   LINE      CODE     ---       #370
      00FF81D8H   LINE      CODE     ---       #372
      00FF8205H   LINE      CODE     ---       #373
      00FF8218H   LINE      CODE     ---       #374
      00FF8224H   LINE      CODE     ---       #376
      00FF822FH   LINE      CODE     ---       #377
      00FF823EH   LINE      CODE     ---       #378
      ---         BLOCKEND  ---      ---       LVL=0
      00000691H   SYMBOL    EDATA    WORD      x
      00000693H   SYMBOL    EDATA    WORD      y
      00000695H   SYMBOL    EDATA    LONG      dat
      00000699H   SYMBOL    EDATA    BYTE      num
      0000069AH   SYMBOL    EDATA    ---       buff
      000006BCH   SYMBOL    EDATA    BYTE      length

      00FF6E4EH   BLOCK     CODE     ---       LVL=0
      000004F2H   SYMBOL    EDATA    WORD      x
      000004F4H   SYMBOL    EDATA    WORD      y
      000004F6H   SYMBOL    EDATA    FLOAT     dat
      000004FAH   SYMBOL    EDATA    BYTE      num
      000004FBH   SYMBOL    EDATA    BYTE      pointnum
      00FF6E5EH   BLOCK     CODE     NEAR LAB  LVL=1
      000004FCH   SYMBOL    EDATA    BYTE      length
      000004FDH   SYMBOL    EDATA    ---       buff
      0000051FH   SYMBOL    EDATA    CHAR      start
      00000520H   SYMBOL    EDATA    CHAR      end
      00000521H   SYMBOL    EDATA    CHAR      point
      ---         BLOCKEND  ---      ---       LVL=1
      00FF6E4EH   LINE      CODE     ---       #431
      00FF6E5EH   LINE      CODE     ---       #432
      00FF6E5EH   LINE      CODE     ---       #437
      00FF6E6EH   LINE      CODE     ---       #438
      00FF6E7EH   LINE      CODE     ---       #440
      00FF6EA6H   LINE      CODE     ---       #443
      00FF6EC1H   LINE      CODE     ---       #444
      00FF6ECEH   LINE      CODE     ---       #445
      00FF6ECEH   LINE      CODE     ---       #446
      00FF6EDEH   LINE      CODE     ---       #447
      00FF6EF6H   LINE      CODE     ---       #448
      00FF6F0EH   LINE      CODE     ---       #449
      00FF6F10H   LINE      CODE     ---       #451
      00FF6F21H   LINE      CODE     ---       #452
      00FF6F2EH   LINE      CODE     ---       #453
      00FF6F3BH   LINE      CODE     ---       #454
      00FF6F44H   LINE      CODE     ---       #456
      00FF6F62H   LINE      CODE     ---       #457
      00FF6F73H   LINE      CODE     ---       #459
      00FF6F83H   LINE      CODE     ---       #461
      00FF6F92H   LINE      CODE     ---       #462
      ---         BLOCKEND  ---      ---       LVL=0

      00FF6D09H   BLOCK     CODE     ---       LVL=0
      00000522H   SYMBOL    EDATA    WORD      x
L251 LINKER/LOCATER V4.66.93.0                                                        04/15/2024  09:56:15  PAGE 86


      00000524H   SYMBOL    EDATA    WORD      y
      00000526H   SYMBOL    EDATA    FLOAT     dat
      0000052AH   SYMBOL    EDATA    BYTE      num
      0000052BH   SYMBOL    EDATA    BYTE      pointnum
      00FF6D19H   BLOCK     CODE     NEAR LAB  LVL=1
      0000052CH   SYMBOL    EDATA    BYTE      length
      0000052DH   SYMBOL    EDATA    ---       buff
      0000054FH   SYMBOL    EDATA    CHAR      start
      00000550H   SYMBOL    EDATA    CHAR      end
      00000551H   SYMBOL    EDATA    CHAR      point
      ---         BLOCKEND  ---      ---       LVL=1
      00FF6D09H   LINE      CODE     ---       #480
      00FF6D19H   LINE      CODE     ---       #481
      00FF6D19H   LINE      CODE     ---       #486
      00FF6D29H   LINE      CODE     ---       #487
      00FF6D39H   LINE      CODE     ---       #489
      00FF6D61H   LINE      CODE     ---       #492
      00FF6D7CH   LINE      CODE     ---       #493
      00FF6D89H   LINE      CODE     ---       #494
      00FF6D89H   LINE      CODE     ---       #495
      00FF6D99H   LINE      CODE     ---       #496
      00FF6DB1H   LINE      CODE     ---       #497
      00FF6DC9H   LINE      CODE     ---       #498
      00FF6DCBH   LINE      CODE     ---       #500
      00FF6DDCH   LINE      CODE     ---       #501
      00FF6DE9H   LINE      CODE     ---       #502
      00FF6DF6H   LINE      CODE     ---       #503
      00FF6DFFH   LINE      CODE     ---       #505
      00FF6E1DH   LINE      CODE     ---       #506
      00FF6E2EH   LINE      CODE     ---       #508
      00FF6E3EH   LINE      CODE     ---       #510
      00FF6E4DH   LINE      CODE     ---       #511
      ---         BLOCKEND  ---      ---       LVL=0
      000008D6H   SYMBOL    EDATA    WORD      high
      000008D8H   SYMBOL    EDATA    WORD      width
      000008DAH   SYMBOL    EDATA    ---       p
      000008DEH   SYMBOL    EDATA    BYTE      value
      000008DFH   SYMBOL    EDATA    WORD      i
      000008E1H   SYMBOL    EDATA    WORD      j
      000008E3H   SYMBOL    EDATA    WORD      temp
      000008E5H   SYMBOL    EDATA    WORD      temp1
      000008E7H   SYMBOL    EDATA    BYTE      dat
      00000946H   SYMBOL    EDATA    BYTE      x
      00000947H   SYMBOL    EDATA    BYTE      y
      00000948H   SYMBOL    EDATA    BYTE      size
      00000949H   SYMBOL    EDATA    ---       p
      0000094DH   SYMBOL    EDATA    BYTE      len
      0000094EH   SYMBOL    EDATA    WORD      i
      00000950H   SYMBOL    EDATA    WORD      j
      00000952H   SYMBOL    EDATA    WORD      k
      00000EABH   SYMBOL    EDATA    BYTE      dat
      00000EACH   SYMBOL    EDATA    BYTE      cmd
      00000C62H   SYMBOL    EDATA    WORD      hex
      00000C64H   SYMBOL    EDATA    ---       Print
      00000C68H   SYMBOL    EDATA    BYTE      hexcheck
      00000C69H   SYMBOL    EDATA    BYTE      TEMP
      00000E84H   SYMBOL    EDATA    BYTE      x
      00000E85H   SYMBOL    EDATA    BYTE      y
      00000E2EH   SYMBOL    EDATA    BYTE      bmp_data
      00000E2FH   SYMBOL    EDATA    BYTE      y
      00000E30H   SYMBOL    EDATA    BYTE      x
      00000E31H   SYMBOL    EDATA    BYTE      x
      00000E32H   SYMBOL    EDATA    BYTE      y
      00000E33H   SYMBOL    EDATA    BYTE      data1
      00000E86H   SYMBOL    EDATA    BYTE      x
L251 LINKER/LOCATER V4.66.93.0                                                        04/15/2024  09:56:15  PAGE 87


      00000E87H   SYMBOL    EDATA    BYTE      y
      00000BDFH   SYMBOL    EDATA    BYTE      x
      00000BE0H   SYMBOL    EDATA    BYTE      y
      00000BE1H   SYMBOL    EDATA    ---       ch
      00000BE5H   SYMBOL    EDATA    BYTE      c
      00000BE6H   SYMBOL    EDATA    BYTE      i
      00000BE7H   SYMBOL    EDATA    BYTE      j
      00000BE8H   SYMBOL    EDATA    BYTE      x
      00000BE9H   SYMBOL    EDATA    BYTE      y
      00000BEAH   SYMBOL    EDATA    ---       ch
      00000BEEH   SYMBOL    EDATA    BYTE      c
      00000BEFH   SYMBOL    EDATA    BYTE      i
      00000BF0H   SYMBOL    EDATA    BYTE      j
      00000A9DH   SYMBOL    EDATA    BYTE      x
      00000A9EH   SYMBOL    EDATA    BYTE      y
      00000A9FH   SYMBOL    EDATA    WORD      num
      00000AA1H   SYMBOL    EDATA    ---       ch
      00000AA8H   SYMBOL    EDATA    BYTE      x
      00000AA9H   SYMBOL    EDATA    BYTE      y
      00000AAAH   SYMBOL    EDATA    INT       num
      00000AACH   SYMBOL    EDATA    ---       ch
      000006BDH   SYMBOL    EDATA    WORD      x
      000006BFH   SYMBOL    EDATA    WORD      y
      000006C1H   SYMBOL    EDATA    LONG      dat
      000006C5H   SYMBOL    EDATA    BYTE      num
      000006C6H   SYMBOL    EDATA    ---       buff
      000006E8H   SYMBOL    EDATA    BYTE      length
      00000552H   SYMBOL    EDATA    WORD      x
      00000554H   SYMBOL    EDATA    WORD      y
      00000556H   SYMBOL    EDATA    FLOAT     dat
      0000055AH   SYMBOL    EDATA    BYTE      num
      0000055BH   SYMBOL    EDATA    BYTE      pointnum
      0000055CH   SYMBOL    EDATA    BYTE      length
      0000055DH   SYMBOL    EDATA    ---       buff
      0000057FH   SYMBOL    EDATA    CHAR      start
      00000580H   SYMBOL    EDATA    CHAR      end
      00000581H   SYMBOL    EDATA    CHAR      point
      000008E8H   SYMBOL    EDATA    WORD      high
      000008EAH   SYMBOL    EDATA    WORD      width
      000008ECH   SYMBOL    EDATA    ---       p
      000008F0H   SYMBOL    EDATA    BYTE      value
      000008F1H   SYMBOL    EDATA    WORD      i
      000008F3H   SYMBOL    EDATA    WORD      j
      000008F5H   SYMBOL    EDATA    WORD      temp
      000008F7H   SYMBOL    EDATA    WORD      temp1
      000008F9H   SYMBOL    EDATA    BYTE      dat
      00000954H   SYMBOL    EDATA    BYTE      x
      00000955H   SYMBOL    EDATA    BYTE      y
      00000956H   SYMBOL    EDATA    BYTE      size
      00000957H   SYMBOL    EDATA    ---       p
      0000095BH   SYMBOL    EDATA    BYTE      len
      0000095CH   SYMBOL    EDATA    WORD      i
      0000095EH   SYMBOL    EDATA    WORD      j
      00000960H   SYMBOL    EDATA    WORD      k

      ---         MODULE    ---      ---       SEEKFREE_PRINTF
      00FF7432H   PUBLIC    CODE     ---       number_conversion_ascii
      00FF4C6FH   PUBLIC    CODE     ---       zf_sprintf
      00FF7FC4H   PUBLIC    CODE     ---       printf_reverse_order
      00000889H   PUBLIC    EDATA    BYTE      ?number_conversion_ascii?BYTE
      00000319H   PUBLIC    EDATA    BYTE      ?zf_sprintf?BYTE
      000000D0H   SFRSYM    DATA     BYTE      PSW
      0000009DH   SFRSYM    DATA     BYTE      IRCBAND
      00000097H   SFRSYM    DATA     BYTE      AUXR2
      000000EFH   SFRSYM    DATA     BYTE      AUXINTIF
L251 LINKER/LOCATER V4.66.93.0                                                        04/15/2024  09:56:15  PAGE 88


      000000FDH   SFRSYM    DATA     BYTE      S4CON
      000000ACH   SFRSYM    DATA     BYTE      S3CON
      0000009AH   SFRSYM    DATA     BYTE      S2CON
      000000B7H   SFRSYM    DATA     BYTE      IPH
      000000CDH   SFRSYM    DATA     BYTE      SPSTAT
      000000DDH   SFRSYM    DATA     BYTE      T4T3M
      000000C1H   SFRSYM    DATA     BYTE      WDT_CONTR
      000000DFH   SFRSYM    DATA     BYTE      IP3
      000000F4H   SFRSYM    DATA     BYTE      USBCON
      000000B5H   SFRSYM    DATA     BYTE      IP2
      000000FFH   SFRSYM    DATA     BYTE      RSTCFG
      000000C7H   SFRSYM    DATA     BYTE      IAP_CONTR
      000000F9H   SFRSYM    DATA     BYTE      LINICR
      0000008EH   SFRSYM    DATA     BYTE      AUXR
      000000AFH   SFRSYM    DATA     BYTE      IE2
      00000088H   SFRSYM    DATA     BYTE      TCON
      00000089H   SFRSYM    DATA     BYTE      TMOD
      00000098H   SFRSYM    DATA     BYTE      SCON
      000000F1H   SFRSYM    DATA     BYTE      CANICR
      00000087H   SFRSYM    DATA     BYTE      PCON
      000000BCH   SFRSYM    DATA     BYTE      ADC_CONTR
      000000E7H   SFRSYM    DATA     BYTE      CMPCR2
      000000E6H   SFRSYM    DATA     BYTE      CMPCR1
      000000DEH   SFRSYM    DATA     BYTE      ADCCFG
      000000B8H   SFRSYM    DATA     BYTE      IP
      0000008FH   SFRSYM    DATA     BYTE      INTCLKO
      000000EEH   SFRSYM    DATA     BYTE      IP3H
      000000B6H   SFRSYM    DATA     BYTE      IP2H
      000000A8H   SFRSYM    DATA     BYTE      IE
      000000BBH   SFRSYM    DATA     BYTE      P_SW3
      000000BAH   SFRSYM    DATA     BYTE      P_SW2
      000000A2H   SFRSYM    DATA     BYTE      P_SW1
      000000CEH   SFRSYM    DATA     BYTE      SPCTL
      000000F8H   SFRSYM    DATA     BYTE      P7
      000000E8H   SFRSYM    DATA     BYTE      P6
      000000C8H   SFRSYM    DATA     BYTE      P5
      000000C0H   SFRSYM    DATA     BYTE      P4
      000000B0H   SFRSYM    DATA     BYTE      P3
      000000A0H   SFRSYM    DATA     BYTE      P2
      00000090H   SFRSYM    DATA     BYTE      P1
      00000080H   SFRSYM    DATA     BYTE      P0

      00FF7432H   BLOCK     CODE     ---       LVL=0
      00000889H   SYMBOL    EDATA    DWORD     dat
      0000088DH   SYMBOL    EDATA    ---       p
      00000891H   SYMBOL    EDATA    BYTE      neg_type
      00000892H   SYMBOL    EDATA    BYTE      radix
      00FF743EH   BLOCK     CODE     NEAR LAB  LVL=1
      00000893H   SYMBOL    EDATA    LONG      neg_dat
      00000897H   SYMBOL    EDATA    DWORD     pos_dat
      0000089BH   SYMBOL    EDATA    BYTE      temp_data
      0000089CH   SYMBOL    EDATA    BYTE      valid_num
      ---         BLOCKEND  ---      ---       LVL=1
      00FF7432H   LINE      CODE     ---       #25
      00FF743EH   LINE      CODE     ---       #26
      00FF743EH   LINE      CODE     ---       #29
      00FF7443H   LINE      CODE     ---       #30
      00FF7448H   LINE      CODE     ---       #32
      00FF7451H   LINE      CODE     ---       #34
      00FF7459H   LINE      CODE     ---       #35
      00FF7471H   LINE      CODE     ---       #36
      00FF7471H   LINE      CODE     ---       #38
      00FF748DH   LINE      CODE     ---       #39
      00FF74A0H   LINE      CODE     ---       #40
      00FF74ADH   LINE      CODE     ---       #42
L251 LINKER/LOCATER V4.66.93.0                                                        04/15/2024  09:56:15  PAGE 89


      00FF74B5H   LINE      CODE     ---       #43
      00FF74BFH   LINE      CODE     ---       #44
      00FF74C1H   LINE      CODE     ---       #45
      00FF74C4H   LINE      CODE     ---       #48
      00FF74CCH   LINE      CODE     ---       #49
      00FF74CCH   LINE      CODE     ---       #51
      00FF74E1H   LINE      CODE     ---       #52
      00FF74F9H   LINE      CODE     ---       #53
      00FF7505H   LINE      CODE     ---       #55
      00FF7510H   LINE      CODE     ---       #57
      00FF7523H   LINE      CODE     ---       #58
      00FF7530H   LINE      CODE     ---       #60
      00FF7538H   LINE      CODE     ---       #61
      00FF7542H   LINE      CODE     ---       #62
      00FF7544H   LINE      CODE     ---       #63
      00FF7544H   LINE      CODE     ---       #64
      00FF7548H   LINE      CODE     ---       #65
      ---         BLOCKEND  ---      ---       LVL=0

      00FF7FC4H   BLOCK     CODE     ---       LVL=0
      0000098BH   SYMBOL    EDATA    ---       d_buff
      0000098FH   SYMBOL    EDATA    DWORD     len
      00FF7FCCH   BLOCK     CODE     NEAR LAB  LVL=1
      00000993H   SYMBOL    EDATA    DWORD     i
      00000997H   SYMBOL    EDATA    CHAR      temp_data
      ---         BLOCKEND  ---      ---       LVL=1
      00FF7FC4H   LINE      CODE     ---       #67
      00FF7FCCH   LINE      CODE     ---       #68
      00FF7FCCH   LINE      CODE     ---       #71
      00FF7FD4H   LINE      CODE     ---       #73
      00FF7FF3H   LINE      CODE     ---       #74
      00FF801DH   LINE      CODE     ---       #75
      00FF8030H   LINE      CODE     ---       #76
      00FF8058H   LINE      CODE     ---       #77
      ---         BLOCKEND  ---      ---       LVL=0

      00FF4C6FH   BLOCK     CODE     ---       LVL=0
      00000319H   SYMBOL    EDATA    ---       buff
      0000031DH   SYMBOL    EDATA    ---       format
      00FF4C77H   BLOCK     CODE     NEAR LAB  LVL=1
      00000321H   SYMBOL    EDATA    DWORD     buff_len
      00000325H   SYMBOL    EDATA    ---       arg
      00FF4C8CH   BLOCK     CODE     NEAR LAB  LVL=2
      00000329H   SYMBOL    EDATA    CHAR      ret
      00FF4DC1H   BLOCK     CODE     NEAR LAB  LVL=3
      0000032AH   SYMBOL    EDATA    CHAR      ch
      ---         BLOCKEND  ---      ---       LVL=3
      00FF4E00H   BLOCK     CODE     NEAR LAB  LVL=3
      0000032AH   SYMBOL    EDATA    ---       vstr
      0000034BH   SYMBOL    EDATA    LONG      ival
      0000034FH   SYMBOL    EDATA    BYTE      vlen
      ---         BLOCKEND  ---      ---       LVL=3
      00FF4EA1H   BLOCK     CODE     NEAR LAB  LVL=3
      0000032AH   SYMBOL    EDATA    ---       vstr
      0000034BH   SYMBOL    EDATA    FLOAT     ival
      0000034FH   SYMBOL    EDATA    BYTE      vlen
      ---         BLOCKEND  ---      ---       LVL=3
      00FF5042H   BLOCK     CODE     NEAR LAB  LVL=3
      0000032AH   SYMBOL    EDATA    ---       vstr
      0000034BH   SYMBOL    EDATA    DWORD     ival
      0000034FH   SYMBOL    EDATA    BYTE      vlen
      ---         BLOCKEND  ---      ---       LVL=3
      00FF50BAH   BLOCK     CODE     NEAR LAB  LVL=3
      0000032AH   SYMBOL    EDATA    ---       vstr
      0000034BH   SYMBOL    EDATA    DWORD     ival
L251 LINKER/LOCATER V4.66.93.0                                                        04/15/2024  09:56:15  PAGE 90


      0000034FH   SYMBOL    EDATA    BYTE      vlen
      ---         BLOCKEND  ---      ---       LVL=3
      00FF5132H   BLOCK     CODE     NEAR LAB  LVL=3
      0000032AH   SYMBOL    EDATA    ---       vstr
      0000034BH   SYMBOL    EDATA    DWORD     ival
      0000034FH   SYMBOL    EDATA    BYTE      vlen
      ---         BLOCKEND  ---      ---       LVL=3
      00FF51AAH   BLOCK     CODE     NEAR LAB  LVL=3
      0000032AH   SYMBOL    EDATA    ---       pc
      ---         BLOCKEND  ---      ---       LVL=3
      00FF5204H   BLOCK     CODE     NEAR LAB  LVL=3
      0000032AH   SYMBOL    EDATA    ---       vstr
      0000034BH   SYMBOL    EDATA    DWORD     ival
      ---         BLOCKEND  ---      ---       LVL=3
      ---         BLOCKEND  ---      ---       LVL=2
      ---         BLOCKEND  ---      ---       LVL=1
      00FF4C6FH   LINE      CODE     ---       #212
      00FF4C77H   LINE      CODE     ---       #213
      00FF4C77H   LINE      CODE     ---       #214
      00FF4C7DH   LINE      CODE     ---       #216
      00FF4C89H   LINE      CODE     ---       #218
      00FF4C8CH   LINE      CODE     ---       #219
      00FF4C8CH   LINE      CODE     ---       #220
      00FF4C97H   LINE      CODE     ---       #221
      00FF4CA3H   LINE      CODE     ---       #223
      00FF4DBEH   LINE      CODE     ---       #225
      00FF4DBEH   LINE      CODE     ---       #229
      00FF4DC1H   LINE      CODE     ---       #232
      00FF4DC1H   LINE      CODE     ---       #233
      00FF4DC1H   LINE      CODE     ---       #234
      00FF4DDAH   LINE      CODE     ---       #235
      00FF4DE5H   LINE      CODE     ---       #236
      00FF4DEFH   LINE      CODE     ---       #237
      00FF4DFDH   LINE      CODE     ---       #239
      00FF4E00H   LINE      CODE     ---       #242
      00FF4E00H   LINE      CODE     ---       #243
      00FF4E00H   LINE      CODE     ---       #244
      00FF4E00H   LINE      CODE     ---       #246
      00FF4E19H   LINE      CODE     ---       #247
      00FF4E30H   LINE      CODE     ---       #249
      00FF4E3AH   LINE      CODE     ---       #251
      00FF4E4BH   LINE      CODE     ---       #252
      00FF4E58H   LINE      CODE     ---       #253
      00FF4E58H   LINE      CODE     ---       #254
      00FF4E67H   LINE      CODE     ---       #255
      00FF4E7CH   LINE      CODE     ---       #256
      00FF4E8CH   LINE      CODE     ---       #257
      00FF4E9EH   LINE      CODE     ---       #260
      00FF4EA1H   LINE      CODE     ---       #262
      00FF4EA1H   LINE      CODE     ---       #263
      00FF4EA1H   LINE      CODE     ---       #264
      00FF4EA1H   LINE      CODE     ---       #266
      00FF4EBAH   LINE      CODE     ---       #267
      00FF4ED4H   LINE      CODE     ---       #269
      00FF4EDFH   LINE      CODE     ---       #271
      00FF4EF0H   LINE      CODE     ---       #272
      00FF4EFDH   LINE      CODE     ---       #273
      00FF4EFDH   LINE      CODE     ---       #274
      00FF4F0CH   LINE      CODE     ---       #275
      00FF4F21H   LINE      CODE     ---       #276
      00FF4F31H   LINE      CODE     ---       #277
      00FF4F43H   LINE      CODE     ---       #279
      00FF4F67H   LINE      CODE     ---       #280
      00FF4F6BH   LINE      CODE     ---       #282
      00FF4F85H   LINE      CODE     ---       #283
L251 LINKER/LOCATER V4.66.93.0                                                        04/15/2024  09:56:15  PAGE 91


      00FF4F87H   LINE      CODE     ---       #286
      00FF4FABH   LINE      CODE     ---       #287
      00FF4FB1H   LINE      CODE     ---       #288
      00FF4FB1H   LINE      CODE     ---       #290
      00FF4FB3H   LINE      CODE     ---       #292
      00FF4FC4H   LINE      CODE     ---       #293
      00FF4FD1H   LINE      CODE     ---       #294
      00FF4FDBH   LINE      CODE     ---       #296
      00FF4FECH   LINE      CODE     ---       #297
      00FF4FF9H   LINE      CODE     ---       #299
      00FF5008H   LINE      CODE     ---       #300
      00FF501DH   LINE      CODE     ---       #301
      00FF502DH   LINE      CODE     ---       #302
      00FF503FH   LINE      CODE     ---       #304
      00FF5042H   LINE      CODE     ---       #307
      00FF5042H   LINE      CODE     ---       #308
      00FF5042H   LINE      CODE     ---       #310
      00FF505BH   LINE      CODE     ---       #311
      00FF5071H   LINE      CODE     ---       #313
      00FF5080H   LINE      CODE     ---       #314
      00FF5095H   LINE      CODE     ---       #315
      00FF50A5H   LINE      CODE     ---       #316
      00FF50B7H   LINE      CODE     ---       #317
      00FF50BAH   LINE      CODE     ---       #319
      00FF50BAH   LINE      CODE     ---       #320
      00FF50BAH   LINE      CODE     ---       #322
      00FF50D3H   LINE      CODE     ---       #323
      00FF50E9H   LINE      CODE     ---       #325
      00FF50F8H   LINE      CODE     ---       #326
      00FF510DH   LINE      CODE     ---       #327
      00FF511DH   LINE      CODE     ---       #328
      00FF512FH   LINE      CODE     ---       #330
      00FF5132H   LINE      CODE     ---       #332
      00FF5132H   LINE      CODE     ---       #333
      00FF5132H   LINE      CODE     ---       #334
      00FF5132H   LINE      CODE     ---       #336
      00FF514BH   LINE      CODE     ---       #337
      00FF5161H   LINE      CODE     ---       #339
      00FF5170H   LINE      CODE     ---       #340
      00FF5185H   LINE      CODE     ---       #341
      00FF5195H   LINE      CODE     ---       #342
      00FF51A7H   LINE      CODE     ---       #343
      00FF51AAH   LINE      CODE     ---       #346
      00FF51AAH   LINE      CODE     ---       #347
      00FF51AAH   LINE      CODE     ---       #348
      00FF51C3H   LINE      CODE     ---       #349
      00FF51C5H   LINE      CODE     ---       #351
      00FF51D3H   LINE      CODE     ---       #352
      00FF51DDH   LINE      CODE     ---       #353
      00FF51EBH   LINE      CODE     ---       #354
      00FF51F5H   LINE      CODE     ---       #355
      00FF5201H   LINE      CODE     ---       #356
      00FF5204H   LINE      CODE     ---       #358
      00FF5204H   LINE      CODE     ---       #359
      00FF5204H   LINE      CODE     ---       #361
      00FF521DH   LINE      CODE     ---       #363
      00FF522FH   LINE      CODE     ---       #365
      00FF523AH   LINE      CODE     ---       #366
      00FF524DH   LINE      CODE     ---       #367
      00FF5259H   LINE      CODE     ---       #368
      00FF5267H   LINE      CODE     ---       #370
      00FF5269H   LINE      CODE     ---       #373
      00FF5269H   LINE      CODE     ---       #375
      00FF5272H   LINE      CODE     ---       #376
      00FF527CH   LINE      CODE     ---       #377
L251 LINKER/LOCATER V4.66.93.0                                                        04/15/2024  09:56:15  PAGE 92


      00FF528AH   LINE      CODE     ---       #378
      00FF528CH   LINE      CODE     ---       #380
      00FF528CH   LINE      CODE     ---       #381
      00FF528CH   LINE      CODE     ---       #382
      00FF528CH   LINE      CODE     ---       #385
      00FF529AH   LINE      CODE     ---       #386
      00FF52A4H   LINE      CODE     ---       #387
      00FF52B2H   LINE      CODE     ---       #388
      00FF52B2H   LINE      CODE     ---       #389
      00FF52BCH   LINE      CODE     ---       #390
      00FF52CBH   LINE      CODE     ---       #393
      00FF52CFH   LINE      CODE     ---       #394
      ---         BLOCKEND  ---      ---       LVL=0

      ---         MODULE    ---      ---       SEEKFREE_TSL1401
      00000110H   PUBLIC    EDATA    BYTE      tsl1401_finish_flag
      00000111H   PUBLIC    EDATA    ---       ccd_data
      000000D0H   SFRSYM    DATA     BYTE      PSW
      0000009DH   SFRSYM    DATA     BYTE      IRCBAND
      00000097H   SFRSYM    DATA     BYTE      AUXR2
      000000EFH   SFRSYM    DATA     BYTE      AUXINTIF
      000000FDH   SFRSYM    DATA     BYTE      S4CON
      000000ACH   SFRSYM    DATA     BYTE      S3CON
      0000009AH   SFRSYM    DATA     BYTE      S2CON
      000000B7H   SFRSYM    DATA     BYTE      IPH
      000000CDH   SFRSYM    DATA     BYTE      SPSTAT
      000000DDH   SFRSYM    DATA     BYTE      T4T3M
      000000C1H   SFRSYM    DATA     BYTE      WDT_CONTR
      000000DFH   SFRSYM    DATA     BYTE      IP3
      000000F4H   SFRSYM    DATA     BYTE      USBCON
      000000B5H   SFRSYM    DATA     BYTE      IP2
      000000FFH   SFRSYM    DATA     BYTE      RSTCFG
      000000C7H   SFRSYM    DATA     BYTE      IAP_CONTR
      000000F9H   SFRSYM    DATA     BYTE      LINICR
      0000008EH   SFRSYM    DATA     BYTE      AUXR
      000000AFH   SFRSYM    DATA     BYTE      IE2
      000000B0H.3 SFRSYM    DATA     BIT       P33
      00000088H   SFRSYM    DATA     BYTE      TCON
      00000089H   SFRSYM    DATA     BYTE      TMOD
      000000B0H.2 SFRSYM    DATA     BIT       P32
      00000098H   SFRSYM    DATA     BYTE      SCON
      000000F1H   SFRSYM    DATA     BYTE      CANICR
      00000087H   SFRSYM    DATA     BYTE      PCON
      000000BCH   SFRSYM    DATA     BYTE      ADC_CONTR
      000000E7H   SFRSYM    DATA     BYTE      CMPCR2
      000000E6H   SFRSYM    DATA     BYTE      CMPCR1
      000000DEH   SFRSYM    DATA     BYTE      ADCCFG
      000000B8H   SFRSYM    DATA     BYTE      IP
      0000008FH   SFRSYM    DATA     BYTE      INTCLKO
      000000EEH   SFRSYM    DATA     BYTE      IP3H
      000000B6H   SFRSYM    DATA     BYTE      IP2H
      000000A8H   SFRSYM    DATA     BYTE      IE
      000000BBH   SFRSYM    DATA     BYTE      P_SW3
      000000BAH   SFRSYM    DATA     BYTE      P_SW2
      000000A2H   SFRSYM    DATA     BYTE      P_SW1
      000000CEH   SFRSYM    DATA     BYTE      SPCTL
      000000F8H   SFRSYM    DATA     BYTE      P7
      000000E8H   SFRSYM    DATA     BYTE      P6
      000000C8H   SFRSYM    DATA     BYTE      P5
      000000C0H   SFRSYM    DATA     BYTE      P4
      000000B0H   SFRSYM    DATA     BYTE      P3
      000000A0H   SFRSYM    DATA     BYTE      P2
      00000090H   SFRSYM    DATA     BYTE      P1
      00000080H   SFRSYM    DATA     BYTE      P0
      00000CA3H   SYMBOL    EDATA    INT       uart_n
L251 LINKER/LOCATER V4.66.93.0                                                        04/15/2024  09:56:15  PAGE 93


      00000CA5H   SYMBOL    EDATA    ---       dat
      00000CA9H   SYMBOL    EDATA    BYTE      i
      00000EADH   SYMBOL    EDATA    BYTE      i

      ---         MODULE    ---      ---       SEEKFREE_VIRSCO
      00000B17H   PUBLIC    EDATA    ---       virtual_scope_data
      00000962H   PUBLIC    EDATA    BYTE      ?data_conversion?BYTE
      000000D0H   SFRSYM    DATA     BYTE      PSW
      0000009DH   SFRSYM    DATA     BYTE      IRCBAND
      00000097H   SFRSYM    DATA     BYTE      AUXR2
      000000EFH   SFRSYM    DATA     BYTE      AUXINTIF
      000000FDH   SFRSYM    DATA     BYTE      S4CON
      000000ACH   SFRSYM    DATA     BYTE      S3CON
      0000009AH   SFRSYM    DATA     BYTE      S2CON
      000000B7H   SFRSYM    DATA     BYTE      IPH
      000000CDH   SFRSYM    DATA     BYTE      SPSTAT
      000000DDH   SFRSYM    DATA     BYTE      T4T3M
      000000C1H   SFRSYM    DATA     BYTE      WDT_CONTR
      000000DFH   SFRSYM    DATA     BYTE      IP3
      000000F4H   SFRSYM    DATA     BYTE      USBCON
      000000B5H   SFRSYM    DATA     BYTE      IP2
      000000FFH   SFRSYM    DATA     BYTE      RSTCFG
      000000C7H   SFRSYM    DATA     BYTE      IAP_CONTR
      000000F9H   SFRSYM    DATA     BYTE      LINICR
      0000008EH   SFRSYM    DATA     BYTE      AUXR
      000000AFH   SFRSYM    DATA     BYTE      IE2
      00000088H   SFRSYM    DATA     BYTE      TCON
      00000089H   SFRSYM    DATA     BYTE      TMOD
      00000098H   SFRSYM    DATA     BYTE      SCON
      000000F1H   SFRSYM    DATA     BYTE      CANICR
      00000087H   SFRSYM    DATA     BYTE      PCON
      000000BCH   SFRSYM    DATA     BYTE      ADC_CONTR
      000000E7H   SFRSYM    DATA     BYTE      CMPCR2
      000000E6H   SFRSYM    DATA     BYTE      CMPCR1
      000000DEH   SFRSYM    DATA     BYTE      ADCCFG
      000000B8H   SFRSYM    DATA     BYTE      IP
      0000008FH   SFRSYM    DATA     BYTE      INTCLKO
      000000EEH   SFRSYM    DATA     BYTE      IP3H
      000000B6H   SFRSYM    DATA     BYTE      IP2H
      000000A8H   SFRSYM    DATA     BYTE      IE
      000000BBH   SFRSYM    DATA     BYTE      P_SW3
      000000BAH   SFRSYM    DATA     BYTE      P_SW2
      000000A2H   SFRSYM    DATA     BYTE      P_SW1
      000000CEH   SFRSYM    DATA     BYTE      SPCTL
      000000F8H   SFRSYM    DATA     BYTE      P7
      000000E8H   SFRSYM    DATA     BYTE      P6
      000000C8H   SFRSYM    DATA     BYTE      P5
      000000C0H   SFRSYM    DATA     BYTE      P4
      000000B0H   SFRSYM    DATA     BYTE      P3
      000000A0H   SFRSYM    DATA     BYTE      P2
      00000090H   SFRSYM    DATA     BYTE      P1
      00000080H   SFRSYM    DATA     BYTE      P0
      00000BF1H   SYMBOL    EDATA    ---       Buf
      00000BF5H   SYMBOL    EDATA    BYTE      CRC_CNT
      00000BF6H   SYMBOL    EDATA    WORD      CRC_Temp
      00000BF8H   SYMBOL    EDATA    BYTE      i
      00000BF9H   SYMBOL    EDATA    BYTE      j
      00000962H   SYMBOL    EDATA    INT       data1
      00000964H   SYMBOL    EDATA    INT       data2
      00000966H   SYMBOL    EDATA    INT       data3
      00000968H   SYMBOL    EDATA    INT       data4
      0000096AH   SYMBOL    EDATA    ---       dat
      0000096EH   SYMBOL    EDATA    WORD      CRC16

      ---         MODULE    ---      ---       SEEKFREE_WIRELESS
L251 LINKER/LOCATER V4.66.93.0                                                        04/15/2024  09:56:15  PAGE 94


      00FF8DA4H   PUBLIC    CODE     ---       wireless_uart_callback
      000000D0H   SFRSYM    DATA     BYTE      PSW
      0000009DH   SFRSYM    DATA     BYTE      IRCBAND
      00000097H   SFRSYM    DATA     BYTE      AUXR2
      000000EFH   SFRSYM    DATA     BYTE      AUXINTIF
      000000FDH   SFRSYM    DATA     BYTE      S4CON
      000000ACH   SFRSYM    DATA     BYTE      S3CON
      0000009AH   SFRSYM    DATA     BYTE      S2CON
      000000FEH   SFRSYM    DATA     BYTE      S4BUF
      000000B7H   SFRSYM    DATA     BYTE      IPH
      000000CDH   SFRSYM    DATA     BYTE      SPSTAT
      000000DDH   SFRSYM    DATA     BYTE      T4T3M
      000000C1H   SFRSYM    DATA     BYTE      WDT_CONTR
      000000DFH   SFRSYM    DATA     BYTE      IP3
      000000F4H   SFRSYM    DATA     BYTE      USBCON
      000000B5H   SFRSYM    DATA     BYTE      IP2
      000000FFH   SFRSYM    DATA     BYTE      RSTCFG
      000000C7H   SFRSYM    DATA     BYTE      IAP_CONTR
      000000F9H   SFRSYM    DATA     BYTE      LINICR
      0000008EH   SFRSYM    DATA     BYTE      AUXR
      000000AFH   SFRSYM    DATA     BYTE      IE2
      00000080H.7 SFRSYM    DATA     BIT       P07
      00000088H   SFRSYM    DATA     BYTE      TCON
      00000089H   SFRSYM    DATA     BYTE      TMOD
      00000098H   SFRSYM    DATA     BYTE      SCON
      000000F1H   SFRSYM    DATA     BYTE      CANICR
      00000087H   SFRSYM    DATA     BYTE      PCON
      000000BCH   SFRSYM    DATA     BYTE      ADC_CONTR
      000000E7H   SFRSYM    DATA     BYTE      CMPCR2
      000000E6H   SFRSYM    DATA     BYTE      CMPCR1
      000000DEH   SFRSYM    DATA     BYTE      ADCCFG
      000000B8H   SFRSYM    DATA     BYTE      IP
      0000008FH   SFRSYM    DATA     BYTE      INTCLKO
      000000EEH   SFRSYM    DATA     BYTE      IP3H
      000000B6H   SFRSYM    DATA     BYTE      IP2H
      000000A8H   SFRSYM    DATA     BYTE      IE
      000000BBH   SFRSYM    DATA     BYTE      P_SW3
      000000BAH   SFRSYM    DATA     BYTE      P_SW2
      000000A2H   SFRSYM    DATA     BYTE      P_SW1
      000000CEH   SFRSYM    DATA     BYTE      SPCTL
      000000F8H   SFRSYM    DATA     BYTE      P7
      000000E8H   SFRSYM    DATA     BYTE      P6
      000000C8H   SFRSYM    DATA     BYTE      P5
      000000C0H   SFRSYM    DATA     BYTE      P4
      000000B0H   SFRSYM    DATA     BYTE      P3
      000000A0H   SFRSYM    DATA     BYTE      P2
      00000090H   SFRSYM    DATA     BYTE      P1
      00000080H   SFRSYM    DATA     BYTE      P0
      000003A5H   SYMBOL    EDATA    BYTE      wireless_uart_data
      000003A6H   SYMBOL    EDATA    ---       wireless_uart_fifo
      000003BAH   SYMBOL    EDATA    ---       wireless_uart_buffer

      00FF8DA4H   BLOCK     CODE     ---       LVL=0
      00FF8DA4H   LINE      CODE     ---       #48
      00FF8DA4H   LINE      CODE     ---       #51
      00FF8DAAH   LINE      CODE     ---       #52
      00FF8DBDH   LINE      CODE     ---       #53
      ---         BLOCKEND  ---      ---       LVL=0
      00000EAEH   SYMBOL    EDATA    BYTE      dat
      00000D46H   SYMBOL    EDATA    ---       buff
      00000D4AH   SYMBOL    EDATA    WORD      len
      00000A58H   SYMBOL    EDATA    ---       buff
      00000A5CH   SYMBOL    EDATA    DWORD     len
      00000A60H   SYMBOL    EDATA    DWORD     data_len

L251 LINKER/LOCATER V4.66.93.0                                                        04/15/2024  09:56:15  PAGE 95


      ---         MODULE    ---      ---       isr
      00FF8A25H   PUBLIC    CODE     ---       UART1_Isr
      00FF8DBEH   PUBLIC    CODE     ---       UART2_Isr
      00FF8DD8H   PUBLIC    CODE     ---       UART3_Isr
      00FF8591H   PUBLIC    CODE     ---       UART4_Isr
      00FF0086H   PUBLIC    CODE     ---       INT0_Isr
      00FF000AH   PUBLIC    CODE     ---       INT1_Isr
      00FF008EH   PUBLIC    CODE     ---       INT2_Isr
      00FF0096H   PUBLIC    CODE     ---       INT3_Isr
      00FF009EH   PUBLIC    CODE     ---       INT4_Isr
      00FF8DF2H   PUBLIC    CODE     ---       TM0_Isr
      00FF8E79H   PUBLIC    CODE     ---       TM1_Isr
      00FF8E8FH   PUBLIC    CODE     ---       TM2_Isr
      00FF8E93H   PUBLIC    CODE     ---       TM3_Isr
      00000D79H   PUBLIC    EDATA    DWORD     SysTickFlag
      000000D0H   SFRSYM    DATA     BYTE      PSW
      0000009DH   SFRSYM    DATA     BYTE      IRCBAND
      00000097H   SFRSYM    DATA     BYTE      AUXR2
      000000EFH   SFRSYM    DATA     BYTE      AUXINTIF
      000000FDH   SFRSYM    DATA     BYTE      S4CON
      000000ACH   SFRSYM    DATA     BYTE      S3CON
      0000009AH   SFRSYM    DATA     BYTE      S2CON
      000000B7H   SFRSYM    DATA     BYTE      IPH
      000000CDH   SFRSYM    DATA     BYTE      SPSTAT
      000000DDH   SFRSYM    DATA     BYTE      T4T3M
      000000C1H   SFRSYM    DATA     BYTE      WDT_CONTR
      000000DFH   SFRSYM    DATA     BYTE      IP3
      000000F4H   SFRSYM    DATA     BYTE      USBCON
      000000B5H   SFRSYM    DATA     BYTE      IP2
      000000FFH   SFRSYM    DATA     BYTE      RSTCFG
      000000C7H   SFRSYM    DATA     BYTE      IAP_CONTR
      000000F9H   SFRSYM    DATA     BYTE      LINICR
      0000008EH   SFRSYM    DATA     BYTE      AUXR
      000000AFH   SFRSYM    DATA     BYTE      IE2
      000000C8H.2 SFRSYM    DATA     BIT       P52
      00000088H   SFRSYM    DATA     BYTE      TCON
      00000089H   SFRSYM    DATA     BYTE      TMOD
      00000080H.4 SFRSYM    DATA     BIT       P04
      00000098H   SFRSYM    DATA     BYTE      SCON
      000000F1H   SFRSYM    DATA     BYTE      CANICR
      00000087H   SFRSYM    DATA     BYTE      PCON
      00000099H   SFRSYM    DATA     BYTE      SBUF
      000000BCH   SFRSYM    DATA     BYTE      ADC_CONTR
      000000E7H   SFRSYM    DATA     BYTE      CMPCR2
      000000E6H   SFRSYM    DATA     BYTE      CMPCR1
      000000DEH   SFRSYM    DATA     BYTE      ADCCFG
      000000B8H   SFRSYM    DATA     BYTE      IP
      0000008FH   SFRSYM    DATA     BYTE      INTCLKO
      000000EEH   SFRSYM    DATA     BYTE      IP3H
      000000B6H   SFRSYM    DATA     BYTE      IP2H
      000000A8H   SFRSYM    DATA     BYTE      IE
      000000BBH   SFRSYM    DATA     BYTE      P_SW3
      000000BAH   SFRSYM    DATA     BYTE      P_SW2
      000000A2H   SFRSYM    DATA     BYTE      P_SW1
      000000CEH   SFRSYM    DATA     BYTE      SPCTL
      000000F8H   SFRSYM    DATA     BYTE      P7
      000000E8H   SFRSYM    DATA     BYTE      P6
      000000C8H   SFRSYM    DATA     BYTE      P5
      000000C0H   SFRSYM    DATA     BYTE      P4
      000000B0H   SFRSYM    DATA     BYTE      P3
      000000A0H   SFRSYM    DATA     BYTE      P2
      00000090H   SFRSYM    DATA     BYTE      P1
      00000080H   SFRSYM    DATA     BYTE      P0

      00FF8A25H   BLOCK     CODE     ---       LVL=0
L251 LINKER/LOCATER V4.66.93.0                                                        04/15/2024  09:56:15  PAGE 96


      00FF8A27H   BLOCK     CODE     NEAR LAB  LVL=1
      00000EAFH   SYMBOL    EDATA    BYTE      res
      00000D7DH   SYMBOL    EDATA    BYTE      dwon_count
      ---         BLOCKEND  ---      ---       LVL=1
      00FF8A25H   LINE      CODE     ---       #22
      00FF8A27H   LINE      CODE     ---       #23
      00FF8A27H   LINE      CODE     ---       #26
      00FF8A2CH   LINE      CODE     ---       #28
      00FF8A2FH   LINE      CODE     ---       #29
      00FF8A34H   LINE      CODE     ---       #30
      00FF8A34H   LINE      CODE     ---       #31
      00FF8A39H   LINE      CODE     ---       #33
      00FF8A3CH   LINE      CODE     ---       #34
      00FF8A42H   LINE      CODE     ---       #36
      00FF8A47H   LINE      CODE     ---       #38
      00FF8A59H   LINE      CODE     ---       #39
      00FF8A5DH   LINE      CODE     ---       #40
      00FF8A5FH   LINE      CODE     ---       #43
      00FF8A64H   LINE      CODE     ---       #44
      00FF8A64H   LINE      CODE     ---       #45
      ---         BLOCKEND  ---      ---       LVL=0

      00FF8DBEH   BLOCK     CODE     ---       LVL=0
      00FF8DBEH   LINE      CODE     ---       #49
      00FF8DC0H   LINE      CODE     ---       #51
      00FF8DC5H   LINE      CODE     ---       #53
      00FF8DC8H   LINE      CODE     ---       #54
      00FF8DCDH   LINE      CODE     ---       #55
      00FF8DCDH   LINE      CODE     ---       #56
      00FF8DD2H   LINE      CODE     ---       #58
      00FF8DD5H   LINE      CODE     ---       #61
      ---         BLOCKEND  ---      ---       LVL=0

      00FF8DD8H   BLOCK     CODE     ---       LVL=0
      00FF8DD8H   LINE      CODE     ---       #66
      00FF8DDAH   LINE      CODE     ---       #68
      00FF8DDFH   LINE      CODE     ---       #70
      00FF8DE2H   LINE      CODE     ---       #71
      00FF8DE7H   LINE      CODE     ---       #72
      00FF8DE7H   LINE      CODE     ---       #73
      00FF8DECH   LINE      CODE     ---       #75
      00FF8DEFH   LINE      CODE     ---       #78
      ---         BLOCKEND  ---      ---       LVL=0

      00FF8591H   BLOCK     CODE     ---       LVL=0
      00FF8591H   LINE      CODE     ---       #83
      00FF85A5H   LINE      CODE     ---       #85
      00FF85A8H   LINE      CODE     ---       #86
      00FF85ADH   LINE      CODE     ---       #88
      00FF85B0H   LINE      CODE     ---       #89
      00FF85B5H   LINE      CODE     ---       #90
      00FF85B5H   LINE      CODE     ---       #91
      00FF85BAH   LINE      CODE     ---       #93
      00FF85BDH   LINE      CODE     ---       #95
      00FF85C9H   LINE      CODE     ---       #97
      00FF85CCH   LINE      CODE     ---       #98
      00FF85CEH   LINE      CODE     ---       #99
      00FF85DAH   LINE      CODE     ---       #101
      00FF85DDH   LINE      CODE     ---       #102
      00FF85DDH   LINE      CODE     ---       #105
      ---         BLOCKEND  ---      ---       LVL=0

      00FF0086H   BLOCK     CODE     ---       LVL=0
      00FF0086H   LINE      CODE     ---       #108
      00FF0086H   LINE      CODE     ---       #110
L251 LINKER/LOCATER V4.66.93.0                                                        04/15/2024  09:56:15  PAGE 97


      00FF0089H   LINE      CODE     ---       #111
      ---         BLOCKEND  ---      ---       LVL=0

      00FF000AH   BLOCK     CODE     ---       LVL=0
      00FF000AH   LINE      CODE     ---       #112
      00FF000AH   LINE      CODE     ---       #115
      ---         BLOCKEND  ---      ---       LVL=0

      00FF008EH   BLOCK     CODE     ---       LVL=0
      00FF008EH   LINE      CODE     ---       #116
      00FF008EH   LINE      CODE     ---       #118
      00FF0091H   LINE      CODE     ---       #119
      ---         BLOCKEND  ---      ---       LVL=0

      00FF0096H   BLOCK     CODE     ---       LVL=0
      00FF0096H   LINE      CODE     ---       #120
      00FF0096H   LINE      CODE     ---       #122
      00FF0099H   LINE      CODE     ---       #123
      ---         BLOCKEND  ---      ---       LVL=0

      00FF009EH   BLOCK     CODE     ---       LVL=0
      00FF009EH   LINE      CODE     ---       #125
      00FF009EH   LINE      CODE     ---       #127
      00FF00A1H   LINE      CODE     ---       #128
      ---         BLOCKEND  ---      ---       LVL=0

      00FF8DF2H   BLOCK     CODE     ---       LVL=0
      00FF8DF2H   LINE      CODE     ---       #130
      00FF8DF6H   LINE      CODE     ---       #132
      00FF8E04H   LINE      CODE     ---       #133
      ---         BLOCKEND  ---      ---       LVL=0

      00FF8E79H   BLOCK     CODE     ---       LVL=0
      00FF8E79H   LINE      CODE     ---       #134
      00FF8E79H   LINE      CODE     ---       #136
      00FF8E82H   LINE      CODE     ---       #137
      ---         BLOCKEND  ---      ---       LVL=0

      00FF8E8FH   BLOCK     CODE     ---       LVL=0
      00FF8E8FH   LINE      CODE     ---       #138
      00FF8E8FH   LINE      CODE     ---       #140
      00FF8E92H   LINE      CODE     ---       #142
      ---         BLOCKEND  ---      ---       LVL=0

      00FF8E93H   BLOCK     CODE     ---       LVL=0
      00FF8E93H   LINE      CODE     ---       #143
      00FF8E93H   LINE      CODE     ---       #145
      00FF8E96H   LINE      CODE     ---       #147
      ---         BLOCKEND  ---      ---       LVL=0

      ---         MODULE    ---      ---       main
      00FF7645H   PUBLIC    CODE     ---       main
      00000DDBH   PUBLIC    EDATA    INT       flag
      00000DDDH   PUBLIC    EDATA    INT       menu
      000000D0H   SFRSYM    DATA     BYTE      PSW
      0000009DH   SFRSYM    DATA     BYTE      IRCBAND
      00000097H   SFRSYM    DATA     BYTE      AUXR2
      000000EFH   SFRSYM    DATA     BYTE      AUXINTIF
      000000FDH   SFRSYM    DATA     BYTE      S4CON
      000000ACH   SFRSYM    DATA     BYTE      S3CON
      0000009AH   SFRSYM    DATA     BYTE      S2CON
      000000B7H   SFRSYM    DATA     BYTE      IPH
      000000CDH   SFRSYM    DATA     BYTE      SPSTAT
      000000DDH   SFRSYM    DATA     BYTE      T4T3M
      000000C1H   SFRSYM    DATA     BYTE      WDT_CONTR
L251 LINKER/LOCATER V4.66.93.0                                                        04/15/2024  09:56:15  PAGE 98


      000000DFH   SFRSYM    DATA     BYTE      IP3
      000000F4H   SFRSYM    DATA     BYTE      USBCON
      000000B5H   SFRSYM    DATA     BYTE      IP2
      000000FFH   SFRSYM    DATA     BYTE      RSTCFG
      000000C7H   SFRSYM    DATA     BYTE      IAP_CONTR
      000000F9H   SFRSYM    DATA     BYTE      LINICR
      0000008EH   SFRSYM    DATA     BYTE      AUXR
      000000AFH   SFRSYM    DATA     BYTE      IE2
      00000088H   SFRSYM    DATA     BYTE      TCON
      00000089H   SFRSYM    DATA     BYTE      TMOD
      00000098H   SFRSYM    DATA     BYTE      SCON
      000000F1H   SFRSYM    DATA     BYTE      CANICR
      00000087H   SFRSYM    DATA     BYTE      PCON
      000000BCH   SFRSYM    DATA     BYTE      ADC_CONTR
      000000E7H   SFRSYM    DATA     BYTE      CMPCR2
      000000E6H   SFRSYM    DATA     BYTE      CMPCR1
      000000DEH   SFRSYM    DATA     BYTE      ADCCFG
      000000B8H   SFRSYM    DATA     BYTE      IP
      0000008FH   SFRSYM    DATA     BYTE      INTCLKO
      000000EEH   SFRSYM    DATA     BYTE      IP3H
      000000B6H   SFRSYM    DATA     BYTE      IP2H
      000000A8H   SFRSYM    DATA     BYTE      IE
      000000BBH   SFRSYM    DATA     BYTE      P_SW3
      000000BAH   SFRSYM    DATA     BYTE      P_SW2
      000000A2H   SFRSYM    DATA     BYTE      P_SW1
      000000CEH   SFRSYM    DATA     BYTE      SPCTL
      000000F8H   SFRSYM    DATA     BYTE      P7
      000000E8H   SFRSYM    DATA     BYTE      P6
      000000C8H   SFRSYM    DATA     BYTE      P5
      000000C0H   SFRSYM    DATA     BYTE      P4
      000000B0H   SFRSYM    DATA     BYTE      P3
      000000A0H   SFRSYM    DATA     BYTE      P2
      00000090H   SFRSYM    DATA     BYTE      P1
      00000080H   SFRSYM    DATA     BYTE      P0

      00FF7645H   BLOCK     CODE     ---       LVL=0
      00000E88H   SYMBOL    EDATA    INT       i
      00FF7645H   LINE      CODE     ---       #33
      00FF7645H   LINE      CODE     ---       #34
      00FF7645H   LINE      CODE     ---       #35
      00FF764BH   LINE      CODE     ---       #36
      00FF7656H   LINE      CODE     ---       #37
      00FF7659H   LINE      CODE     ---       #39
      00FF765CH   LINE      CODE     ---       #40
      00FF7677H   LINE      CODE     ---       #42
      00FF767AH   LINE      CODE     ---       #43
      00FF767EH   LINE      CODE     ---       #44
      00FF7681H   LINE      CODE     ---       #45
      00FF7684H   LINE      CODE     ---       #46
      00FF7687H   LINE      CODE     ---       #47
      00FF7698H   LINE      CODE     ---       #52
      00FF7698H   LINE      CODE     ---       #54
      00FF769BH   LINE      CODE     ---       #55
      00FF76A2H   LINE      CODE     ---       #57
      00FF76B1H   LINE      CODE     ---       #58
      00FF76C0H   LINE      CODE     ---       #59
      00FF76CFH   LINE      CODE     ---       #60
      00FF76DEH   LINE      CODE     ---       #61
      00FF76EDH   LINE      CODE     ---       #62
      00FF76F9H   LINE      CODE     ---       #63
      00FF7701H   LINE      CODE     ---       #64
      00FF7718H   LINE      CODE     ---       #65
      00FF7724H   LINE      CODE     ---       #67
      00FF7727H   LINE      CODE     ---       #68
      00FF772DH   LINE      CODE     ---       #69
L251 LINKER/LOCATER V4.66.93.0                                                        04/15/2024  09:56:15  PAGE 99


      00FF772DH   LINE      CODE     ---       #70
      00FF7733H   LINE      CODE     ---       #71
      00FF7736H   LINE      CODE     ---       #73
      ---         BLOCKEND  ---      ---       LVL=0

      ---         MODULE    ---      ---       Inductance
      00FF45EDH   PUBLIC    CODE     ---       NORMALIZATION_TRACKING_ADC
      00FF7C43H   PUBLIC    CODE     ---       sq
      00FF70CBH   PUBLIC    CODE     ---       show_val
      00FF89DEH   PUBLIC    CODE     ---       Inductance_Init
      00000008H   PUBLIC    EDATA    WORD      R3_NOR_ADC
      0000000AH   PUBLIC    EDATA    WORD      L3
      0000000CH   PUBLIC    EDATA    WORD      R1
      0000000EH   PUBLIC    EDATA    WORD      R2
      00000010H   PUBLIC    EDATA    WORD      R3
      00000012H   PUBLIC    EDATA    WORD      Right_Val
      00000014H   PUBLIC    EDATA    ---       ADC_MIN
      00000022H   PUBLIC    EDATA    ---       ADC_MAX
      00000030H   PUBLIC    EDATA    WORD      Left_Val
      00000032H   PUBLIC    EDATA    ---       AD_NOR_VAL
      0000004EH   PUBLIC    EDATA    ---       NOR_VAL
      0000006AH   PUBLIC    EDATA    INT       bug
      0000006CH   PUBLIC    EDATA    INT       ad_diff
      0000006EH   PUBLIC    EDATA    ---       ad_value
      000000FAH   PUBLIC    EDATA    INT       Inductance_Error
      000000FCH   PUBLIC    EDATA    WORD      L1_NOR_ADC
      000000FEH   PUBLIC    EDATA    WORD      M1_NOR_ADC
      00000100H   PUBLIC    EDATA    WORD      L2_NOR_ADC
      00000102H   PUBLIC    EDATA    WORD      L3_NOR_ADC
      00000104H   PUBLIC    EDATA    INT       ad_sum
      00000106H   PUBLIC    EDATA    WORD      R1_NOR_ADC
      00000108H   PUBLIC    EDATA    WORD      L1
      0000010AH   PUBLIC    EDATA    WORD      R2_NOR_ADC
      0000010CH   PUBLIC    EDATA    WORD      M1
      0000010EH   PUBLIC    EDATA    WORD      L2
      000000D0H   SFRSYM    DATA     BYTE      PSW
      0000009DH   SFRSYM    DATA     BYTE      IRCBAND
      00000097H   SFRSYM    DATA     BYTE      AUXR2
      000000EFH   SFRSYM    DATA     BYTE      AUXINTIF
      000000FDH   SFRSYM    DATA     BYTE      S4CON
      000000ACH   SFRSYM    DATA     BYTE      S3CON
      0000009AH   SFRSYM    DATA     BYTE      S2CON
      000000B7H   SFRSYM    DATA     BYTE      IPH
      000000CDH   SFRSYM    DATA     BYTE      SPSTAT
      000000DDH   SFRSYM    DATA     BYTE      T4T3M
      000000C1H   SFRSYM    DATA     BYTE      WDT_CONTR
      000000DFH   SFRSYM    DATA     BYTE      IP3
      000000F4H   SFRSYM    DATA     BYTE      USBCON
      000000B5H   SFRSYM    DATA     BYTE      IP2
      000000FFH   SFRSYM    DATA     BYTE      RSTCFG
      000000C7H   SFRSYM    DATA     BYTE      IAP_CONTR
      000000F9H   SFRSYM    DATA     BYTE      LINICR
      0000008EH   SFRSYM    DATA     BYTE      AUXR
      000000AFH   SFRSYM    DATA     BYTE      IE2
      00000088H   SFRSYM    DATA     BYTE      TCON
      00000089H   SFRSYM    DATA     BYTE      TMOD
      00000098H   SFRSYM    DATA     BYTE      SCON
      000000F1H   SFRSYM    DATA     BYTE      CANICR
      00000087H   SFRSYM    DATA     BYTE      PCON
      000000BCH   SFRSYM    DATA     BYTE      ADC_CONTR
      000000E7H   SFRSYM    DATA     BYTE      CMPCR2
      000000E6H   SFRSYM    DATA     BYTE      CMPCR1
      000000DEH   SFRSYM    DATA     BYTE      ADCCFG
      000000B8H   SFRSYM    DATA     BYTE      IP
      0000008FH   SFRSYM    DATA     BYTE      INTCLKO
L251 LINKER/LOCATER V4.66.93.0                                                        04/15/2024  09:56:15  PAGE 100


      000000EEH   SFRSYM    DATA     BYTE      IP3H
      000000B6H   SFRSYM    DATA     BYTE      IP2H
      000000A8H   SFRSYM    DATA     BYTE      IE
      000000BBH   SFRSYM    DATA     BYTE      P_SW3
      000000BAH   SFRSYM    DATA     BYTE      P_SW2
      000000A2H   SFRSYM    DATA     BYTE      P_SW1
      000000CEH   SFRSYM    DATA     BYTE      SPCTL
      000000F8H   SFRSYM    DATA     BYTE      P7
      000000E8H   SFRSYM    DATA     BYTE      P6
      000000C8H   SFRSYM    DATA     BYTE      P5
      000000C0H   SFRSYM    DATA     BYTE      P4
      000000B0H   SFRSYM    DATA     BYTE      P3
      000000A0H   SFRSYM    DATA     BYTE      P2
      00000090H   SFRSYM    DATA     BYTE      P1
      00000080H   SFRSYM    DATA     BYTE      P0
      00FF93D2H   SYMBOL    HCONST   ---       ?tpl?0001
      00FF93E0H   SYMBOL    HCONST   ---       ?tpl?0002

      00FF89DEH   BLOCK     CODE     ---       LVL=0
      00FF89DEH   LINE      CODE     ---       #32
      00FF89DEH   LINE      CODE     ---       #34
      00FF89E7H   LINE      CODE     ---       #35
      00FF89EEH   LINE      CODE     ---       #36
      00FF89F7H   LINE      CODE     ---       #37
      00FF8A00H   LINE      CODE     ---       #38
      00FF8A09H   LINE      CODE     ---       #39
      00FF8A12H   LINE      CODE     ---       #40
      00FF8A1BH   LINE      CODE     ---       #41
      00FF8A24H   LINE      CODE     ---       #42
      ---         BLOCKEND  ---      ---       LVL=0

      00FF7C43H   BLOCK     CODE     ---       LVL=0
      0000089DH   SYMBOL    EDATA    FLOAT     number
      00FF7C47H   BLOCK     CODE     NEAR LAB  LVL=1
      000008A1H   SYMBOL    EDATA    LONG      i
      000008A5H   SYMBOL    EDATA    FLOAT     x
      000008A9H   SYMBOL    EDATA    FLOAT     y
      000008ADH   SYMBOL    EDATA    FLOAT     f
      ---         BLOCKEND  ---      ---       LVL=1
      00FF7C43H   LINE      CODE     ---       #49
      00FF7C47H   LINE      CODE     ---       #50
      00FF7C47H   LINE      CODE     ---       #53
      00FF7C51H   LINE      CODE     ---       #55
      00FF7C62H   LINE      CODE     ---       #56
      00FF7C6AH   LINE      CODE     ---       #57
      00FF7C79H   LINE      CODE     ---       #58
      00FF7C92H   LINE      CODE     ---       #59
      00FF7CA1H   LINE      CODE     ---       #60
      00FF7CC9H   LINE      CODE     ---       #61
      00FF7CF1H   LINE      CODE     ---       #62
      00FF7CFCH   LINE      CODE     ---       #63
      ---         BLOCKEND  ---      ---       LVL=0

      00FF45EDH   BLOCK     CODE     ---       LVL=0
      000006E9H   SYMBOL    EDATA    FLOAT     I1
      00FF45F1H   BLOCK     CODE     NEAR LAB  LVL=1
      000006EDH   SYMBOL    EDATA    INT       i
      000006EFH   SYMBOL    EDATA    INT       j
      000006F1H   SYMBOL    EDATA    INT       k
      000006F3H   SYMBOL    EDATA    INT       temp
      000006F5H   SYMBOL    EDATA    ---       ad_sum1
      00000703H   SYMBOL    EDATA    ---       ad_valu1
      ---         BLOCKEND  ---      ---       LVL=1
      00FF45EDH   LINE      CODE     ---       #72
      00FF45F1H   LINE      CODE     ---       #73
L251 LINKER/LOCATER V4.66.93.0                                                        04/15/2024  09:56:15  PAGE 101


      00FF45F1H   LINE      CODE     ---       #74
      00FF4609H   LINE      CODE     ---       #75
      00FF461AH   LINE      CODE     ---       #76
      00FF462BH   LINE      CODE     ---       #77
      00FF4634H   LINE      CODE     ---       #79
      00FF464EH   LINE      CODE     ---       #80
      00FF4666H   LINE      CODE     ---       #81
      00FF4680H   LINE      CODE     ---       #82
      00FF469AH   LINE      CODE     ---       #83
      00FF46B4H   LINE      CODE     ---       #84
      00FF46CEH   LINE      CODE     ---       #85
      00FF46E8H   LINE      CODE     ---       #86
      00FF46F5H   LINE      CODE     ---       #87
      00FF4712H   LINE      CODE     ---       #90
      00FF471BH   LINE      CODE     ---       #92
      00FF4724H   LINE      CODE     ---       #94
      00FF472DH   LINE      CODE     ---       #96
      00FF4769H   LINE      CODE     ---       #98
      00FF478AH   LINE      CODE     ---       #99
      00FF47C2H   LINE      CODE     ---       #100
      00FF47E1H   LINE      CODE     ---       #101
      00FF4804H   LINE      CODE     ---       #103
      00FF4821H   LINE      CODE     ---       #104
      00FF483EH   LINE      CODE     ---       #107
      00FF4847H   LINE      CODE     ---       #109
      00FF484FH   LINE      CODE     ---       #111
      00FF4880H   LINE      CODE     ---       #112
      00FF489AH   LINE      CODE     ---       #113
      00FF48C1H   LINE      CODE     ---       #114
      00FF48DEH   LINE      CODE     ---       #117
      00FF48E6H   LINE      CODE     ---       #118
      00FF48EEH   LINE      CODE     ---       #119
      00FF48F6H   LINE      CODE     ---       #120
      00FF48FEH   LINE      CODE     ---       #121
      00FF4906H   LINE      CODE     ---       #122
      00FF490EH   LINE      CODE     ---       #123
      00FF4916H   LINE      CODE     ---       #129
      00FF493BH   LINE      CODE     ---       #130
      00FF4960H   LINE      CODE     ---       #131
      00FF4985H   LINE      CODE     ---       #132
      00FF49AAH   LINE      CODE     ---       #133
      00FF49CFH   LINE      CODE     ---       #134
      00FF49F4H   LINE      CODE     ---       #135
      00FF4A19H   LINE      CODE     ---       #137
      00FF4A22H   LINE      CODE     ---       #139
      00FF4A3EH   LINE      CODE     ---       #141
      00FF4A5BH   LINE      CODE     ---       #142
      00FF4A5BH   LINE      CODE     ---       #143
      00FF4A7BH   LINE      CODE     ---       #145
      00FF4A96H   LINE      CODE     ---       #146
      00FF4A96H   LINE      CODE     ---       #147
      00FF4ACBH   LINE      CODE     ---       #148
      00FF4AE8H   LINE      CODE     ---       #151
      00FF4AF3H   LINE      CODE     ---       #152
      00FF4AFEH   LINE      CODE     ---       #153
      00FF4B09H   LINE      CODE     ---       #154
      00FF4B14H   LINE      CODE     ---       #155
      00FF4B1FH   LINE      CODE     ---       #156
      00FF4B2AH   LINE      CODE     ---       #157
      00FF4B35H   LINE      CODE     ---       #159
      00FF4B35H   LINE      CODE     ---       #160
      00FF4B4DH   LINE      CODE     ---       #161
      00FF4B69H   LINE      CODE     ---       #162
      00FF4B83H   LINE      CODE     ---       #164
      00FF4BA9H   LINE      CODE     ---       #165
L251 LINKER/LOCATER V4.66.93.0                                                        04/15/2024  09:56:15  PAGE 102


      00FF4BCFH   LINE      CODE     ---       #166
      00FF4BDDH   LINE      CODE     ---       #167
      00FF4BEBH   LINE      CODE     ---       #168
      00FF4BF7H   LINE      CODE     ---       #170
      00FF4C1AH   LINE      CODE     ---       #171
      00FF4C26H   LINE      CODE     ---       #172
      00FF4C43H   LINE      CODE     ---       #173
      00FF4C4FH   LINE      CODE     ---       #174
      00FF4C6AH   LINE      CODE     ---       #175
      00FF4C6AH   LINE      CODE     ---       #177
      00FF4C6EH   LINE      CODE     ---       #178
      ---         BLOCKEND  ---      ---       LVL=0

      00FF70CBH   BLOCK     CODE     ---       LVL=0
      00FF70CBH   LINE      CODE     ---       #186
      00FF70CBH   LINE      CODE     ---       #189
      00FF70D9H   LINE      CODE     ---       #190
      00FF70E4H   LINE      CODE     ---       #192
      00FF70F3H   LINE      CODE     ---       #193
      00FF70FEH   LINE      CODE     ---       #195
      00FF710DH   LINE      CODE     ---       #196
      00FF7119H   LINE      CODE     ---       #198
      00FF7129H   LINE      CODE     ---       #199
      00FF7135H   LINE      CODE     ---       #201
      00FF7144H   LINE      CODE     ---       #202
      00FF7150H   LINE      CODE     ---       #204
      00FF7160H   LINE      CODE     ---       #205
      00FF716CH   LINE      CODE     ---       #207
      00FF717BH   LINE      CODE     ---       #208
      00FF7187H   LINE      CODE     ---       #210
      00FF7197H   LINE      CODE     ---       #211
      00FF71A3H   LINE      CODE     ---       #214
      00FF71B2H   LINE      CODE     ---       #215
      00FF71CAH   LINE      CODE     ---       #216
      00FF71D5H   LINE      CODE     ---       #217
      00FF71E1H   LINE      CODE     ---       #218
      00FF71ECH   LINE      CODE     ---       #219
      00FF71F8H   LINE      CODE     ---       #227
      ---         BLOCKEND  ---      ---       LVL=0

      ---         MODULE    ---      ---       Motor
      00FF8860H   PUBLIC    CODE     ---       Motor_Init
      00FF894AH   PUBLIC    CODE     ---       Motor_SET_PID
      00FF8B1DH   PUBLIC    CODE     ---       limit
      00FF78FEH   PUBLIC    CODE     ---       Speed_pid_Out
      00FF7B84H   PUBLIC    CODE     ---       Motor_PWM
      000003FAH   PUBLIC    EDATA    ---       Motor_pid
      00000422H   PUBLIC    EDATA    FLOAT     Motor_I
      00000426H   PUBLIC    EDATA    FLOAT     Motor_P
      00000A64H   PUBLIC    EDATA    BYTE      ?Motor_SET_PID?BYTE
      000000D0H   SFRSYM    DATA     BYTE      PSW
      0000009DH   SFRSYM    DATA     BYTE      IRCBAND
      00000097H   SFRSYM    DATA     BYTE      AUXR2
      000000EFH   SFRSYM    DATA     BYTE      AUXINTIF
      000000FDH   SFRSYM    DATA     BYTE      S4CON
      000000ACH   SFRSYM    DATA     BYTE      S3CON
      0000009AH   SFRSYM    DATA     BYTE      S2CON
      000000B7H   SFRSYM    DATA     BYTE      IPH
      000000CDH   SFRSYM    DATA     BYTE      SPSTAT
      000000DDH   SFRSYM    DATA     BYTE      T4T3M
      000000C1H   SFRSYM    DATA     BYTE      WDT_CONTR
      000000DFH   SFRSYM    DATA     BYTE      IP3
      000000F4H   SFRSYM    DATA     BYTE      USBCON
      000000B5H   SFRSYM    DATA     BYTE      IP2
      000000FFH   SFRSYM    DATA     BYTE      RSTCFG
L251 LINKER/LOCATER V4.66.93.0                                                        04/15/2024  09:56:15  PAGE 103


      000000C7H   SFRSYM    DATA     BYTE      IAP_CONTR
      000000F9H   SFRSYM    DATA     BYTE      LINICR
      0000008EH   SFRSYM    DATA     BYTE      AUXR
      000000AFH   SFRSYM    DATA     BYTE      IE2
      000000C8H.2 SFRSYM    DATA     BIT       P52
      000000C0H.2 SFRSYM    DATA     BIT       P42
      00000088H   SFRSYM    DATA     BYTE      TCON
      00000089H   SFRSYM    DATA     BYTE      TMOD
      00000090H.3 SFRSYM    DATA     BIT       P13
      00000098H   SFRSYM    DATA     BYTE      SCON
      000000F1H   SFRSYM    DATA     BYTE      CANICR
      00000087H   SFRSYM    DATA     BYTE      PCON
      000000BCH   SFRSYM    DATA     BYTE      ADC_CONTR
      00000080H.0 SFRSYM    DATA     BIT       P00
      000000E7H   SFRSYM    DATA     BYTE      CMPCR2
      000000E6H   SFRSYM    DATA     BYTE      CMPCR1
      000000DEH   SFRSYM    DATA     BYTE      ADCCFG
      000000B8H   SFRSYM    DATA     BYTE      IP
      0000008FH   SFRSYM    DATA     BYTE      INTCLKO
      000000EEH   SFRSYM    DATA     BYTE      IP3H
      000000B6H   SFRSYM    DATA     BYTE      IP2H
      000000A8H   SFRSYM    DATA     BYTE      IE
      000000BBH   SFRSYM    DATA     BYTE      P_SW3
      000000BAH   SFRSYM    DATA     BYTE      P_SW2
      000000A2H   SFRSYM    DATA     BYTE      P_SW1
      000000CEH   SFRSYM    DATA     BYTE      SPCTL
      000000F8H   SFRSYM    DATA     BYTE      P7
      000000E8H   SFRSYM    DATA     BYTE      P6
      000000C8H   SFRSYM    DATA     BYTE      P5
      000000C0H   SFRSYM    DATA     BYTE      P4
      000000B0H   SFRSYM    DATA     BYTE      P3
      000000A0H   SFRSYM    DATA     BYTE      P2
      00000090H   SFRSYM    DATA     BYTE      P1
      00000080H   SFRSYM    DATA     BYTE      P0

      00FF8B1DH   BLOCK     CODE     ---       LVL=0
      00000DDFH   SYMBOL    EDATA    INT       In
      00000DE1H   SYMBOL    EDATA    INT       limit
      00FF8B1DH   LINE      CODE     ---       #21
      00FF8B25H   LINE      CODE     ---       #23
      00FF8B57H   LINE      CODE     ---       #24
      ---         BLOCKEND  ---      ---       LVL=0

      00FF8860H   BLOCK     CODE     ---       LVL=0
      00FF8860H   LINE      CODE     ---       #32
      00FF8860H   LINE      CODE     ---       #34
      00FF886BH   LINE      CODE     ---       #35
      00FF8876H   LINE      CODE     ---       #37
      00FF8881H   LINE      CODE     ---       #38
      00FF888CH   LINE      CODE     ---       #39
      00FF888FH   LINE      CODE     ---       #40
      00FF88A0H   LINE      CODE     ---       #41
      00FF88B1H   LINE      CODE     ---       #42
      ---         BLOCKEND  ---      ---       LVL=0

      00FF7B84H   BLOCK     CODE     ---       LVL=0
      00000DE3H   SYMBOL    EDATA    INT       L_PWM
      00000DE5H   SYMBOL    EDATA    INT       R_PWM
      00FF7B84H   LINE      CODE     ---       #51
      00FF7B8CH   LINE      CODE     ---       #54
      00FF7B96H   LINE      CODE     ---       #55
      00FF7BB3H   LINE      CODE     ---       #56
      00FF7BBDH   LINE      CODE     ---       #57
      00FF7BD8H   LINE      CODE     ---       #58
      00FF7BE2H   LINE      CODE     ---       #60
L251 LINKER/LOCATER V4.66.93.0                                                        04/15/2024  09:56:15  PAGE 104


      00FF7BE5H   LINE      CODE     ---       #61
      00FF7BF9H   LINE      CODE     ---       #62
      00FF7BFBH   LINE      CODE     ---       #64
      00FF7BFEH   LINE      CODE     ---       #65
      00FF7C0DH   LINE      CODE     ---       #66
      00FF7C0DH   LINE      CODE     ---       #67
      00FF7C17H   LINE      CODE     ---       #69
      00FF7C1AH   LINE      CODE     ---       #70
      00FF7C2EH   LINE      CODE     ---       #71
      00FF7C30H   LINE      CODE     ---       #73
      00FF7C33H   LINE      CODE     ---       #74
      00FF7C42H   LINE      CODE     ---       #75
      00FF7C42H   LINE      CODE     ---       #76
      ---         BLOCKEND  ---      ---       LVL=0

      00FF894AH   BLOCK     CODE     ---       LVL=0
      00000A64H   SYMBOL    EDATA    FLOAT     Kp
      00000A68H   SYMBOL    EDATA    FLOAT     Ki
      00000A6CH   SYMBOL    EDATA    FLOAT     Kd
      00FF894AH   LINE      CODE     ---       #84
      00FF8952H   LINE      CODE     ---       #86
      00FF8958H   LINE      CODE     ---       #87
      00FF895EH   LINE      CODE     ---       #88
      00FF8964H   LINE      CODE     ---       #89
      00FF896AH   LINE      CODE     ---       #90
      00FF8970H   LINE      CODE     ---       #91
      00FF8978H   LINE      CODE     ---       #92
      00FF8980H   LINE      CODE     ---       #93
      00FF8988H   LINE      CODE     ---       #94
      00FF898EH   LINE      CODE     ---       #95
      00FF8994H   LINE      CODE     ---       #96
      ---         BLOCKEND  ---      ---       LVL=0
      00000D7EH   SYMBOL    EDATA    CHAR      NEW_DATA
      00000D7FH   SYMBOL    EDATA    CHAR      OLD_DATA
      00000D80H   SYMBOL    EDATA    CHAR      k
      00000D81H   SYMBOL    EDATA    INT       result

      00FF78FEH   BLOCK     CODE     ---       LVL=0
      00000970H   SYMBOL    EDATA    INT       Target_Value
      00000972H   SYMBOL    EDATA    INT       Actual_Value
      00FF7906H   BLOCK     CODE     NEAR LAB  LVL=1
      00000974H   SYMBOL    EDATA    FLOAT     Kp_Value
      00000978H   SYMBOL    EDATA    INT       Target_LBVal
      0000042AH   SYMBOL    EDATA    FLOAT     Ki_Value
      0000042EH   SYMBOL    EDATA    FLOAT     Kd_Value
      0000097AH   SYMBOL    EDATA    FLOAT     MOTOR_PWM
      ---         BLOCKEND  ---      ---       LVL=1
      00FF78FEH   LINE      CODE     ---       #133
      00FF7906H   LINE      CODE     ---       #134
      00FF7906H   LINE      CODE     ---       #135
      00FF790CH   LINE      CODE     ---       #136
      00FF7912H   LINE      CODE     ---       #138
      00FF7918H   LINE      CODE     ---       #141
      00FF792BH   LINE      CODE     ---       #142
      00FF7939H   LINE      CODE     ---       #144
      00FF793FH   LINE      CODE     ---       #145
      00FF7945H   LINE      CODE     ---       #146
      00FF7945H   LINE      CODE     ---       #148
      00FF7954H   LINE      CODE     ---       #150
      00FF7963H   LINE      CODE     ---       #151
      00FF797CH   LINE      CODE     ---       #152
      00FF7995H   LINE      CODE     ---       #154
      00FF799DH   LINE      CODE     ---       #155
      00FF79A5H   LINE      CODE     ---       #157
      00FF79BDH   LINE      CODE     ---       #158
L251 LINKER/LOCATER V4.66.93.0                                                        04/15/2024  09:56:15  PAGE 105


      00FF79C1H   LINE      CODE     ---       #159
      00FF79D6H   LINE      CODE     ---       #160
      00FF79D9H   LINE      CODE     ---       #161
      ---         BLOCKEND  ---      ---       LVL=0
      00000E8AH   SYMBOL    EDATA    INT       time

      ---         MODULE    ---      ---       encoder
      00FF8BF5H   PUBLIC    CODE     ---       Encoder_Time_Init
      00FF8D61H   PUBLIC    CODE     ---       L_Encoder_Pulse
      00FF8CF3H   PUBLIC    CODE     ---       R_Encoder_Pulse
      00FF852CH   PUBLIC    CODE     ---       TM4_Isr
      000007BCH   PUBLIC    EDATA    INT       nh_out
      000007BEH   PUBLIC    EDATA    INT       speed
      000007C0H   PUBLIC    EDATA    INT       Sum_Pulse
      000007C2H   PUBLIC    EDATA    INT       L_Pulse
      000007C4H   PUBLIC    EDATA    FLOAT     angle1
      000007C8H   PUBLIC    EDATA    INT       R_Pulse
      000007CAH   PUBLIC    EDATA    INT       dir_out
      000000D0H   SFRSYM    DATA     BYTE      PSW
      0000009DH   SFRSYM    DATA     BYTE      IRCBAND
      00000097H   SFRSYM    DATA     BYTE      AUXR2
      000000EFH   SFRSYM    DATA     BYTE      AUXINTIF
      000000FDH   SFRSYM    DATA     BYTE      S4CON
      000000ACH   SFRSYM    DATA     BYTE      S3CON
      0000009AH   SFRSYM    DATA     BYTE      S2CON
      000000B7H   SFRSYM    DATA     BYTE      IPH
      000000CDH   SFRSYM    DATA     BYTE      SPSTAT
      000000DDH   SFRSYM    DATA     BYTE      T4T3M
      000000C1H   SFRSYM    DATA     BYTE      WDT_CONTR
      000000DFH   SFRSYM    DATA     BYTE      IP3
      000000F4H   SFRSYM    DATA     BYTE      USBCON
      000000B5H   SFRSYM    DATA     BYTE      IP2
      000000FFH   SFRSYM    DATA     BYTE      RSTCFG
      000000C7H   SFRSYM    DATA     BYTE      IAP_CONTR
      000000F9H   SFRSYM    DATA     BYTE      LINICR
      0000008EH   SFRSYM    DATA     BYTE      AUXR
      000000AFH   SFRSYM    DATA     BYTE      IE2
      00000090H.6 SFRSYM    DATA     BIT       P16
      00000088H   SFRSYM    DATA     BYTE      TCON
      00000089H   SFRSYM    DATA     BYTE      TMOD
      000000C8H.0 SFRSYM    DATA     BIT       P50
      00000098H   SFRSYM    DATA     BYTE      SCON
      000000F1H   SFRSYM    DATA     BYTE      CANICR
      00000087H   SFRSYM    DATA     BYTE      PCON
      000000BCH   SFRSYM    DATA     BYTE      ADC_CONTR
      000000E7H   SFRSYM    DATA     BYTE      CMPCR2
      000000E6H   SFRSYM    DATA     BYTE      CMPCR1
      000000DEH   SFRSYM    DATA     BYTE      ADCCFG
      000000B8H   SFRSYM    DATA     BYTE      IP
      0000008FH   SFRSYM    DATA     BYTE      INTCLKO
      000000EEH   SFRSYM    DATA     BYTE      IP3H
      000000B6H   SFRSYM    DATA     BYTE      IP2H
      000000A8H   SFRSYM    DATA     BYTE      IE
      000000BBH   SFRSYM    DATA     BYTE      P_SW3
      000000BAH   SFRSYM    DATA     BYTE      P_SW2
      000000A2H   SFRSYM    DATA     BYTE      P_SW1
      000000CEH   SFRSYM    DATA     BYTE      SPCTL
      000000F8H   SFRSYM    DATA     BYTE      P7
      000000E8H   SFRSYM    DATA     BYTE      P6
      000000C8H   SFRSYM    DATA     BYTE      P5
      000000C0H   SFRSYM    DATA     BYTE      P4
      000000B0H   SFRSYM    DATA     BYTE      P3
      000000A0H   SFRSYM    DATA     BYTE      P2
      00000090H   SFRSYM    DATA     BYTE      P1
      00000080H   SFRSYM    DATA     BYTE      P0
L251 LINKER/LOCATER V4.66.93.0                                                        04/15/2024  09:56:15  PAGE 106



      00FF8BF5H   BLOCK     CODE     ---       LVL=0
      00FF8BF5H   LINE      CODE     ---       #15
      00FF8BF5H   LINE      CODE     ---       #17
      00FF8C00H   LINE      CODE     ---       #18
      00FF8C09H   LINE      CODE     ---       #19
      00FF8C14H   LINE      CODE     ---       #20
      00FF8C19H   LINE      CODE     ---       #21
      00FF8C20H   LINE      CODE     ---       #22
      00FF8C23H   LINE      CODE     ---       #23
      ---         BLOCKEND  ---      ---       LVL=0

      00FF8D61H   BLOCK     CODE     ---       LVL=0
      00FF8D61H   LINE      CODE     ---       #31
      00FF8D61H   LINE      CODE     ---       #33
      00FF8D6AH   LINE      CODE     ---       #35
      00FF8D73H   LINE      CODE     ---       #36
      00FF8D75H   LINE      CODE     ---       #39
      00FF8D7EH   LINE      CODE     ---       #40
      00FF8D7EH   LINE      CODE     ---       #41
      00FF8D82H   LINE      CODE     ---       #42
      ---         BLOCKEND  ---      ---       LVL=0

      00FF8CF3H   BLOCK     CODE     ---       LVL=0
      00FF8CF3H   LINE      CODE     ---       #49
      00FF8CF3H   LINE      CODE     ---       #51
      00FF8CFCH   LINE      CODE     ---       #53
      00FF8D07H   LINE      CODE     ---       #55
      00FF8D09H   LINE      CODE     ---       #58
      00FF8D14H   LINE      CODE     ---       #59
      00FF8D14H   LINE      CODE     ---       #60
      00FF8D18H   LINE      CODE     ---       #61
      ---         BLOCKEND  ---      ---       LVL=0
      00000E8CH   SYMBOL    EDATA    INT       L_target
      000007CCH   SYMBOL    EDATA    INT       L
      000007CEH   SYMBOL    EDATA    INT       L_flag
      00000E8EH   SYMBOL    EDATA    INT       R_target
      000007D0H   SYMBOL    EDATA    INT       R
      000007D2H   SYMBOL    EDATA    INT       R_flag

      00FF852CH   BLOCK     CODE     ---       LVL=0
      00FF8540H   BLOCK     CODE     NEAR LAB  LVL=1
      000007D4H   SYMBOL    EDATA    INT       count
      ---         BLOCKEND  ---      ---       LVL=1
      00FF852CH   LINE      CODE     ---       #113
      00FF8540H   LINE      CODE     ---       #114
      00FF8540H   LINE      CODE     ---       #116
      00FF8547H   LINE      CODE     ---       #117
      00FF854EH   LINE      CODE     ---       #118
      00FF855DH   LINE      CODE     ---       #122
      00FF8560H   LINE      CODE     ---       #123
      00FF856DH   LINE      CODE     ---       #124
      00FF8572H   LINE      CODE     ---       #125
      00FF8579H   LINE      CODE     ---       #126
      00FF857CH   LINE      CODE     ---       #127
      ---         BLOCKEND  ---      ---       LVL=0

      ---         MODULE    ---      ---       direction
      00FF845BH   PUBLIC    CODE     ---       wh_Turn_Out
      00FF870CH   PUBLIC    CODE     ---       DirControl
      00FF8059H   PUBLIC    CODE     ---       nh_Turn_Out
      00000711H   PUBLIC    EDATA    FLOAT     Nh_D
      00000715H   PUBLIC    EDATA    FLOAT     Wh_D
      00000719H   PUBLIC    EDATA    FLOAT     Nh_P
      0000071DH   PUBLIC    EDATA    FLOAT     Wh_P
L251 LINKER/LOCATER V4.66.93.0                                                        04/15/2024  09:56:15  PAGE 107


      0000080AH   PUBLIC    EDATA    BYTE      ?wh_Turn_Out?BYTE
      00000820H   PUBLIC    EDATA    BYTE      ?nh_Turn_Out?BYTE
      00000780H   PUBLIC    EDATA    BYTE      ?Angle_Ring?BYTE
      000007D6H   PUBLIC    EDATA    BYTE      ?DirControl_2?BYTE
      000000D0H   SFRSYM    DATA     BYTE      PSW
      0000009DH   SFRSYM    DATA     BYTE      IRCBAND
      00000097H   SFRSYM    DATA     BYTE      AUXR2
      000000EFH   SFRSYM    DATA     BYTE      AUXINTIF
      000000FDH   SFRSYM    DATA     BYTE      S4CON
      000000ACH   SFRSYM    DATA     BYTE      S3CON
      0000009AH   SFRSYM    DATA     BYTE      S2CON
      000000B7H   SFRSYM    DATA     BYTE      IPH
      000000CDH   SFRSYM    DATA     BYTE      SPSTAT
      000000DDH   SFRSYM    DATA     BYTE      T4T3M
      000000C1H   SFRSYM    DATA     BYTE      WDT_CONTR
      000000DFH   SFRSYM    DATA     BYTE      IP3
      000000F4H   SFRSYM    DATA     BYTE      USBCON
      000000B5H   SFRSYM    DATA     BYTE      IP2
      000000FFH   SFRSYM    DATA     BYTE      RSTCFG
      000000C7H   SFRSYM    DATA     BYTE      IAP_CONTR
      000000F9H   SFRSYM    DATA     BYTE      LINICR
      0000008EH   SFRSYM    DATA     BYTE      AUXR
      000000AFH   SFRSYM    DATA     BYTE      IE2
      00000088H   SFRSYM    DATA     BYTE      TCON
      00000089H   SFRSYM    DATA     BYTE      TMOD
      00000098H   SFRSYM    DATA     BYTE      SCON
      000000F1H   SFRSYM    DATA     BYTE      CANICR
      00000087H   SFRSYM    DATA     BYTE      PCON
      000000BCH   SFRSYM    DATA     BYTE      ADC_CONTR
      000000E7H   SFRSYM    DATA     BYTE      CMPCR2
      000000E6H   SFRSYM    DATA     BYTE      CMPCR1
      000000DEH   SFRSYM    DATA     BYTE      ADCCFG
      000000B8H   SFRSYM    DATA     BYTE      IP
      0000008FH   SFRSYM    DATA     BYTE      INTCLKO
      000000EEH   SFRSYM    DATA     BYTE      IP3H
      000000B6H   SFRSYM    DATA     BYTE      IP2H
      000000A8H   SFRSYM    DATA     BYTE      IE
      000000BBH   SFRSYM    DATA     BYTE      P_SW3
      000000BAH   SFRSYM    DATA     BYTE      P_SW2
      000000A2H   SFRSYM    DATA     BYTE      P_SW1
      000000CEH   SFRSYM    DATA     BYTE      SPCTL
      000000F8H   SFRSYM    DATA     BYTE      P7
      000000E8H   SFRSYM    DATA     BYTE      P6
      000000C8H   SFRSYM    DATA     BYTE      P5
      000000C0H   SFRSYM    DATA     BYTE      P4
      000000B0H   SFRSYM    DATA     BYTE      P3
      000000A0H   SFRSYM    DATA     BYTE      P2
      00000090H   SFRSYM    DATA     BYTE      P1
      00000080H   SFRSYM    DATA     BYTE      P0

      00FF845BH   BLOCK     CODE     ---       LVL=0
      0000080AH   SYMBOL    EDATA    INT       chazhi
      0000080CH   SYMBOL    EDATA    FLOAT     dir_p
      00000810H   SYMBOL    EDATA    FLOAT     dir_d
      00FF8463H   BLOCK     CODE     NEAR LAB  LVL=1
      00000814H   SYMBOL    EDATA    FLOAT     error
      00000721H   SYMBOL    EDATA    FLOAT     last_error
      00000818H   SYMBOL    EDATA    FLOAT     Output
      0000081CH   SYMBOL    EDATA    FLOAT     error_derivative
      ---         BLOCKEND  ---      ---       LVL=1
      00FF845BH   LINE      CODE     ---       #24
      00FF8463H   LINE      CODE     ---       #25
      00FF8463H   LINE      CODE     ---       #31
      00FF8470H   LINE      CODE     ---       #33
      00FF847FH   LINE      CODE     ---       #35
L251 LINKER/LOCATER V4.66.93.0                                                        04/15/2024  09:56:15  PAGE 108


      00FF84A0H   LINE      CODE     ---       #37
      00FF84A8H   LINE      CODE     ---       #39
      00FF84C1H   LINE      CODE     ---       #40
      00FF84C4H   LINE      CODE     ---       #41
      ---         BLOCKEND  ---      ---       LVL=0

      00FF8059H   BLOCK     CODE     ---       LVL=0
      00000820H   SYMBOL    EDATA    INT       err
      00000822H   SYMBOL    EDATA    FLOAT     dir_p
      00000826H   SYMBOL    EDATA    FLOAT     dir_d
      00FF8061H   BLOCK     CODE     NEAR LAB  LVL=1
      0000082AH   SYMBOL    EDATA    FLOAT     error
      00000725H   SYMBOL    EDATA    FLOAT     last_error
      0000082EH   SYMBOL    EDATA    FLOAT     Output
      00000832H   SYMBOL    EDATA    FLOAT     error_derivative
      ---         BLOCKEND  ---      ---       LVL=1
      00FF8059H   LINE      CODE     ---       #49
      00FF8061H   LINE      CODE     ---       #50
      00FF8061H   LINE      CODE     ---       #56
      00FF8081H   LINE      CODE     ---       #58
      00FF8090H   LINE      CODE     ---       #60
      00FF80BBH   LINE      CODE     ---       #62
      00FF80C3H   LINE      CODE     ---       #64
      00FF80DCH   LINE      CODE     ---       #65
      00FF80DFH   LINE      CODE     ---       #66
      ---         BLOCKEND  ---      ---       LVL=0

      00FF870CH   BLOCK     CODE     ---       LVL=0
      00000729H   SYMBOL    EDATA    INT       count
      0000072BH   SYMBOL    EDATA    INT       wh_out
      00FF870CH   LINE      CODE     ---       #73
      00FF870CH   LINE      CODE     ---       #74
      00FF870CH   LINE      CODE     ---       #77
      00FF8718H   LINE      CODE     ---       #79
      00FF872FH   LINE      CODE     ---       #80
      00FF8735H   LINE      CODE     ---       #81
      00FF8735H   LINE      CODE     ---       #82
      00FF8743H   LINE      CODE     ---       #83
      00FF8763H   LINE      CODE     ---       #84
      ---         BLOCKEND  ---      ---       LVL=0
      00000780H   SYMBOL    EDATA    FLOAT     target
      00000784H   SYMBOL    EDATA    FLOAT     actual
      00000788H   SYMBOL    EDATA    FLOAT     p
      0000078CH   SYMBOL    EDATA    FLOAT     i
      00000790H   SYMBOL    EDATA    FLOAT     d
      00000794H   SYMBOL    EDATA    FLOAT     error
      0000072DH   SYMBOL    EDATA    FLOAT     last_error
      00000731H   SYMBOL    EDATA    FLOAT     Ki_val
      00000798H   SYMBOL    EDATA    INT       Output
      0000079AH   SYMBOL    EDATA    FLOAT     error_derivative
      000007D6H   SYMBOL    EDATA    INT       chazhi
      000007D8H   SYMBOL    EDATA    FLOAT     dir_p
      000007DCH   SYMBOL    EDATA    FLOAT     dir_d
      000007E0H   SYMBOL    EDATA    FLOAT     dir_d2
      000007E4H   SYMBOL    EDATA    FLOAT     error
      00000735H   SYMBOL    EDATA    FLOAT     last_error
      000007E8H   SYMBOL    EDATA    FLOAT     Output
      000007ECH   SYMBOL    EDATA    FLOAT     error_derivative

      ---         MODULE    ---      ---       vofa
      00000211H   PUBLIC    EDATA    ---       DataToSend
      00000832H   PUBLIC    EDATA    BYTE      ?Send4DataToVofa?BYTE
      000000D0H   SFRSYM    DATA     BYTE      PSW
      0000009DH   SFRSYM    DATA     BYTE      IRCBAND
      00000097H   SFRSYM    DATA     BYTE      AUXR2
L251 LINKER/LOCATER V4.66.93.0                                                        04/15/2024  09:56:15  PAGE 109


      000000EFH   SFRSYM    DATA     BYTE      AUXINTIF
      000000FDH   SFRSYM    DATA     BYTE      S4CON
      000000ACH   SFRSYM    DATA     BYTE      S3CON
      0000009AH   SFRSYM    DATA     BYTE      S2CON
      000000B7H   SFRSYM    DATA     BYTE      IPH
      000000CDH   SFRSYM    DATA     BYTE      SPSTAT
      000000DDH   SFRSYM    DATA     BYTE      T4T3M
      000000C1H   SFRSYM    DATA     BYTE      WDT_CONTR
      000000DFH   SFRSYM    DATA     BYTE      IP3
      000000F4H   SFRSYM    DATA     BYTE      USBCON
      000000B5H   SFRSYM    DATA     BYTE      IP2
      000000FFH   SFRSYM    DATA     BYTE      RSTCFG
      000000C7H   SFRSYM    DATA     BYTE      IAP_CONTR
      000000F9H   SFRSYM    DATA     BYTE      LINICR
      0000008EH   SFRSYM    DATA     BYTE      AUXR
      000000AFH   SFRSYM    DATA     BYTE      IE2
      00000088H   SFRSYM    DATA     BYTE      TCON
      00000089H   SFRSYM    DATA     BYTE      TMOD
      00000098H   SFRSYM    DATA     BYTE      SCON
      000000F1H   SFRSYM    DATA     BYTE      CANICR
      00000087H   SFRSYM    DATA     BYTE      PCON
      000000BCH   SFRSYM    DATA     BYTE      ADC_CONTR
      000000E7H   SFRSYM    DATA     BYTE      CMPCR2
      000000E6H   SFRSYM    DATA     BYTE      CMPCR1
      000000DEH   SFRSYM    DATA     BYTE      ADCCFG
      000000B8H   SFRSYM    DATA     BYTE      IP
      0000008FH   SFRSYM    DATA     BYTE      INTCLKO
      000000EEH   SFRSYM    DATA     BYTE      IP3H
      000000B6H   SFRSYM    DATA     BYTE      IP2H
      000000A8H   SFRSYM    DATA     BYTE      IE
      000000BBH   SFRSYM    DATA     BYTE      P_SW3
      000000BAH   SFRSYM    DATA     BYTE      P_SW2
      000000A2H   SFRSYM    DATA     BYTE      P_SW1
      000000CEH   SFRSYM    DATA     BYTE      SPCTL
      000000F8H   SFRSYM    DATA     BYTE      P7
      000000E8H   SFRSYM    DATA     BYTE      P6
      000000C8H   SFRSYM    DATA     BYTE      P5
      000000C0H   SFRSYM    DATA     BYTE      P4
      000000B0H   SFRSYM    DATA     BYTE      P3
      000000A0H   SFRSYM    DATA     BYTE      P2
      00000090H   SFRSYM    DATA     BYTE      P1
      00000080H   SFRSYM    DATA     BYTE      P0
      00000836H   SYMBOL    EDATA    FLOAT     _a
      0000084AH   SYMBOL    EDATA    BYTE      i
      0000084BH   SYMBOL    EDATA    BYTE      _cnt

      ---         MODULE    ---      ---       mpu6050
      00FF79DAH   PUBLIC    CODE     ---       medianFilter1
      00FF82AEH   PUBLIC    CODE     ---       gyro_zero_wander
      00FF8C24H   PUBLIC    CODE     ---       lowPassFilter
      00FF781CH   PUBLIC    CODE     ---       Get_Angle
      00000A70H   PUBLIC    EDATA    BYTE      ?lowPassFilter?BYTE
      000000D0H   SFRSYM    DATA     BYTE      PSW
      0000009DH   SFRSYM    DATA     BYTE      IRCBAND
      00000097H   SFRSYM    DATA     BYTE      AUXR2
      000000EFH   SFRSYM    DATA     BYTE      AUXINTIF
      000000FDH   SFRSYM    DATA     BYTE      S4CON
      000000ACH   SFRSYM    DATA     BYTE      S3CON
      0000009AH   SFRSYM    DATA     BYTE      S2CON
      000000B7H   SFRSYM    DATA     BYTE      IPH
      000000CDH   SFRSYM    DATA     BYTE      SPSTAT
      000000DDH   SFRSYM    DATA     BYTE      T4T3M
      000000C1H   SFRSYM    DATA     BYTE      WDT_CONTR
      000000DFH   SFRSYM    DATA     BYTE      IP3
      000000F4H   SFRSYM    DATA     BYTE      USBCON
L251 LINKER/LOCATER V4.66.93.0                                                        04/15/2024  09:56:15  PAGE 110


      000000B5H   SFRSYM    DATA     BYTE      IP2
      000000FFH   SFRSYM    DATA     BYTE      RSTCFG
      000000C7H   SFRSYM    DATA     BYTE      IAP_CONTR
      000000F9H   SFRSYM    DATA     BYTE      LINICR
      0000008EH   SFRSYM    DATA     BYTE      AUXR
      000000AFH   SFRSYM    DATA     BYTE      IE2
      00000088H   SFRSYM    DATA     BYTE      TCON
      00000089H   SFRSYM    DATA     BYTE      TMOD
      00000098H   SFRSYM    DATA     BYTE      SCON
      000000F1H   SFRSYM    DATA     BYTE      CANICR
      00000087H   SFRSYM    DATA     BYTE      PCON
      000000BCH   SFRSYM    DATA     BYTE      ADC_CONTR
      000000E7H   SFRSYM    DATA     BYTE      CMPCR2
      000000E6H   SFRSYM    DATA     BYTE      CMPCR1
      000000DEH   SFRSYM    DATA     BYTE      ADCCFG
      000000B8H   SFRSYM    DATA     BYTE      IP
      0000008FH   SFRSYM    DATA     BYTE      INTCLKO
      000000EEH   SFRSYM    DATA     BYTE      IP3H
      000000B6H   SFRSYM    DATA     BYTE      IP2H
      000000A8H   SFRSYM    DATA     BYTE      IE
      000000BBH   SFRSYM    DATA     BYTE      P_SW3
      000000BAH   SFRSYM    DATA     BYTE      P_SW2
      000000A2H   SFRSYM    DATA     BYTE      P_SW1
      000000CEH   SFRSYM    DATA     BYTE      SPCTL
      000000F8H   SFRSYM    DATA     BYTE      P7
      000000E8H   SFRSYM    DATA     BYTE      P6
      000000C8H   SFRSYM    DATA     BYTE      P5
      000000C0H   SFRSYM    DATA     BYTE      P4
      000000B0H   SFRSYM    DATA     BYTE      P3
      000000A0H   SFRSYM    DATA     BYTE      P2
      00000090H   SFRSYM    DATA     BYTE      P1
      00000080H   SFRSYM    DATA     BYTE      P0

      00FF82AEH   BLOCK     CODE     ---       LVL=0
      00000582H   SYMBOL    EDATA    FLOAT     sum
      00000586H   SYMBOL    EDATA    INT       flag
      00000E90H   SYMBOL    EDATA    INT       i
      00FF82AEH   LINE      CODE     ---       #14
      00FF82AEH   LINE      CODE     ---       #17
      00FF82B4H   LINE      CODE     ---       #18
      00FF82C0H   LINE      CODE     ---       #19
      00FF82C8H   LINE      CODE     ---       #20
      00FF82DEH   LINE      CODE     ---       #21
      00FF82F8H   LINE      CODE     ---       #22
      00FF82FEH   LINE      CODE     ---       #23
      00FF830DH   LINE      CODE     ---       #24
      00FF830DH   LINE      CODE     ---       #25
      00FF831AH   LINE      CODE     ---       #26
      ---         BLOCKEND  ---      ---       LVL=0

      00FF79DAH   BLOCK     CODE     ---       LVL=0
      00000B21H   SYMBOL    EDATA    ---       window
      00FF79DEH   BLOCK     CODE     NEAR LAB  LVL=1
      00000B25H   SYMBOL    EDATA    INT       temp
      00000B27H   SYMBOL    EDATA    INT       i
      00000B29H   SYMBOL    EDATA    INT       j
      ---         BLOCKEND  ---      ---       LVL=1
      00FF79DAH   LINE      CODE     ---       #28
      00FF79DEH   LINE      CODE     ---       #29
      00FF79EAH   LINE      CODE     ---       #31
      00FF79F3H   LINE      CODE     ---       #32
      00FF79FBH   LINE      CODE     ---       #33
      00FF7A1FH   LINE      CODE     ---       #35
      00FF7A32H   LINE      CODE     ---       #36
      00FF7A52H   LINE      CODE     ---       #37
L251 LINKER/LOCATER V4.66.93.0                                                        04/15/2024  09:56:15  PAGE 111


      00FF7A67H   LINE      CODE     ---       #38
      00FF7A8AH   LINE      CODE     ---       #40
      00FF7AA7H   LINE      CODE     ---       #43
      00FF7AB2H   LINE      CODE     ---       #44
      ---         BLOCKEND  ---      ---       LVL=0

      00FF8C24H   BLOCK     CODE     ---       LVL=0
      00000A70H   SYMBOL    EDATA    FLOAT     current
      00000A74H   SYMBOL    EDATA    FLOAT     previous
      00000A78H   SYMBOL    EDATA    FLOAT     alpha
      00FF8C24H   LINE      CODE     ---       #46
      00FF8C2CH   LINE      CODE     ---       #48
      00FF8C52H   LINE      CODE     ---       #49
      ---         BLOCKEND  ---      ---       LVL=0

      00FF781CH   BLOCK     CODE     ---       LVL=0
      00000588H   SYMBOL    EDATA    ---       gyro_z_values
      000005B0H   SYMBOL    EDATA    INT       index
      0000079EH   SYMBOL    EDATA    FLOAT     filtered_angle
      000007A2H   SYMBOL    EDATA    INT       i
      000007A4H   SYMBOL    EDATA    ---       window
      000007B8H   SYMBOL    EDATA    FLOAT     gyro_z
      00FF781CH   LINE      CODE     ---       #51
      00FF781CH   LINE      CODE     ---       #56
      00FF7822H   LINE      CODE     ---       #58
      00FF7837H   LINE      CODE     ---       #61
      00FF7863H   LINE      CODE     ---       #63
      00FF787CH   LINE      CODE     ---       #64
      00FF7891H   LINE      CODE     ---       #65
      00FF7899H   LINE      CODE     ---       #66
      00FF78D1H   LINE      CODE     ---       #67
      00FF78EBH   LINE      CODE     ---       #69
      00FF78FDH   LINE      CODE     ---       #72
      00FF78FDH   LINE      CODE     ---       #73
      ---         BLOCKEND  ---      ---       LVL=0

      ---         MODULE    ---      ---       TrackElement
      00FF84C5H   PUBLIC    CODE     ---       Tracking
      00FF7549H   PUBLIC    CODE     ---       Error_Speed
      00000291H   PUBLIC    EDATA    FLOAT     Sub_motor_i
      00000295H   PUBLIC    EDATA    FLOAT     Angle_D
      00000299H   PUBLIC    EDATA    FLOAT     Sub_motor_p
      0000029DH   PUBLIC    EDATA    FLOAT     Angle_I
      000002A1H   PUBLIC    EDATA    INT       Speed_Plan1
      000002A3H   PUBLIC    EDATA    INT       RAngle_Flag
      000002A5H   PUBLIC    EDATA    FLOAT     Angle_P
      000002A9H   PUBLIC    EDATA    FLOAT     Angle4
      000002ADH   PUBLIC    EDATA    INT       Err_speed
      000002AFH   PUBLIC    EDATA    INT       Sub_speed
      000002B1H   PUBLIC    EDATA    INT       shizi_flag
      000002B3H   PUBLIC    EDATA    ---       Element_Order
      000002BBH   PUBLIC    EDATA    INT       ring_flag
      000002BDH   PUBLIC    EDATA    FLOAT     Sub_wh_d
      000002C1H   PUBLIC    EDATA    LONG      Distance
      000002C5H   PUBLIC    EDATA    LONG      bmq_jifen
      000002C9H   PUBLIC    EDATA    FLOAT     Sub_wh_p
      000002CDH   PUBLIC    EDATA    INT       set_speed
      000002CFH   PUBLIC    EDATA    INT       DISTANCE_FLAG
      000002D1H   PUBLIC    EDATA    INT       RING_FLAG1
      000002D3H   PUBLIC    EDATA    INT       RING_FLAG2
      000002D5H   PUBLIC    EDATA    INT       RING_FLAG3
      000002D7H   PUBLIC    EDATA    INT       RING_FLAG4
      000002D9H   PUBLIC    EDATA    INT       ANGLE_FLAG
      000002DBH   PUBLIC    EDATA    INT       Track_flag
      000002DDH   PUBLIC    EDATA    FLOAT     angle_jifen
L251 LINKER/LOCATER V4.66.93.0                                                        04/15/2024  09:56:15  PAGE 112


      000000D0H   SFRSYM    DATA     BYTE      PSW
      0000009DH   SFRSYM    DATA     BYTE      IRCBAND
      00000097H   SFRSYM    DATA     BYTE      AUXR2
      000000EFH   SFRSYM    DATA     BYTE      AUXINTIF
      000000FDH   SFRSYM    DATA     BYTE      S4CON
      000000ACH   SFRSYM    DATA     BYTE      S3CON
      0000009AH   SFRSYM    DATA     BYTE      S2CON
      000000B7H   SFRSYM    DATA     BYTE      IPH
      000000CDH   SFRSYM    DATA     BYTE      SPSTAT
      000000DDH   SFRSYM    DATA     BYTE      T4T3M
      000000C1H   SFRSYM    DATA     BYTE      WDT_CONTR
      000000DFH   SFRSYM    DATA     BYTE      IP3
      000000F4H   SFRSYM    DATA     BYTE      USBCON
      000000B5H   SFRSYM    DATA     BYTE      IP2
      000000FFH   SFRSYM    DATA     BYTE      RSTCFG
      000000C7H   SFRSYM    DATA     BYTE      IAP_CONTR
      000000F9H   SFRSYM    DATA     BYTE      LINICR
      0000008EH   SFRSYM    DATA     BYTE      AUXR
      000000AFH   SFRSYM    DATA     BYTE      IE2
      00000088H   SFRSYM    DATA     BYTE      TCON
      00000089H   SFRSYM    DATA     BYTE      TMOD
      00000090H.3 SFRSYM    DATA     BIT       P13
      00000098H   SFRSYM    DATA     BYTE      SCON
      000000F1H   SFRSYM    DATA     BYTE      CANICR
      00000087H   SFRSYM    DATA     BYTE      PCON
      000000BCH   SFRSYM    DATA     BYTE      ADC_CONTR
      000000E7H   SFRSYM    DATA     BYTE      CMPCR2
      000000E6H   SFRSYM    DATA     BYTE      CMPCR1
      000000DEH   SFRSYM    DATA     BYTE      ADCCFG
      000000B8H   SFRSYM    DATA     BYTE      IP
      0000008FH   SFRSYM    DATA     BYTE      INTCLKO
      000000EEH   SFRSYM    DATA     BYTE      IP3H
      000000B6H   SFRSYM    DATA     BYTE      IP2H
      000000A8H   SFRSYM    DATA     BYTE      IE
      000000BBH   SFRSYM    DATA     BYTE      P_SW3
      000000BAH   SFRSYM    DATA     BYTE      P_SW2
      000000A2H   SFRSYM    DATA     BYTE      P_SW1
      000000CEH   SFRSYM    DATA     BYTE      SPCTL
      000000F8H   SFRSYM    DATA     BYTE      P7
      000000E8H   SFRSYM    DATA     BYTE      P6
      000000C8H   SFRSYM    DATA     BYTE      P5
      000000C0H   SFRSYM    DATA     BYTE      P4
      000000B0H   SFRSYM    DATA     BYTE      P3
      000000A0H   SFRSYM    DATA     BYTE      P2
      00000090H   SFRSYM    DATA     BYTE      P1
      00000080H   SFRSYM    DATA     BYTE      P0
      00000E92H   SYMBOL    EDATA    INT       flag
      000002E1H   SYMBOL    EDATA    INT       bmq_flag
      000002E3H   SYMBOL    EDATA    INT       angle_flag
      000002E5H   SYMBOL    EDATA    INT       angle2
      000002E7H   SYMBOL    EDATA    INT       yu_flag
      000002E9H   SYMBOL    EDATA    INT       angle_flag2
      000002EBH   SYMBOL    EDATA    INT       status
      00000E94H   SYMBOL    EDATA    INT       speed_flag
      00000C6AH   SYMBOL    EDATA    FLOAT     error
      00000C6EH   SYMBOL    EDATA    FLOAT     err

      00FF84C5H   BLOCK     CODE     ---       LVL=0
      00000E96H   SYMBOL    EDATA    INT       Set_speed
      00FF84C9H   BLOCK     CODE     NEAR LAB  LVL=1
      000002EDH   SYMBOL    EDATA    INT       count
      000002EFH   SYMBOL    EDATA    INT       pwm
      ---         BLOCKEND  ---      ---       LVL=1
      00FF84C5H   LINE      CODE     ---       #231
      00FF84C9H   LINE      CODE     ---       #232
L251 LINKER/LOCATER V4.66.93.0                                                        04/15/2024  09:56:15  PAGE 113


      00FF84C9H   LINE      CODE     ---       #234
      00FF84DEH   LINE      CODE     ---       #235
      00FF84ECH   LINE      CODE     ---       #236
      00FF84F3H   LINE      CODE     ---       #237
      00FF84FFH   LINE      CODE     ---       #239
      00FF850EH   LINE      CODE     ---       #240
      00FF8514H   LINE      CODE     ---       #241
      00FF8514H   LINE      CODE     ---       #243
      00FF852BH   LINE      CODE     ---       #244
      ---         BLOCKEND  ---      ---       LVL=0

      00FF7549H   BLOCK     CODE     ---       LVL=0
      00FF7549H   LINE      CODE     ---       #249
      00FF7549H   LINE      CODE     ---       #251
      00FF7555H   LINE      CODE     ---       #252
      00FF7573H   LINE      CODE     ---       #253
      00FF758BH   LINE      CODE     ---       #254
      00FF75A9H   LINE      CODE     ---       #255
      00FF75C1H   LINE      CODE     ---       #256
      00FF75E2H   LINE      CODE     ---       #257
      00FF75FAH   LINE      CODE     ---       #258
      00FF7619H   LINE      CODE     ---       #259
      00FF7625H   LINE      CODE     ---       #260
      00FF7644H   LINE      CODE     ---       #261
      ---         BLOCKEND  ---      ---       LVL=0

      ---         MODULE    ---      ---       menu
      00FF8AA6H   PUBLIC    CODE     ---       Show_Val_Menu
      00FF6495H   PUBLIC    CODE     ---       First_menu
      00FF6AE4H   PUBLIC    CODE     ---       Second_Element_menu
      00FF7CFDH   PUBLIC    CODE     ---       Second__Speed_menu
      00FF58FCH   PUBLIC    CODE     ---       Second_Motor_menu
      00FF3842H   PUBLIC    CODE     ---       Second__NWHuan_menu
      000000D0H   SFRSYM    DATA     BYTE      PSW
      0000009DH   SFRSYM    DATA     BYTE      IRCBAND
      00000097H   SFRSYM    DATA     BYTE      AUXR2
      000000EFH   SFRSYM    DATA     BYTE      AUXINTIF
      000000FDH   SFRSYM    DATA     BYTE      S4CON
      000000ACH   SFRSYM    DATA     BYTE      S3CON
      0000009AH   SFRSYM    DATA     BYTE      S2CON
      000000B7H   SFRSYM    DATA     BYTE      IPH
      000000CDH   SFRSYM    DATA     BYTE      SPSTAT
      000000DDH   SFRSYM    DATA     BYTE      T4T3M
      000000C1H   SFRSYM    DATA     BYTE      WDT_CONTR
      000000DFH   SFRSYM    DATA     BYTE      IP3
      000000F4H   SFRSYM    DATA     BYTE      USBCON
      000000B5H   SFRSYM    DATA     BYTE      IP2
      000000FFH   SFRSYM    DATA     BYTE      RSTCFG
      000000C7H   SFRSYM    DATA     BYTE      IAP_CONTR
      000000F9H   SFRSYM    DATA     BYTE      LINICR
      0000008EH   SFRSYM    DATA     BYTE      AUXR
      000000AFH   SFRSYM    DATA     BYTE      IE2
      000000B0H.7 SFRSYM    DATA     BIT       P37
      000000B0H.6 SFRSYM    DATA     BIT       P36
      000000C0H.4 SFRSYM    DATA     BIT       P44
      000000C0H.3 SFRSYM    DATA     BIT       P43
      00000088H   SFRSYM    DATA     BYTE      TCON
      00000089H   SFRSYM    DATA     BYTE      TMOD
      00000098H   SFRSYM    DATA     BYTE      SCON
      000000F1H   SFRSYM    DATA     BYTE      CANICR
      00000087H   SFRSYM    DATA     BYTE      PCON
      000000BCH   SFRSYM    DATA     BYTE      ADC_CONTR
      000000E7H   SFRSYM    DATA     BYTE      CMPCR2
      000000E6H   SFRSYM    DATA     BYTE      CMPCR1
      000000DEH   SFRSYM    DATA     BYTE      ADCCFG
L251 LINKER/LOCATER V4.66.93.0                                                        04/15/2024  09:56:15  PAGE 114


      000000B8H   SFRSYM    DATA     BYTE      IP
      0000008FH   SFRSYM    DATA     BYTE      INTCLKO
      000000EEH   SFRSYM    DATA     BYTE      IP3H
      000000B6H   SFRSYM    DATA     BYTE      IP2H
      000000A8H   SFRSYM    DATA     BYTE      IE
      000000BBH   SFRSYM    DATA     BYTE      P_SW3
      000000BAH   SFRSYM    DATA     BYTE      P_SW2
      000000A2H   SFRSYM    DATA     BYTE      P_SW1
      000000CEH   SFRSYM    DATA     BYTE      SPCTL
      000000F8H   SFRSYM    DATA     BYTE      P7
      000000E8H   SFRSYM    DATA     BYTE      P6
      000000C8H   SFRSYM    DATA     BYTE      P5
      000000C0H   SFRSYM    DATA     BYTE      P4
      000000B0H   SFRSYM    DATA     BYTE      P3
      000000A0H   SFRSYM    DATA     BYTE      P2
      00000090H   SFRSYM    DATA     BYTE      P1
      00000080H   SFRSYM    DATA     BYTE      P0
      00FF92FEH   SYMBOL    HCONST   ---       ?tpl?0001
      00000DE7H   SYMBOL    EDATA    INT       flag1
      00000DE9H   SYMBOL    EDATA    INT       flag

      00FF6495H   BLOCK     CODE     ---       LVL=0
      00000DEBH   SYMBOL    EDATA    INT       flag
      00000DEDH   SYMBOL    EDATA    INT       a
      00FF6495H   LINE      CODE     ---       #45
      00FF6495H   LINE      CODE     ---       #46
      00FF6495H   LINE      CODE     ---       #47
      00FF649DH   LINE      CODE     ---       #48
      00FF64A3H   LINE      CODE     ---       #49
      00FF64B2H   LINE      CODE     ---       #50
      00FF64C2H   LINE      CODE     ---       #51
      00FF64D2H   LINE      CODE     ---       #52
      00FF64E2H   LINE      CODE     ---       #53
      00FF64F2H   LINE      CODE     ---       #54
      00FF6502H   LINE      CODE     ---       #55
      00FF6502H   LINE      CODE     ---       #58
      00FF650BH   LINE      CODE     ---       #60
      00FF6512H   LINE      CODE     ---       #61
      00FF651BH   LINE      CODE     ---       #62
      00FF6522H   LINE      CODE     ---       #63
      00FF6530H   LINE      CODE     ---       #64
      00FF6544H   LINE      CODE     ---       #65
      00FF6544H   LINE      CODE     ---       #66
      00FF654DH   LINE      CODE     ---       #68
      00FF6554H   LINE      CODE     ---       #69
      00FF655DH   LINE      CODE     ---       #70
      00FF6564H   LINE      CODE     ---       #71
      00FF6572H   LINE      CODE     ---       #72
      00FF6584H   LINE      CODE     ---       #73
      00FF6584H   LINE      CODE     ---       #74
      00FF658DH   LINE      CODE     ---       #76
      00FF6594H   LINE      CODE     ---       #77
      00FF659DH   LINE      CODE     ---       #78
      00FF65A4H   LINE      CODE     ---       #79
      00FF65A8H   LINE      CODE     ---       #80
      00FF65AFH   LINE      CODE     ---       #81
      00FF65AFH   LINE      CODE     ---       #82
      00FF65B8H   LINE      CODE     ---       #84
      00FF65BFH   LINE      CODE     ---       #85
      00FF65C8H   LINE      CODE     ---       #86
      00FF65CFH   LINE      CODE     ---       #87
      00FF65D3H   LINE      CODE     ---       #88
      00FF65D8H   LINE      CODE     ---       #89
      00FF65D8H   LINE      CODE     ---       #90
      00FF6608H   LINE      CODE     ---       #92
L251 LINKER/LOCATER V4.66.93.0                                                        04/15/2024  09:56:15  PAGE 115


      00FF6608H   LINE      CODE     ---       #94
      00FF6616H   LINE      CODE     ---       #95
      00FF6625H   LINE      CODE     ---       #96
      00FF6634H   LINE      CODE     ---       #97
      00FF6643H   LINE      CODE     ---       #98
      00FF6652H   LINE      CODE     ---       #99
      00FF6661H   LINE      CODE     ---       #100
      00FF6664H   LINE      CODE     ---       #101
      00FF6664H   LINE      CODE     ---       #103
      00FF6672H   LINE      CODE     ---       #104
      00FF6681H   LINE      CODE     ---       #105
      00FF6690H   LINE      CODE     ---       #106
      00FF669FH   LINE      CODE     ---       #107
      00FF66AEH   LINE      CODE     ---       #108
      00FF66BDH   LINE      CODE     ---       #109
      00FF66C0H   LINE      CODE     ---       #110
      00FF66C0H   LINE      CODE     ---       #112
      00FF66CEH   LINE      CODE     ---       #113
      00FF66DDH   LINE      CODE     ---       #114
      00FF66ECH   LINE      CODE     ---       #115
      00FF66FBH   LINE      CODE     ---       #116
      00FF670AH   LINE      CODE     ---       #117
      00FF6719H   LINE      CODE     ---       #118
      00FF671CH   LINE      CODE     ---       #119
      00FF671CH   LINE      CODE     ---       #121
      00FF672AH   LINE      CODE     ---       #122
      00FF6739H   LINE      CODE     ---       #123
      00FF6748H   LINE      CODE     ---       #124
      00FF6757H   LINE      CODE     ---       #125
      00FF6766H   LINE      CODE     ---       #126
      00FF6775H   LINE      CODE     ---       #127
      00FF6778H   LINE      CODE     ---       #128
      00FF6778H   LINE      CODE     ---       #130
      00FF6786H   LINE      CODE     ---       #131
      00FF6795H   LINE      CODE     ---       #132
      00FF67A4H   LINE      CODE     ---       #133
      00FF67B3H   LINE      CODE     ---       #134
      00FF67C2H   LINE      CODE     ---       #135
      00FF67D1H   LINE      CODE     ---       #136
      00FF67D4H   LINE      CODE     ---       #137
      00FF67D4H   LINE      CODE     ---       #139
      00FF67E2H   LINE      CODE     ---       #140
      00FF67F1H   LINE      CODE     ---       #141
      00FF6800H   LINE      CODE     ---       #142
      00FF680FH   LINE      CODE     ---       #143
      00FF681EH   LINE      CODE     ---       #144
      00FF682DH   LINE      CODE     ---       #145
      00FF6830H   LINE      CODE     ---       #146
      00FF6830H   LINE      CODE     ---       #147
      00FF6830H   LINE      CODE     ---       #148
      ---         BLOCKEND  ---      ---       LVL=0

      00FF6AE4H   BLOCK     CODE     ---       LVL=0
      0000090AH   SYMBOL    EDATA    INT       flag
      0000090CH   SYMBOL    EDATA    INT       i
      0000090EH   SYMBOL    EDATA    INT       Order
      00000910H   SYMBOL    EDATA    INT       k
      00000912H   SYMBOL    EDATA    ---       menu_order
      00FF6AE4H   LINE      CODE     ---       #158
      00FF6AE4H   LINE      CODE     ---       #159
      00FF6AE4H   LINE      CODE     ---       #160
      00FF6AFEH   LINE      CODE     ---       #161
      00FF6B0FH   LINE      CODE     ---       #163
      00FF6B1EH   LINE      CODE     ---       #164
      00FF6B2EH   LINE      CODE     ---       #165
L251 LINKER/LOCATER V4.66.93.0                                                        04/15/2024  09:56:15  PAGE 116


      00FF6B3EH   LINE      CODE     ---       #166
      00FF6B4EH   LINE      CODE     ---       #168
      00FF6B4EH   LINE      CODE     ---       #170
      00FF6B57H   LINE      CODE     ---       #172
      00FF6B5EH   LINE      CODE     ---       #173
      00FF6B67H   LINE      CODE     ---       #174
      00FF6B6EH   LINE      CODE     ---       #175
      00FF6B7CH   LINE      CODE     ---       #176
      00FF6B90H   LINE      CODE     ---       #177
      00FF6B90H   LINE      CODE     ---       #178
      00FF6B99H   LINE      CODE     ---       #180
      00FF6BA0H   LINE      CODE     ---       #181
      00FF6BA9H   LINE      CODE     ---       #182
      00FF6BB0H   LINE      CODE     ---       #183
      00FF6BBEH   LINE      CODE     ---       #184
      00FF6BD0H   LINE      CODE     ---       #185
      00FF6BD0H   LINE      CODE     ---       #186
      00FF6BDCH   LINE      CODE     ---       #188
      00FF6BE3H   LINE      CODE     ---       #189
      00FF6BECH   LINE      CODE     ---       #190
      00FF6BF3H   LINE      CODE     ---       #191
      00FF6C01H   LINE      CODE     ---       #192
      00FF6C0DH   LINE      CODE     ---       #193
      00FF6C15H   LINE      CODE     ---       #195
      00FF6C33H   LINE      CODE     ---       #196
      00FF6C4DH   LINE      CODE     ---       #197
      00FF6C51H   LINE      CODE     ---       #198
      00FF6C56H   LINE      CODE     ---       #199
      00FF6C56H   LINE      CODE     ---       #200
      00FF6C69H   LINE      CODE     ---       #201
      00FF6C69H   LINE      CODE     ---       #202
      00FF6C72H   LINE      CODE     ---       #204
      00FF6C79H   LINE      CODE     ---       #205
      00FF6C82H   LINE      CODE     ---       #206
      00FF6C89H   LINE      CODE     ---       #207
      00FF6C8DH   LINE      CODE     ---       #208
      00FF6C91H   LINE      CODE     ---       #209
      00FF6C91H   LINE      CODE     ---       #211
      00FF6C99H   LINE      CODE     ---       #213
      00FF6CABH   LINE      CODE     ---       #214
      00FF6CBFH   LINE      CODE     ---       #216
      00FF6CD1H   LINE      CODE     ---       #219
      00FF6CEBH   LINE      CODE     ---       #220
      00FF6D05H   LINE      CODE     ---       #221
      00FF6D08H   LINE      CODE     ---       #222
      ---         BLOCKEND  ---      ---       LVL=0

      00FF58FCH   BLOCK     CODE     ---       LVL=0
      0000091AH   SYMBOL    EDATA    INT       flag
      0000091CH   SYMBOL    EDATA    INT       Val_add_lose
      0000091EH   SYMBOL    EDATA    INT       i
      00000920H   SYMBOL    EDATA    INT       count
      00000922H   SYMBOL    EDATA    INT       long_press_delay
      00000924H   SYMBOL    EDATA    INT       pree_delay
      00000926H   SYMBOL    EDATA    FLOAT     x
      00FF58FCH   LINE      CODE     ---       #230
      00FF58FCH   LINE      CODE     ---       #231
      00FF58FCH   LINE      CODE     ---       #232
      00FF5916H   LINE      CODE     ---       #233
      00FF591CH   LINE      CODE     ---       #234
      00FF5922H   LINE      CODE     ---       #235
      00FF592EH   LINE      CODE     ---       #237
      00FF593DH   LINE      CODE     ---       #238
      00FF5952H   LINE      CODE     ---       #239
      00FF5962H   LINE      CODE     ---       #240
L251 LINKER/LOCATER V4.66.93.0                                                        04/15/2024  09:56:15  PAGE 117


      00FF5979H   LINE      CODE     ---       #241
      00FF5989H   LINE      CODE     ---       #242
      00FF5999H   LINE      CODE     ---       #244
      00FF5999H   LINE      CODE     ---       #246
      00FF59A2H   LINE      CODE     ---       #248
      00FF59A9H   LINE      CODE     ---       #249
      00FF59B2H   LINE      CODE     ---       #250
      00FF59B9H   LINE      CODE     ---       #251
      00FF59C7H   LINE      CODE     ---       #252
      00FF59DBH   LINE      CODE     ---       #253
      00FF59DBH   LINE      CODE     ---       #254
      00FF59E4H   LINE      CODE     ---       #256
      00FF59EBH   LINE      CODE     ---       #257
      00FF59F4H   LINE      CODE     ---       #258
      00FF59FBH   LINE      CODE     ---       #259
      00FF5A09H   LINE      CODE     ---       #260
      00FF5A1BH   LINE      CODE     ---       #261
      00FF5A1BH   LINE      CODE     ---       #262
      00FF5A27H   LINE      CODE     ---       #264
      00FF5A2EH   LINE      CODE     ---       #265
      00FF5A34H   LINE      CODE     ---       #267
      00FF5A37H   LINE      CODE     ---       #269
      00FF5A3EH   LINE      CODE     ---       #270
      00FF5A4CH   LINE      CODE     ---       #272
      00FF5A61H   LINE      CODE     ---       #274
      00FF5A6DH   LINE      CODE     ---       #276
      00FF5A82H   LINE      CODE     ---       #277
      00FF5AA1H   LINE      CODE     ---       #278
      00FF5AA1H   LINE      CODE     ---       #279
      00FF5AADH   LINE      CODE     ---       #281
      00FF5ACCH   LINE      CODE     ---       #282
      00FF5AE3H   LINE      CODE     ---       #283
      00FF5AE3H   LINE      CODE     ---       #284
      00FF5AF1H   LINE      CODE     ---       #285
      00FF5B05H   LINE      CODE     ---       #286
      00FF5B0BH   LINE      CODE     ---       #287
      00FF5B17H   LINE      CODE     ---       #289
      00FF5B1EH   LINE      CODE     ---       #290
      00FF5B2DH   LINE      CODE     ---       #292
      00FF5B33H   LINE      CODE     ---       #293
      00FF5B3FH   LINE      CODE     ---       #295
      00FF5B54H   LINE      CODE     ---       #296
      00FF5B73H   LINE      CODE     ---       #297
      00FF5B73H   LINE      CODE     ---       #298
      00FF5B7FH   LINE      CODE     ---       #300
      00FF5B9EH   LINE      CODE     ---       #301
      00FF5BB5H   LINE      CODE     ---       #302
      00FF5BB5H   LINE      CODE     ---       #303
      00FF5BC1H   LINE      CODE     ---       #305
      00FF5BCBH   LINE      CODE     ---       #307
      00FF5BDBH   LINE      CODE     ---       #308
      00FF5BEBH   LINE      CODE     ---       #309
      00FF5BF3H   LINE      CODE     ---       #310
      00FF5BFBH   LINE      CODE     ---       #311
      00FF5BFDH   LINE      CODE     ---       #312
      00FF5C09H   LINE      CODE     ---       #314
      00FF5C19H   LINE      CODE     ---       #315
      00FF5C29H   LINE      CODE     ---       #316
      00FF5C31H   LINE      CODE     ---       #317
      00FF5C37H   LINE      CODE     ---       #318
      00FF5C37H   LINE      CODE     ---       #320
      00FF5C43H   LINE      CODE     ---       #322
      00FF5C66H   LINE      CODE     ---       #323
      00FF5C7DH   LINE      CODE     ---       #324
      00FF5C7DH   LINE      CODE     ---       #326
L251 LINKER/LOCATER V4.66.93.0                                                        04/15/2024  09:56:15  PAGE 118


      00FF5C7DH   LINE      CODE     ---       #327
      00FF5C86H   LINE      CODE     ---       #329
      00FF5C8DH   LINE      CODE     ---       #330
      00FF5C96H   LINE      CODE     ---       #331
      00FF5C9DH   LINE      CODE     ---       #332
      00FF5CA1H   LINE      CODE     ---       #333
      00FF5CA5H   LINE      CODE     ---       #334
      00FF5CA5H   LINE      CODE     ---       #335
      00FF5CADH   LINE      CODE     ---       #337
      00FF5CBFH   LINE      CODE     ---       #338
      00FF5CD3H   LINE      CODE     ---       #340
      00FF5CE5H   LINE      CODE     ---       #341
      00FF5CFFH   LINE      CODE     ---       #342
      00FF5D02H   LINE      CODE     ---       #343
      ---         BLOCKEND  ---      ---       LVL=0

      00FF3842H   BLOCK     CODE     ---       LVL=0
      000007F0H   SYMBOL    EDATA    INT       flag
      000007F2H   SYMBOL    EDATA    INT       i
      000007F4H   SYMBOL    EDATA    INT       Val_add_lose
      000007F6H   SYMBOL    EDATA    INT       count
      000007F8H   SYMBOL    EDATA    INT       flag1
      000007FAH   SYMBOL    EDATA    FLOAT     x
      000007FEH   SYMBOL    EDATA    FLOAT     x1
      00000802H   SYMBOL    EDATA    WORD      long_press_delay
      00000804H   SYMBOL    EDATA    WORD      pree_delay
      00000806H   SYMBOL    EDATA    INT       page
      00000808H   SYMBOL    EDATA    INT       page1
      00FF3842H   LINE      CODE     ---       #356
      00FF3842H   LINE      CODE     ---       #357
      00FF3842H   LINE      CODE     ---       #358
      00FF3868H   LINE      CODE     ---       #359
      00FF387EH   LINE      CODE     ---       #360
      00FF388AH   LINE      CODE     ---       #361
      00FF3892H   LINE      CODE     ---       #362
      00FF389AH   LINE      CODE     ---       #363
      00FF38A6H   LINE      CODE     ---       #365
      00FF38AAH   LINE      CODE     ---       #366
      00FF38AAH   LINE      CODE     ---       #367
      00FF38AAH   LINE      CODE     ---       #370
      00FF38B3H   LINE      CODE     ---       #372
      00FF38BAH   LINE      CODE     ---       #373
      00FF38C3H   LINE      CODE     ---       #374
      00FF38CAH   LINE      CODE     ---       #375
      00FF38D8H   LINE      CODE     ---       #377
      00FF38E4H   LINE      CODE     ---       #378
      00FF38ECH   LINE      CODE     ---       #379
      00FF3906H   LINE      CODE     ---       #380
      00FF3906H   LINE      CODE     ---       #382
      00FF390FH   LINE      CODE     ---       #384
      00FF3916H   LINE      CODE     ---       #385
      00FF391FH   LINE      CODE     ---       #386
      00FF3926H   LINE      CODE     ---       #387
      00FF3934H   LINE      CODE     ---       #389
      00FF394AH   LINE      CODE     ---       #390
      00FF3952H   LINE      CODE     ---       #391
      00FF395AH   LINE      CODE     ---       #392
      00FF395CH   LINE      CODE     ---       #394
      00FF3972H   LINE      CODE     ---       #395
      00FF397AH   LINE      CODE     ---       #396
      00FF3982H   LINE      CODE     ---       #397
      00FF3982H   LINE      CODE     ---       #400
      00FF3991H   LINE      CODE     ---       #402
      00FF39A0H   LINE      CODE     ---       #404
      00FF39A4H   LINE      CODE     ---       #405
L251 LINKER/LOCATER V4.66.93.0                                                        04/15/2024  09:56:15  PAGE 119


      00FF39ACH   LINE      CODE     ---       #406
      00FF39BBH   LINE      CODE     ---       #407
      00FF39D0H   LINE      CODE     ---       #408
      00FF39E0H   LINE      CODE     ---       #409
      00FF39F7H   LINE      CODE     ---       #410
      00FF3A07H   LINE      CODE     ---       #411
      00FF3A1EH   LINE      CODE     ---       #412
      00FF3A2EH   LINE      CODE     ---       #413
      00FF3A45H   LINE      CODE     ---       #414
      00FF3A47H   LINE      CODE     ---       #416
      00FF3A53H   LINE      CODE     ---       #418
      00FF3A5FH   LINE      CODE     ---       #420
      00FF3A63H   LINE      CODE     ---       #421
      00FF3A6BH   LINE      CODE     ---       #423
      00FF3A7BH   LINE      CODE     ---       #424
      00FF3A8BH   LINE      CODE     ---       #425
      00FF3A8BH   LINE      CODE     ---       #428
      00FF3AA6H   LINE      CODE     ---       #430
      00FF3AADH   LINE      CODE     ---       #431
      00FF3AB3H   LINE      CODE     ---       #432
      00FF3AB6H   LINE      CODE     ---       #434
      00FF3ABDH   LINE      CODE     ---       #435
      00FF3ACBH   LINE      CODE     ---       #436
      00FF3AE0H   LINE      CODE     ---       #438
      00FF3AECH   LINE      CODE     ---       #439
      00FF3B01H   LINE      CODE     ---       #440
      00FF3B20H   LINE      CODE     ---       #441
      00FF3B2FH   LINE      CODE     ---       #442
      00FF3B46H   LINE      CODE     ---       #443
      00FF3B65H   LINE      CODE     ---       #444
      00FF3B74H   LINE      CODE     ---       #445
      00FF3B93H   LINE      CODE     ---       #446
      00FF3BAAH   LINE      CODE     ---       #447
      00FF3BB8H   LINE      CODE     ---       #448
      00FF3BD7H   LINE      CODE     ---       #449
      00FF3BEEH   LINE      CODE     ---       #450
      00FF3BEEH   LINE      CODE     ---       #451
      00FF3BFCH   LINE      CODE     ---       #452
      00FF3C10H   LINE      CODE     ---       #453
      00FF3C16H   LINE      CODE     ---       #454
      00FF3C22H   LINE      CODE     ---       #456
      00FF3C29H   LINE      CODE     ---       #457
      00FF3C38H   LINE      CODE     ---       #459
      00FF3C3EH   LINE      CODE     ---       #460
      00FF3C5DH   LINE      CODE     ---       #462
      00FF3C5DH   LINE      CODE     ---       #464
      00FF3C72H   LINE      CODE     ---       #465
      00FF3C91H   LINE      CODE     ---       #466
      00FF3C94H   LINE      CODE     ---       #467
      00FF3C94H   LINE      CODE     ---       #469
      00FF3CABH   LINE      CODE     ---       #470
      00FF3CCAH   LINE      CODE     ---       #471
      00FF3CCCH   LINE      CODE     ---       #472
      00FF3CCCH   LINE      CODE     ---       #474
      00FF3CEBH   LINE      CODE     ---       #475
      00FF3D02H   LINE      CODE     ---       #476
      00FF3D04H   LINE      CODE     ---       #477
      00FF3D04H   LINE      CODE     ---       #479
      00FF3D23H   LINE      CODE     ---       #480
      00FF3D3AH   LINE      CODE     ---       #481
      00FF3D3AH   LINE      CODE     ---       #482
      00FF3D3AH   LINE      CODE     ---       #484
      00FF3D3AH   LINE      CODE     ---       #486
      00FF3D55H   LINE      CODE     ---       #488
      00FF3D5CH   LINE      CODE     ---       #489
L251 LINKER/LOCATER V4.66.93.0                                                        04/15/2024  09:56:15  PAGE 120


      00FF3D65H   LINE      CODE     ---       #490
      00FF3D6CH   LINE      CODE     ---       #491
      00FF3D7BH   LINE      CODE     ---       #493
      00FF3D89H   LINE      CODE     ---       #494
      00FF3D9BH   LINE      CODE     ---       #495
      00FF3DA5H   LINE      CODE     ---       #497
      00FF3DB4H   LINE      CODE     ---       #498
      00FF3DC3H   LINE      CODE     ---       #499
      00FF3DCBH   LINE      CODE     ---       #500
      00FF3DD9H   LINE      CODE     ---       #501
      00FF3DDBH   LINE      CODE     ---       #502
      00FF3DE7H   LINE      CODE     ---       #504
      00FF3DF6H   LINE      CODE     ---       #505
      00FF3E05H   LINE      CODE     ---       #506
      00FF3E0DH   LINE      CODE     ---       #507
      00FF3E0DH   LINE      CODE     ---       #510
      00FF3E19H   LINE      CODE     ---       #512
      00FF3E3AH   LINE      CODE     ---       #513
      00FF3E51H   LINE      CODE     ---       #514
      00FF3E51H   LINE      CODE     ---       #515
      00FF3E5DH   LINE      CODE     ---       #517
      00FF3E80H   LINE      CODE     ---       #518
      00FF3E97H   LINE      CODE     ---       #519
      00FF3E97H   LINE      CODE     ---       #521
      00FF3EA0H   LINE      CODE     ---       #523
      00FF3EA7H   LINE      CODE     ---       #524
      00FF3EB0H   LINE      CODE     ---       #525
      00FF3EB7H   LINE      CODE     ---       #526
      00FF3EBBH   LINE      CODE     ---       #527
      00FF3EBFH   LINE      CODE     ---       #528
      00FF3EBFH   LINE      CODE     ---       #530
      00FF3EC7H   LINE      CODE     ---       #532
      00FF3ED9H   LINE      CODE     ---       #533
      00FF3EEDH   LINE      CODE     ---       #535
      00FF3EFFH   LINE      CODE     ---       #536
      00FF3F19H   LINE      CODE     ---       #537
      00FF3F1CH   LINE      CODE     ---       #538
      ---         BLOCKEND  ---      ---       LVL=0

      00FF7CFDH   BLOCK     CODE     ---       LVL=0
      00FF7CFDH   LINE      CODE     ---       #547
      00FF7CFDH   LINE      CODE     ---       #549
      00FF7D01H   LINE      CODE     ---       #550
      00FF7D0FH   LINE      CODE     ---       #551
      00FF7D1AH   LINE      CODE     ---       #552
      00FF7D1AH   LINE      CODE     ---       #554
      00FF7D23H   LINE      CODE     ---       #556
      00FF7D2AH   LINE      CODE     ---       #557
      00FF7D33H   LINE      CODE     ---       #558
      00FF7D3AH   LINE      CODE     ---       #559
      00FF7D48H   LINE      CODE     ---       #560
      00FF7D53H   LINE      CODE     ---       #561
      00FF7D53H   LINE      CODE     ---       #562
      00FF7D5CH   LINE      CODE     ---       #564
      00FF7D63H   LINE      CODE     ---       #565
      00FF7D6CH   LINE      CODE     ---       #566
      00FF7D73H   LINE      CODE     ---       #567
      00FF7D81H   LINE      CODE     ---       #568
      00FF7D8CH   LINE      CODE     ---       #569
      00FF7D8CH   LINE      CODE     ---       #570
      00FF7D95H   LINE      CODE     ---       #572
      00FF7D9CH   LINE      CODE     ---       #573
      00FF7DA5H   LINE      CODE     ---       #574
      00FF7DACH   LINE      CODE     ---       #575
      00FF7DB0H   LINE      CODE     ---       #576
L251 LINKER/LOCATER V4.66.93.0                                                        04/15/2024  09:56:15  PAGE 121


      00FF7DB2H   LINE      CODE     ---       #577
      00FF7DB2H   LINE      CODE     ---       #579
      ---         BLOCKEND  ---      ---       LVL=0

      00FF8AA6H   BLOCK     CODE     ---       LVL=0
      00FF8AA6H   LINE      CODE     ---       #588
      00FF8AA6H   LINE      CODE     ---       #590
      00FF8AA6H   LINE      CODE     ---       #592
      00FF8AB5H   LINE      CODE     ---       #593
      00FF8AB8H   LINE      CODE     ---       #594
      00FF8ABBH   LINE      CODE     ---       #595
      00FF8AC4H   LINE      CODE     ---       #597
      00FF8ACBH   LINE      CODE     ---       #598
      00FF8AD4H   LINE      CODE     ---       #599
      00FF8ADBH   LINE      CODE     ---       #600
      00FF8ADFH   LINE      CODE     ---       #601
      00FF8AE1H   LINE      CODE     ---       #602
      00FF8AE1H   LINE      CODE     ---       #604
      ---         BLOCKEND  ---      ---       LVL=0

      ---         MODULE    ---      ---       SEEKFREE_CONFIG
      00FF00A6H   PUBLIC    CODE     ---       dl1b_default_configuration
      00FF012DH   PUBLIC    CODE     ---       imu660ra_config_file

      ---         MODULE    ---      ---       PRINTF
      00000761H   PUBLIC    EDATA    ---       ?PRINTF?BYTE
      00FF3F1DH   PUBLIC    CODE     NEAR LAB  PRINTF

      ---         MODULE    ---      ---       ?C?PRNFMT
      00FF3F76H   PUBLIC    CODE     ---       ?C?PRNFMT

      ---         MODULE    ---      ---       ?C?FPCONVERT
      00FF4393H   PUBLIC    CODE     ---       ?C?FPCONVERT
      00FF444BH   PUBLIC    CODE     ---       ?C?FPROUND

      ---         MODULE    ---      ---       ?C?FTNPWR
      00FF44BEH   PUBLIC    CODE     ---       ?C?FTNPWR

      ---         MODULE    ---      ---       ?C_START
      00FF0000H   PUBLIC    CODE     ---       ?C?STARTUP
      00FF0000H   PUBLIC    CODE     ---       ?C_STARTUP

      ---         MODULE    ---      ---       ?C?INITEDATA
      00FF8A7AH   PUBLIC    CODE     ---       ?C?INITEDATA

      ---         MODULE    ---      ---       ?C?SIDIV
      00FF44F5H   PUBLIC    CODE     ---       ?C?SIDIV

      ---         MODULE    ---      ---       ?C?LMUL
      00FF4527H   PUBLIC    CODE     ---       ?C?LMUL

      ---         MODULE    ---      ---       ?C?LIMUL
      00FF4538H   PUBLIC    CODE     ---       ?C?LIMUL

      ---         MODULE    ---      ---       ?C?ULDIV
      00FF4543H   PUBLIC    CODE     NEAR LAB  ?C?ULDIV
      00FF4541H   PUBLIC    CODE     NEAR LAB  ?C?ULIDIV

      ---         MODULE    ---      ---       ?C?SLDIV
      00FF4594H   PUBLIC    CODE     NEAR LAB  ?C?SLDIV

      ---         MODULE    ---      ---       ?C?BMOVENP
      00FF45CAH   PUBLIC    CODE     ---       ?C?BMOVENP
      00FF45C8H   PUBLIC    CODE     ---       ?C?BMOVENP8

L251 LINKER/LOCATER V4.66.93.0                                                        04/15/2024  09:56:15  PAGE 122


      ---         MODULE    ---      ---       ABS
      00FF8E69H   PUBLIC    CODE     ---       abs?_

      ---         MODULE    ---      ---       memcpy
      00FF8D19H   PUBLIC    CODE     ---       memcpy?_

      ---         MODULE    ---      ---       memset

      ---         MODULE    ---      ---       ?C?INITEDATA_END
      00FF9248H   PUBLIC    HCONST   WORD      ?C?INITEDATA_END



*** WARNING L25: DATA TYPES DIFFERENT
    SYMBOL:  Error_Speed
    MODULE:  .\Out_File\encoder.obj (encoder)
   DEFINED:  .\Out_File\TrackElement.obj (TrackElement)

Program Size: data=8.0 edata+hdata=4008 xdata=0 const=1535 code=36490
L251 RUN COMPLETE.  1 WARNING(S),  0 ERROR(S)
