L251 LINKER/LOCATER V4.66.93.0                                                          04/10/2024  19:22:09  PAGE 1


L251 LINKER/LOCATER V4.66.93.0, INVOKED BY:
E:\KEIL5C251\C251\BIN\L251.EXE .\Out_File\board.obj, .\Out_File\common.obj, ..\..\Libraries\libraries\STC32_FPMU_LARGE_V
>> 1.0.LIB (STC32F_FPMU), .\Out_File\zf_adc.obj, .\Out_File\zf_delay.obj, .\Out_File\zf_eeprom.obj, .\Out_File\zf_exti.o
>> bj, .\Out_File\zf_gpio.obj, .\Out_File\zf_iic.obj, .\Out_File\zf_nvic.obj, .\Out_File\zf_pwm.obj, .\Out_File\zf_spi.o
>> bj, .\Out_File\zf_tim.obj, .\Out_File\zf_uart.obj, .\Out_File\zf_fifo.obj, .\Out_File\SEEKFREE_18TFT.obj, .\Out_File\
>> SEEKFREE_ABSOLUTE_ENCODER.obj, .\Out_File\SEEKFREE_BLUETOOTH_CH9141.obj, ..\..\Libraries\seekfree_peripheral\SEEKFREE
>> _CONFIG.LIB, .\Out_File\SEEKFREE_DL1A.obj, .\Out_File\SEEKFREE_FONT.obj, .\Out_File\SEEKFREE_ICM20602.obj, .\Out_File
>> \SEEKFREE_IMU660RA.obj, .\Out_File\SEEKFREE_IMU963RA.obj, .\Out_File\SEEKFREE_IPS114_SPI.obj, .\Out_File\SEEKFREE_MPU
>> 6050.obj, .\Out_File\SEEKFREE_OLED.obj, .\Out_File\SEEKFREE_PRINTF.obj, .\Out_File\SEEKFREE_TSL1401.obj, .\Out_File\S
>> EEKFREE_VIRSCO.obj, .\Out_File\SEEKFREE_WIRELESS.obj, .\Out_File\isr.obj, .\Out_File\main.obj, .\Out_File\Inductance.
>> obj, .\Out_File\Motor.obj, .\Out_File\encoder.obj, .\Out_File\direction.obj, .\Out_File\vofa.obj, .\Out_File\mpu6050.
>> obj, .\Out_File\TrackElement.obj, .\Out_File\menu.obj TO .\Out_File\SEEKFREE PRINT (.\Out_File\SEEKFREE.map) CASE DIS
>> ABLEWARNING (16, 57) REMOVEUNUSED CLASSES (EDATA (0X0-0X1FFF), HDATA (0X0-0X1FFF, 0XFE0000-0XFFFFFF))


CPU MODE:     251 SOURCE MODE
INTR FRAME:   4 BYTES SAVED ON INTERRUPT
MEMORY MODEL: XSMALL WITH FLOATING POINT ARITHMETIC


INPUT MODULES INCLUDED:
  .\Out_File\board.obj (board)
         COMMENT TYPE 0: C251 V5.60.0
  .\Out_File\common.obj (common)
         COMMENT TYPE 0: C251 V5.60.0
  ..\..\Libraries\libraries\STC32_FPMU_LARGE_V1.0.LIB (STC32F_FPMU)
         COMMENT TYPE 0: A251 V4.69.13.0
  .\Out_File\zf_adc.obj (zf_adc)
         COMMENT TYPE 0: C251 V5.60.0
  .\Out_File\zf_delay.obj (zf_delay)
         COMMENT TYPE 0: C251 V5.60.0
  .\Out_File\zf_eeprom.obj (zf_eeprom)
         COMMENT TYPE 0: C251 V5.60.0
  .\Out_File\zf_exti.obj (zf_exti)
         COMMENT TYPE 0: C251 V5.60.0
  .\Out_File\zf_gpio.obj (zf_gpio)
         COMMENT TYPE 0: C251 V5.60.0
  .\Out_File\zf_iic.obj (zf_iic)
         COMMENT TYPE 0: C251 V5.60.0
  .\Out_File\zf_nvic.obj (zf_nvic)
         COMMENT TYPE 0: C251 V5.60.0
  .\Out_File\zf_pwm.obj (zf_pwm)
         COMMENT TYPE 0: C251 V5.60.0
  .\Out_File\zf_spi.obj (zf_spi)
         COMMENT TYPE 0: C251 V5.60.0
  .\Out_File\zf_tim.obj (zf_tim)
         COMMENT TYPE 0: C251 V5.60.0
  .\Out_File\zf_uart.obj (zf_uart)
         COMMENT TYPE 0: C251 V5.60.0
  .\Out_File\zf_fifo.obj (zf_fifo)
         COMMENT TYPE 0: C251 V5.60.0
  .\Out_File\SEEKFREE_18TFT.obj (SEEKFREE_18TFT)
         COMMENT TYPE 0: C251 V5.60.0
  .\Out_File\SEEKFREE_ABSOLUTE_ENCODER.obj (SEEKFREE_ABSOLUTE_ENCODER)
         COMMENT TYPE 0: C251 V5.60.0
  .\Out_File\SEEKFREE_BLUETOOTH_CH9141.obj (SEEKFREE_BLUETOOTH_CH9141)
         COMMENT TYPE 0: C251 V5.60.0
  .\Out_File\SEEKFREE_DL1A.obj (SEEKFREE_DL1A)
         COMMENT TYPE 0: C251 V5.60.0
  .\Out_File\SEEKFREE_FONT.obj (SEEKFREE_FONT)
         COMMENT TYPE 0: C251 V5.60.0
  .\Out_File\SEEKFREE_ICM20602.obj (SEEKFREE_ICM20602)
         COMMENT TYPE 0: C251 V5.60.0
  .\Out_File\SEEKFREE_IMU660RA.obj (SEEKFREE_IMU660RA)
         COMMENT TYPE 0: C251 V5.60.0
  .\Out_File\SEEKFREE_IMU963RA.obj (SEEKFREE_IMU963RA)
L251 LINKER/LOCATER V4.66.93.0                                                        04/10/2024  19:22:09  PAGE 2


         COMMENT TYPE 0: C251 V5.60.0
  .\Out_File\SEEKFREE_IPS114_SPI.obj (SEEKFREE_IPS114_SPI)
         COMMENT TYPE 0: C251 V5.60.0
  .\Out_File\SEEKFREE_MPU6050.obj (SEEKFREE_MPU6050)
         COMMENT TYPE 0: C251 V5.60.0
  .\Out_File\SEEKFREE_OLED.obj (SEEKFREE_OLED)
         COMMENT TYPE 0: C251 V5.60.0
  .\Out_File\SEEKFREE_PRINTF.obj (SEEKFREE_PRINTF)
         COMMENT TYPE 0: C251 V5.60.0
  .\Out_File\SEEKFREE_TSL1401.obj (SEEKFREE_TSL1401)
         COMMENT TYPE 0: C251 V5.60.0
  .\Out_File\SEEKFREE_VIRSCO.obj (SEEKFREE_VIRSCO)
         COMMENT TYPE 0: C251 V5.60.0
  .\Out_File\SEEKFREE_WIRELESS.obj (SEEKFREE_WIRELESS)
         COMMENT TYPE 0: C251 V5.60.0
  .\Out_File\isr.obj (isr)
         COMMENT TYPE 0: C251 V5.60.0
  .\Out_File\main.obj (main)
         COMMENT TYPE 0: C251 V5.60.0
  .\Out_File\Inductance.obj (Inductance)
         COMMENT TYPE 0: C251 V5.60.0
  .\Out_File\Motor.obj (Motor)
         COMMENT TYPE 0: C251 V5.60.0
  .\Out_File\encoder.obj (encoder)
         COMMENT TYPE 0: C251 V5.60.0
  .\Out_File\direction.obj (direction)
         COMMENT TYPE 0: C251 V5.60.0
  .\Out_File\vofa.obj (vofa)
         COMMENT TYPE 0: C251 V5.60.0
  .\Out_File\mpu6050.obj (mpu6050)
         COMMENT TYPE 0: C251 V5.60.0
  .\Out_File\TrackElement.obj (TrackElement)
         COMMENT TYPE 0: C251 V5.60.0
  .\Out_File\menu.obj (menu)
         COMMENT TYPE 0: C251 V5.60.0
  ..\..\Libraries\seekfree_peripheral\SEEKFREE_CONFIG.LIB (SEEKFREE_CONFIG)
         COMMENT TYPE 0: C251 V5.60.0
  E:\KEIL5C251\C251\LIB\C2SFPXS.LIB (PRINTF)
         COMMENT TYPE 0: A251 V4.69.6.0
  E:\KEIL5C251\C251\LIB\C2SFPXS.LIB (?C?PRNFMT)
         COMMENT TYPE 0: A251 V4.69.6.0
  E:\KEIL5C251\C251\LIB\C2SFPXS.LIB (?C?FPCONVERT)
         COMMENT TYPE 0: A251 V4.69.6.0
  E:\KEIL5C251\C251\LIB\C2SFPXS.LIB (?C?FTNPWR)
         COMMENT TYPE 0: A251 V4.69.6.0
  E:\KEIL5C251\C251\LIB\C2SXS.LIB (?C_START)
         COMMENT TYPE 0: A251 V4.69.6.0
  E:\KEIL5C251\C251\LIB\C2SXS.LIB (?C?INITEDATA)
         COMMENT TYPE 0: A251 V4.69.6.0
  E:\KEIL5C251\C251\LIB\C2SXS.LIB (?C?SIDIV)
         COMMENT TYPE 0: A251 V4.69.6.0
  E:\KEIL5C251\C251\LIB\C2SXS.LIB (?C?LMUL)
         COMMENT TYPE 0: A251 V4.69.6.0
  E:\KEIL5C251\C251\LIB\C2SXS.LIB (?C?LIMUL)
         COMMENT TYPE 0: A251 V4.69.6.0
  E:\KEIL5C251\C251\LIB\C2SXS.LIB (?C?ULDIV)
         COMMENT TYPE 0: A251 V4.69.6.0
  E:\KEIL5C251\C251\LIB\C2SXS.LIB (?C?SLDIV)
         COMMENT TYPE 0: A251 V4.69.6.0
  E:\KEIL5C251\C251\LIB\C2SXS.LIB (?C?BMOVENP)
         COMMENT TYPE 0: A251 V4.69.6.0
  E:\KEIL5C251\C251\LIB\C2SXS.LIB (ABS)
         COMMENT TYPE 0: C251 V5.58.7
  E:\KEIL5C251\C251\LIB\C2SXS.LIB (memcpy)
         COMMENT TYPE 0: C251 V5.58.7
L251 LINKER/LOCATER V4.66.93.0                                                        04/10/2024  19:22:09  PAGE 3


  E:\KEIL5C251\C251\LIB\C2SXS.LIB (memset)
         COMMENT TYPE 0: C251 V5.58.7
  E:\KEIL5C251\C251\LIB\C2SXS.LIB (?C?INITEDATA_END)
         COMMENT TYPE 0: A251 V4.69.6.0


ACTIVE MEMORY CLASSES OF MODULE:  .\Out_File\SEEKFREE (board)

BASE        START       END         USED      MEMORY CLASS
==========================================================
000000H     000000H     001FFFH     000F7FH   EDATA
000000H     000000H     001FFFH               HDATA
            FE0000H     FFFFFFH                 
FF0000H     FF0000H     FFFFFFH     008C26H   CODE
000000H     FF0000H     FFFFFFH     0005D1H   HCONST
FF0000H     FF0000H     FFFFFFH     000004H   CONST
000000H     000000H     00007FH     000008H   DATA


MEMORY MAP OF MODULE:  .\Out_File\SEEKFREE (board)


START     STOP      LENGTH    ALIGN  RELOC    MEMORY CLASS   SEGMENT NAME
=========================================================================
000000H   000007H   000008H   ---    AT..     DATA           "REG BANK 0"
000008H   00010FH   000108H   BYTE   UNIT     EDATA          ?ED?INDUCTANCE
000110H   000210H   000101H   BYTE   UNIT     EDATA          ?ED?SEEKFREE_TSL1401
000211H   000290H   000080H   BYTE   UNIT     EDATA          ?ED?VOFA
000291H   0002EFH   00005FH   BYTE   UNIT     EDATA          ?ED?ZF_SPRINTF?SEEKFREE_PRINTF
0002F0H   000344H   000055H   BYTE   UNIT     EDATA          ?ED?SEEKFREE_BLUETOOTH_CH9141
000345H   000399H   000055H   BYTE   UNIT     EDATA          ?ED?SEEKFREE_WIRELESS
00039AH   0003E7H   00004EH   BYTE   UNIT     EDATA          ?ED?TRACKELEMENT
0003E8H   00041FH   000038H   BYTE   UNIT     EDATA          ?ED?MOTOR
000420H   00044FH   000030H   BYTE   UNIT     EDATA          ?ED?LCD_SHOWFLOAT_SIMSPI?SEEKFREE_18TFT
000450H   00047FH   000030H   BYTE   UNIT     EDATA          ?ED?LCD_SHOWFLOAT?SEEKFREE_18TFT
000480H   0004AFH   000030H   BYTE   UNIT     EDATA          ?ED?IPS114_SHOWFLOAT_SIMSPI?SEEKFREE_IPS114_SPI
0004B0H   0004DFH   000030H   BYTE   UNIT     EDATA          ?ED?IPS114_SHOWFLOAT?SEEKFREE_IPS114_SPI
0004E0H   00050FH   000030H   BYTE   UNIT     EDATA          ?ED?OLED_PRINTF_FLOAT_PX8?SEEKFREE_OLED
000510H   00053FH   000030H   BYTE   UNIT     EDATA          ?ED?OLED_PRINTF_FLOAT?SEEKFREE_OLED
000540H   00056FH   000030H   BYTE   UNIT     EDATA          ?ED?OLED_PRINTF_FLOAT_SPI?SEEKFREE_OLED
000570H   00059FH   000030H   BYTE   UNIT     EDATA          ?ED?MPU6050
0005A0H   0005CEH   00002FH   BYTE   UNIT     EDATA          ?ED?DL1A_SET_MEASUREMENT_TIMING_BUDGET?SEEKFREE_DL1A
0005CFH   0005FAH   00002CH   BYTE   UNIT     EDATA          ?ED?LCD_SHOWINT32_SIMSPI?SEEKFREE_18TFT
0005FBH   000626H   00002CH   BYTE   UNIT     EDATA          ?ED?LCD_SHOWINT32?SEEKFREE_18TFT
000627H   000652H   00002CH   BYTE   UNIT     EDATA          ?ED?IPS114_SHOWINT32_SIMSPI?SEEKFREE_IPS114_SPI
000653H   00067EH   00002CH   BYTE   UNIT     EDATA          ?ED?IPS114_SHOWINT32?SEEKFREE_IPS114_SPI
00067FH   0006AAH   00002CH   BYTE   UNIT     EDATA          ?ED?OLED_PRINTF_INT32?SEEKFREE_OLED
0006ABH   0006D6H   00002CH   BYTE   UNIT     EDATA          ?ED?OLED_PRINTF_INT32_SPI?SEEKFREE_OLED
0006D7H   000702H   00002CH   BYTE   UNIT     EDATA          ?ED?NORMALIZATION_TRACKING_ADC?INDUCTANCE
000703H   00072AH   000028H   BYTE   UNIT     EDATA          ?ED?DIRECTION
00072BH   000752H   000028H   BYTE   UNIT     EDATA          _EDATA_GROUP_
000753H   000771H   00001FH   BYTE   UNIT     EDATA          ?ED?DL1A_GET_MEASUREMENT_TIMING_BUDGET?SEEKFREE_DL1A
000772H   00078FH   00001EH   BYTE   UNIT     EDATA          ?ED?ANGLE_RING?DIRECTION
000790H   0007ADH   00001EH   BYTE   UNIT     EDATA          ?ED?GET_ANGLE?MPU6050
0007AEH   0007C7H   00001AH   BYTE   UNIT     EDATA          ?ED?ENCODER
0007C8H   0007E1H   00001AH   BYTE   UNIT     EDATA          ?ED?DIRCONTROL_2?DIRECTION
0007E2H   0007FBH   00001AH   BYTE   UNIT     EDATA          ?ED?SEND4DATATOVOFA?VOFA
0007FCH   000815H   00001AH   BYTE   UNIT     EDATA          ?ED?SECOND__NWHUAN_MENU?MENU
000816H   00082BH   000016H   BYTE   UNIT     EDATA          ?ED?WH_TURN_OUT?DIRECTION
00082CH   000841H   000016H   BYTE   UNIT     EDATA          ?ED?NH_TURN_OUT?DIRECTION
000842H   000856H   000015H   BYTE   UNIT     EDATA          ?ED?DL1A_INIT?SEEKFREE_DL1A
000857H   00086AH   000014H   BYTE   UNIT     EDATA          ?ED?PWM_INIT?ZF_PWM
00086BH   00087EH   000014H   BYTE   UNIT     EDATA          ?ED?PWM_FREQ?ZF_PWM
00087FH   000892H   000014H   BYTE   UNIT     EDATA          ?ED?NUMBER_CONVERSION_ASCII?SEEKFREE_PRINTF
000893H   0008A5H   000013H   BYTE   UNIT     EDATA          ?ED?FIFO_READ_BUFFER?ZF_FIFO
L251 LINKER/LOCATER V4.66.93.0                                                        04/10/2024  19:22:09  PAGE 4


0008A6H   0008B7H   000012H   BYTE   UNIT     EDATA          ?ED?SEEKFREE_IMU963RA
0008B8H   0008C9H   000012H   BYTE   UNIT     EDATA          ?ED?OLED_DIS_BMP?SEEKFREE_OLED
0008CAH   0008DBH   000012H   BYTE   UNIT     EDATA          ?ED?OLED_DIS_BMP_SPI?SEEKFREE_OLED
0008DCH   0008EBH   000010H   BYTE   UNIT     EDATA          ?ED?FIFO_WRITE_BUFFER?ZF_FIFO
0008ECH   0008FBH   000010H   BYTE   UNIT     EDATA          ?ED?SECOND_ELEMENT_MENU?MENU
0008FCH   00090BH   000010H   BYTE   UNIT     EDATA          ?ED?SECOND_MOTOR_MENU?MENU
00090CH   000919H   00000EH   BYTE   UNIT     EDATA          ?ED?PWM_DUTY?ZF_PWM
00091AH   000927H   00000EH   BYTE   UNIT     EDATA          ?ED?UART_INIT?ZF_UART
000928H   000935H   00000EH   BYTE   UNIT     EDATA          ?ED?OLED_PRINT_CHINESE?SEEKFREE_OLED
000936H   000943H   00000EH   BYTE   UNIT     EDATA          ?ED?OLED_PRINT_CHINESE_SPI?SEEKFREE_OLED
000944H   000951H   00000EH   BYTE   UNIT     EDATA          ?ED?DATA_CONVERSION?SEEKFREE_VIRSCO
000952H   00095EH   00000DH   BYTE   UNIT     EDATA          ?ED?ICM20602_SIMSPI_R_REG_BYTES?SEEKFREE_ICM20602
00095FH   00096BH   00000DH   BYTE   UNIT     EDATA          ?ED?PRINTF_REVERSE_ORDER?SEEKFREE_PRINTF
00096CH   000977H   00000CH   BYTE   UNIT     EDATA          ?ED?FIFO_INIT?ZF_FIFO
000978H   000983H   00000CH   BYTE   UNIT     EDATA          ?ED?LCD_SHOWINT16_SIMSPI?SEEKFREE_18TFT
000984H   00098FH   00000CH   BYTE   UNIT     EDATA          ?ED?LCD_SHOWUINT16_SIMSPI?SEEKFREE_18TFT
000990H   00099BH   00000CH   BYTE   UNIT     EDATA          ?ED?LCD_SHOWINT16?SEEKFREE_18TFT
00099CH   0009A7H   00000CH   BYTE   UNIT     EDATA          ?ED?LCD_SHOWUINT16?SEEKFREE_18TFT
0009A8H   0009B3H   00000CH   BYTE   UNIT     EDATA          ?ED?SHOWIMAGE?SEEKFREE_18TFT
0009B4H   0009BFH   00000CH   BYTE   UNIT     EDATA          ?ED?BLUETOOTH_CH9141_READ_BUFF?SEEKFREE_BLUETOOTH_CH9141
0009C0H   0009CBH   00000CH   BYTE   UNIT     EDATA          ?ED?DL1A_GET_SPAD_INFO?SEEKFREE_DL1A
0009CCH   0009D7H   00000CH   BYTE   UNIT     EDATA          ?ED?DL1A_GET_SEQUENCE_STEP_TIMEOUTS?SEEKFREE_DL1A
0009D8H   0009E3H   00000CH   BYTE   UNIT     EDATA          ?ED?SEEKFREE_ICM20602
0009E4H   0009EFH   00000CH   BYTE   UNIT     EDATA          ?ED?SEEKFREE_IMU660RA
0009F0H   0009FBH   00000CH   BYTE   UNIT     EDATA          ?ED?IPS114_SHOWINT16_SIMSPI?SEEKFREE_IPS114_SPI
0009FCH   000A07H   00000CH   BYTE   UNIT     EDATA          ?ED?IPS114_SHOWUINT16_SIMSPI?SEEKFREE_IPS114_SPI
000A08H   000A13H   00000CH   BYTE   UNIT     EDATA          ?ED?IPS114_SHOWINT16?SEEKFREE_IPS114_SPI
000A14H   000A1FH   00000CH   BYTE   UNIT     EDATA          ?ED?IPS114_SHOWUINT16?SEEKFREE_IPS114_SPI
000A20H   000A2BH   00000CH   BYTE   UNIT     EDATA          ?ED?SEEKFREE_MPU6050
000A2CH   000A37H   00000CH   BYTE   UNIT     EDATA          ?ED?WIRELESS_UART_READ_BUFF?SEEKFREE_WIRELESS
000A38H   000A43H   00000CH   BYTE   UNIT     EDATA          ?ED?MOTOR_SET_PID?MOTOR
000A44H   000A4FH   00000CH   BYTE   UNIT     EDATA          ?ED?SPEED_PID_OUT?MOTOR
000A50H   000A5BH   00000CH   BYTE   UNIT     EDATA          ?ED?LOWPASSFILTER?MPU6050
000A5CH   000A66H   00000BH   BYTE   UNIT     EDATA          ?ED?OLED_UINT16_PX8?SEEKFREE_OLED
000A67H   000A71H   00000BH   BYTE   UNIT     EDATA          ?ED?OLED_UINT16?SEEKFREE_OLED
000A72H   000A7CH   00000BH   BYTE   UNIT     EDATA          ?ED?OLED_INT16?SEEKFREE_OLED
000A7DH   000A87H   00000BH   BYTE   UNIT     EDATA          ?ED?OLED_UINT16_SPI?SEEKFREE_OLED
000A88H   000A92H   00000BH   BYTE   UNIT     EDATA          ?ED?OLED_INT16_SPI?SEEKFREE_OLED
000A93H   000A9CH   00000AH   BYTE   UNIT     EDATA          ?ED?IAP_READ_BYTES?ZF_EEPROM
000A9DH   000AA6H   00000AH   BYTE   UNIT     EDATA          ?ED?IAP_WRITE_BYTES?ZF_EEPROM
000AA7H   000AB0H   00000AH   BYTE   UNIT     EDATA          ?ED?LCD_SHOWSTR_SIMSPI?SEEKFREE_18TFT
000AB1H   000ABAH   00000AH   BYTE   UNIT     EDATA          ?ED?LCD_SHOWSTR?SEEKFREE_18TFT
000ABBH   000AC4H   00000AH   BYTE   UNIT     EDATA          ?ED?BLUETOOTH_CH9141_SEND_BUFF?SEEKFREE_BLUETOOTH_CH9141
000AC5H   000ACEH   00000AH   BYTE   UNIT     EDATA          ?ED?DL1A_SIMIIC_READ_REGS?SEEKFREE_DL1A
000ACFH   000AD8H   00000AH   BYTE   UNIT     EDATA          ?ED?DL1A_SIMIIC_READ_REGS_1?SEEKFREE_DL1A
000AD9H   000AE2H   00000AH   BYTE   UNIT     EDATA          ?ED?DL1A_ENCODE_TIMEOUT?SEEKFREE_DL1A
000AE3H   000AECH   00000AH   BYTE   UNIT     EDATA          ?ED?IPS114_SHOWSTR_SIMSPI?SEEKFREE_IPS114_SPI
000AEDH   000AF6H   00000AH   BYTE   UNIT     EDATA          ?ED?IPS114_SHOWSTR?SEEKFREE_IPS114_SPI
000AF7H   000B00H   00000AH   BYTE   UNIT     EDATA          ?ED?SEEKFREE_VIRSCO
000B01H   000B0AH   00000AH   BYTE   UNIT     EDATA          ?ED?MEDIANFILTER1?MPU6050
000B0BH   000B13H   000009H   BYTE   UNIT     EDATA          ?ED?LCD_SHOWINT8_SIMSPI?SEEKFREE_18TFT
000B14H   000B1CH   000009H   BYTE   UNIT     EDATA          ?ED?LCD_SHOWUINT8_SIMSPI?SEEKFREE_18TFT
000B1DH   000B25H   000009H   BYTE   UNIT     EDATA          ?ED?LCD_SHOWINT8?SEEKFREE_18TFT
000B26H   000B2EH   000009H   BYTE   UNIT     EDATA          ?ED?LCD_SHOWUINT8?SEEKFREE_18TFT
000B2FH   000B37H   000009H   BYTE   UNIT     EDATA          ?ED?DL1A_SIMIIC_WRITE_DATS?SEEKFREE_DL1A
000B38H   000B40H   000009H   BYTE   UNIT     EDATA          ?ED?DL1A_TIMEOUT_MICROSECONDS_TO_MCLKS?SEEKFREE_DL1A
000B41H   000B49H   000009H   BYTE   UNIT     EDATA          ?ED?DL1A_SET_SIGNAL_RATE_LIMIT?SEEKFREE_DL1A
000B4AH   000B52H   000009H   BYTE   UNIT     EDATA          ?ED?ICM20602_READ_REGISTERS?SEEKFREE_ICM20602
000B53H   000B5BH   000009H   BYTE   UNIT     EDATA          ?ED?IMU660RA_SIMSPI_W_REG_BYTES?SEEKFREE_IMU660RA
000B5CH   000B64H   000009H   BYTE   UNIT     EDATA          ?ED?IMU660RA_SIMSPI_R_REG_BYTES?SEEKFREE_IMU660RA
000B65H   000B6DH   000009H   BYTE   UNIT     EDATA          ?ED?IMU660RA_WRITE_REGISTERS?SEEKFREE_IMU660RA
000B6EH   000B76H   000009H   BYTE   UNIT     EDATA          ?ED?IMU660RA_READ_REGISTERS?SEEKFREE_IMU660RA
000B77H   000B7FH   000009H   BYTE   UNIT     EDATA          ?ED?IMU963RA_SIMSPI_R_REG_BYTES?SEEKFREE_IMU963RA
000B80H   000B88H   000009H   BYTE   UNIT     EDATA          ?ED?IMU963RA_READ_ACC_GYRO_REGISTERS?SEEKFREE_IMU963RA
000B89H   000B91H   000009H   BYTE   UNIT     EDATA          ?ED?IPS114_SHOWINT8_SIMSPI?SEEKFREE_IPS114_SPI
L251 LINKER/LOCATER V4.66.93.0                                                        04/10/2024  19:22:09  PAGE 5


000B92H   000B9AH   000009H   BYTE   UNIT     EDATA          ?ED?IPS114_SHOWUINT8_SIMSPI?SEEKFREE_IPS114_SPI
000B9BH   000BA3H   000009H   BYTE   UNIT     EDATA          ?ED?IPS114_SHOWINT8?SEEKFREE_IPS114_SPI
000BA4H   000BACH   000009H   BYTE   UNIT     EDATA          ?ED?IPS114_SHOWUINT8?SEEKFREE_IPS114_SPI
000BADH   000BB5H   000009H   BYTE   UNIT     EDATA          ?ED?OLED_P6X8STR?SEEKFREE_OLED
000BB6H   000BBEH   000009H   BYTE   UNIT     EDATA          ?ED?OLED_P8X16STR?SEEKFREE_OLED
000BBFH   000BC7H   000009H   BYTE   UNIT     EDATA          ?ED?OLED_P6X8STR_SPI?SEEKFREE_OLED
000BC8H   000BD0H   000009H   BYTE   UNIT     EDATA          ?ED?OLED_P8X16STR_SPI?SEEKFREE_OLED
000BD1H   000BD9H   000009H   BYTE   UNIT     EDATA          ?ED?CRC_CHECK?SEEKFREE_VIRSCO
000BDAH   000BE1H   000008H   BYTE   UNIT     EDATA          ?ED?SET_CLK?BOARD
000BE2H   000BE9H   000008H   BYTE   UNIT     EDATA          ?ED?UART_PUTBUFF?ZF_UART
000BEAH   000BF1H   000008H   BYTE   UNIT     EDATA          ?ED?FIFO_HEAD_OFFSET?ZF_FIFO
000BF2H   000BF9H   000008H   BYTE   UNIT     EDATA          ?ED?FIFO_END_OFFSET?ZF_FIFO
000BFAH   000C01H   000008H   BYTE   UNIT     EDATA          ?ED?LCD_SET_REGION_SIMSPI?SEEKFREE_18TFT
000C02H   000C09H   000008H   BYTE   UNIT     EDATA          ?ED?LCD_SHOWCHAR_SIMSPI?SEEKFREE_18TFT
000C0AH   000C11H   000008H   BYTE   UNIT     EDATA          ?ED?LCD_SET_REGION?SEEKFREE_18TFT
000C12H   000C19H   000008H   BYTE   UNIT     EDATA          ?ED?LCD_SHOWCHAR?SEEKFREE_18TFT
000C1AH   000C21H   000008H   BYTE   UNIT     EDATA          ?ED?IPS114_SET_REGION_SIMSPI?SEEKFREE_IPS114_SPI
000C22H   000C29H   000008H   BYTE   UNIT     EDATA          ?ED?IPS114_SHOWCHAR_SIMSPI?SEEKFREE_IPS114_SPI
000C2AH   000C31H   000008H   BYTE   UNIT     EDATA          ?ED?IPS114_SET_REGION?SEEKFREE_IPS114_SPI
000C32H   000C39H   000008H   BYTE   UNIT     EDATA          ?ED?IPS114_SHOWCHAR?SEEKFREE_IPS114_SPI
000C3AH   000C41H   000008H   BYTE   UNIT     EDATA          ?ED?OLED_HEXASCII?SEEKFREE_OLED
000C42H   000C49H   000008H   BYTE   UNIT     EDATA          ?ED?OLED_HEXASCII_SPI?SEEKFREE_OLED
000C4AH   000C51H   000008H   BYTE   UNIT     EDATA          ?ED?SUB_PID?TRACKELEMENT
000C52H   000C58H   000007H   BYTE   UNIT     EDATA          ?ED?IIC_READ_REG_BYTES?ZF_IIC
000C59H   000C5FH   000007H   BYTE   UNIT     EDATA          ?ED?SPI_INIT?ZF_SPI
000C60H   000C66H   000007H   BYTE   UNIT     EDATA          ?ED?DL1A_TIMEOUT_MCLKS_TO_MICROSECONDS?SEEKFREE_DL1A
000C67H   000C6DH   000007H   BYTE   UNIT     EDATA          ?ED?IMU660RA_GET_ACC?SEEKFREE_IMU660RA
000C6EH   000C74H   000007H   BYTE   UNIT     EDATA          ?ED?IMU660RA_GET_GYRO?SEEKFREE_IMU660RA
000C75H   000C7BH   000007H   BYTE   UNIT     EDATA          ?ED?IMU963RA_GET_MAG?SEEKFREE_IMU963RA
000C7CH   000C82H   000007H   BYTE   UNIT     EDATA          ?ED?MPU6050_SIMIIC_READ_REGS?SEEKFREE_MPU6050
000C83H   000C89H   000007H   BYTE   UNIT     EDATA          ?ED?CCD_SEND_DATA?SEEKFREE_TSL1401
000C8AH   000C8FH   000006H   BYTE   UNIT     EDATA          ?ED?ADC_ONCE?ZF_ADC
000C90H   000C95H   000006H   BYTE   UNIT     EDATA          ?ED?DELAY_US?ZF_DELAY
000C96H   000C9BH   000006H   BYTE   UNIT     EDATA          ?ED?IIC_INIT?ZF_IIC
000C9CH   000CA1H   000006H   BYTE   UNIT     EDATA          ?ED?IIC_READ_REG?ZF_IIC
000CA2H   000CA7H   000006H   BYTE   UNIT     EDATA          ?ED?PIT_TIMER_MS?ZF_TIM
000CA8H   000CADH   000006H   BYTE   UNIT     EDATA          ?ED?UART_PUTSTR?ZF_UART
000CAEH   000CB3H   000006H   BYTE   UNIT     EDATA          ?ED?LCD_DRAWPOINT_SIMSPI?SEEKFREE_18TFT
000CB4H   000CB9H   000006H   BYTE   UNIT     EDATA          ?ED?LCD_DRAWPOINT?SEEKFREE_18TFT
000CBAH   000CBFH   000006H   BYTE   UNIT     EDATA          ?ED?ICM20602_GET_ACC?SEEKFREE_ICM20602
000CC0H   000CC5H   000006H   BYTE   UNIT     EDATA          ?ED?ICM20602_GET_GYRO?SEEKFREE_ICM20602
000CC6H   000CCBH   000006H   BYTE   UNIT     EDATA          ?ED?ICM20602_ACC_TRANSITION?SEEKFREE_ICM20602
000CCCH   000CD1H   000006H   BYTE   UNIT     EDATA          ?ED?ICM20602_GYRO_TRANSITION?SEEKFREE_ICM20602
000CD2H   000CD7H   000006H   BYTE   UNIT     EDATA          ?ED?IMU660RA_ACC_TRANSITION?SEEKFREE_IMU660RA
000CD8H   000CDDH   000006H   BYTE   UNIT     EDATA          ?ED?IMU660RA_GYRO_TRANSITION?SEEKFREE_IMU660RA
000CDEH   000CE3H   000006H   BYTE   UNIT     EDATA          ?ED?IMU963RA_WRITE_MAG_REGISTER?SEEKFREE_IMU963RA
000CE4H   000CE9H   000006H   BYTE   UNIT     EDATA          ?ED?IMU963RA_GET_ACC?SEEKFREE_IMU963RA
000CEAH   000CEFH   000006H   BYTE   UNIT     EDATA          ?ED?IMU963RA_GET_GYRO?SEEKFREE_IMU963RA
000CF0H   000CF5H   000006H   BYTE   UNIT     EDATA          ?ED?IMU963RA_ACC_TRANSITION?SEEKFREE_IMU963RA
000CF6H   000CFBH   000006H   BYTE   UNIT     EDATA          ?ED?IMU963RA_GYRO_TRANSITION?SEEKFREE_IMU963RA
000CFCH   000D01H   000006H   BYTE   UNIT     EDATA          ?ED?IMU963RA_MAG_TRANSITION?SEEKFREE_IMU963RA
000D02H   000D07H   000006H   BYTE   UNIT     EDATA          ?ED?IPS114_CLEAR_SIMSPI?SEEKFREE_IPS114_SPI
000D08H   000D0DH   000006H   BYTE   UNIT     EDATA          ?ED?IPS114_DRAWPOINT_SIMSPI?SEEKFREE_IPS114_SPI
000D0EH   000D13H   000006H   BYTE   UNIT     EDATA          ?ED?IPS114_CLEAR?SEEKFREE_IPS114_SPI
000D14H   000D19H   000006H   BYTE   UNIT     EDATA          ?ED?IPS114_DRAWPOINT?SEEKFREE_IPS114_SPI
000D1AH   000D1FH   000006H   BYTE   UNIT     EDATA          ?ED?MPU6050_GET_ACCDATA?SEEKFREE_MPU6050
000D20H   000D25H   000006H   BYTE   UNIT     EDATA          ?ED?MPU6050_GET_GYRO?SEEKFREE_MPU6050
000D26H   000D2BH   000006H   BYTE   UNIT     EDATA          ?ED?WIRELESS_UART_SEND_BUFF?SEEKFREE_WIRELESS
000D2CH   000D30H   000005H   BYTE   UNIT     EDATA          ?ED?ZF_UART
000D31H   000D35H   000005H   BYTE   UNIT     EDATA          ?ED?SIMSPI_R_REG_BYTE?SEEKFREE_ABSOLUTE_ENCODER
000D36H   000D3AH   000005H   BYTE   UNIT     EDATA          ?ED?ENCODER_SIMSPI_R_REG_BYTE?SEEKFREE_ABSOLUTE_ENCODER
000D3BH   000D3FH   000005H   BYTE   UNIT     EDATA          ?ED?SPI_R_REG_BYTE?SEEKFREE_ABSOLUTE_ENCODER
000D40H   000D44H   000005H   BYTE   UNIT     EDATA          ?ED?ENCODER_SPI_R_REG_BYTE?SEEKFREE_ABSOLUTE_ENCODER
000D45H   000D49H   000005H   BYTE   UNIT     EDATA          ?ED?DL1A_GET_SEQUENCE_STEP_ENABLES?SEEKFREE_DL1A
000D4AH   000D4EH   000005H   BYTE   UNIT     EDATA          ?ED?DL1A_PERFORM_SINGLE_REF_CALIBRATION?SEEKFREE_DL1A
L251 LINKER/LOCATER V4.66.93.0                                                        04/10/2024  19:22:09  PAGE 6


000D4FH   000D53H   000005H   BYTE   UNIT     EDATA          ?ED?ICM20602_SIMSPI_R_REG_BYTE?SEEKFREE_ICM20602
000D54H   000D58H   000005H   BYTE   UNIT     EDATA          ?ED?IMU963RA_SIMSPI_R_REG_BYTE?SEEKFREE_IMU963RA
000D59H   000D5DH   000005H   BYTE   UNIT     EDATA          ?ED?ISR
000D5EH   000D61H   000004H   BYTE   UNIT     EDATA          ?ED?BOARD
000D62H   000D65H   000004H   BYTE   UNIT     EDATA          ?ED?CLOCK_INIT?BOARD
000D66H   000D69H   000004H   BYTE   UNIT     EDATA          ?ED?ADC_INIT?ZF_ADC
000D6AH   000D6DH   000004H   BYTE   UNIT     EDATA          ?ED?ZF_DELAY
000D6EH   000D71H   000004H   BYTE   UNIT     EDATA          ?ED?DELAY_MS?ZF_DELAY
000D72H   000D75H   000004H   BYTE   UNIT     EDATA          ?ED?IAP_ERASE_PAGE?ZF_EEPROM
000D76H   000D79H   000004H   BYTE   UNIT     EDATA          ?ED?EXIT_INIT?ZF_EXTI
000D7AH   000D7DH   000004H   BYTE   UNIT     EDATA          ?ED?GPIO_PULL_SET?ZF_GPIO
000D7EH   000D81H   000004H   BYTE   UNIT     EDATA          ?ED?GPIO_MODE?ZF_GPIO
000D82H   000D85H   000004H   BYTE   UNIT     EDATA          ?ED?CTIMER_COUNT_READ?ZF_TIM
000D86H   000D89H   000004H   BYTE   UNIT     EDATA          ?ED?FIFO_CLEAR?ZF_FIFO
000D8AH   000D8DH   000004H   BYTE   UNIT     EDATA          ?ED?FIFO_USED?ZF_FIFO
000D8EH   000D91H   000004H   BYTE   UNIT     EDATA          ?ED?LCD_CLEAR_SIMSPI?SEEKFREE_18TFT
000D92H   000D95H   000004H   BYTE   UNIT     EDATA          ?ED?LCD_WRITEDATA_16BIT?SEEKFREE_18TFT
000D96H   000D99H   000004H   BYTE   UNIT     EDATA          ?ED?LCD_CLEAR?SEEKFREE_18TFT
000D9AH   000D9DH   000004H   BYTE   UNIT     EDATA          ?ED?ICM20602_SELF_CHECK?SEEKFREE_ICM20602
000D9EH   000DA1H   000004H   BYTE   UNIT     EDATA          ?ED?ICM20602_INIT?SEEKFREE_ICM20602
000DA2H   000DA5H   000004H   BYTE   UNIT     EDATA          ?ED?IMU660RA_SELF_CHECK?SEEKFREE_IMU660RA
000DA6H   000DA9H   000004H   BYTE   UNIT     EDATA          ?ED?IMU963RA_READ_MAG_REGISTER?SEEKFREE_IMU963RA
000DAAH   000DADH   000004H   BYTE   UNIT     EDATA          ?ED?IMU963RA_ACC_GYRO_SELF_CHECK?SEEKFREE_IMU963RA
000DAEH   000DB1H   000004H   BYTE   UNIT     EDATA          ?ED?IMU963RA_MAG_SELF_CHECK?SEEKFREE_IMU963RA
000DB2H   000DB5H   000004H   BYTE   UNIT     EDATA          ?ED?IPS114_WRITEDATA_16BIT?SEEKFREE_IPS114_SPI
000DB6H   000DB9H   000004H   BYTE   UNIT     EDATA          ?ED?MAIN
000DBAH   000DBDH   000004H   BYTE   UNIT     EDATA          ?ED?LIMIT?MOTOR
000DBEH   000DC1H   000004H   BYTE   UNIT     EDATA          ?ED?MOTOR_PWM?MOTOR
000DC2H   000DC5H   000004H   BYTE   UNIT     EDATA          ?ED?SHOW_ALLVAL?MENU
000DC6H   000DC8H   000003H   BYTE   UNIT     EDATA          ?ED?IIC_DELAY_US?ZF_IIC
000DC9H   000DCBH   000003H   BYTE   UNIT     EDATA          ?ED?WAIT?ZF_IIC
000DCCH   000DCEH   000003H   BYTE   UNIT     EDATA          ?ED?IIC_WRITE_REG?ZF_IIC
000DCFH   000DD1H   000003H   BYTE   UNIT     EDATA          ?ED?NVIC_SETPRIORITY?ZF_NVIC
000DD2H   000DD4H   000003H   BYTE   UNIT     EDATA          ?ED?UART_PUTCHAR?ZF_UART
000DD5H   000DD7H   000003H   BYTE   UNIT     EDATA          ?ED?LCD_WRITEDATA_16BIT_SIMSPI?SEEKFREE_18TFT
000DD8H   000DDAH   000003H   BYTE   UNIT     EDATA          ?ED?ENCODER_SIMSPI_W_REG_BYTE?SEEKFREE_ABSOLUTE_ENCODER
000DDBH   000DDDH   000003H   BYTE   UNIT     EDATA          ?ED?ENCODER_SPI_W_REG_BYTE?SEEKFREE_ABSOLUTE_ENCODER
000DDEH   000DE0H   000003H   BYTE   UNIT     EDATA          ?ED?SEEKFREE_DL1A
000DE1H   000DE3H   000003H   BYTE   UNIT     EDATA          ?ED?DL1A_READ_CH?SEEKFREE_DL1A
000DE4H   000DE6H   000003H   BYTE   UNIT     EDATA          ?ED?DL1A_SIMIIC_WRITE_REG?SEEKFREE_DL1A
000DE7H   000DE9H   000003H   BYTE   UNIT     EDATA          ?ED?DL1A_SIMIIC_READ_REG?SEEKFREE_DL1A
000DEAH   000DECH   000003H   BYTE   UNIT     EDATA          ?ED?DL1A_GET_VCSEL_PULSE_PERIOD?SEEKFREE_DL1A
000DEDH   000DEFH   000003H   BYTE   UNIT     EDATA          ?ED?DL1A_GET_DISTANCE?SEEKFREE_DL1A
000DF0H   000DF2H   000003H   BYTE   UNIT     EDATA          ?ED?IMU660RA_READ_REGISTER?SEEKFREE_IMU660RA
000DF3H   000DF5H   000003H   BYTE   UNIT     EDATA          ?ED?IPS114_WRITEDATAI_16BIT_SIMSPI?SEEKFREE_IPS114_SPI
000DF6H   000DF8H   000003H   BYTE   UNIT     EDATA          ?ED?MPU6050_READ_CH?SEEKFREE_MPU6050
000DF9H   000DFBH   000003H   BYTE   UNIT     EDATA          ?ED?MPU6050_SIMIIC_WRITE_REG?SEEKFREE_MPU6050
000DFCH   000DFEH   000003H   BYTE   UNIT     EDATA          ?ED?MPU6050_SIMIIC_READ_REG?SEEKFREE_MPU6050
000DFFH   000E01H   000003H   BYTE   UNIT     EDATA          ?ED?OLED_FILL?SEEKFREE_OLED
000E02H   000E04H   000003H   BYTE   UNIT     EDATA          ?ED?OLED_PUTPIXEL?SEEKFREE_OLED
000E05H   000E07H   000003H   BYTE   UNIT     EDATA          ?ED?OLED_FILL_SPI?SEEKFREE_OLED
000E08H   000E0AH   000003H   BYTE   UNIT     EDATA          ?ED?OLED_PUTPIXEL_SPI?SEEKFREE_OLED
000E0BH   000E0CH   000002H   BYTE   UNIT     EDATA          ?ED?COMMON
000E0DH   000E0EH   000002H   BYTE   UNIT     EDATA          ?ED?SEND_DATA?ZF_IIC
000E0FH   000E10H   000002H   BYTE   UNIT     EDATA          ?ED?IIC_CHANGE_PIN?ZF_IIC
000E11H   000E12H   000002H   BYTE   UNIT     EDATA          ?ED?PWM_SET_GPIO?ZF_PWM
000E13H   000E14H   000002H   BYTE   UNIT     EDATA          ?ED?SPI_CHANGE_PIN?ZF_SPI
000E15H   000E16H   000002H   BYTE   UNIT     EDATA          ?ED?CTIMER_COUNT_INIT?ZF_TIM
000E17H   000E18H   000002H   BYTE   UNIT     EDATA          ?ED?CTIMER_COUNT_CLEAN?ZF_TIM
000E19H   000E1AH   000002H   BYTE   UNIT     EDATA          ?ED?LCD_WRITEINDEX_SIMSPI?SEEKFREE_18TFT
000E1BH   000E1CH   000002H   BYTE   UNIT     EDATA          ?ED?LCD_WRITEDATA_SIMSPI?SEEKFREE_18TFT
000E1DH   000E1EH   000002H   BYTE   UNIT     EDATA          ?ED?ENCODER_DELAY_US?SEEKFREE_ABSOLUTE_ENCODER
000E1FH   000E20H   000002H   BYTE   UNIT     EDATA          ?ED?SIMSPI_WR_BYTE?SEEKFREE_ABSOLUTE_ENCODER
000E21H   000E22H   000002H   BYTE   UNIT     EDATA          ?ED?SIMSPI_W_REG_BYTE?SEEKFREE_ABSOLUTE_ENCODER
000E23H   000E24H   000002H   BYTE   UNIT     EDATA          ?ED?SET_ZERO_POSITION_SIMSPI?SEEKFREE_ABSOLUTE_ENCODER
L251 LINKER/LOCATER V4.66.93.0                                                        04/10/2024  19:22:09  PAGE 7


000E25H   000E26H   000002H   BYTE   UNIT     EDATA          ?ED?ENCODER_ANGLE_SIMSPI?SEEKFREE_ABSOLUTE_ENCODER
000E27H   000E28H   000002H   BYTE   UNIT     EDATA          ?ED?SPI_W_REG_BYTE?SEEKFREE_ABSOLUTE_ENCODER
000E29H   000E2AH   000002H   BYTE   UNIT     EDATA          ?ED?SET_ZERO_POSITION_SPI?SEEKFREE_ABSOLUTE_ENCODER
000E2BH   000E2CH   000002H   BYTE   UNIT     EDATA          ?ED?ENCODER_ANGLE_SPI?SEEKFREE_ABSOLUTE_ENCODER
000E2DH   000E2EH   000002H   BYTE   UNIT     EDATA          ?ED?DL1A_SIMIIC_DELAY?SEEKFREE_DL1A
000E2FH   000E30H   000002H   BYTE   UNIT     EDATA          ?ED?DL1A_SEND_CH?SEEKFREE_DL1A
000E31H   000E32H   000002H   BYTE   UNIT     EDATA          ?ED?DL1A_DECODE_TIMEOUT?SEEKFREE_DL1A
000E33H   000E34H   000002H   BYTE   UNIT     EDATA          ?ED?ICM20602_SIMSPI_WR_BYTE?SEEKFREE_ICM20602
000E35H   000E36H   000002H   BYTE   UNIT     EDATA          ?ED?ICM20602_SIMSPI_W_REG_BYTE?SEEKFREE_ICM20602
000E37H   000E38H   000002H   BYTE   UNIT     EDATA          ?ED?ICM20602_WRITE_REGISTER?SEEKFREE_ICM20602
000E39H   000E3AH   000002H   BYTE   UNIT     EDATA          ?ED?ICM20602_READ_REGISTER?SEEKFREE_ICM20602
000E3BH   000E3CH   000002H   BYTE   UNIT     EDATA          ?ED?IMU660RA_SIMSPI_WR_BYTE?SEEKFREE_IMU660RA
000E3DH   000E3EH   000002H   BYTE   UNIT     EDATA          ?ED?IMU660RA_SIMSPI_W_REG_BYTE?SEEKFREE_IMU660RA
000E3FH   000E40H   000002H   BYTE   UNIT     EDATA          ?ED?IMU660RA_WRITE_REGISTER?SEEKFREE_IMU660RA
000E41H   000E42H   000002H   BYTE   UNIT     EDATA          ?ED?IMU963RA_SIMSPI_WR_BYTE?SEEKFREE_IMU963RA
000E43H   000E44H   000002H   BYTE   UNIT     EDATA          ?ED?IMU963RA_SIMSPI_W_REG_BYTE?SEEKFREE_IMU963RA
000E45H   000E46H   000002H   BYTE   UNIT     EDATA          ?ED?IMU963RA_WRITE_ACC_GYRO_REGISTER?SEEKFREE_IMU963RA
000E47H   000E48H   000002H   BYTE   UNIT     EDATA          ?ED?IMU963RA_READ_ACC_GYRO_REGISTER?SEEKFREE_IMU963RA
000E49H   000E4AH   000002H   BYTE   UNIT     EDATA          ?ED?IMU963RA_CONNECT_MAG?SEEKFREE_IMU963RA
000E4BH   000E4CH   000002H   BYTE   UNIT     EDATA          ?ED?IPS114_WRITEINDEX_SIMSPI?SEEKFREE_IPS114_SPI
000E4DH   000E4EH   000002H   BYTE   UNIT     EDATA          ?ED?IPS114_WRITEDATA_SIMSPI?SEEKFREE_IPS114_SPI
000E4FH   000E50H   000002H   BYTE   UNIT     EDATA          ?ED?MPU6050_SIMIIC_DELAY?SEEKFREE_MPU6050
000E51H   000E52H   000002H   BYTE   UNIT     EDATA          ?ED?MPU6050_SEND_CH?SEEKFREE_MPU6050
000E53H   000E54H   000002H   BYTE   UNIT     EDATA          ?ED?OLED_WRDAT?SEEKFREE_OLED
000E55H   000E56H   000002H   BYTE   UNIT     EDATA          ?ED?OLED_WRCMD?SEEKFREE_OLED
000E57H   000E58H   000002H   BYTE   UNIT     EDATA          ?ED?OLED_SET_POS?SEEKFREE_OLED
000E59H   000E5AH   000002H   BYTE   UNIT     EDATA          ?ED?OLED_CLRPIXEL?SEEKFREE_OLED
000E5BH   000E5CH   000002H   BYTE   UNIT     EDATA          ?ED?OLED_SET_POS_SPI?SEEKFREE_OLED
000E5DH   000E5EH   000002H   BYTE   UNIT     EDATA          ?ED?OLED_CLRPIXEL_SPI?SEEKFREE_OLED
000E5FH   000E60H   000002H   BYTE   UNIT     EDATA          ?ED?MAIN?MAIN
000E61H   000E62H   000002H   BYTE   UNIT     EDATA          ?ED?BUZZER?MOTOR
000E63H   000E64H   000002H   BYTE   UNIT     EDATA          ?ED?L_ENC_INTEGRAL?ENCODER
000E65H   000E66H   000002H   BYTE   UNIT     EDATA          ?ED?R_ENC_INTEGRAL?ENCODER
000E67H   000E68H   000002H   BYTE   UNIT     EDATA          ?ED?GYRO_ZERO_WANDER?MPU6050
000E69H   000E6AH   000002H   BYTE   UNIT     EDATA          ?ED?DISTACE?TRACKELEMENT
000E6BH   000E6CH   000002H   BYTE   UNIT     EDATA          ?ED?TRACKING?TRACKELEMENT
000E6DH   000E6EH   000002H   BYTE   UNIT     EDATA          ?ED?FIRST_MENU?MENU
000E6FH   000E6FH   000001H   BYTE   UNIT     EDATA          ?ED?PUTCHAR?BOARD
000E70H   000E70H   000001H   BYTE   UNIT     EDATA          ?ED?IAP_SET_TPS?ZF_EEPROM
000E71H   000E71H   000001H   BYTE   UNIT     EDATA          ?ED?START?ZF_IIC
000E72H   000E72H   000001H   BYTE   UNIT     EDATA          ?ED?RECV_ACK?ZF_IIC
000E73H   000E73H   000001H   BYTE   UNIT     EDATA          ?ED?SEND_ACK?ZF_IIC
000E74H   000E74H   000001H   BYTE   UNIT     EDATA          ?ED?STOP?ZF_IIC
000E75H   000E75H   000001H   BYTE   UNIT     EDATA          ?ED?SPI_MOSI?ZF_SPI
000E76H   000E76H   000001H   BYTE   UNIT     EDATA          ?ED?SPI_CHANGE_MODE?ZF_SPI
000E77H   000E77H   000001H   BYTE   UNIT     EDATA          ?ED?LCD_WRITEINDEX?SEEKFREE_18TFT
000E78H   000E78H   000001H   BYTE   UNIT     EDATA          ?ED?LCD_WRITEDATA?SEEKFREE_18TFT
000E79H   000E79H   000001H   BYTE   UNIT     EDATA          ?ED?ENCODER_SELF4_CHECK?SEEKFREE_ABSOLUTE_ENCODER
000E7AH   000E7AH   000001H   BYTE   UNIT     EDATA          ?ED?SPI_WR_BYTE?SEEKFREE_ABSOLUTE_ENCODER
000E7BH   000E7BH   000001H   BYTE   UNIT     EDATA          ?ED?ENCODER_SELF5_CHECK?SEEKFREE_ABSOLUTE_ENCODER
000E7CH   000E7CH   000001H   BYTE   UNIT     EDATA          ?ED?DL1A_SIMIIC_SENDACK?SEEKFREE_DL1A
000E7DH   000E7DH   000001H   BYTE   UNIT     EDATA          ?ED?IMU660RA_INIT?SEEKFREE_IMU660RA
000E7EH   000E7EH   000001H   BYTE   UNIT     EDATA          ?ED?IMU963RA_INIT?SEEKFREE_IMU963RA
000E7FH   000E7FH   000001H   BYTE   UNIT     EDATA          ?ED?IPS114_WRITEINDEX?SEEKFREE_IPS114_SPI
000E80H   000E80H   000001H   BYTE   UNIT     EDATA          ?ED?IPS114_WRITEDATA?SEEKFREE_IPS114_SPI
000E81H   000E81H   000001H   BYTE   UNIT     EDATA          ?ED?MPU6050_SIMIIC_SENDACK?SEEKFREE_MPU6050
000E82H   000E82H   000001H   BYTE   UNIT     EDATA          ?ED?OLED_WRDAT_SPI?SEEKFREE_OLED
000E83H   000E83H   000001H   BYTE   UNIT     EDATA          ?ED?OLED_WRCMD_SPI?SEEKFREE_OLED
000E84H   000E84H   000001H   BYTE   UNIT     EDATA          ?ED?CCD_COLLECT?SEEKFREE_TSL1401
000E85H   000E85H   000001H   BYTE   UNIT     EDATA          ?ED?WIRELESS_UART_SEND_BYTE?SEEKFREE_WIRELESS
000E86H   000E86H   000001H   BYTE   UNIT     EDATA          ?ED?UART1_ISR?ISR
000E87H   000F86H   000100H   BYTE   UNIT     EDATA          ?STACK
000F87H   FEFFFFH   FEF079H   ---    ---      **GAP**
FF0000H   FF0002H   000003H   ---    OFFS..   CODE           ?CO?start251?4
FF0003H   FF0005H   000003H   ---    OFFS..   CODE           ?PR?IV?0
L251 LINKER/LOCATER V4.66.93.0                                                        04/10/2024  19:22:09  PAGE 8


FF0006H   FF0009H   000004H   BYTE   INSEG    CODE           ?PR?ENABLEGLOBALIRQ?BOARD
FF000AH   FF000AH   000001H   BYTE   INSEG    CODE           ?PR?INT1_ISR?ISR
FF000BH   FF000DH   000003H   ---    OFFS..   CODE           ?PR?IV?1
FF000EH   FF0011H   000004H   BYTE   UNIT     CODE           ?PR?FPADD?STC32F_FPMU
FF0012H   FF0012H   000001H   ---    ---      **GAP**
FF0013H   FF0015H   000003H   ---    OFFS..   CODE           ?PR?IV?2
FF0016H   FF0019H   000004H   BYTE   UNIT     CODE           ?PR?FPSUB?STC32F_FPMU
FF001AH   FF001AH   000001H   ---    ---      **GAP**
FF001BH   FF001DH   000003H   ---    OFFS..   CODE           ?PR?IV?3
FF001EH   FF0021H   000004H   BYTE   UNIT     CODE           ?PR?FPMUL?STC32F_FPMU
FF0022H   FF0022H   000001H   ---    ---      **GAP**
FF0023H   FF0025H   000003H   ---    OFFS..   CODE           ?PR?IV?4
FF0026H   FF0042H   00001DH   BYTE   INSEG    CODE           ?PR?MPU6050_SIMIIC_DELAY?SEEKFREE_MPU6050
FF0043H   FF0045H   000003H   ---    OFFS..   CODE           ?PR?IV?8
FF0046H   FF0051H   00000CH   BYTE   UNIT     CODE           ?PR?FPCMP?STC32F_FPMU
FF0052H   FF0052H   000001H   ---    ---      **GAP**
FF0053H   FF0055H   000003H   ---    OFFS..   CODE           ?PR?IV?10
FF0056H   FF0059H   000004H   BYTE   UNIT     CODE           ?PR?FPDIV?STC32F_FPMU
FF005AH   FF005AH   000001H   ---    ---      **GAP**
FF005BH   FF005DH   000003H   ---    OFFS..   CODE           ?PR?IV?11
FF005EH   FF0061H   000004H   BYTE   UNIT     CODE           ?PR?SQRT?STC32F_FPMU
FF0062H   FF0062H   000001H   ---    ---      **GAP**
FF0063H   FF0065H   000003H   ---    OFFS..   CODE           ?PR?IV?12
FF0066H   FF007FH   00001AH   BYTE   INSEG    CODE           ?PR?BLUETOOTH_CH9141_UART_CALLBACK?SEEKFREE_BLUETOOTH_CH91
                                                             -41
FF0080H   FF0082H   000003H   ---    ---      **GAP**
FF0083H   FF0085H   000003H   ---    OFFS..   CODE           ?PR?IV?16
FF0086H   FF0089H   000004H   BYTE   UNIT     CODE           ?PR?FCASTL?STC32F_FPMU
FF008AH   FF008AH   000001H   ---    ---      **GAP**
FF008BH   FF008DH   000003H   ---    OFFS..   CODE           ?PR?IV?17
FF008EH   FF0091H   000004H   BYTE   INSEG    CODE           ?PR?INT0_ISR?ISR
FF0092H   FF0092H   000001H   ---    ---      **GAP**
FF0093H   FF0095H   000003H   ---    OFFS..   CODE           ?PR?IV?18
FF0096H   FF0099H   000004H   BYTE   INSEG    CODE           ?PR?INT2_ISR?ISR
FF009AH   FF009AH   000001H   ---    ---      **GAP**
FF009BH   FF009DH   000003H   ---    OFFS..   CODE           ?PR?IV?19
FF009EH   FF00A1H   000004H   BYTE   INSEG    CODE           ?PR?INT3_ISR?ISR
FF00A2H   FF00A2H   000001H   ---    ---      **GAP**
FF00A3H   FF00A5H   000003H   ---    OFFS..   CODE           ?PR?IV?20
FF00A6H   FF212CH   002087H   BYTE   UNIT     CODE           ?CO?SEEKFREE_CONFIG
FF212DH   FF2F34H   000E08H   BYTE   UNIT     CODE           ?CO?SEEKFREE_FONT
FF2F35H   FF3841H   00090DH   BYTE   INSEG    CODE           ?PR?GPIO_MODE?ZF_GPIO
FF3842H   FF3F1CH   0006DBH   BYTE   INSEG    CODE           ?PR?SECOND__NWHUAN_MENU?MENU
FF3F1DH   FF45ECH   0006D0H   BYTE   UNIT     CODE           ?C?LIB_CODE
FF45EDH   FF4C4DH   000661H   BYTE   INSEG    CODE           ?PR?ZF_SPRINTF?SEEKFREE_PRINTF
FF4C4EH   FF5295H   000648H   BYTE   INSEG    CODE           ?PR?NORMALIZATION_TRACKING_ADC?INDUCTANCE
FF5296H   FF58C1H   00062CH   BYTE   INSEG    CODE           ?PR?SET_CLK?BOARD
FF58C2H   FF5CC8H   000407H   BYTE   INSEG    CODE           ?PR?SECOND_MOTOR_MENU?MENU
FF5CC9H   FF60A2H   0003DAH   BYTE   INSEG    CODE           ?PR?PWM_INIT?ZF_PWM
FF60A3H   FF645AH   0003B8H   BYTE   INSEG    CODE           ?PR?PWM_SET_GPIO?ZF_PWM
FF645BH   FF67F0H   000396H   BYTE   INSEG    CODE           ?PR?FIRST_MENU?MENU
FF67F1H   FF6AA3H   0002B3H   BYTE   INSEG    CODE           ?PR?UART_INIT?ZF_UART
FF6AA4H   FF6CC8H   000225H   BYTE   INSEG    CODE           ?PR?SECOND_ELEMENT_MENU?MENU
FF6CC9H   FF6E0DH   000145H   BYTE   INSEG    CODE           ?PR?OLED_PRINTF_FLOAT?SEEKFREE_OLED
FF6E0EH   FF6F52H   000145H   BYTE   INSEG    CODE           ?PR?OLED_PRINTF_FLOAT_PX8?SEEKFREE_OLED
FF6F53H   FF708AH   000138H   BYTE   INSEG    CODE           ?PR?FIFO_WRITE_BUFFER?ZF_FIFO
FF708BH   FF71B8H   00012EH   BYTE   INSEG    CODE           ?PR?SHOW_VAL?INDUCTANCE
FF71B9H   FF72D9H   000121H   BYTE   INSEG    CODE           ?PR?OLED_P8X16STR?SEEKFREE_OLED
FF72DAH   FF73F1H   000118H   BYTE   INSEG    CODE           ?PR?PWM_DUTY?ZF_PWM
FF73F2H   FF7508H   000117H   BYTE   INSEG    CODE           ?PR?NUMBER_CONVERSION_ASCII?SEEKFREE_PRINTF
FF7509H   FF75FAH   0000F2H   BYTE   INSEG    CODE           ?PR?MAIN?MAIN
FF75FBH   FF76DFH   0000E5H   BYTE   INSEG    CODE           ?PR?PIT_TIMER_MS?ZF_TIM
FF76E0H   FF77C1H   0000E2H   BYTE   INSEG    CODE           ?PR?GET_ANGLE?MPU6050
FF77C2H   FF78A2H   0000E1H   BYTE   INSEG    CODE           ?PR?SPEED_PID_OUT?MOTOR
FF78A3H   FF797BH   0000D9H   BYTE   INSEG    CODE           ?PR?MEDIANFILTER1?MPU6050
L251 LINKER/LOCATER V4.66.93.0                                                        04/10/2024  19:22:09  PAGE 9


FF797CH   FF7A4CH   0000D1H   BYTE   INSEG    CODE           ?PR?OLED_P6X8STR?SEEKFREE_OLED
FF7A4DH   FF7B02H   0000B6H   BYTE   INSEG    CODE           ?PR?SECOND__SPEED_MENU?MENU
FF7B03H   FF7BB7H   0000B5H   BYTE   INSEG    CODE           ?PR?ADC_INIT?ZF_ADC
FF7BB8H   FF7C6BH   0000B4H   BYTE   INSEG    CODE           ?PR?CTIMER_COUNT_READ?ZF_TIM
FF7C6CH   FF7D13H   0000A8H   BYTE   INSEG    CODE           ?PR?OLED_INIT?SEEKFREE_OLED
FF7D14H   FF7DA8H   000095H   BYTE   INSEG    CODE           ?PR?PRINTF_REVERSE_ORDER?SEEKFREE_PRINTF
FF7DA9H   FF7E2FH   000087H   BYTE   INSEG    CODE           ?PR?NH_TURN_OUT?DIRECTION
FF7E30H   FF7EA6H   000077H   BYTE   INSEG    CODE           ?PR?BOARD_INIT?BOARD
FF7EA7H   FF7F1BH   000075H   BYTE   INSEG    CODE           ?PR?UART_PUTCHAR?ZF_UART
FF7F1CH   FF7F8EH   000073H   BYTE   INSEG    CODE           ?PR?OLED_INT16?SEEKFREE_OLED
FF7F8FH   FF8001H   000073H   BYTE   INSEG    CODE           ?PR?MOTOR_PWM?MOTOR
FF8002H   FF8070H   00006FH   BYTE   INSEG    CODE           ?PR?OLED_HEXASCII?SEEKFREE_OLED
FF8071H   FF80DDH   00006DH   BYTE   INSEG    CODE           ?PR?GYRO_ZERO_WANDER?MPU6050
FF80DEH   FF8149H   00006CH   BYTE   INSEG    CODE           ?PR?MPU6050_SIMIIC_READ_REGS?SEEKFREE_MPU6050
FF814AH   FF81B3H   00006AH   BYTE   INSEG    CODE           ?PR?FIFO_HEAD_OFFSET?ZF_FIFO
FF81B4H   FF821DH   00006AH   BYTE   INSEG    CODE           ?PR?MPU6050_READ_CH?SEEKFREE_MPU6050
FF821EH   FF8287H   00006AH   BYTE   INSEG    CODE           ?PR?WH_TURN_OUT?DIRECTION
FF8288H   FF82EEH   000067H   BYTE   INSEG    CODE           ?PR?TRACKING?TRACKELEMENT
FF82EFH   FF834FH   000061H   BYTE   INSEG    CODE           ?PR?UART4_ISR?ISR
FF8350H   FF83AFH   000060H   BYTE   INSEG    CODE           ?PR?MPU6050_INIT?SEEKFREE_MPU6050
FF83B0H   FF840CH   00005DH   BYTE   INSEG    CODE           ?PR?CTIMER_COUNT_CLEAN?ZF_TIM
FF840DH   FF8469H   00005DH   BYTE   INSEG    CODE           ?PR?OLED_FILL?SEEKFREE_OLED
FF846AH   FF84C5H   00005CH   BYTE   INSEG    CODE           ?PR?TM4_ISR?ENCODER
FF84C6H   FF851DH   000058H   BYTE   INSEG    CODE           ?PR?DIRCONTROL?DIRECTION
FF851EH   FF8573H   000056H   BYTE   INSEG    CODE           ?PR?ADC_ONCE?ZF_ADC
FF8574H   FF85C7H   000054H   BYTE   INSEG    CODE           ?PR?CTIMER_COUNT_INIT?ZF_TIM
FF85C8H   FF8619H   000052H   BYTE   INSEG    CODE           ?PR?MPU6050_GET_GYRO?SEEKFREE_MPU6050
FF861AH   FF8665H   00004CH   BYTE   INSEG    CODE           ?PR?OLED_WRCMD?SEEKFREE_OLED
FF8666H   FF86B1H   00004CH   BYTE   INSEG    CODE           ?PR?OLED_WRDAT?SEEKFREE_OLED
FF86B2H   FF86FCH   00004BH   BYTE   INSEG    CODE           ?PR?MOTOR_SET_PID?MOTOR
FF86FDH   FF8745H   000049H   BYTE   INSEG    CODE           ?PR?MPU6050_SEND_CH?SEEKFREE_MPU6050
FF8746H   FF8787H   000042H   BYTE   INSEG    CODE           ?PR?UART1_ISR?ISR
FF8788H   FF879AH   000013H   BYTE   UNIT     CODE           ?C_C51STARTUP
FF879BH   FF87C3H   000029H   BYTE   UNIT     CODE           ?C_C51STARTUP?2
FF87C4H   FF87C6H   000003H   BYTE   UNIT     CODE           ?C_C51STARTUP?3
FF87C7H   FF8804H   00003EH   BYTE   INSEG    CODE           ?PR?INDUCTANCE_INIT?INDUCTANCE
FF8805H   FF8840H   00003CH   BYTE   INSEG    CODE           ?PR?SHOW_VAL_MENU?MENU
FF8841H   FF887BH   00003BH   BYTE   INSEG    CODE           ?PR?MPU6050_SIMIIC_READ_REG?SEEKFREE_MPU6050
FF887CH   FF88B6H   00003BH   BYTE   INSEG    CODE           ?PR?LIMIT?MOTOR
FF88B7H   FF88EFH   000039H   BYTE   INSEG    CODE           ?PR?MOTOR_INIT?MOTOR
FF88F0H   FF8924H   000035H   BYTE   INSEG    CODE           ?PR?DELAY_MS?ZF_DELAY
FF8925H   FF8959H   000035H   BYTE   INSEG    CODE           ?PR?OLED_SET_POS?SEEKFREE_OLED
FF895AH   FF898CH   000033H   BYTE   INSEG    CODE           ?PR?MPU6050_SELF1_CHECK?SEEKFREE_MPU6050
FF898DH   FF89BBH   00002FH   BYTE   INSEG    CODE           ?PR?ENCODER_TIME_INIT?ENCODER
FF89BCH   FF89EAH   00002FH   BYTE   INSEG    CODE           ?PR?LOWPASSFILTER?MPU6050
FF89EBH   FF8A14H   00002AH   BYTE   INSEG    CODE           ?PR?MPU6050_SIMIIC_WRITE_REG?SEEKFREE_MPU6050
FF8A15H   FF8A3CH   000028H   BYTE   INSEG    CODE           ?PR?MPU6050_SIMIIC_SENDACK?SEEKFREE_MPU6050
FF8A3DH   FF8A63H   000027H   BYTE   INSEG    CODE           ?PR?OLED_UINT16?SEEKFREE_OLED
FF8A64H   FF8A8AH   000027H   BYTE   INSEG    CODE           ?PR?OLED_UINT16_PX8?SEEKFREE_OLED
FF8A8BH   FF8AB0H   000026H   BYTE   INSEG    CODE           ?PR?R_ENCODER_PULSE?ENCODER
FF8AB1H   FF8AD5H   000025H   BYTE   INSEG    CODE           ?PR?MEMCPY?_?MEMCPY
FF8AD6H   FF8AF8H   000023H   BYTE   INSEG    CODE           ?PR?DELAY_INIT?ZF_DELAY
FF8AF9H   FF8B1AH   000022H   BYTE   INSEG    CODE           ?PR?L_ENCODER_PULSE?ENCODER
FF8B1BH   FF8B3BH   000021H   BYTE   INSEG    CODE           ?PR?MPU6050_SCCB_WAITACK?SEEKFREE_MPU6050
FF8B3CH   FF8B55H   00001AH   BYTE   INSEG    CODE           ?PR?WIRELESS_UART_CALLBACK?SEEKFREE_WIRELESS
FF8B56H   FF8B6FH   00001AH   BYTE   INSEG    CODE           ?PR?UART2_ISR?ISR
FF8B70H   FF8B89H   00001AH   BYTE   INSEG    CODE           ?PR?UART3_ISR?ISR
FF8B8AH   FF8BA0H   000017H   BYTE   INSEG    CODE           ?PR?TM0_ISR?ISR
FF8BA1H   FF8BB6H   000016H   BYTE   INSEG    CODE           ?PR?MPU6050_SIMIIC_STOP?SEEKFREE_MPU6050
FF8BB7H   FF8BCAH   000014H   BYTE   INSEG    CODE           ?PR?CLOCK_INIT?BOARD
FF8BCBH   FF8BDDH   000013H   BYTE   INSEG    CODE           ?PR?MPU6050_SIMIIC_START?SEEKFREE_MPU6050
FF8BDEH   FF8BEFH   000012H   BYTE   INSEG    CODE           ?PR?PUTCHAR?BOARD
FF8BF0H   FF8C00H   000011H   BYTE   INSEG    CODE           ?PR?ICACHEON?BOARD
FF8C01H   FF8C10H   000010H   BYTE   INSEG    CODE           ?PR?ABS?_?ABS
FF8C11H   FF8C1AH   00000AH   BYTE   INSEG    CODE           ?PR?TM1_ISR?ISR
L251 LINKER/LOCATER V4.66.93.0                                                        04/10/2024  19:22:09  PAGE 10


FF8C1BH   FF8C20H   000006H   BYTE   UNIT     CODE           ?PR?CASTF?STC32F_FPMU
FF8C21H   FF8C26H   000006H   BYTE   UNIT     CODE           ?PR?FCASTI?STC32F_FPMU
FF8C27H   FF8C2AH   000004H   BYTE   INSEG    CODE           ?PR?INT4_ISR?ISR
FF8C2BH   FF8C2EH   000004H   BYTE   INSEG    CODE           ?PR?TM2_ISR?ISR
FF8C2FH   FF8C32H   000004H   BYTE   INSEG    CODE           ?PR?TM3_ISR?ISR
FF8C33H   FF8C36H   000004H   BYTE   UNIT     CONST          ?CO?PRINTF
FF8C37H   FF8FBBH   000385H   BYTE   UNIT     HCONST         ?C_INITEDATA
FF8FBCH   FF9077H   0000BCH   BYTE   UNIT     HCONST         ?HC?MENU
FF9078H   FF90CFH   000058H   BYTE   UNIT     HCONST         ?HC?ZF_PWM
FF90D0H   FF911AH   00004BH   BYTE   UNIT     HCONST         ?HC?SEEKFREE_IMU963RA
FF911BH   FF915FH   000045H   BYTE   UNIT     HCONST         ?HC?INDUCTANCE
FF9160H   FF9194H   000035H   BYTE   UNIT     HCONST         ?HC?SEEKFREE_ICM20602
FF9195H   FF91C8H   000034H   BYTE   UNIT     HCONST         ?HC?SEEKFREE_IMU660RA
FF91C9H   FF91DEH   000016H   BYTE   UNIT     HCONST         ?HC?SEEKFREE_MPU6050
FF91DFH   FF91F1H   000013H   BYTE   UNIT     HCONST         ?HC?SEEKFREE_DL1A
FF91F2H   FF91FBH   00000AH   BYTE   UNIT     HCONST         ?HC?SEEKFREE_OLED
FF91FCH   FF9201H   000006H   BYTE   UNIT     HCONST         ?HC?SEEKFREE_18TFT
FF9202H   FF9207H   000006H   BYTE   UNIT     HCONST         ?HC?SEEKFREE_IPS114_SPI

* * * * * * * * *   R E M O V E D     S E G M E N T S   * * * * * * * *
   *DEL*:           000016H   BYTE   INSEG    CODE           ?PR?DISALBE_ICACHE?BOARD
   *DEL*:           000017H   BYTE   INSEG    CODE           ?PR?ENALBE_ICACHE?BOARD
   *DEL*:           000004H   BYTE   INSEG    CODE           ?PR?DISABLEGLOBALIRQ?BOARD
   *DEL*:           000006H   BYTE   UNIT     CODE           ?PR?FXAM?STC32F_FPMU
   *DEL*:           000007H   BYTE   UNIT     CODE           ?PR?FCHS?STC32F_FPMU
   *DEL*:           000007H   BYTE   UNIT     CODE           ?PR?FABS?STC32F_FPMU
   *DEL*:           000004H   BYTE   UNIT     CODE           ?PR?SIN?STC32F_FPMU
   *DEL*:           000004H   BYTE   UNIT     CODE           ?PR?COS?STC32F_FPMU
   *DEL*:           000004H   BYTE   UNIT     CODE           ?PR?TAN?STC32F_FPMU
   *DEL*:           00000AH   BYTE   UNIT     CODE           ?PR?ATAN?STC32F_FPMU
   *DEL*:           000006H   BYTE   UNIT     CODE           ?PR?FCASTC?STC32F_FPMU
   *DEL*:           000004H   BYTE   UNIT     CODE           ?PR?FCLEX?STC32F_FPMU
   *DEL*:           000004H   BYTE   UNIT     CODE           ?PR?FINIT?STC32F_FPMU
   *DEL*:           000006H   BYTE   UNIT     CODE           ?PR?FPSRR?STC32F_FPMU
   *DEL*:           000006H   BYTE   UNIT     CODE           ?PR?FPSRW?STC32F_FPMU
   *DEL*:           000006H   BYTE   UNIT     CODE           ?PR?FPCRR?STC32F_FPMU
   *DEL*:           000006H   BYTE   UNIT     CODE           ?PR?FPCRW?STC32F_FPMU
   *DEL*:           000033H   BYTE   INSEG    CODE           ?PR?DELAY_US?ZF_DELAY
   *DEL*:           00001AH   BYTE   INSEG    CODE           ?PR?IAP_SET_TPS?ZF_EEPROM
   *DEL*:           000015H   BYTE   INSEG    CODE           ?PR?EEPROM_TRIG?ZF_EEPROM
   *DEL*:           000029H   BYTE   INSEG    CODE           ?PR?IAP_ERASE_PAGE?ZF_EEPROM
   *DEL*:           000004H   BYTE   INSEG    CODE           ?PR?IAP_IDLE?ZF_EEPROM
   *DEL*:           00005FH   BYTE   INSEG    CODE           ?PR?IAP_READ_BYTES?ZF_EEPROM
   *DEL*:           000008H   BYTE   INSEG    CODE           ?PR?IAP_INIT?ZF_EEPROM
   *DEL*:           00005BH   BYTE   INSEG    CODE           ?PR?IAP_WRITE_BYTES?ZF_EEPROM
   *DEL*:           000012H   BYTE   INSEG    CODE           ?PR?IAP_GET_CMD_STATE?ZF_EEPROM
   *DEL*:           000066H   BYTE   INSEG    CODE           ?PR?EXIT_INIT?ZF_EXTI
   *DEL*:           000095H   BYTE   INSEG    CODE           ?PR?GPIO_PULL_SET?ZF_GPIO
   *DEL*:           000028H   BYTE   INSEG    CODE           ?PR?SEND_DATA?ZF_IIC
   *DEL*:           000037H   BYTE   INSEG    CODE           ?PR?IIC_CHANGE_PIN?ZF_IIC
   *DEL*:           00001CH   BYTE   INSEG    CODE           ?PR?RECV_DATA?ZF_IIC
   *DEL*:           000015H   BYTE   INSEG    CODE           ?PR?START?ZF_IIC
   *DEL*:           000057H   BYTE   INSEG    CODE           ?PR?WAIT?ZF_IIC
   *DEL*:           000021H   BYTE   INSEG    CODE           ?PR?SEND_ACK?ZF_IIC
   *DEL*:           000015H   BYTE   INSEG    CODE           ?PR?RECV_ACK?ZF_IIC
   *DEL*:           000015H   BYTE   INSEG    CODE           ?PR?STOP?ZF_IIC
   *DEL*:           00001EH   BYTE   INSEG    CODE           ?PR?SEND_NAK?ZF_IIC
   *DEL*:           00007AH   BYTE   INSEG    CODE           ?PR?IIC_INIT?ZF_IIC
   *DEL*:           000099H   BYTE   INSEG    CODE           ?PR?IIC_READ_REG?ZF_IIC
   *DEL*:           0000D4H   BYTE   INSEG    CODE           ?PR?IIC_READ_REG_BYTES?ZF_IIC
   *DEL*:           00007CH   BYTE   INSEG    CODE           ?PR?IIC_WRITE_REG?ZF_IIC
   *DEL*:           000035H   BYTE   INSEG    CODE           ?PR?IIC_DELAY_US?ZF_IIC
   *DEL*:           0000B9H   BYTE   INSEG    CODE           ?PR?NVIC_SETPRIORITY?ZF_NVIC
   *DEL*:           0001ABH   BYTE   INSEG    CODE           ?PR?PWM_FREQ?ZF_PWM
   *DEL*:           000026H   BYTE   INSEG    CODE           ?PR?SPI_CHANGE_MODE?ZF_SPI
L251 LINKER/LOCATER V4.66.93.0                                                        04/10/2024  19:22:09  PAGE 11


   *DEL*:           0000CCH   BYTE   INSEG    CODE           ?PR?SPI_CHANGE_PIN?ZF_SPI
   *DEL*:           0000F5H   BYTE   INSEG    CODE           ?PR?SPI_INIT?ZF_SPI
   *DEL*:           000012H   BYTE   INSEG    CODE           ?PR?SPI_MOSI?ZF_SPI
   *DEL*:           000039H   BYTE   INSEG    CODE           ?PR?UART_PUTBUFF?ZF_UART
   *DEL*:           00002BH   BYTE   INSEG    CODE           ?PR?UART_PUTSTR?ZF_UART
   *DEL*:           000183H   BYTE   INSEG    CODE           ?PR?FIFO_READ_BUFFER?ZF_FIFO
   *DEL*:           000043H   BYTE   INSEG    CODE           ?PR?FIFO_CLEAR?ZF_FIFO
   *DEL*:           000070H   BYTE   INSEG    CODE           ?PR?FIFO_END_OFFSET?ZF_FIFO
   *DEL*:           000025H   BYTE   INSEG    CODE           ?PR?FIFO_USED?ZF_FIFO
   *DEL*:           00006EH   BYTE   INSEG    CODE           ?PR?FIFO_INIT?ZF_FIFO
   *DEL*:           0000CDH   BYTE   INSEG    CODE           ?PR?LCD_SHOWUINT16?SEEKFREE_18TFT
   *DEL*:           0000CEH   BYTE   INSEG    CODE           ?PR?LCD_SHOWINT32_SIMSPI?SEEKFREE_18TFT
   *DEL*:           000119H   BYTE   INSEG    CODE           ?PR?LCD_SHOWINT16_SIMSPI?SEEKFREE_18TFT
   *DEL*:           0000CEH   BYTE   INSEG    CODE           ?PR?LCD_SHOWINT32?SEEKFREE_18TFT
   *DEL*:           000119H   BYTE   INSEG    CODE           ?PR?LCD_SHOWINT16?SEEKFREE_18TFT
   *DEL*:           000057H   BYTE   INSEG    CODE           ?PR?LCD_CLEAR_SIMSPI?SEEKFREE_18TFT
   *DEL*:           000057H   BYTE   INSEG    CODE           ?PR?LCD_CLEAR?SEEKFREE_18TFT
   *DEL*:           00005DH   BYTE   INSEG    CODE           ?PR?LCD_SHOWSTR_SIMSPI?SEEKFREE_18TFT
   *DEL*:           00005DH   BYTE   INSEG    CODE           ?PR?LCD_SHOWSTR?SEEKFREE_18TFT
   *DEL*:           00004CH   BYTE   INSEG    CODE           ?PR?LCD_WRITEINDEX_SIMSPI?SEEKFREE_18TFT
   *DEL*:           00004CH   BYTE   INSEG    CODE           ?PR?LCD_WRITEDATA_SIMSPI?SEEKFREE_18TFT
   *DEL*:           000015H   BYTE   INSEG    CODE           ?PR?LCD_WRITEINDEX?SEEKFREE_18TFT
   *DEL*:           000015H   BYTE   INSEG    CODE           ?PR?LCD_WRITEDATA?SEEKFREE_18TFT
   *DEL*:           000055H   BYTE   INSEG    CODE           ?PR?LCD_WRITEDATA_16BIT_SIMSPI?SEEKFREE_18TFT
   *DEL*:           000064H   BYTE   INSEG    CODE           ?PR?LCD_SET_REGION_SIMSPI?SEEKFREE_18TFT
   *DEL*:           0001FDH   BYTE   INSEG    CODE           ?PR?LCD_INIT_SIMSPI?SEEKFREE_18TFT
   *DEL*:           0000ECH   BYTE   INSEG    CODE           ?PR?SHOWIMAGE?SEEKFREE_18TFT
   *DEL*:           000064H   BYTE   INSEG    CODE           ?PR?LCD_SET_REGION?SEEKFREE_18TFT
   *DEL*:           0001F3H   BYTE   INSEG    CODE           ?PR?LCD_INIT?SEEKFREE_18TFT
   *DEL*:           0000A9H   BYTE   INSEG    CODE           ?PR?LCD_SHOWUINT8_SIMSPI?SEEKFREE_18TFT
   *DEL*:           0000A9H   BYTE   INSEG    CODE           ?PR?LCD_SHOWUINT8?SEEKFREE_18TFT
   *DEL*:           0000EBH   BYTE   INSEG    CODE           ?PR?LCD_SHOWINT8_SIMSPI?SEEKFREE_18TFT
   *DEL*:           0000EBH   BYTE   INSEG    CODE           ?PR?LCD_SHOWINT8?SEEKFREE_18TFT
   *DEL*:           00002AH   BYTE   INSEG    CODE           ?PR?LCD_WRITEDATA_16BIT?SEEKFREE_18TFT
   *DEL*:           000145H   BYTE   INSEG    CODE           ?PR?LCD_SHOWFLOAT_SIMSPI?SEEKFREE_18TFT
   *DEL*:           000023H   BYTE   INSEG    CODE           ?PR?LCD_DRAWPOINT_SIMSPI?SEEKFREE_18TFT
   *DEL*:           000145H   BYTE   INSEG    CODE           ?PR?LCD_SHOWFLOAT?SEEKFREE_18TFT
   *DEL*:           000023H   BYTE   INSEG    CODE           ?PR?LCD_DRAWPOINT?SEEKFREE_18TFT
   *DEL*:           0000BFH   BYTE   INSEG    CODE           ?PR?LCD_SHOWCHAR_SIMSPI?SEEKFREE_18TFT
   *DEL*:           0000BFH   BYTE   INSEG    CODE           ?PR?LCD_SHOWCHAR?SEEKFREE_18TFT
   *DEL*:           0000CDH   BYTE   INSEG    CODE           ?PR?LCD_SHOWUINT16_SIMSPI?SEEKFREE_18TFT
   *DEL*:           000013H   BYTE   INSEG    CODE           ?PR?ENCODER_SELF4_CHECK?SEEKFREE_ABSOLUTE_ENCODER
   *DEL*:           000013H   BYTE   INSEG    CODE           ?PR?ENCODER_SELF5_CHECK?SEEKFREE_ABSOLUTE_ENCODER
   *DEL*:           000042H   BYTE   INSEG    CODE           ?PR?ENCODER_SPI_R_REG_BYTE?SEEKFREE_ABSOLUTE_ENCODER
   *DEL*:           00000AH   BYTE   INSEG    CODE           ?PR?ENCODER_DELAY_US?SEEKFREE_ABSOLUTE_ENCODER
   *DEL*:           000053H   BYTE   INSEG    CODE           ?PR?ENCODER_SPI_W_REG_BYTE?SEEKFREE_ABSOLUTE_ENCODER
   *DEL*:           00002DH   BYTE   INSEG    CODE           ?PR?SIMSPI_R_REG_BYTE?SEEKFREE_ABSOLUTE_ENCODER
   *DEL*:           000029H   BYTE   INSEG    CODE           ?PR?SIMSPI_W_REG_BYTE?SEEKFREE_ABSOLUTE_ENCODER
   *DEL*:           000030H   BYTE   INSEG    CODE           ?PR?ENCODER_INIT_SPI?SEEKFREE_ABSOLUTE_ENCODER
   *DEL*:           00000CH   BYTE   INSEG    CODE           ?PR?SPI_WR_BYTE?SEEKFREE_ABSOLUTE_ENCODER
   *DEL*:           000032H   BYTE   INSEG    CODE           ?PR?SET_ZERO_POSITION_SIMSPI?SEEKFREE_ABSOLUTE_ENCODER
   *DEL*:           000035H   BYTE   INSEG    CODE           ?PR?ENCODER_ANGLE_SIMSPI?SEEKFREE_ABSOLUTE_ENCODER
   *DEL*:           00002DH   BYTE   INSEG    CODE           ?PR?SPI_R_REG_BYTE?SEEKFREE_ABSOLUTE_ENCODER
   *DEL*:           000029H   BYTE   INSEG    CODE           ?PR?SPI_W_REG_BYTE?SEEKFREE_ABSOLUTE_ENCODER
   *DEL*:           000042H   BYTE   INSEG    CODE           ?PR?ENCODER_SIMSPI_R_REG_BYTE?SEEKFREE_ABSOLUTE_ENCODER
   *DEL*:           000053H   BYTE   INSEG    CODE           ?PR?ENCODER_SIMSPI_W_REG_BYTE?SEEKFREE_ABSOLUTE_ENCODER
   *DEL*:           000010H   BYTE   INSEG    CODE           ?PR?ENCODER_INIT_SIMSPI?SEEKFREE_ABSOLUTE_ENCODER
   *DEL*:           000032H   BYTE   INSEG    CODE           ?PR?SET_ZERO_POSITION_SPI?SEEKFREE_ABSOLUTE_ENCODER
   *DEL*:           000053H   BYTE   INSEG    CODE           ?PR?SIMSPI_WR_BYTE?SEEKFREE_ABSOLUTE_ENCODER
   *DEL*:           000035H   BYTE   INSEG    CODE           ?PR?ENCODER_ANGLE_SPI?SEEKFREE_ABSOLUTE_ENCODER
   *DEL*:           00002EH   BYTE   INSEG    CODE           ?PR?BLUETOOTH_CH9141_READ_BUFF?SEEKFREE_BLUETOOTH_CH9141
   *DEL*:           0000CCH   BYTE   INSEG    CODE           ?PR?BLUETOOTH_CH9141_SEND_BUFF?SEEKFREE_BLUETOOTH_CH9141
   *DEL*:           00003FH   BYTE   INSEG    CODE           ?PR?BLUETOOTH_CH9141_INIT?SEEKFREE_BLUETOOTH_CH9141
   *DEL*:           000028H   BYTE   INSEG    CODE           ?PR?DL1A_SIMIIC_SENDACK?SEEKFREE_DL1A
   *DEL*:           000051H   BYTE   INSEG    CODE           ?PR?DL1A_TIMEOUT_MICROSECONDS_TO_MCLKS?SEEKFREE_DL1A
L251 LINKER/LOCATER V4.66.93.0                                                        04/10/2024  19:22:09  PAGE 12


   *DEL*:           000053H   BYTE   INSEG    CODE           ?PR?DL1A_TIMEOUT_MCLKS_TO_MICROSECONDS?SEEKFREE_DL1A
   *DEL*:           00003EH   BYTE   INSEG    CODE           ?PR?DL1A_SET_SIGNAL_RATE_LIMIT?SEEKFREE_DL1A
   *DEL*:           00006AH   BYTE   INSEG    CODE           ?PR?DL1A_READ_CH?SEEKFREE_DL1A
   *DEL*:           00002AH   BYTE   INSEG    CODE           ?PR?DL1A_DECODE_TIMEOUT?SEEKFREE_DL1A
   *DEL*:           000049H   BYTE   INSEG    CODE           ?PR?DL1A_SEND_CH?SEEKFREE_DL1A
   *DEL*:           000195H   BYTE   INSEG    CODE           ?PR?DL1A_GET_SPAD_INFO?SEEKFREE_DL1A
   *DEL*:           00007FH   BYTE   INSEG    CODE           ?PR?DL1A_ENCODE_TIMEOUT?SEEKFREE_DL1A
   *DEL*:           00008EH   BYTE   INSEG    CODE           ?PR?DL1A_GET_SEQUENCE_STEP_ENABLES?SEEKFREE_DL1A
   *DEL*:           000021H   BYTE   INSEG    CODE           ?PR?DL1A_SCCB_WAITACK?SEEKFREE_DL1A
   *DEL*:           00006CH   BYTE   INSEG    CODE           ?PR?DL1A_GET_DISTANCE?SEEKFREE_DL1A
   *DEL*:           00001FH   BYTE   INSEG    CODE           ?PR?DL1A_SIMIIC_DELAY?SEEKFREE_DL1A
   *DEL*:           0000ABH   BYTE   INSEG    CODE           ?PR?DL1A_PERFORM_SINGLE_REF_CALIBRATION?SEEKFREE_DL1A
   *DEL*:           000169H   BYTE   INSEG    CODE           ?PR?DL1A_GET_SEQUENCE_STEP_TIMEOUTS?SEEKFREE_DL1A
   *DEL*:           000013H   BYTE   INSEG    CODE           ?PR?DL1A_SIMIIC_START?SEEKFREE_DL1A
   *DEL*:           000068H   BYTE   INSEG    CODE           ?PR?DL1A_SIMIIC_READ_REGS?SEEKFREE_DL1A
   *DEL*:           0000B6H   BYTE   INSEG    CODE           ?PR?DL1A_GET_MEASUREMENT_TIMING_BUDGET?SEEKFREE_DL1A
   *DEL*:           000042H   BYTE   INSEG    CODE           ?PR?DL1A_SIMIIC_WRITE_DATS?SEEKFREE_DL1A
   *DEL*:           00003BH   BYTE   INSEG    CODE           ?PR?DL1A_SIMIIC_READ_REG?SEEKFREE_DL1A
   *DEL*:           000068H   BYTE   INSEG    CODE           ?PR?DL1A_SIMIIC_READ_REGS_1?SEEKFREE_DL1A
   *DEL*:           000149H   BYTE   INSEG    CODE           ?PR?DL1A_SET_MEASUREMENT_TIMING_BUDGET?SEEKFREE_DL1A
   *DEL*:           000016H   BYTE   INSEG    CODE           ?PR?DL1A_SIMIIC_STOP?SEEKFREE_DL1A
   *DEL*:           00002AH   BYTE   INSEG    CODE           ?PR?DL1A_SIMIIC_WRITE_REG?SEEKFREE_DL1A
   *DEL*:           0006AEH   BYTE   INSEG    CODE           ?PR?DL1A_INIT?SEEKFREE_DL1A
   *DEL*:           00007AH   BYTE   INSEG    CODE           ?PR?DL1A_GET_VCSEL_PULSE_PERIOD?SEEKFREE_DL1A
   *DEL*:           00001EH   BYTE   INSEG    CODE           ?PR?ICM20602_READ_REGISTER?SEEKFREE_ICM20602
   *DEL*:           00008DH   BYTE   INSEG    CODE           ?PR?ICM20602_GYRO_TRANSITION?SEEKFREE_ICM20602
   *DEL*:           00001AH   BYTE   INSEG    CODE           ?PR?ICM20602_WRITE_REGISTER?SEEKFREE_ICM20602
   *DEL*:           000059H   BYTE   INSEG    CODE           ?PR?ICM20602_SIMSPI_WR_BYTE?SEEKFREE_ICM20602
   *DEL*:           00004EH   BYTE   INSEG    CODE           ?PR?ICM20602_SELF_CHECK?SEEKFREE_ICM20602
   *DEL*:           000051H   BYTE   INSEG    CODE           ?PR?ICM20602_SIMSPI_R_REG_BYTES?SEEKFREE_ICM20602
   *DEL*:           000027H   BYTE   INSEG    CODE           ?PR?ICM20602_SIMSPI_R_REG_BYTE?SEEKFREE_ICM20602
   *DEL*:           00001BH   BYTE   INSEG    CODE           ?PR?ICM20602_SIMSPI_W_REG_BYTE?SEEKFREE_ICM20602
   *DEL*:           0000C2H   BYTE   INSEG    CODE           ?PR?ICM20602_INIT?SEEKFREE_ICM20602
   *DEL*:           000050H   BYTE   INSEG    CODE           ?PR?ICM20602_GET_ACC?SEEKFREE_ICM20602
   *DEL*:           000089H   BYTE   INSEG    CODE           ?PR?ICM20602_ACC_TRANSITION?SEEKFREE_ICM20602
   *DEL*:           000026H   BYTE   INSEG    CODE           ?PR?ICM20602_READ_REGISTERS?SEEKFREE_ICM20602
   *DEL*:           000050H   BYTE   INSEG    CODE           ?PR?ICM20602_GET_GYRO?SEEKFREE_ICM20602
   *DEL*:           000050H   BYTE   INSEG    CODE           ?PR?IMU660RA_GET_GYRO?SEEKFREE_IMU660RA
   *DEL*:           000022H   BYTE   INSEG    CODE           ?PR?IMU660RA_READ_REGISTER?SEEKFREE_IMU660RA
   *DEL*:           000022H   BYTE   INSEG    CODE           ?PR?IMU660RA_WRITE_REGISTERS?SEEKFREE_IMU660RA
   *DEL*:           0000A8H   BYTE   INSEG    CODE           ?PR?IMU660RA_GYRO_TRANSITION?SEEKFREE_IMU660RA
   *DEL*:           00001AH   BYTE   INSEG    CODE           ?PR?IMU660RA_WRITE_REGISTER?SEEKFREE_IMU660RA
   *DEL*:           000059H   BYTE   INSEG    CODE           ?PR?IMU660RA_SIMSPI_WR_BYTE?SEEKFREE_IMU660RA
   *DEL*:           00004BH   BYTE   INSEG    CODE           ?PR?IMU660RA_SELF_CHECK?SEEKFREE_IMU660RA
   *DEL*:           00004BH   BYTE   INSEG    CODE           ?PR?IMU660RA_SIMSPI_R_REG_BYTES?SEEKFREE_IMU660RA
   *DEL*:           00003EH   BYTE   INSEG    CODE           ?PR?IMU660RA_SIMSPI_W_REG_BYTES?SEEKFREE_IMU660RA
   *DEL*:           00001BH   BYTE   INSEG    CODE           ?PR?IMU660RA_SIMSPI_W_REG_BYTE?SEEKFREE_IMU660RA
   *DEL*:           0000AAH   BYTE   INSEG    CODE           ?PR?IMU660RA_INIT?SEEKFREE_IMU660RA
   *DEL*:           000050H   BYTE   INSEG    CODE           ?PR?IMU660RA_GET_ACC?SEEKFREE_IMU660RA
   *DEL*:           00007CH   BYTE   INSEG    CODE           ?PR?IMU660RA_ACC_TRANSITION?SEEKFREE_IMU660RA
   *DEL*:           000026H   BYTE   INSEG    CODE           ?PR?IMU660RA_READ_REGISTERS?SEEKFREE_IMU660RA
   *DEL*:           00008DH   BYTE   INSEG    CODE           ?PR?IMU963RA_ACC_TRANSITION?SEEKFREE_IMU963RA
   *DEL*:           000050H   BYTE   INSEG    CODE           ?PR?IMU963RA_GET_GYRO?SEEKFREE_IMU963RA
   *DEL*:           000051H   BYTE   INSEG    CODE           ?PR?IMU963RA_MAG_TRANSITION?SEEKFREE_IMU963RA
   *DEL*:           0000D2H   BYTE   INSEG    CODE           ?PR?IMU963RA_GYRO_TRANSITION?SEEKFREE_IMU963RA
   *DEL*:           000059H   BYTE   INSEG    CODE           ?PR?IMU963RA_SIMSPI_WR_BYTE?SEEKFREE_IMU963RA
   *DEL*:           00006CH   BYTE   INSEG    CODE           ?PR?IMU963RA_READ_MAG_REGISTER?SEEKFREE_IMU963RA
   *DEL*:           00003AH   BYTE   INSEG    CODE           ?PR?IMU963RA_CONNECT_MAG?SEEKFREE_IMU963RA
   *DEL*:           000026H   BYTE   INSEG    CODE           ?PR?IMU963RA_READ_ACC_GYRO_REGISTERS?SEEKFREE_IMU963RA
   *DEL*:           00007FH   BYTE   INSEG    CODE           ?PR?IMU963RA_WRITE_MAG_REGISTER?SEEKFREE_IMU963RA
   *DEL*:           000023H   BYTE   INSEG    CODE           ?PR?IMU963RA_READ_ACC_GYRO_REGISTER?SEEKFREE_IMU963RA
   *DEL*:           00004BH   BYTE   INSEG    CODE           ?PR?IMU963RA_SIMSPI_R_REG_BYTES?SEEKFREE_IMU963RA
   *DEL*:           00002DH   BYTE   INSEG    CODE           ?PR?IMU963RA_SIMSPI_R_REG_BYTE?SEEKFREE_IMU963RA
   *DEL*:           000051H   BYTE   INSEG    CODE           ?PR?IMU963RA_MAG_SELF_CHECK?SEEKFREE_IMU963RA
   *DEL*:           00001AH   BYTE   INSEG    CODE           ?PR?IMU963RA_WRITE_ACC_GYRO_REGISTER?SEEKFREE_IMU963RA
L251 LINKER/LOCATER V4.66.93.0                                                        04/10/2024  19:22:09  PAGE 13


   *DEL*:           000021H   BYTE   INSEG    CODE           ?PR?IMU963RA_SIMSPI_W_REG_BYTE?SEEKFREE_IMU963RA
   *DEL*:           00011DH   BYTE   INSEG    CODE           ?PR?IMU963RA_INIT?SEEKFREE_IMU963RA
   *DEL*:           00004EH   BYTE   INSEG    CODE           ?PR?IMU963RA_ACC_GYRO_SELF_CHECK?SEEKFREE_IMU963RA
   *DEL*:           000050H   BYTE   INSEG    CODE           ?PR?IMU963RA_GET_ACC?SEEKFREE_IMU963RA
   *DEL*:           00006BH   BYTE   INSEG    CODE           ?PR?IMU963RA_GET_MAG?SEEKFREE_IMU963RA
   *DEL*:           0000A9H   BYTE   INSEG    CODE           ?PR?IPS114_SHOWUINT8_SIMSPI?SEEKFREE_IPS114_SPI
   *DEL*:           0000A5H   BYTE   INSEG    CODE           ?PR?IPS114_SHOWUINT8?SEEKFREE_IPS114_SPI
   *DEL*:           0000EBH   BYTE   INSEG    CODE           ?PR?IPS114_SHOWINT8_SIMSPI?SEEKFREE_IPS114_SPI
   *DEL*:           0000E7H   BYTE   INSEG    CODE           ?PR?IPS114_SHOWINT8?SEEKFREE_IPS114_SPI
   *DEL*:           00002AH   BYTE   INSEG    CODE           ?PR?IPS114_WRITEDATA_16BIT?SEEKFREE_IPS114_SPI
   *DEL*:           000145H   BYTE   INSEG    CODE           ?PR?IPS114_SHOWFLOAT_SIMSPI?SEEKFREE_IPS114_SPI
   *DEL*:           000023H   BYTE   INSEG    CODE           ?PR?IPS114_DRAWPOINT_SIMSPI?SEEKFREE_IPS114_SPI
   *DEL*:           000145H   BYTE   INSEG    CODE           ?PR?IPS114_SHOWFLOAT?SEEKFREE_IPS114_SPI
   *DEL*:           000023H   BYTE   INSEG    CODE           ?PR?IPS114_DRAWPOINT?SEEKFREE_IPS114_SPI
   *DEL*:           0000BFH   BYTE   INSEG    CODE           ?PR?IPS114_SHOWCHAR_SIMSPI?SEEKFREE_IPS114_SPI
   *DEL*:           0000BFH   BYTE   INSEG    CODE           ?PR?IPS114_SHOWCHAR?SEEKFREE_IPS114_SPI
   *DEL*:           0000CDH   BYTE   INSEG    CODE           ?PR?IPS114_SHOWUINT16_SIMSPI?SEEKFREE_IPS114_SPI
   *DEL*:           0000CDH   BYTE   INSEG    CODE           ?PR?IPS114_SHOWUINT16?SEEKFREE_IPS114_SPI
   *DEL*:           0000CEH   BYTE   INSEG    CODE           ?PR?IPS114_SHOWINT32_SIMSPI?SEEKFREE_IPS114_SPI
   *DEL*:           000119H   BYTE   INSEG    CODE           ?PR?IPS114_SHOWINT16_SIMSPI?SEEKFREE_IPS114_SPI
   *DEL*:           0000CEH   BYTE   INSEG    CODE           ?PR?IPS114_SHOWINT32?SEEKFREE_IPS114_SPI
   *DEL*:           000115H   BYTE   INSEG    CODE           ?PR?IPS114_SHOWINT16?SEEKFREE_IPS114_SPI
   *DEL*:           00005FH   BYTE   INSEG    CODE           ?PR?IPS114_CLEAR_SIMSPI?SEEKFREE_IPS114_SPI
   *DEL*:           00005FH   BYTE   INSEG    CODE           ?PR?IPS114_CLEAR?SEEKFREE_IPS114_SPI
   *DEL*:           000055H   BYTE   INSEG    CODE           ?PR?IPS114_WRITEDATAI_16BIT_SIMSPI?SEEKFREE_IPS114_SPI
   *DEL*:           00005DH   BYTE   INSEG    CODE           ?PR?IPS114_SHOWSTR_SIMSPI?SEEKFREE_IPS114_SPI
   *DEL*:           00005DH   BYTE   INSEG    CODE           ?PR?IPS114_SHOWSTR?SEEKFREE_IPS114_SPI
   *DEL*:           00004CH   BYTE   INSEG    CODE           ?PR?IPS114_WRITEINDEX_SIMSPI?SEEKFREE_IPS114_SPI
   *DEL*:           00004CH   BYTE   INSEG    CODE           ?PR?IPS114_WRITEDATA_SIMSPI?SEEKFREE_IPS114_SPI
   *DEL*:           000015H   BYTE   INSEG    CODE           ?PR?IPS114_WRITEINDEX?SEEKFREE_IPS114_SPI
   *DEL*:           000015H   BYTE   INSEG    CODE           ?PR?IPS114_WRITEDATA?SEEKFREE_IPS114_SPI
   *DEL*:           000054H   BYTE   INSEG    CODE           ?PR?IPS114_SET_REGION_SIMSPI?SEEKFREE_IPS114_SPI
   *DEL*:           000154H   BYTE   INSEG    CODE           ?PR?IPS114_INIT_SIMSPI?SEEKFREE_IPS114_SPI
   *DEL*:           000054H   BYTE   INSEG    CODE           ?PR?IPS114_SET_REGION?SEEKFREE_IPS114_SPI
   *DEL*:           000176H   BYTE   INSEG    CODE           ?PR?IPS114_INIT?SEEKFREE_IPS114_SPI
   *DEL*:           000052H   BYTE   INSEG    CODE           ?PR?MPU6050_GET_ACCDATA?SEEKFREE_MPU6050
   *DEL*:           000047H   BYTE   INSEG    CODE           ?PR?OLED_PUTPIXEL?SEEKFREE_OLED
   *DEL*:           00006FH   BYTE   INSEG    CODE           ?PR?OLED_HEXASCII_SPI?SEEKFREE_OLED
   *DEL*:           00044DH   BYTE   INSEG    CODE           ?PR?OLED_DIS_BMP_SPI?SEEKFREE_OLED
   *DEL*:           000121H   BYTE   INSEG    CODE           ?PR?OLED_P8X16STR_SPI?SEEKFREE_OLED
   *DEL*:           000041H   BYTE   INSEG    CODE           ?PR?OLED_CLRPIXEL_SPI?SEEKFREE_OLED
   *DEL*:           0000C0H   BYTE   INSEG    CODE           ?PR?OLED_PRINT_CHINESE_SPI?SEEKFREE_OLED
   *DEL*:           0000CEH   BYTE   INSEG    CODE           ?PR?OLED_PRINTF_INT32?SEEKFREE_OLED
   *DEL*:           000048H   BYTE   INSEG    CODE           ?PR?OLED_PUTPIXEL_SPI?SEEKFREE_OLED
   *DEL*:           000036H   BYTE   INSEG    CODE           ?PR?OLED_SET_POS_SPI?SEEKFREE_OLED
   *DEL*:           000145H   BYTE   INSEG    CODE           ?PR?OLED_PRINTF_FLOAT_SPI?SEEKFREE_OLED
   *DEL*:           000015H   BYTE   INSEG    CODE           ?PR?OLED_WRCMD_SPI?SEEKFREE_OLED
   *DEL*:           000015H   BYTE   INSEG    CODE           ?PR?OLED_WRDAT_SPI?SEEKFREE_OLED
   *DEL*:           00005DH   BYTE   INSEG    CODE           ?PR?OLED_FILL_SPI?SEEKFREE_OLED
   *DEL*:           0000CEH   BYTE   INSEG    CODE           ?PR?OLED_PRINTF_INT32_SPI?SEEKFREE_OLED
   *DEL*:           000027H   BYTE   INSEG    CODE           ?PR?OLED_UINT16_SPI?SEEKFREE_OLED
   *DEL*:           0000D1H   BYTE   INSEG    CODE           ?PR?OLED_P6X8STR_SPI?SEEKFREE_OLED
   *DEL*:           000073H   BYTE   INSEG    CODE           ?PR?OLED_INT16_SPI?SEEKFREE_OLED
   *DEL*:           00046AH   BYTE   INSEG    CODE           ?PR?OLED_DIS_BMP?SEEKFREE_OLED
   *DEL*:           0000C8H   BYTE   INSEG    CODE           ?PR?OLED_INIT_SPI?SEEKFREE_OLED
   *DEL*:           000040H   BYTE   INSEG    CODE           ?PR?OLED_CLRPIXEL?SEEKFREE_OLED
   *DEL*:           0000C0H   BYTE   INSEG    CODE           ?PR?OLED_PRINT_CHINESE?SEEKFREE_OLED
   *DEL*:           00008AH   BYTE   INSEG    CODE           ?PR?CCD_SEND_DATA?SEEKFREE_TSL1401
   *DEL*:           000017H   BYTE   INSEG    CODE           ?PR?CCD_INIT?SEEKFREE_TSL1401
   *DEL*:           00005FH   BYTE   INSEG    CODE           ?PR?CCD_COLLECT?SEEKFREE_TSL1401
   *DEL*:           00009AH   BYTE   INSEG    CODE           ?PR?CRC_CHECK?SEEKFREE_VIRSCO
   *DEL*:           0000DCH   BYTE   INSEG    CODE           ?PR?DATA_CONVERSION?SEEKFREE_VIRSCO
   *DEL*:           00002EH   BYTE   INSEG    CODE           ?PR?WIRELESS_UART_READ_BUFF?SEEKFREE_WIRELESS
   *DEL*:           000073H   BYTE   INSEG    CODE           ?PR?WIRELESS_UART_SEND_BUFF?SEEKFREE_WIRELESS
   *DEL*:           00003EH   BYTE   INSEG    CODE           ?PR?WIRELESS_UART_INIT?SEEKFREE_WIRELESS
L251 LINKER/LOCATER V4.66.93.0                                                        04/10/2024  19:22:09  PAGE 14


   *DEL*:           00001DH   BYTE   INSEG    CODE           ?PR?WIRELESS_UART_SEND_BYTE?SEEKFREE_WIRELESS
   *DEL*:           000012H   BYTE   INSEG    CODE           ?PR?BUZZER?MOTOR
   *DEL*:           000048H   BYTE   INSEG    CODE           ?PR?L_ENC_INTEGRAL?ENCODER
   *DEL*:           000048H   BYTE   INSEG    CODE           ?PR?R_ENC_INTEGRAL?ENCODER
   *DEL*:           000007H   BYTE   INSEG    CODE           ?PR?ENCODER_READ_PULSE?ENCODER
   *DEL*:           000083H   BYTE   INSEG    CODE           ?PR?DIRCONTROL_2?DIRECTION
   *DEL*:           0000EAH   BYTE   INSEG    CODE           ?PR?ANGLE_RING?DIRECTION
   *DEL*:           0003E1H   BYTE   INSEG    CODE           ?PR?SEND4DATATOVOFA?VOFA
   *DEL*:           0002A3H   BYTE   INSEG    CODE           ?PR?ROUNDABOUT?TRACKELEMENT
   *DEL*:           000040H   BYTE   INSEG    CODE           ?PR?SUB_PID?TRACKELEMENT
   *DEL*:           000099H   BYTE   INSEG    CODE           ?PR?CROSSROAD?TRACKELEMENT
   *DEL*:           000038H   BYTE   INSEG    CODE           ?PR?DISTACE?TRACKELEMENT
   *DEL*:           00005DH   BYTE   INSEG    CODE           ?PR?CARSTART_MENU?MENU
   *DEL*:           00005FH   BYTE   INSEG    CODE           ?PR?SHOW_ALLVAL?MENU
   *DEL*:           00001AH   BYTE   INSEG    CODE           ?PR?MEMSET?_?MEMSET



OVERLAY MAP OF MODULE:   .\Out_File\SEEKFREE (board)


FUNCTION/MODULE                               EDATA_GROUP
--> CALLED FUNCTION/MODULE                    START  STOP
=========================================================
UART1_Isr/isr                                 ----- -----

*** NEW ROOT ********************************

UART2_Isr/isr                                 ----- -----

*** NEW ROOT ********************************

UART3_Isr/isr                                 ----- -----

*** NEW ROOT ********************************

UART4_Isr/isr                                 ----- -----
  +--> wireless_uart_callback/SEEKFREE_WIRELESS
  +--> bluetooth_ch9141_uart_callback/SEEKFREE_BLUETOOTH_CH9141

wireless_uart_callback/SEEKFREE_WIRELESS      ----- -----
  +--> fifo_write_buffer/zf_fifo

fifo_write_buffer/zf_fifo                     ----- -----
  +--> memcpy?_/memcpy
  +--> fifo_head_offset/zf_fifo

memcpy?_/memcpy                               ----- -----

fifo_head_offset/zf_fifo                      ----- -----

bluetooth_ch9141_uart_callback/SEEKFREE_+     ----- -----
... BLUETOOTH_CH9141
  +--> fifo_write_buffer/zf_fifo

*** NEW ROOT ********************************

INT0_Isr/isr                                  ----- -----

*** NEW ROOT ********************************

INT1_Isr/isr                                  ----- -----

*** NEW ROOT ********************************

L251 LINKER/LOCATER V4.66.93.0                                                        04/10/2024  19:22:09  PAGE 15


INT2_Isr/isr                                  ----- -----

*** NEW ROOT ********************************

INT3_Isr/isr                                  ----- -----

*** NEW ROOT ********************************

INT4_Isr/isr                                  ----- -----

*** NEW ROOT ********************************

TM0_Isr/isr                                   ----- -----

*** NEW ROOT ********************************

TM1_Isr/isr                                   ----- -----

*** NEW ROOT ********************************

TM2_Isr/isr                                   ----- -----

*** NEW ROOT ********************************

TM3_Isr/isr                                   ----- -----

*** NEW ROOT ********************************

TM4_Isr/encoder                               ----- -----
  +--> L_Encoder_Pulse/encoder
  +--> R_Encoder_Pulse/encoder
  +--> NORMALIZATION_TRACKING_ADC/Inductance
  +--> Tracking/TrackElement
  +--> ctimer_count_clean/zf_tim

L_Encoder_Pulse/encoder                       ----- -----
  +--> ctimer_count_read/zf_tim

ctimer_count_read/zf_tim                      ----- -----

R_Encoder_Pulse/encoder                       ----- -----
  +--> ctimer_count_read/zf_tim

NORMALIZATION_TRACKING_ADC/Inductance         ----- -----
  +--> adc_once/zf_adc
  +--> FCASTI/STC32F_FPMU
  +--> FPDIV/STC32F_FPMU
  +--> FPCMP/STC32F_FPMU
  +--> FPMUL/STC32F_FPMU
  +--> CASTF/STC32F_FPMU
  +--> SQRT/STC32F_FPMU

adc_once/zf_adc                               ----- -----

FCASTI/STC32F_FPMU                            ----- -----

FPDIV/STC32F_FPMU                             ----- -----

FPCMP/STC32F_FPMU                             ----- -----

FPMUL/STC32F_FPMU                             ----- -----

CASTF/STC32F_FPMU                             ----- -----

SQRT/STC32F_FPMU                              ----- -----
L251 LINKER/LOCATER V4.66.93.0                                                        04/10/2024  19:22:09  PAGE 16



Tracking/TrackElement                         ----- -----
  +--> DirControl/direction
  +--> Speed_pid_Out/Motor
  +--> Motor_PWM/Motor

DirControl/direction                          ----- -----
  +--> wh_Turn_Out/direction
  +--> nh_Turn_Out/direction

wh_Turn_Out/direction                         ----- -----
  +--> FCASTI/STC32F_FPMU
  +--> FPSUB/STC32F_FPMU
  +--> FPMUL/STC32F_FPMU
  +--> FPADD/STC32F_FPMU
  +--> CASTF/STC32F_FPMU
  +--> limit/Motor

FPSUB/STC32F_FPMU                             ----- -----

FPADD/STC32F_FPMU                             ----- -----

limit/Motor                                   ----- -----

nh_Turn_Out/direction                         ----- -----
  +--> Get_Angle/mpu6050
  +--> FPMUL/STC32F_FPMU
  +--> FCASTI/STC32F_FPMU
  +--> FPSUB/STC32F_FPMU
  +--> FPADD/STC32F_FPMU
  +--> CASTF/STC32F_FPMU
  +--> limit/Motor

Get_Angle/mpu6050                             ----- -----
  +--> gyro_zero_wander/mpu6050
  +--> FCASTI/STC32F_FPMU
  +--> FPSUB/STC32F_FPMU
  +--> lowPassFilter/mpu6050
  +--> CASTF/STC32F_FPMU
  +--> medianFilter1/mpu6050

gyro_zero_wander/mpu6050                      ----- -----
  +--> FCASTI/STC32F_FPMU
  +--> FPADD/STC32F_FPMU
  +--> FPDIV/STC32F_FPMU

lowPassFilter/mpu6050                         ----- -----
  +--> FPSUB/STC32F_FPMU
  +--> FPMUL/STC32F_FPMU
  +--> FPADD/STC32F_FPMU

medianFilter1/mpu6050                         ----- -----

Speed_pid_Out/Motor                           ----- -----
  +--> FCASTI/STC32F_FPMU
  +--> CASTF/STC32F_FPMU
  +--> abs?_/ABS
  +--> FPMUL/STC32F_FPMU
  +--> FPADD/STC32F_FPMU
  +--> FPCMP/STC32F_FPMU
  +--> limit/Motor

abs?_/ABS                                     ----- -----

Motor_PWM/Motor                               ----- -----
L251 LINKER/LOCATER V4.66.93.0                                                        04/10/2024  19:22:09  PAGE 17


  +--> abs?_/ABS
  +--> pwm_duty/zf_pwm

pwm_duty/zf_pwm                               ----- -----
  +--> FCASTL/STC32F_FPMU
  +--> FPDIV/STC32F_FPMU
  +--> FPMUL/STC32F_FPMU
  +--> CASTF/STC32F_FPMU

FCASTL/STC32F_FPMU                            ----- -----

ctimer_count_clean/zf_tim                     ----- -----

*** NEW ROOT ********************************

?C_C51STARTUP                                 ----- -----

*** NEW ROOT ********************************

?C_C51STARTUP?3                               ----- -----
  +--> main/main

main/main                                     ----- -----
  +--> clock_init/board
  +--> board_init/board
  +--> mpu6050_init/SEEKFREE_MPU6050
  +--> uart_init/zf_uart
  +--> oled_init/SEEKFREE_OLED
  +--> oled_fill/SEEKFREE_OLED
  +--> delay_init/zf_delay
  +--> Inductance_Init/Inductance
  +--> Motor_Init/Motor
  +--> Motor_SET_PID/Motor
  +--> mpu6050_get_gyro/SEEKFREE_MPU6050
  +--> First_menu/menu
  +--> Second_Element_menu/menu
  +--> Second_Motor_menu/menu
  +--> Second__NWHuan_menu/menu
  +--> Second__Speed_menu/menu
  +--> Show_Val_Menu/menu
  +--> oled_printf_float/SEEKFREE_OLED
  +--> Encoder_Time_Init/encoder

clock_init/board                              ----- -----
  +--> set_clk/board

set_clk/board                                 ----- -----

board_init/board                              ----- -----
  +--> delay_init/zf_delay
  +--> ICacheOn/board
  +--> uart_init/zf_uart
  +--> EnableGlobalIRQ/board

delay_init/zf_delay                           ----- -----
  +--> ?C?SLDIV/?C?SLDIV

?C?SLDIV/?C?SLDIV                             ----- -----
  +--> ?C?ULIDIV/?C?ULDIV

?C?ULIDIV/?C?ULDIV                            ----- -----

ICacheOn/board                                ----- -----

uart_init/zf_uart                             ----- -----
L251 LINKER/LOCATER V4.66.93.0                                                        04/10/2024  19:22:09  PAGE 18


  +--> ?C?ULIDIV/?C?ULDIV

EnableGlobalIRQ/board                         ----- -----

mpu6050_init/SEEKFREE_MPU6050                 ----- -----
  +--> delay_ms/zf_delay
  +--> mpu6050_self1_check/SEEKFREE_MPU6050
  +--> mpu6050_simiic_write_reg/SEEKFREE_MPU6050

delay_ms/zf_delay                             ----- -----

mpu6050_self1_check/SEEKFREE_MPU6050          ----- -----
  +--> mpu6050_simiic_write_reg/SEEKFREE_MPU6050
  +--> mpu6050_simiic_read_reg/SEEKFREE_MPU6050
  +--> PRINTF/PRINTF

mpu6050_simiic_write_reg/SEEKFREE_MPU605+     ----- -----
... 0
  +--> mpu6050_simiic_start/SEEKFREE_MPU6050
  +--> mpu6050_send_ch/SEEKFREE_MPU6050
  +--> mpu6050_simiic_stop/SEEKFREE_MPU6050

mpu6050_simiic_start/SEEKFREE_MPU6050         ----- -----
  +--> mpu6050_simiic_delay/SEEKFREE_MPU6050

mpu6050_simiic_delay/SEEKFREE_MPU6050         ----- -----

mpu6050_send_ch/SEEKFREE_MPU6050              ----- -----
  +--> mpu6050_simiic_delay/SEEKFREE_MPU6050
  +--> mpu6050_sccb_waitack/SEEKFREE_MPU6050

mpu6050_sccb_waitack/SEEKFREE_MPU6050         ----- -----
  +--> mpu6050_simiic_delay/SEEKFREE_MPU6050

mpu6050_simiic_stop/SEEKFREE_MPU6050          ----- -----
  +--> mpu6050_simiic_delay/SEEKFREE_MPU6050

mpu6050_simiic_read_reg/SEEKFREE_MPU6050      ----- -----
  +--> mpu6050_simiic_start/SEEKFREE_MPU6050
  +--> mpu6050_send_ch/SEEKFREE_MPU6050
  +--> mpu6050_read_ch/SEEKFREE_MPU6050
  +--> mpu6050_simiic_stop/SEEKFREE_MPU6050

mpu6050_read_ch/SEEKFREE_MPU6050              ----- -----
  +--> mpu6050_simiic_delay/SEEKFREE_MPU6050
  +--> mpu6050_simiic_sendack/SEEKFREE_MPU6050

mpu6050_simiic_sendack/SEEKFREE_MPU6050       ----- -----
  +--> mpu6050_simiic_delay/SEEKFREE_MPU6050

PRINTF/PRINTF                                 072BH 0752H
  +--> OUT/PRINTF

OUT/PRINTF                                    ----- -----
  +--> PUTCH/PRINTF

PUTCH/PRINTF                                  ----- -----
  +--> putchar/board
  +--> OUT/PRINTF

putchar/board                                 ----- -----
  +--> uart_putchar/zf_uart

uart_putchar/zf_uart                          ----- -----

L251 LINKER/LOCATER V4.66.93.0                                                        04/10/2024  19:22:09  PAGE 19


oled_init/SEEKFREE_OLED                       ----- -----
  +--> delay_ms/zf_delay
  +--> oled_wrcmd/SEEKFREE_OLED
  +--> oled_fill/SEEKFREE_OLED
  +--> oled_set_pos/SEEKFREE_OLED

oled_wrcmd/SEEKFREE_OLED                      ----- -----

oled_fill/SEEKFREE_OLED                       ----- -----
  +--> oled_wrcmd/SEEKFREE_OLED
  +--> oled_wrdat/SEEKFREE_OLED

oled_wrdat/SEEKFREE_OLED                      ----- -----

oled_set_pos/SEEKFREE_OLED                    ----- -----
  +--> oled_wrcmd/SEEKFREE_OLED

Inductance_Init/Inductance                    ----- -----
  +--> adc_init/zf_adc

adc_init/zf_adc                               ----- -----

Motor_Init/Motor                              ----- -----
  +--> gpio_mode/zf_gpio
  +--> pwm_init/zf_pwm

gpio_mode/zf_gpio                             ----- -----

pwm_init/zf_pwm                               ----- -----
  +--> pwm_set_gpio/zf_pwm
  +--> ?C?ULIDIV/?C?ULDIV
  +--> FCASTL/STC32F_FPMU
  +--> FPDIV/STC32F_FPMU
  +--> FPMUL/STC32F_FPMU
  +--> CASTF/STC32F_FPMU

pwm_set_gpio/zf_pwm                           ----- -----
  +--> gpio_mode/zf_gpio

Motor_SET_PID/Motor                           ----- -----

mpu6050_get_gyro/SEEKFREE_MPU6050             ----- -----
  +--> mpu6050_simiic_read_regs/SEEKFREE_MPU6050

mpu6050_simiic_read_regs/SEEKFREE_MPU605+     ----- -----
... 0
  +--> mpu6050_simiic_start/SEEKFREE_MPU6050
  +--> mpu6050_send_ch/SEEKFREE_MPU6050
  +--> mpu6050_read_ch/SEEKFREE_MPU6050
  +--> mpu6050_simiic_stop/SEEKFREE_MPU6050

First_menu/menu                               ----- -----
  +--> oled_p6x8str/SEEKFREE_OLED
  +--> delay_ms/zf_delay
  +--> oled_fill/SEEKFREE_OLED

oled_p6x8str/SEEKFREE_OLED                    ----- -----
  +--> oled_set_pos/SEEKFREE_OLED
  +--> oled_wrdat/SEEKFREE_OLED

Second_Element_menu/menu                      ----- -----
  +--> oled_p8x16str/SEEKFREE_OLED
  +--> delay_ms/zf_delay
  +--> oled_fill/SEEKFREE_OLED
  +--> oled_uint16_px8/SEEKFREE_OLED
L251 LINKER/LOCATER V4.66.93.0                                                        04/10/2024  19:22:09  PAGE 20



oled_p8x16str/SEEKFREE_OLED                   ----- -----
  +--> oled_set_pos/SEEKFREE_OLED
  +--> oled_wrdat/SEEKFREE_OLED

oled_uint16_px8/SEEKFREE_OLED                 ----- -----
  +--> oled_hexascii/SEEKFREE_OLED
  +--> oled_p8x16str/SEEKFREE_OLED

oled_hexascii/SEEKFREE_OLED                   ----- -----

Second_Motor_menu/menu                        ----- -----
  +--> oled_p8x16str/SEEKFREE_OLED
  +--> oled_printf_float_px8/SEEKFREE_OLED
  +--> delay_ms/zf_delay
  +--> FCASTI/STC32F_FPMU
  +--> FPMUL/STC32F_FPMU
  +--> FPADD/STC32F_FPMU
  +--> oled_fill/SEEKFREE_OLED

oled_printf_float_px8/SEEKFREE_OLED           ----- -----
  +--> FPCMP/STC32F_FPMU
  +--> zf_sprintf/SEEKFREE_PRINTF
  +--> oled_p8x16str/SEEKFREE_OLED

zf_sprintf/SEEKFREE_PRINTF                    ----- -----
  +--> number_conversion_ascii/SEEKFREE_PRINTF
  +--> printf_reverse_order/SEEKFREE_PRINTF
  +--> memcpy?_/memcpy
  +--> CASTF/STC32F_FPMU
  +--> FPCMP/STC32F_FPMU
  +--> FCASTL/STC32F_FPMU
  +--> FPSUB/STC32F_FPMU
  +--> FPMUL/STC32F_FPMU

number_conversion_ascii/SEEKFREE_PRINTF       ----- -----
  +--> ?C?SLDIV/?C?SLDIV
  +--> ?C?ULIDIV/?C?ULDIV

printf_reverse_order/SEEKFREE_PRINTF          ----- -----

Second__NWHuan_menu/menu                      ----- -----
  +--> oled_fill/SEEKFREE_OLED
  +--> delay_ms/zf_delay
  +--> oled_p8x16str/SEEKFREE_OLED
  +--> oled_printf_float_px8/SEEKFREE_OLED
  +--> FCASTI/STC32F_FPMU
  +--> FPMUL/STC32F_FPMU
  +--> FPADD/STC32F_FPMU

Second__Speed_menu/menu                       ----- -----
  +--> oled_fill/SEEKFREE_OLED
  +--> oled_p8x16str/SEEKFREE_OLED
  +--> oled_uint16_px8/SEEKFREE_OLED
  +--> delay_ms/zf_delay

Show_Val_Menu/menu                            ----- -----
  +--> NORMALIZATION_TRACKING_ADC/Inductance
  +--> show_val/Inductance
  +--> mpu6050_get_gyro/SEEKFREE_MPU6050
  +--> delay_ms/zf_delay
  +--> oled_fill/SEEKFREE_OLED

show_val/Inductance                           ----- -----
  +--> oled_p6x8str/SEEKFREE_OLED
L251 LINKER/LOCATER V4.66.93.0                                                        04/10/2024  19:22:09  PAGE 21


  +--> oled_uint16/SEEKFREE_OLED
  +--> oled_int16/SEEKFREE_OLED
  +--> Get_Angle/mpu6050
  +--> oled_printf_float/SEEKFREE_OLED

oled_uint16/SEEKFREE_OLED                     ----- -----
  +--> oled_hexascii/SEEKFREE_OLED
  +--> oled_p6x8str/SEEKFREE_OLED

oled_int16/SEEKFREE_OLED                      ----- -----
  +--> oled_p6x8str/SEEKFREE_OLED
  +--> oled_hexascii/SEEKFREE_OLED

oled_printf_float/SEEKFREE_OLED               ----- -----
  +--> FPCMP/STC32F_FPMU
  +--> zf_sprintf/SEEKFREE_PRINTF
  +--> oled_p6x8str/SEEKFREE_OLED

Encoder_Time_Init/encoder                     ----- -----
  +--> pit_timer_ms/zf_tim
  +--> gpio_mode/zf_gpio
  +--> ctimer_count_init/zf_tim
  +--> EnableGlobalIRQ/board

pit_timer_ms/zf_tim                           ----- -----
  +--> ?C?SLDIV/?C?SLDIV

ctimer_count_init/zf_tim                      ----- -----

*** NEW ROOT ********************************

?C_C51STARTUP?2                               ----- -----



PUBLIC SYMBOLS OF MODULE:  .\Out_File\SEEKFREE (board)


      VALUE       CLASS    TYPE      PUBLIC SYMBOL NAME
      =================================================
      00000772H   EDATA    BYTE      ?Angle_Ring?BYTE
      00FF45CAH   CODE     ---       ?C?BMOVENP
      00FF45C8H   CODE     ---       ?C?BMOVENP8
      00FF8C1BH   CODE     ---       ?C?CASTF
      000000FFH   NUMBER   ---       ?C?CODESEG
*DEL*:00000000H   CODE     ---       ?C?FCASTC
      00FF8C21H   CODE     ---       ?C?FCASTI
      00FF0086H   CODE     ---       ?C?FCASTL
      00FF000EH   CODE     ---       ?C?FPADD
      00FF0046H   CODE     ---       ?C?FPCMP3
      00FF4393H   CODE     ---       ?C?FPCONVERT
      00FF0056H   CODE     ---       ?C?FPDIV
      00FF001EH   CODE     ---       ?C?FPMUL
*DEL*:00000000H   CODE     ---       ?C?FPNEG
      00FF444BH   CODE     ---       ?C?FPROUND
      00FF0016H   CODE     ---       ?C?FPSUB
      00FF44BEH   CODE     ---       ?C?FTNPWR
      00FF879BH   CODE     ---       ?C?INITEDATA
      00FF8FBAH   HCONST   WORD      ?C?INITEDATA_END
      00FF4538H   CODE     ---       ?C?LIMUL
      00FF4527H   CODE     ---       ?C?LMUL
      00FF3F76H   CODE     ---       ?C?PRNFMT
      00FF44F5H   CODE     ---       ?C?SIDIV
      00FF4594H   CODE     NEAR LAB  ?C?SLDIV
      00FF0000H   CODE     ---       ?C?STARTUP
L251 LINKER/LOCATER V4.66.93.0                                                        04/10/2024  19:22:09  PAGE 22


      00FF4543H   CODE     NEAR LAB  ?C?ULDIV
      00FF4541H   CODE     NEAR LAB  ?C?ULIDIV
      00000001H   NUMBER   ---       ?C?XDATASEG
      00FF0000H   CODE     ---       ?C_STARTUP
      00000944H   EDATA    BYTE      ?data_conversion?BYTE
      000007C8H   EDATA    BYTE      ?DirControl_2?BYTE
      0000096CH   EDATA    BYTE      ?fifo_init?BYTE
      00000893H   EDATA    BYTE      ?fifo_read_buffer?BYTE
      000008DCH   EDATA    BYTE      ?fifo_write_buffer?BYTE
      00000A93H   EDATA    BYTE      ?iap_read_bytes?BYTE
      00000A9DH   EDATA    BYTE      ?iap_write_bytes?BYTE
      00000C92H   EDATA    BYTE      ?iic_init?BYTE
      000004B0H   EDATA    BYTE      ?ips114_showfloat?BYTE
      00000480H   EDATA    BYTE      ?ips114_showfloat_simspi?BYTE
      00000450H   EDATA    BYTE      ?lcd_showfloat?BYTE
      00000420H   EDATA    BYTE      ?lcd_showfloat_simspi?BYTE
      00000A50H   EDATA    BYTE      ?lowPassFilter?BYTE
      00000A38H   EDATA    BYTE      ?Motor_SET_PID?BYTE
      0000082CH   EDATA    BYTE      ?nh_Turn_Out?BYTE
      0000087FH   EDATA    BYTE      ?number_conversion_ascii?BYTE
      00000510H   EDATA    BYTE      ?oled_printf_float?BYTE
      000004E0H   EDATA    BYTE      ?oled_printf_float_px8?BYTE
      00000540H   EDATA    BYTE      ?oled_printf_float_spi?BYTE
      00000753H   EDATA    ---       ?printf?BYTE
      0000086BH   EDATA    BYTE      ?pwm_freq?BYTE
      00000857H   EDATA    BYTE      ?pwm_init?BYTE
      000007E2H   EDATA    BYTE      ?Send4DataToVofa?BYTE
      00000C53H   EDATA    BYTE      ?spi_init?BYTE
      0000091AH   EDATA    BYTE      ?uart_init?BYTE
      00000816H   EDATA    BYTE      ?wh_Turn_Out?BYTE
      000002B9H   EDATA    BYTE      ?zf_sprintf?BYTE
      00FF8C01H   CODE     ---       abs?_
*SFR* 000000E0H   DATA     BYTE      ACC
      0000006CH   EDATA    INT       ad_diff
      00000032H   EDATA    ---       AD_NOR_VAL
      00000104H   EDATA    INT       ad_sum
      0000006EH   EDATA    ---       ad_value
*SFR* 000000BCH   DATA     BYTE      ADC_CONTR
      00FF7B03H   CODE     ---       adc_init
      00000022H   EDATA    ---       ADC_MAX
      00000014H   EDATA    ---       ADC_MIN
      00FF851EH   CODE     ---       adc_once
*SFR* 000000BDH   DATA     BYTE      ADC_RES
*SFR* 000000BEH   DATA     BYTE      ADC_RESL
*SFR* 000000DEH   DATA     BYTE      ADCCFG
      000007B6H   EDATA    FLOAT     angle1
      000003A2H   EDATA    FLOAT     Angle4
      000003D0H   EDATA    INT       ANGLE_FLAG
      000003D4H   EDATA    FLOAT     angle_jifen
*DEL*:00000000H   CODE     ---       Angle_Ring
*DEL*:00000000H   CODE     ---       ATAN?_
*SFR* 000000EFH   DATA     BYTE      AUXINTIF
*SFR* 0000008EH   DATA     BYTE      AUXR
*SFR* 00000097H   DATA     BYTE      AUXR2
*DEL*:00000000H   CODE     ---       bluetooth_ch9141_init
*DEL*:00000000H   CODE     ---       bluetooth_ch9141_read_buff
*DEL*:00000000H   CODE     ---       bluetooth_ch9141_send_buff
      00FF0066H   CODE     ---       bluetooth_ch9141_uart_callback
      000003BCH   EDATA    LONG      bmq_jifen
      00FF7E30H   CODE     ---       board_init
      0000006AH   EDATA    INT       bug
      00000D2CH   EDATA    ---       busy
*DEL*:00000000H   CODE     ---       Buzzer
*SFR* 000000F1H   DATA     BYTE      CANICR
*DEL*:00000000H   CODE     ---       CarStart_Menu
L251 LINKER/LOCATER V4.66.93.0                                                        04/10/2024  19:22:09  PAGE 23


*DEL*:00000000H   CODE     ---       ccd_collect
      00000111H   EDATA    ---       ccd_data
*DEL*:00000000H   CODE     ---       ccd_init
*DEL*:00000000H   CODE     ---       ccd_send_data
      00FF8BB7H   CODE     ---       clock_init
*SFR* 000000E6H   DATA     BYTE      CMPCR1
*SFR* 000000E7H   DATA     BYTE      CMPCR2
*DEL*:00000000H   CODE     ---       COS?_
*DEL*:00000000H   CODE     ---       CRC_CHECK
*DEL*:00000000H   CODE     ---       Crossroad
      00FF83B0H   CODE     ---       ctimer_count_clean
      00FF8574H   CODE     ---       ctimer_count_init
      00FF7BB8H   CODE     ---       ctimer_count_read
*DEL*:00000000H   CODE     ---       data_conversion
      00000211H   EDATA    ---       DataToSend
      00FF8AD6H   CODE     ---       delay_init
      00FF88F0H   CODE     ---       delay_ms
*DEL*:00000000H   CODE     ---       delay_us
      000007BCH   EDATA    INT       dir_out
      00FF84C6H   CODE     ---       DirControl
*DEL*:00000000H   CODE     ---       DirControl_2
*DEL*:00000000H   CODE     ---       DisableGlobalIRQ
*DEL*:00000000H   CODE     ---       disalbe_icache
*DEL*:00000000H   CODE     ---       Distace
      000003B8H   EDATA    LONG      Distance
      000003C6H   EDATA    INT       DISTANCE_FLAG
      00000DDEH   EDATA    WORD      dl1a_distance_mm
      00000DE0H   EDATA    BYTE      dl1a_finsh_flag
*DEL*:00000000H   CODE     ---       dl1a_get_distance
*DEL*:00000000H   CODE     ---       dl1a_init
      00FF00A6H   CODE     ---       dl1b_default_configuration
*SFR* 000000EDH   DATA     BYTE      DMAIR
*SFR* 00000083H   DATA     BYTE      DPH
*SFR* 00000082H   DATA     BYTE      DPL
*SFR* 000000A8H.7 DATA     BIT       EA
*DEL*:00000000H   CODE     ---       eeprom_trig
      000003AAH   EDATA    ---       Element_Order
      00FF0006H   CODE     ---       EnableGlobalIRQ
*DEL*:00000000H   CODE     ---       enalbe_icache
*DEL*:00000000H   CODE     ---       encoder_angle_simspi
*DEL*:00000000H   CODE     ---       encoder_angle_spi
*DEL*:00000000H   CODE     ---       encoder_delay_us
*DEL*:00000000H   CODE     ---       encoder_init_simspi
*DEL*:00000000H   CODE     ---       encoder_init_spi
*DEL*:00000000H   CODE     ---       Encoder_Read_Pulse
*DEL*:00000000H   CODE     ---       encoder_self4_check
*DEL*:00000000H   CODE     ---       encoder_self5_check
*DEL*:00000000H   CODE     ---       encoder_simspi_r_reg_byte
*DEL*:00000000H   CODE     ---       encoder_simspi_w_reg_byte
*DEL*:00000000H   CODE     ---       encoder_spi_r_reg_byte
*DEL*:00000000H   CODE     ---       encoder_spi_w_reg_byte
      00FF898DH   CODE     ---       Encoder_Time_Init
*SFR* 000000A8H.4 DATA     BIT       ES
*SFR* 000000A8H.1 DATA     BIT       ET0
*SFR* 000000A8H.3 DATA     BIT       ET1
*SFR* 000000A8H.0 DATA     BIT       EX0
*SFR* 000000A8H.2 DATA     BIT       EX1
*DEL*:00000000H   CODE     ---       exit_init
*SFR* 000000D0H.5 DATA     BIT       F0
*DEL*:00000000H   CODE     ---       FABS?_
*DEL*:00000000H   CODE     ---       FCLEX
*DEL*:00000000H   CODE     ---       fifo_clear
*DEL*:00000000H   CODE     ---       fifo_end_offset
      00FF814AH   CODE     ---       fifo_head_offset
*DEL*:00000000H   CODE     ---       fifo_init
L251 LINKER/LOCATER V4.66.93.0                                                        04/10/2024  19:22:09  PAGE 24


*DEL*:00000000H   CODE     ---       fifo_read_buffer
*DEL*:00000000H   CODE     ---       fifo_used
      00FF6F53H   CODE     ---       fifo_write_buffer
*DEL*:00000000H   CODE     ---       FINIT
      00FF645BH   CODE     ---       First_menu
      00000DB6H   EDATA    INT       flag
*DEL*:00000000H   CODE     ---       FPCRR
*DEL*:00000000H   CODE     ---       FPCRW
*DEL*:00000000H   CODE     ---       FPSRR
*DEL*:00000000H   CODE     ---       FPSRW
*DEL*:00000000H   CODE     ---       FXAM
      00FF76E0H   CODE     ---       Get_Angle
      00FF2F35H   CODE     ---       gpio_mode
*DEL*:00000000H   CODE     ---       gpio_pull_set
      00FF8071H   CODE     ---       gyro_zero_wander
*SFR* 000000F6H   DATA     BYTE      IAP_ADDRE
*SFR* 000000C3H   DATA     BYTE      IAP_ADDRH
*SFR* 000000C4H   DATA     BYTE      IAP_ADDRL
*SFR* 000000C5H   DATA     BYTE      IAP_CMD
*SFR* 000000C7H   DATA     BYTE      IAP_CONTR
*SFR* 000000C2H   DATA     BYTE      IAP_DATA
*DEL*:00000000H   CODE     ---       iap_erase_page
*DEL*:00000000H   CODE     ---       iap_get_cmd_state
*DEL*:00000000H   CODE     ---       iap_idle
*DEL*:00000000H   CODE     ---       iap_init
*DEL*:00000000H   CODE     ---       iap_read_bytes
*DEL*:00000000H   CODE     ---       iap_set_tps
*SFR* 000000F5H   DATA     BYTE      IAP_TPS
*SFR* 000000C6H   DATA     BYTE      IAP_TRIG
*DEL*:00000000H   CODE     ---       iap_write_bytes
      00FF8BF0H   CODE     ---       ICacheOn
*SFR* 000000F7H   DATA     BYTE      ICHECR
*DEL*:00000000H   CODE     ---       icm20602_acc_transition
      000009D8H   EDATA    INT       icm20602_acc_x
      000009DAH   EDATA    INT       icm20602_acc_y
      000009DCH   EDATA    INT       icm20602_acc_z
*DEL*:00000000H   CODE     ---       icm20602_get_acc
*DEL*:00000000H   CODE     ---       icm20602_get_gyro
*DEL*:00000000H   CODE     ---       icm20602_gyro_transition
      000009DEH   EDATA    INT       icm20602_gyro_x
      000009E0H   EDATA    INT       icm20602_gyro_y
      000009E2H   EDATA    INT       icm20602_gyro_z
*DEL*:00000000H   CODE     ---       icm20602_init
*SFR* 000000A8H   DATA     BYTE      IE
*SFR* 000000AFH   DATA     BYTE      IE2
*DEL*:00000000H   CODE     ---       iic_change_pin
*DEL*:00000000H   CODE     ---       iic_delay_us
*DEL*:00000000H   CODE     ---       iic_init
*DEL*:00000000H   CODE     ---       iic_read_reg
*DEL*:00000000H   CODE     ---       iic_read_reg_bytes
*DEL*:00000000H   CODE     ---       iic_write_reg
*DEL*:00000000H   CODE     ---       imu660ra_acc_transition
      000009E4H   EDATA    INT       imu660ra_acc_x
      000009E6H   EDATA    INT       imu660ra_acc_y
      000009E8H   EDATA    INT       imu660ra_acc_z
      00FF012DH   CODE     ---       imu660ra_config_file
*DEL*:00000000H   CODE     ---       imu660ra_get_acc
*DEL*:00000000H   CODE     ---       imu660ra_get_gyro
*DEL*:00000000H   CODE     ---       imu660ra_gyro_transition
      000009EAH   EDATA    INT       imu660ra_gyro_x
      000009ECH   EDATA    INT       imu660ra_gyro_y
      000009EEH   EDATA    INT       imu660ra_gyro_z
*DEL*:00000000H   CODE     ---       imu660ra_init
*DEL*:00000000H   CODE     ---       imu963ra_acc_transition
      000008A6H   EDATA    INT       imu963ra_acc_x
L251 LINKER/LOCATER V4.66.93.0                                                        04/10/2024  19:22:09  PAGE 25


      000008A8H   EDATA    INT       imu963ra_acc_y
      000008AAH   EDATA    INT       imu963ra_acc_z
*DEL*:00000000H   CODE     ---       imu963ra_get_acc
*DEL*:00000000H   CODE     ---       imu963ra_get_gyro
*DEL*:00000000H   CODE     ---       imu963ra_get_mag
*DEL*:00000000H   CODE     ---       imu963ra_gyro_transition
      000008B2H   EDATA    INT       imu963ra_gyro_x
      000008B4H   EDATA    INT       imu963ra_gyro_y
      000008B6H   EDATA    INT       imu963ra_gyro_z
*DEL*:00000000H   CODE     ---       imu963ra_init
*DEL*:00000000H   CODE     ---       imu963ra_mag_transition
      000008ACH   EDATA    INT       imu963ra_mag_x
      000008AEH   EDATA    INT       imu963ra_mag_y
      000008B0H   EDATA    INT       imu963ra_mag_z
      000000FAH   EDATA    INT       Inductance_Error
      00FF87C7H   CODE     ---       Inductance_Init
      00FF008EH   CODE     ---       INT0_Isr
      00FF000AH   CODE     ---       INT1_Isr
      00FF0096H   CODE     ---       INT2_Isr
      00FF009EH   CODE     ---       INT3_Isr
      00FF8C27H   CODE     ---       INT4_Isr
*SFR* 0000008FH   DATA     BYTE      INTCLKO
*SFR* 000000B8H   DATA     BYTE      IP
*SFR* 000000B5H   DATA     BYTE      IP2
*SFR* 000000B6H   DATA     BYTE      IP2H
*SFR* 000000DFH   DATA     BYTE      IP3
*SFR* 000000EEH   DATA     BYTE      IP3H
*SFR* 000000B7H   DATA     BYTE      IPH
*DEL*:00000000H   CODE     ---       ips114_clear
*DEL*:00000000H   CODE     ---       ips114_clear_simspi
*DEL*:00000000H   CODE     ---       ips114_drawpoint
*DEL*:00000000H   CODE     ---       ips114_drawpoint_simspi
*DEL*:00000000H   CODE     ---       ips114_init
*DEL*:00000000H   CODE     ---       ips114_init_simspi
*DEL*:00000000H   CODE     ---       ips114_set_region
*DEL*:00000000H   CODE     ---       ips114_set_region_simspi
*DEL*:00000000H   CODE     ---       ips114_showchar
*DEL*:00000000H   CODE     ---       ips114_showchar_simspi
*DEL*:00000000H   CODE     ---       ips114_showfloat
*DEL*:00000000H   CODE     ---       ips114_showfloat_simspi
*DEL*:00000000H   CODE     ---       ips114_showint16
*DEL*:00000000H   CODE     ---       ips114_showint16_simspi
*DEL*:00000000H   CODE     ---       ips114_showint32
*DEL*:00000000H   CODE     ---       ips114_showint32_simspi
*DEL*:00000000H   CODE     ---       ips114_showint8
*DEL*:00000000H   CODE     ---       ips114_showint8_simspi
*DEL*:00000000H   CODE     ---       ips114_showstr
*DEL*:00000000H   CODE     ---       ips114_showstr_simspi
*DEL*:00000000H   CODE     ---       ips114_showuint16
*DEL*:00000000H   CODE     ---       ips114_showuint16_simspi
*DEL*:00000000H   CODE     ---       ips114_showuint8
*DEL*:00000000H   CODE     ---       ips114_showuint8_simspi
*DEL*:00000000H   CODE     ---       ips114_writeData
*DEL*:00000000H   CODE     ---       ips114_writedata_16bit
*DEL*:00000000H   CODE     ---       ips114_writeData_simspi
*DEL*:00000000H   CODE     ---       ips114_writeDatai_16bit_simspi
*DEL*:00000000H   CODE     ---       ips114_writeIndex
*DEL*:00000000H   CODE     ---       ips114_writeIndex_simspi
*SFR* 0000009DH   DATA     BYTE      IRCBAND
*SFR* 0000009FH   DATA     BYTE      IRTRIM
*SFR* 00000088H.0 DATA     BIT       IT0
*SFR* 00000088H.2 DATA     BIT       IT1
      00000108H   EDATA    WORD      L1
      000000FCH   EDATA    WORD      L1_NOR_ADC
      0000010EH   EDATA    WORD      L2
L251 LINKER/LOCATER V4.66.93.0                                                        04/10/2024  19:22:09  PAGE 26


      00000100H   EDATA    WORD      L2_NOR_ADC
      0000000AH   EDATA    WORD      L3
      00000102H   EDATA    WORD      L3_NOR_ADC
*DEL*:00000000H   CODE     ---       L_Enc_integral
      00FF8AF9H   CODE     ---       L_Encoder_Pulse
      000007B4H   EDATA    INT       L_Pulse
*DEL*:00000000H   CODE     ---       lcd_clear
*DEL*:00000000H   CODE     ---       lcd_clear_simspi
*DEL*:00000000H   CODE     ---       lcd_drawpoint
*DEL*:00000000H   CODE     ---       lcd_drawpoint_simspi
*DEL*:00000000H   CODE     ---       lcd_init
*DEL*:00000000H   CODE     ---       lcd_init_simspi
*DEL*:00000000H   CODE     ---       lcd_set_region
*DEL*:00000000H   CODE     ---       lcd_set_region_simspi
*DEL*:00000000H   CODE     ---       lcd_showchar
*DEL*:00000000H   CODE     ---       lcd_showchar_simspi
*DEL*:00000000H   CODE     ---       lcd_showfloat
*DEL*:00000000H   CODE     ---       lcd_showfloat_simspi
*DEL*:00000000H   CODE     ---       lcd_showint16
*DEL*:00000000H   CODE     ---       lcd_showint16_simspi
*DEL*:00000000H   CODE     ---       lcd_showint32
*DEL*:00000000H   CODE     ---       lcd_showint32_simspi
*DEL*:00000000H   CODE     ---       lcd_showint8
*DEL*:00000000H   CODE     ---       lcd_showint8_simspi
*DEL*:00000000H   CODE     ---       lcd_showstr
*DEL*:00000000H   CODE     ---       lcd_showstr_simspi
*DEL*:00000000H   CODE     ---       lcd_showuint16
*DEL*:00000000H   CODE     ---       lcd_showuint16_simspi
*DEL*:00000000H   CODE     ---       lcd_showuint8
*DEL*:00000000H   CODE     ---       lcd_showuint8_simspi
*DEL*:00000000H   CODE     ---       lcd_writeData
*DEL*:00000000H   CODE     ---       lcd_writedata_16bit
*DEL*:00000000H   CODE     ---       lcd_writeData_16bit_simspi
*DEL*:00000000H   CODE     ---       lcd_writeData_simspi
*DEL*:00000000H   CODE     ---       lcd_writeIndex
*DEL*:00000000H   CODE     ---       lcd_writeIndex_simspi
      00000030H   EDATA    WORD      Left_Val
      00FF887CH   CODE     ---       limit
*SFR* 000000F9H   DATA     BYTE      LINICR
      00FF89BCH   CODE     ---       lowPassFilter
      0000010CH   EDATA    WORD      M1
      000000FEH   EDATA    WORD      M1_NOR_ADC
      00FF7509H   CODE     ---       main
      00FF78A3H   CODE     ---       medianFilter1
      00FF8AB1H   CODE     ---       memcpy?_
*DEL*:00000000H   CODE     ---       memset?_
      00000DB8H   EDATA    INT       menu
      00000410H   EDATA    FLOAT     Motor_I
      00FF88B7H   CODE     ---       Motor_Init
      00000414H   EDATA    FLOAT     Motor_P
      000003E8H   EDATA    ---       Motor_pid
      00FF7F8FH   CODE     ---       Motor_PWM
      00FF86B2H   CODE     ---       Motor_SET_PID
      00000A20H   EDATA    INT       mpu6050_acc_x
      00000A22H   EDATA    INT       mpu6050_acc_y
      00000A24H   EDATA    INT       mpu6050_acc_z
*DEL*:00000000H   CODE     ---       mpu6050_get_accdata
      00FF85C8H   CODE     ---       mpu6050_get_gyro
      00000A26H   EDATA    INT       mpu6050_gyro_x
      00000A28H   EDATA    INT       mpu6050_gyro_y
      00000A2AH   EDATA    INT       mpu6050_gyro_z
      00FF8350H   CODE     ---       mpu6050_init
      00FF8841H   CODE     ---       mpu6050_simiic_read_reg
      00FF80DEH   CODE     ---       mpu6050_simiic_read_regs
      00000703H   EDATA    FLOAT     Nh_D
L251 LINKER/LOCATER V4.66.93.0                                                        04/10/2024  19:22:09  PAGE 27


      000007AEH   EDATA    INT       nh_out
      0000070BH   EDATA    FLOAT     Nh_P
      00FF7DA9H   CODE     ---       nh_Turn_Out
      0000004EH   EDATA    ---       NOR_VAL
      00FF4C4EH   CODE     ---       NORMALIZATION_TRACKING_ADC
      00FF73F2H   CODE     ---       number_conversion_ascii
*DEL*:00000000H   CODE     ---       NVIC_SetPriority
      00FF2D0DH   CODE     ---       oled_6x8
      00FF212DH   CODE     ---       oled_8x16
*DEL*:00000000H   CODE     ---       oled_clrpixel
*DEL*:00000000H   CODE     ---       oled_clrpixel_spi
*DEL*:00000000H   CODE     ---       oled_dis_bmp
*DEL*:00000000H   CODE     ---       oled_dis_bmp_spi
      00FF840DH   CODE     ---       oled_fill
*DEL*:00000000H   CODE     ---       oled_fill_spi
      00FF8002H   CODE     ---       oled_hexascii
*DEL*:00000000H   CODE     ---       oled_hexascii_spi
      00FF7C6CH   CODE     ---       oled_init
*DEL*:00000000H   CODE     ---       oled_init_spi
      00FF7F1CH   CODE     ---       oled_int16
*DEL*:00000000H   CODE     ---       oled_int16_spi
      00FF797CH   CODE     ---       oled_p6x8str
*DEL*:00000000H   CODE     ---       oled_p6x8str_spi
      00FF71B9H   CODE     ---       oled_p8x16str
*DEL*:00000000H   CODE     ---       oled_p8x16str_spi
*DEL*:00000000H   CODE     ---       oled_print_chinese
*DEL*:00000000H   CODE     ---       oled_print_chinese_spi
      00FF6CC9H   CODE     ---       oled_printf_float
      00FF6E0EH   CODE     ---       oled_printf_float_px8
*DEL*:00000000H   CODE     ---       oled_printf_float_spi
*DEL*:00000000H   CODE     ---       oled_printf_int32
*DEL*:00000000H   CODE     ---       oled_printf_int32_spi
*DEL*:00000000H   CODE     ---       oled_putpixel
*DEL*:00000000H   CODE     ---       oled_putpixel_spi
      00FF8925H   CODE     ---       oled_set_pos
*DEL*:00000000H   CODE     ---       oled_set_pos_spi
      00FF8A3DH   CODE     ---       oled_uint16
      00FF8A64H   CODE     ---       oled_uint16_px8
*DEL*:00000000H   CODE     ---       oled_uint16_spi
      00FF861AH   CODE     ---       oled_wrcmd
*DEL*:00000000H   CODE     ---       oled_wrcmd_spi
      00FF8666H   CODE     ---       oled_wrdat
*DEL*:00000000H   CODE     ---       oled_wrdat_spi
*SFR* 00000080H   DATA     BYTE      P0
*SFR* 00000080H.0 DATA     BIT       P00
*SFR* 00000080H.4 DATA     BIT       P04
*SFR* 00000080H.7 DATA     BIT       P07
*SFR* 00000094H   DATA     BYTE      P0M0
*SFR* 00000093H   DATA     BYTE      P0M1
*SFR* 00000090H   DATA     BYTE      P1
*SFR* 00000090H.5 DATA     BIT       P15
*SFR* 00000090H.6 DATA     BIT       P16
*SFR* 00000092H   DATA     BYTE      P1M0
*SFR* 00000091H   DATA     BYTE      P1M1
*SFR* 000000A0H   DATA     BYTE      P2
*SFR* 000000A0H.0 DATA     BIT       P20
*SFR* 000000A0H.1 DATA     BIT       P21
*SFR* 000000A0H.2 DATA     BIT       P22
*SFR* 000000A0H.3 DATA     BIT       P23
*SFR* 000000A0H.4 DATA     BIT       P24
*SFR* 000000A0H.5 DATA     BIT       P25
*SFR* 000000A0H.6 DATA     BIT       P26
*SFR* 000000A0H.7 DATA     BIT       P27
*SFR* 00000096H   DATA     BYTE      P2M0
*SFR* 00000095H   DATA     BYTE      P2M1
L251 LINKER/LOCATER V4.66.93.0                                                        04/10/2024  19:22:09  PAGE 28


*SFR* 000000B0H   DATA     BYTE      P3
*SFR* 000000B0H.2 DATA     BIT       P32
*SFR* 000000B0H.3 DATA     BIT       P33
*SFR* 000000B0H.6 DATA     BIT       P36
*SFR* 000000B0H.7 DATA     BIT       P37
*SFR* 000000B2H   DATA     BYTE      P3M0
*SFR* 000000B1H   DATA     BYTE      P3M1
*SFR* 000000C0H   DATA     BYTE      P4
*SFR* 000000C0H.0 DATA     BIT       P40
*SFR* 000000C0H.1 DATA     BIT       P41
*SFR* 000000C0H.2 DATA     BIT       P42
*SFR* 000000C0H.3 DATA     BIT       P43
*SFR* 000000C0H.4 DATA     BIT       P44
*SFR* 000000B4H   DATA     BYTE      P4M0
*SFR* 000000B3H   DATA     BYTE      P4M1
*SFR* 000000C8H   DATA     BYTE      P5
*SFR* 000000C8H.0 DATA     BIT       P50
*SFR* 000000C8H.2 DATA     BIT       P52
*SFR* 000000CAH   DATA     BYTE      P5M0
*SFR* 000000C9H   DATA     BYTE      P5M1
*SFR* 000000E8H   DATA     BYTE      P6
*SFR* 000000CCH   DATA     BYTE      P6M0
*SFR* 000000CBH   DATA     BYTE      P6M1
*SFR* 000000F8H   DATA     BYTE      P7
*SFR* 000000E2H   DATA     BYTE      P7M0
*SFR* 000000E1H   DATA     BYTE      P7M1
*SFR* 000000A2H   DATA     BYTE      P_SW1
*SFR* 000000BAH   DATA     BYTE      P_SW2
*SFR* 000000BBH   DATA     BYTE      P_SW3
*SFR* 00000087H   DATA     BYTE      PCON
      00FF75FBH   CODE     ---       pit_timer_ms
      00FF3F1DH   CODE     NEAR LAB  printf
      00FF7D14H   CODE     ---       printf_reverse_order
*SFR* 000000D0H   DATA     BYTE      PSW
      00FF8BDEH   CODE     ---       putchar
      00FF9098H   HCONST   ---       PWM_ARR_ADDR
      00FF90A0H   HCONST   ---       PWM_CCER_ADDR
      00FF90B0H   HCONST   ---       PWM_CCMR_ADDR
      00FF9078H   HCONST   ---       PWM_CCR_ADDR
      00FF72DAH   CODE     ---       pwm_duty
*DEL*:00000000H   CODE     ---       pwm_freq
      00FF5CC9H   CODE     ---       pwm_init
      00FF60A3H   CODE     ---       pwm_set_gpio
      0000000CH   EDATA    WORD      R1
      00000106H   EDATA    WORD      R1_NOR_ADC
      0000000EH   EDATA    WORD      R2
      0000010AH   EDATA    WORD      R2_NOR_ADC
      00000010H   EDATA    WORD      R3
      00000008H   EDATA    WORD      R3_NOR_ADC
*DEL*:00000000H   CODE     ---       R_Enc_integral
      00FF8A8BH   CODE     ---       R_Encoder_Pulse
      000007BAH   EDATA    INT       R_Pulse
*DEL*:00000000H   CODE     ---       recv_ack
*DEL*:00000000H   CODE     ---       recv_data
      00000012H   EDATA    WORD      Right_Val
      000003B2H   EDATA    INT       ring_flag
      000003C8H   EDATA    INT       RING_FLAG1
      000003CAH   EDATA    INT       RING_FLAG2
      000003CCH   EDATA    INT       RING_FLAG3
      000003CEH   EDATA    INT       RING_FLAG4
*DEL*:00000000H   CODE     ---       Roundabout
*SFR* 000000FFH   DATA     BYTE      RSTCFG
*SFR* 0000009BH   DATA     BYTE      S2BUF
*SFR* 0000009AH   DATA     BYTE      S2CON
*SFR* 000000ADH   DATA     BYTE      S3BUF
L251 LINKER/LOCATER V4.66.93.0                                                        04/10/2024  19:22:09  PAGE 29


*SFR* 000000ACH   DATA     BYTE      S3CON
*SFR* 000000FEH   DATA     BYTE      S4BUF
*SFR* 000000FDH   DATA     BYTE      S4CON
*SFR* 00000099H   DATA     BYTE      SBUF
*SFR* 00000098H   DATA     BYTE      SCON
      00FF3842H   CODE     ---       Second__NWHuan_menu
      00FF7A4DH   CODE     ---       Second__Speed_menu
      00FF6AA4H   CODE     ---       Second_Element_menu
      00FF58C2H   CODE     ---       Second_Motor_menu
*DEL*:00000000H   CODE     ---       Send4DataToVofa
*DEL*:00000000H   CODE     ---       send_ack
*DEL*:00000000H   CODE     ---       send_data
*DEL*:00000000H   CODE     ---       send_nak
      00FF5296H   CODE     ---       set_clk
      000003C4H   EDATA    INT       set_speed
*DEL*:00000000H   CODE     ---       set_zero_position_simspi
*DEL*:00000000H   CODE     ---       set_zero_position_spi
      000003A8H   EDATA    INT       shizi_flag
*DEL*:00000000H   CODE     ---       Show_AllVal
      00FF708BH   CODE     ---       show_val
      00FF8805H   CODE     ---       Show_Val_Menu
*DEL*:00000000H   CODE     ---       showimage
*DEL*:00000000H   CODE     ---       simspi_r_reg_byte
*DEL*:00000000H   CODE     ---       simspi_w_reg_byte
*DEL*:00000000H   CODE     ---       simspi_wr_byte
*DEL*:00000000H   CODE     ---       SIN?_
*SFR* 000000CEH   DATA     BYTE      SPCTL
*SFR* 000000CFH   DATA     BYTE      SPDAT
      000007B0H   EDATA    INT       speed
      00FF77C2H   CODE     ---       Speed_pid_Out
*DEL*:00000000H   CODE     ---       spi_change_mode
*DEL*:00000000H   CODE     ---       spi_change_pin
*DEL*:00000000H   CODE     ---       spi_init
*DEL*:00000000H   CODE     ---       spi_mosi
*DEL*:00000000H   CODE     ---       spi_r_reg_byte
*DEL*:00000000H   CODE     ---       spi_w_reg_byte
*DEL*:00000000H   CODE     ---       spi_wr_byte
*SFR* 000000CDH   DATA     BYTE      SPSTAT
      00FF005EH   CODE     ---       SQRT?_
*DEL*:00000000H   CODE     ---       start
*DEL*:00000000H   CODE     ---       stop
      0000039AH   EDATA    FLOAT     Sub_motor_i
      0000039EH   EDATA    FLOAT     Sub_motor_p
*DEL*:00000000H   CODE     ---       Sub_Pid
      000003A6H   EDATA    INT       Sub_speed
      000003B4H   EDATA    FLOAT     Sub_wh_d
      000003C0H   EDATA    FLOAT     Sub_wh_p
      000007B2H   EDATA    INT       Sum_Pulse
      00000D5EH   EDATA    LONG      sys_clk
      00000D59H   EDATA    DWORD     SysTickFlag
*SFR* 000000D6H   DATA     BYTE      T2H
*SFR* 000000D7H   DATA     BYTE      T2L
*SFR* 000000D4H   DATA     BYTE      T3H
*SFR* 000000D5H   DATA     BYTE      T3L
*SFR* 000000D2H   DATA     BYTE      T4H
*SFR* 000000D3H   DATA     BYTE      T4L
*SFR* 000000DDH   DATA     BYTE      T4T3M
*SFR* 000000AEH   DATA     BYTE      TA
*DEL*:00000000H   CODE     ---       TAN?_
*SFR* 00000088H   DATA     BYTE      TCON
      00FF271DH   CODE     ---       tft_ascii
*SFR* 0000008CH   DATA     BYTE      TH0
*SFR* 0000008DH   DATA     BYTE      TH1
*SFR* 0000008AH   DATA     BYTE      TL0
*SFR* 0000008BH   DATA     BYTE      TL1
L251 LINKER/LOCATER V4.66.93.0                                                        04/10/2024  19:22:09  PAGE 30


      00FF8B8AH   CODE     ---       TM0_Isr
      00FF8C11H   CODE     ---       TM1_Isr
      00FF8C2BH   CODE     ---       TM2_Isr
      00FF8C2FH   CODE     ---       TM3_Isr
      00FF846AH   CODE     ---       TM4_Isr
*SFR* 00000089H   DATA     BYTE      TMOD
*SFR* 00000088H.4 DATA     BIT       TR0
*SFR* 00000088H.6 DATA     BIT       TR1
      000003D2H   EDATA    INT       Track_flag
      00FF8288H   CODE     ---       Tracking
      00000110H   EDATA    BYTE      tsl1401_finish_flag
      00FF8746H   CODE     ---       UART1_Isr
      00FF8B56H   CODE     ---       UART2_Isr
      00FF8B70H   CODE     ---       UART3_Isr
      00FF82EFH   CODE     ---       UART4_Isr
      00FF67F1H   CODE     ---       uart_init
*DEL*:00000000H   CODE     ---       uart_putbuff
      00FF7EA7H   CODE     ---       uart_putchar
*DEL*:00000000H   CODE     ---       uart_putstr
*SFR* 000000F4H   DATA     BYTE      USBCON
      00000AF7H   EDATA    ---       virtual_scope_data
*SFR* 000000A6H   DATA     BYTE      VRTRIM
*DEL*:00000000H   CODE     ---       wait
*SFR* 000000C1H   DATA     BYTE      WDT_CONTR
      00000707H   EDATA    FLOAT     Wh_D
      0000070FH   EDATA    FLOAT     Wh_P
      00FF821EH   CODE     ---       wh_Turn_Out
      00000E0BH   EDATA    INT       wireless_type
      00FF8B3CH   CODE     ---       wireless_uart_callback
*DEL*:00000000H   CODE     ---       wireless_uart_init
*DEL*:00000000H   CODE     ---       wireless_uart_read_buff
*DEL*:00000000H   CODE     ---       wireless_uart_send_buff
*DEL*:00000000H   CODE     ---       wireless_uart_send_byte
*SFR* 000000E9H   DATA     BYTE      WTST
      00000D6AH   EDATA    WORD      zf_delay_ms
      00000D6CH   EDATA    WORD      zf_delay_us
      00FF45EDH   CODE     ---       zf_sprintf



SYMBOL TABLE OF MODULE:  .\Out_File\SEEKFREE (board)

      VALUE       REP       CLASS    TYPE      SYMBOL NAME
      ====================================================
      ---         MODULE    ---      ---       board
      00FF0006H   PUBLIC    CODE     ---       EnableGlobalIRQ
      00FF7E30H   PUBLIC    CODE     ---       board_init
      00FF8BB7H   PUBLIC    CODE     ---       clock_init
      00FF8BF0H   PUBLIC    CODE     ---       ICacheOn
      00FF5296H   PUBLIC    CODE     ---       set_clk
      00FF8BDEH   PUBLIC    CODE     ---       putchar
      00000D5EH   PUBLIC    EDATA    LONG      sys_clk
      00000094H   SFRSYM    DATA     BYTE      P0M0
      000000D0H   SFRSYM    DATA     BYTE      PSW
      0000009DH   SFRSYM    DATA     BYTE      IRCBAND
      00000097H   SFRSYM    DATA     BYTE      AUXR2
      000000EFH   SFRSYM    DATA     BYTE      AUXINTIF
      000000FDH   SFRSYM    DATA     BYTE      S4CON
      000000ACH   SFRSYM    DATA     BYTE      S3CON
      0000009AH   SFRSYM    DATA     BYTE      S2CON
      000000A6H   SFRSYM    DATA     BYTE      VRTRIM
      000000B7H   SFRSYM    DATA     BYTE      IPH
      000000CDH   SFRSYM    DATA     BYTE      SPSTAT
      000000DDH   SFRSYM    DATA     BYTE      T4T3M
      0000009FH   SFRSYM    DATA     BYTE      IRTRIM
L251 LINKER/LOCATER V4.66.93.0                                                        04/10/2024  19:22:09  PAGE 31


      000000C1H   SFRSYM    DATA     BYTE      WDT_CONTR
      000000E9H   SFRSYM    DATA     BYTE      WTST
      000000DFH   SFRSYM    DATA     BYTE      IP3
      000000F4H   SFRSYM    DATA     BYTE      USBCON
      000000B5H   SFRSYM    DATA     BYTE      IP2
      000000FFH   SFRSYM    DATA     BYTE      RSTCFG
      000000C7H   SFRSYM    DATA     BYTE      IAP_CONTR
      000000F9H   SFRSYM    DATA     BYTE      LINICR
      0000008EH   SFRSYM    DATA     BYTE      AUXR
      000000AFH   SFRSYM    DATA     BYTE      IE2
      00000088H   SFRSYM    DATA     BYTE      TCON
      00000089H   SFRSYM    DATA     BYTE      TMOD
      00000098H   SFRSYM    DATA     BYTE      SCON
      000000F1H   SFRSYM    DATA     BYTE      CANICR
      00000087H   SFRSYM    DATA     BYTE      PCON
      000000BCH   SFRSYM    DATA     BYTE      ADC_CONTR
      000000F7H   SFRSYM    DATA     BYTE      ICHECR
      000000E7H   SFRSYM    DATA     BYTE      CMPCR2
      000000E6H   SFRSYM    DATA     BYTE      CMPCR1
      000000DEH   SFRSYM    DATA     BYTE      ADCCFG
      000000B8H   SFRSYM    DATA     BYTE      IP
      0000008FH   SFRSYM    DATA     BYTE      INTCLKO
      000000AEH   SFRSYM    DATA     BYTE      TA
      000000EEH   SFRSYM    DATA     BYTE      IP3H
      000000B6H   SFRSYM    DATA     BYTE      IP2H
      000000A8H   SFRSYM    DATA     BYTE      IE
      000000BBH   SFRSYM    DATA     BYTE      P_SW3
      000000BAH   SFRSYM    DATA     BYTE      P_SW2
      000000A2H   SFRSYM    DATA     BYTE      P_SW1
      000000CEH   SFRSYM    DATA     BYTE      SPCTL
      000000F8H   SFRSYM    DATA     BYTE      P7
      000000A8H.7 SFRSYM    DATA     BIT       EA
      000000E8H   SFRSYM    DATA     BYTE      P6
      000000C8H   SFRSYM    DATA     BYTE      P5
      000000C0H   SFRSYM    DATA     BYTE      P4
      000000C9H   SFRSYM    DATA     BYTE      P5M1
      000000B0H   SFRSYM    DATA     BYTE      P3
      000000B3H   SFRSYM    DATA     BYTE      P4M1
      000000CAH   SFRSYM    DATA     BYTE      P5M0
      000000A0H   SFRSYM    DATA     BYTE      P2
      000000B1H   SFRSYM    DATA     BYTE      P3M1
      000000B4H   SFRSYM    DATA     BYTE      P4M0
      00000090H   SFRSYM    DATA     BYTE      P1
      00000095H   SFRSYM    DATA     BYTE      P2M1
      000000B2H   SFRSYM    DATA     BYTE      P3M0
      00000080H   SFRSYM    DATA     BYTE      P0
      00000091H   SFRSYM    DATA     BYTE      P1M1
      00000096H   SFRSYM    DATA     BYTE      P2M0
      00000092H   SFRSYM    DATA     BYTE      P1M0
      00000093H   SFRSYM    DATA     BYTE      P0M1

      00FF5296H   BLOCK     CODE     ---       LVL=0
      00000BDAH   SYMBOL    EDATA    DWORD     clock
      00FF529AH   BLOCK     CODE     NEAR LAB  LVL=1
      00000BDEH   SYMBOL    EDATA    DWORD     temp_sys_clk
      ---         BLOCKEND  ---      ---       LVL=1
      00FF5296H   LINE      CODE     ---       #35
      00FF529AH   LINE      CODE     ---       #36
      00FF529AH   LINE      CODE     ---       #37
      00FF52A0H   LINE      CODE     ---       #40
      00FF5381H   LINE      CODE     ---       #42
      00FF5381H   LINE      CODE     ---       #44
      00FF538EH   LINE      CODE     ---       #45
      00FF539BH   LINE      CODE     ---       #46
      00FF53A8H   LINE      CODE     ---       #47
L251 LINKER/LOCATER V4.66.93.0                                                        04/10/2024  19:22:09  PAGE 32


      00FF53ACH   LINE      CODE     ---       #48
      00FF53AFH   LINE      CODE     ---       #49
      00FF53B0H   LINE      CODE     ---       #50
      00FF53B1H   LINE      CODE     ---       #51
      00FF53B2H   LINE      CODE     ---       #52
      00FF53B3H   LINE      CODE     ---       #53
      00FF53C0H   LINE      CODE     ---       #54
      00FF53C8H   LINE      CODE     ---       #55
      00FF53CBH   LINE      CODE     ---       #57
      00FF53CBH   LINE      CODE     ---       #59
      00FF53D8H   LINE      CODE     ---       #60
      00FF53E5H   LINE      CODE     ---       #61
      00FF53F2H   LINE      CODE     ---       #62
      00FF53F6H   LINE      CODE     ---       #63
      00FF53F9H   LINE      CODE     ---       #64
      00FF53FAH   LINE      CODE     ---       #65
      00FF53FBH   LINE      CODE     ---       #66
      00FF53FCH   LINE      CODE     ---       #67
      00FF53FDH   LINE      CODE     ---       #68
      00FF540AH   LINE      CODE     ---       #69
      00FF5412H   LINE      CODE     ---       #70
      00FF5415H   LINE      CODE     ---       #72
      00FF5415H   LINE      CODE     ---       #74
      00FF5422H   LINE      CODE     ---       #75
      00FF542FH   LINE      CODE     ---       #76
      00FF543CH   LINE      CODE     ---       #77
      00FF5440H   LINE      CODE     ---       #78
      00FF5443H   LINE      CODE     ---       #79
      00FF5444H   LINE      CODE     ---       #80
      00FF5445H   LINE      CODE     ---       #81
      00FF5446H   LINE      CODE     ---       #82
      00FF5447H   LINE      CODE     ---       #83
      00FF5454H   LINE      CODE     ---       #84
      00FF545CH   LINE      CODE     ---       #85
      00FF545FH   LINE      CODE     ---       #87
      00FF545FH   LINE      CODE     ---       #89
      00FF546CH   LINE      CODE     ---       #90
      00FF5479H   LINE      CODE     ---       #91
      00FF5486H   LINE      CODE     ---       #92
      00FF548AH   LINE      CODE     ---       #93
      00FF548BH   LINE      CODE     ---       #94
      00FF548CH   LINE      CODE     ---       #95
      00FF548DH   LINE      CODE     ---       #96
      00FF548EH   LINE      CODE     ---       #97
      00FF5491H   LINE      CODE     ---       #98
      00FF549EH   LINE      CODE     ---       #99
      00FF54A6H   LINE      CODE     ---       #100
      00FF54A9H   LINE      CODE     ---       #102
      00FF54A9H   LINE      CODE     ---       #104
      00FF54B6H   LINE      CODE     ---       #105
      00FF54C3H   LINE      CODE     ---       #106
      00FF54D0H   LINE      CODE     ---       #107
      00FF54D4H   LINE      CODE     ---       #108
      00FF54D7H   LINE      CODE     ---       #109
      00FF54D8H   LINE      CODE     ---       #110
      00FF54D9H   LINE      CODE     ---       #111
      00FF54DAH   LINE      CODE     ---       #112
      00FF54DBH   LINE      CODE     ---       #113
      00FF54E8H   LINE      CODE     ---       #114
      00FF54F0H   LINE      CODE     ---       #115
      00FF54F3H   LINE      CODE     ---       #117
      00FF54F3H   LINE      CODE     ---       #119
      00FF5500H   LINE      CODE     ---       #120
      00FF550DH   LINE      CODE     ---       #121
      00FF551AH   LINE      CODE     ---       #122
L251 LINKER/LOCATER V4.66.93.0                                                        04/10/2024  19:22:09  PAGE 33


      00FF551EH   LINE      CODE     ---       #123
      00FF5521H   LINE      CODE     ---       #124
      00FF5522H   LINE      CODE     ---       #125
      00FF5523H   LINE      CODE     ---       #126
      00FF5524H   LINE      CODE     ---       #127
      00FF5525H   LINE      CODE     ---       #128
      00FF5532H   LINE      CODE     ---       #129
      00FF553AH   LINE      CODE     ---       #130
      00FF553DH   LINE      CODE     ---       #132
      00FF553DH   LINE      CODE     ---       #134
      00FF554AH   LINE      CODE     ---       #135
      00FF5557H   LINE      CODE     ---       #136
      00FF5564H   LINE      CODE     ---       #137
      00FF5568H   LINE      CODE     ---       #138
      00FF556BH   LINE      CODE     ---       #139
      00FF556CH   LINE      CODE     ---       #140
      00FF556DH   LINE      CODE     ---       #141
      00FF556EH   LINE      CODE     ---       #142
      00FF556FH   LINE      CODE     ---       #143
      00FF557CH   LINE      CODE     ---       #144
      00FF5584H   LINE      CODE     ---       #145
      00FF5587H   LINE      CODE     ---       #147
      00FF5587H   LINE      CODE     ---       #149
      00FF5594H   LINE      CODE     ---       #150
      00FF55A1H   LINE      CODE     ---       #151
      00FF55AEH   LINE      CODE     ---       #152
      00FF55B2H   LINE      CODE     ---       #153
      00FF55B5H   LINE      CODE     ---       #154
      00FF55B6H   LINE      CODE     ---       #155
      00FF55B7H   LINE      CODE     ---       #156
      00FF55B8H   LINE      CODE     ---       #157
      00FF55B9H   LINE      CODE     ---       #158
      00FF55C6H   LINE      CODE     ---       #159
      00FF55CEH   LINE      CODE     ---       #160
      00FF55D1H   LINE      CODE     ---       #162
      00FF55D1H   LINE      CODE     ---       #164
      00FF55DEH   LINE      CODE     ---       #165
      00FF55EBH   LINE      CODE     ---       #166
      00FF55F8H   LINE      CODE     ---       #167
      00FF55FCH   LINE      CODE     ---       #168
      00FF55FFH   LINE      CODE     ---       #169
      00FF5600H   LINE      CODE     ---       #170
      00FF5601H   LINE      CODE     ---       #171
      00FF5602H   LINE      CODE     ---       #172
      00FF5603H   LINE      CODE     ---       #173
      00FF5610H   LINE      CODE     ---       #174
      00FF5618H   LINE      CODE     ---       #175
      00FF561BH   LINE      CODE     ---       #177
      00FF561BH   LINE      CODE     ---       #179
      00FF5628H   LINE      CODE     ---       #180
      00FF5635H   LINE      CODE     ---       #181
      00FF5642H   LINE      CODE     ---       #182
      00FF5646H   LINE      CODE     ---       #183
      00FF5649H   LINE      CODE     ---       #184
      00FF564AH   LINE      CODE     ---       #185
      00FF564BH   LINE      CODE     ---       #186
      00FF564CH   LINE      CODE     ---       #187
      00FF564DH   LINE      CODE     ---       #188
      00FF565AH   LINE      CODE     ---       #189
      00FF5662H   LINE      CODE     ---       #190
      00FF5665H   LINE      CODE     ---       #192
      00FF5665H   LINE      CODE     ---       #194
      00FF5672H   LINE      CODE     ---       #195
      00FF567FH   LINE      CODE     ---       #196
      00FF568CH   LINE      CODE     ---       #197
L251 LINKER/LOCATER V4.66.93.0                                                        04/10/2024  19:22:09  PAGE 34


      00FF5690H   LINE      CODE     ---       #198
      00FF5694H   LINE      CODE     ---       #199
      00FF5695H   LINE      CODE     ---       #200
      00FF5696H   LINE      CODE     ---       #201
      00FF5697H   LINE      CODE     ---       #202
      00FF5698H   LINE      CODE     ---       #203
      00FF56A5H   LINE      CODE     ---       #204
      00FF56ADH   LINE      CODE     ---       #205
      00FF56B0H   LINE      CODE     ---       #207
      00FF56B0H   LINE      CODE     ---       #209
      00FF56BDH   LINE      CODE     ---       #210
      00FF56CAH   LINE      CODE     ---       #211
      00FF56D7H   LINE      CODE     ---       #212
      00FF56DBH   LINE      CODE     ---       #213
      00FF56DFH   LINE      CODE     ---       #214
      00FF56E0H   LINE      CODE     ---       #215
      00FF56E1H   LINE      CODE     ---       #216
      00FF56E2H   LINE      CODE     ---       #217
      00FF56E3H   LINE      CODE     ---       #218
      00FF56F0H   LINE      CODE     ---       #219
      00FF56F8H   LINE      CODE     ---       #220
      00FF56FBH   LINE      CODE     ---       #222
      00FF56FBH   LINE      CODE     ---       #224
      00FF5708H   LINE      CODE     ---       #225
      00FF5715H   LINE      CODE     ---       #226
      00FF5722H   LINE      CODE     ---       #227
      00FF5726H   LINE      CODE     ---       #228
      00FF572AH   LINE      CODE     ---       #229
      00FF572BH   LINE      CODE     ---       #230
      00FF572CH   LINE      CODE     ---       #231
      00FF572DH   LINE      CODE     ---       #232
      00FF572EH   LINE      CODE     ---       #233
      00FF573BH   LINE      CODE     ---       #234
      00FF5743H   LINE      CODE     ---       #235
      00FF5746H   LINE      CODE     ---       #237
      00FF5746H   LINE      CODE     ---       #239
      00FF5753H   LINE      CODE     ---       #240
      00FF5760H   LINE      CODE     ---       #241
      00FF576DH   LINE      CODE     ---       #242
      00FF5771H   LINE      CODE     ---       #243
      00FF5775H   LINE      CODE     ---       #244
      00FF5776H   LINE      CODE     ---       #245
      00FF5777H   LINE      CODE     ---       #246
      00FF5778H   LINE      CODE     ---       #247
      00FF5779H   LINE      CODE     ---       #248
      00FF5786H   LINE      CODE     ---       #249
      00FF578EH   LINE      CODE     ---       #250
      00FF5791H   LINE      CODE     ---       #252
      00FF5791H   LINE      CODE     ---       #254
      00FF579EH   LINE      CODE     ---       #255
      00FF57ABH   LINE      CODE     ---       #256
      00FF57B8H   LINE      CODE     ---       #257
      00FF57BCH   LINE      CODE     ---       #258
      00FF57C0H   LINE      CODE     ---       #259
      00FF57C1H   LINE      CODE     ---       #260
      00FF57C2H   LINE      CODE     ---       #261
      00FF57C3H   LINE      CODE     ---       #262
      00FF57C4H   LINE      CODE     ---       #263
      00FF57D1H   LINE      CODE     ---       #264
      00FF57D9H   LINE      CODE     ---       #265
      00FF57DCH   LINE      CODE     ---       #267
      00FF57DCH   LINE      CODE     ---       #269
      00FF57E9H   LINE      CODE     ---       #270
      00FF57F6H   LINE      CODE     ---       #271
      00FF5803H   LINE      CODE     ---       #272
L251 LINKER/LOCATER V4.66.93.0                                                        04/10/2024  19:22:09  PAGE 35


      00FF5807H   LINE      CODE     ---       #273
      00FF580BH   LINE      CODE     ---       #274
      00FF580CH   LINE      CODE     ---       #275
      00FF580DH   LINE      CODE     ---       #276
      00FF580EH   LINE      CODE     ---       #277
      00FF580FH   LINE      CODE     ---       #278
      00FF581CH   LINE      CODE     ---       #279
      00FF5824H   LINE      CODE     ---       #280
      00FF5827H   LINE      CODE     ---       #282
      00FF5827H   LINE      CODE     ---       #284
      00FF5834H   LINE      CODE     ---       #285
      00FF5841H   LINE      CODE     ---       #286
      00FF584EH   LINE      CODE     ---       #287
      00FF5852H   LINE      CODE     ---       #288
      00FF5856H   LINE      CODE     ---       #289
      00FF5857H   LINE      CODE     ---       #290
      00FF5858H   LINE      CODE     ---       #291
      00FF5859H   LINE      CODE     ---       #292
      00FF585AH   LINE      CODE     ---       #293
      00FF5867H   LINE      CODE     ---       #294
      00FF586FH   LINE      CODE     ---       #295
      00FF5871H   LINE      CODE     ---       #307
      00FF5871H   LINE      CODE     ---       #309
      00FF587EH   LINE      CODE     ---       #310
      00FF588BH   LINE      CODE     ---       #311
      00FF5898H   LINE      CODE     ---       #312
      00FF589CH   LINE      CODE     ---       #313
      00FF58A0H   LINE      CODE     ---       #314
      00FF58A1H   LINE      CODE     ---       #315
      00FF58A2H   LINE      CODE     ---       #316
      00FF58A3H   LINE      CODE     ---       #317
      00FF58A4H   LINE      CODE     ---       #318
      00FF58B1H   LINE      CODE     ---       #319
      00FF58BDH   LINE      CODE     ---       #320
      00FF58BDH   LINE      CODE     ---       #321
      00FF58BDH   LINE      CODE     ---       #323
      00FF58C1H   LINE      CODE     ---       #324
      ---         BLOCKEND  ---      ---       LVL=0

      00FF8BDEH   BLOCK     CODE     ---       LVL=0
      00000E6FH   SYMBOL    EDATA    CHAR      c
      00FF8BDEH   LINE      CODE     ---       #333
      00FF8BE2H   LINE      CODE     ---       #335
      00FF8BEBH   LINE      CODE     ---       #337
      00FF8BEFH   LINE      CODE     ---       #338
      ---         BLOCKEND  ---      ---       LVL=0

      00FF0006H   BLOCK     CODE     ---       LVL=0
      00FF0006H   LINE      CODE     ---       #347
      00FF0006H   LINE      CODE     ---       #349
      00FF0009H   LINE      CODE     ---       #350
      ---         BLOCKEND  ---      ---       LVL=0

      00FF8BF0H   BLOCK     CODE     ---       LVL=0
      00FF8BF0H   LINE      CODE     ---       #385
      00FF8BF0H   LINE      CODE     ---       #387
      00FF8BF1H   LINE      CODE     ---       #388
      00FF8BF2H   LINE      CODE     ---       #389
      00FF8BF6H   LINE      CODE     ---       #391
      00FF8BFAH   LINE      CODE     ---       #393
      00FF8BFEH   LINE      CODE     ---       #395
      00FF8BFFH   LINE      CODE     ---       #396
      00FF8C00H   LINE      CODE     ---       #397
      ---         BLOCKEND  ---      ---       LVL=0

L251 LINKER/LOCATER V4.66.93.0                                                        04/10/2024  19:22:09  PAGE 36


      00FF8BB7H   BLOCK     CODE     ---       LVL=0
      00000D62H   SYMBOL    EDATA    DWORD     clock
      00FF8BB7H   LINE      CODE     ---       #399
      00FF8BBBH   LINE      CODE     ---       #401
      00FF8BBFH   LINE      CODE     ---       #409
      00FF8BCAH   LINE      CODE     ---       #413
      ---         BLOCKEND  ---      ---       LVL=0

      00FF7E30H   BLOCK     CODE     ---       LVL=0
      00FF7E30H   LINE      CODE     ---       #416
      00FF7E30H   LINE      CODE     ---       #419
      00FF7E33H   LINE      CODE     ---       #422
      00FF7E36H   LINE      CODE     ---       #423
      00FF7E39H   LINE      CODE     ---       #424
      00FF7E3CH   LINE      CODE     ---       #425
      00FF7E3FH   LINE      CODE     ---       #426
      00FF7E42H   LINE      CODE     ---       #427
      00FF7E45H   LINE      CODE     ---       #428
      00FF7E48H   LINE      CODE     ---       #429
      00FF7E4BH   LINE      CODE     ---       #430
      00FF7E4EH   LINE      CODE     ---       #431
      00FF7E51H   LINE      CODE     ---       #432
      00FF7E54H   LINE      CODE     ---       #433
      00FF7E57H   LINE      CODE     ---       #452
      00FF7E5AH   LINE      CODE     ---       #454
      00FF7E6AH   LINE      CODE     ---       #459
      00FF7E6DH   LINE      CODE     ---       #460
      00FF7E6DH   LINE      CODE     ---       #464
      00FF7E70H   LINE      CODE     ---       #465
      00FF7E73H   LINE      CODE     ---       #466
      00FF7E76H   LINE      CODE     ---       #467
      00FF7E79H   LINE      CODE     ---       #468
      00FF7E7CH   LINE      CODE     ---       #469
      00FF7E7FH   LINE      CODE     ---       #470
      00FF7E82H   LINE      CODE     ---       #471
      00FF7E85H   LINE      CODE     ---       #472
      00FF7E88H   LINE      CODE     ---       #474
      00FF7EA3H   LINE      CODE     ---       #475
      00FF7EA6H   LINE      CODE     ---       #476
      ---         BLOCKEND  ---      ---       LVL=0

      ---         MODULE    ---      ---       common
      00000E0BH   PUBLIC    EDATA    INT       wireless_type
      000000D0H   SFRSYM    DATA     BYTE      PSW
      0000009DH   SFRSYM    DATA     BYTE      IRCBAND
      00000097H   SFRSYM    DATA     BYTE      AUXR2
      000000EFH   SFRSYM    DATA     BYTE      AUXINTIF
      000000FDH   SFRSYM    DATA     BYTE      S4CON
      000000ACH   SFRSYM    DATA     BYTE      S3CON
      0000009AH   SFRSYM    DATA     BYTE      S2CON
      000000B7H   SFRSYM    DATA     BYTE      IPH
      000000CDH   SFRSYM    DATA     BYTE      SPSTAT
      000000DDH   SFRSYM    DATA     BYTE      T4T3M
      000000C1H   SFRSYM    DATA     BYTE      WDT_CONTR
      000000DFH   SFRSYM    DATA     BYTE      IP3
      000000F4H   SFRSYM    DATA     BYTE      USBCON
      000000B5H   SFRSYM    DATA     BYTE      IP2
      000000FFH   SFRSYM    DATA     BYTE      RSTCFG
      000000C7H   SFRSYM    DATA     BYTE      IAP_CONTR
      000000F9H   SFRSYM    DATA     BYTE      LINICR
      0000008EH   SFRSYM    DATA     BYTE      AUXR
      000000AFH   SFRSYM    DATA     BYTE      IE2
      00000088H   SFRSYM    DATA     BYTE      TCON
      00000089H   SFRSYM    DATA     BYTE      TMOD
      00000098H   SFRSYM    DATA     BYTE      SCON
L251 LINKER/LOCATER V4.66.93.0                                                        04/10/2024  19:22:09  PAGE 37


      000000F1H   SFRSYM    DATA     BYTE      CANICR
      00000087H   SFRSYM    DATA     BYTE      PCON
      000000BCH   SFRSYM    DATA     BYTE      ADC_CONTR
      000000E7H   SFRSYM    DATA     BYTE      CMPCR2
      000000E6H   SFRSYM    DATA     BYTE      CMPCR1
      000000DEH   SFRSYM    DATA     BYTE      ADCCFG
      000000B8H   SFRSYM    DATA     BYTE      IP
      0000008FH   SFRSYM    DATA     BYTE      INTCLKO
      000000EEH   SFRSYM    DATA     BYTE      IP3H
      000000B6H   SFRSYM    DATA     BYTE      IP2H
      000000A8H   SFRSYM    DATA     BYTE      IE
      000000BBH   SFRSYM    DATA     BYTE      P_SW3
      000000BAH   SFRSYM    DATA     BYTE      P_SW2
      000000A2H   SFRSYM    DATA     BYTE      P_SW1
      000000CEH   SFRSYM    DATA     BYTE      SPCTL
      000000F8H   SFRSYM    DATA     BYTE      P7
      000000E8H   SFRSYM    DATA     BYTE      P6
      000000C8H   SFRSYM    DATA     BYTE      P5
      000000C0H   SFRSYM    DATA     BYTE      P4
      000000B0H   SFRSYM    DATA     BYTE      P3
      000000A0H   SFRSYM    DATA     BYTE      P2
      00000090H   SFRSYM    DATA     BYTE      P1
      00000080H   SFRSYM    DATA     BYTE      P0

      ---         MODULE    ---      ---       STC32F_FPMU
      00FF8C1BH   PUBLIC    CODE     ---       ?C?CASTF
      00FF8C21H   PUBLIC    CODE     ---       ?C?FCASTI
      00FF0086H   PUBLIC    CODE     ---       ?C?FCASTL
      00FF000EH   PUBLIC    CODE     ---       ?C?FPADD
      00FF0046H   PUBLIC    CODE     ---       ?C?FPCMP3
      00FF0056H   PUBLIC    CODE     ---       ?C?FPDIV
      00FF001EH   PUBLIC    CODE     ---       ?C?FPMUL
      00FF0016H   PUBLIC    CODE     ---       ?C?FPSUB
      00FF005EH   PUBLIC    CODE     ---       SQRT?_
      000000E0H   SFRSYM    DATA     BYTE      ACC
      000000EDH   SFRSYM    DATA     BYTE      DMAIR
      00000083H   SFRSYM    DATA     BYTE      DPH
      00000082H   SFRSYM    DATA     BYTE      DPL
      0000001CH   SYMBOL    NUMBER   ---       DMA_FPADD
      00000030H   SYMBOL    NUMBER   ---       DMA_FPATAN
      00000027H   SYMBOL    NUMBER   ---       DMA_FPCLD
      00000032H   SYMBOL    NUMBER   ---       DMA_FPCLEX
      00000021H   SYMBOL    NUMBER   ---       DMA_FPCMP
      0000002EH   SYMBOL    NUMBER   ---       DMA_FPCOS
      00000035H   SYMBOL    NUMBER   ---       DMA_FPCRR
      00000036H   SYMBOL    NUMBER   ---       DMA_FPCRW
      00000023H   SYMBOL    NUMBER   ---       DMA_FPCST
      0000001FH   SYMBOL    NUMBER   ---       DMA_FPDIV
      00000028H   SYMBOL    NUMBER   ---       DMA_FPILD
      00000031H   SYMBOL    NUMBER   ---       DMA_FPINIT
      00000024H   SYMBOL    NUMBER   ---       DMA_FPIST
      00000029H   SYMBOL    NUMBER   ---       DMA_FPLLD
      00000025H   SYMBOL    NUMBER   ---       DMA_FPLST
      0000001EH   SYMBOL    NUMBER   ---       DMA_FPMUL
      0000002DH   SYMBOL    NUMBER   ---       DMA_FPSIN
      00000020H   SYMBOL    NUMBER   ---       DMA_FPSQRT
      00000033H   SYMBOL    NUMBER   ---       DMA_FPSRR
      00000034H   SYMBOL    NUMBER   ---       DMA_FPSRW
      0000001DH   SYMBOL    NUMBER   ---       DMA_FPSUB
      0000002FH   SYMBOL    NUMBER   ---       DMA_FPTAN
      00000022H   SYMBOL    NUMBER   ---       DMA_FPXAM
      00000001H   SYMBOL    NUMBER   ---       FP_CONV_EN
      00000001H   SYMBOL    NUMBER   ---       FP_REGS_EN
      00000001H   SYMBOL    NUMBER   ---       FP_TRIG_EN

L251 LINKER/LOCATER V4.66.93.0                                                        04/10/2024  19:22:09  PAGE 38


      00FF000EH   BLOCK     CODE     NEAR LAB  LVL=0
      00FF000EH   LINE      CODE     ---       #62
      00FF0011H   LINE      CODE     ---       #63
      ---         BLOCKEND  ---      ---       LVL=0

      00FF0016H   BLOCK     CODE     NEAR LAB  LVL=0
      00FF0016H   LINE      CODE     ---       #72
      00FF0019H   LINE      CODE     ---       #73
      ---         BLOCKEND  ---      ---       LVL=0

      00FF001EH   BLOCK     CODE     NEAR LAB  LVL=0
      00FF001EH   LINE      CODE     ---       #82
      00FF0021H   LINE      CODE     ---       #83
      ---         BLOCKEND  ---      ---       LVL=0

      00FF0056H   BLOCK     CODE     NEAR LAB  LVL=0
      00FF0056H   LINE      CODE     ---       #92
      00FF0059H   LINE      CODE     ---       #93
      ---         BLOCKEND  ---      ---       LVL=0

      00FF005EH   BLOCK     CODE     NEAR LAB  LVL=0
      00FF005EH   LINE      CODE     ---       #102
      00FF0061H   LINE      CODE     ---       #103
      ---         BLOCKEND  ---      ---       LVL=0

      00FF0046H   BLOCK     CODE     NEAR LAB  LVL=0
      00FF0046H   LINE      CODE     ---       #113
      00FF0049H   LINE      CODE     ---       #114
      00FF004BH   LINE      CODE     ---       #115
      00FF004DH   LINE      CODE     ---       #116
      00FF004FH   LINE      CODE     ---       #117
      00FF0051H   LINE      CODE     ---       #118
      ---         BLOCKEND  ---      ---       LVL=0

      00FF8C1BH   BLOCK     CODE     NEAR LAB  LVL=0
      00FF8C1BH   LINE      CODE     ---       #213
      00FF8C1EH   LINE      CODE     ---       #214
      00FF8C20H   LINE      CODE     ---       #215
      ---         BLOCKEND  ---      ---       LVL=0

      00FF8C21H   BLOCK     CODE     NEAR LAB  LVL=0
      00FF8C21H   LINE      CODE     ---       #235
      00FF8C23H   LINE      CODE     ---       #236
      00FF8C26H   LINE      CODE     ---       #237
      ---         BLOCKEND  ---      ---       LVL=0

      00FF0086H   BLOCK     CODE     NEAR LAB  LVL=0
      00FF0086H   LINE      CODE     ---       #246
      00FF0089H   LINE      CODE     ---       #247
      ---         BLOCKEND  ---      ---       LVL=0

      ---         MODULE    ---      ---       zf_adc
      00FF851EH   PUBLIC    CODE     ---       adc_once
      00FF7B03H   PUBLIC    CODE     ---       adc_init
      00000094H   SFRSYM    DATA     BYTE      P0M0
      000000D0H   SFRSYM    DATA     BYTE      PSW
      0000009DH   SFRSYM    DATA     BYTE      IRCBAND
      00000097H   SFRSYM    DATA     BYTE      AUXR2
      000000EFH   SFRSYM    DATA     BYTE      AUXINTIF
      000000FDH   SFRSYM    DATA     BYTE      S4CON
      000000ACH   SFRSYM    DATA     BYTE      S3CON
      0000009AH   SFRSYM    DATA     BYTE      S2CON
      000000B7H   SFRSYM    DATA     BYTE      IPH
      000000CDH   SFRSYM    DATA     BYTE      SPSTAT
      000000BEH   SFRSYM    DATA     BYTE      ADC_RESL
L251 LINKER/LOCATER V4.66.93.0                                                        04/10/2024  19:22:09  PAGE 39


      000000DDH   SFRSYM    DATA     BYTE      T4T3M
      000000C1H   SFRSYM    DATA     BYTE      WDT_CONTR
      000000DFH   SFRSYM    DATA     BYTE      IP3
      000000F4H   SFRSYM    DATA     BYTE      USBCON
      000000B5H   SFRSYM    DATA     BYTE      IP2
      000000FFH   SFRSYM    DATA     BYTE      RSTCFG
      000000C7H   SFRSYM    DATA     BYTE      IAP_CONTR
      000000F9H   SFRSYM    DATA     BYTE      LINICR
      0000008EH   SFRSYM    DATA     BYTE      AUXR
      000000AFH   SFRSYM    DATA     BYTE      IE2
      00000088H   SFRSYM    DATA     BYTE      TCON
      00000089H   SFRSYM    DATA     BYTE      TMOD
      00000098H   SFRSYM    DATA     BYTE      SCON
      000000F1H   SFRSYM    DATA     BYTE      CANICR
      00000087H   SFRSYM    DATA     BYTE      PCON
      000000BCH   SFRSYM    DATA     BYTE      ADC_CONTR
      000000E7H   SFRSYM    DATA     BYTE      CMPCR2
      000000E6H   SFRSYM    DATA     BYTE      CMPCR1
      000000DEH   SFRSYM    DATA     BYTE      ADCCFG
      000000B8H   SFRSYM    DATA     BYTE      IP
      0000008FH   SFRSYM    DATA     BYTE      INTCLKO
      000000EEH   SFRSYM    DATA     BYTE      IP3H
      000000B6H   SFRSYM    DATA     BYTE      IP2H
      000000BDH   SFRSYM    DATA     BYTE      ADC_RES
      000000A8H   SFRSYM    DATA     BYTE      IE
      000000BBH   SFRSYM    DATA     BYTE      P_SW3
      000000BAH   SFRSYM    DATA     BYTE      P_SW2
      000000A2H   SFRSYM    DATA     BYTE      P_SW1
      000000CEH   SFRSYM    DATA     BYTE      SPCTL
      000000F8H   SFRSYM    DATA     BYTE      P7
      000000E8H   SFRSYM    DATA     BYTE      P6
      000000C8H   SFRSYM    DATA     BYTE      P5
      000000C0H   SFRSYM    DATA     BYTE      P4
      000000B0H   SFRSYM    DATA     BYTE      P3
      000000A0H   SFRSYM    DATA     BYTE      P2
      00000090H   SFRSYM    DATA     BYTE      P1
      00000080H   SFRSYM    DATA     BYTE      P0
      00000091H   SFRSYM    DATA     BYTE      P1M1
      00000092H   SFRSYM    DATA     BYTE      P1M0
      00000093H   SFRSYM    DATA     BYTE      P0M1

      00FF7B03H   BLOCK     CODE     ---       LVL=0
      00000D66H   SYMBOL    EDATA    INT       adcn
      00000D68H   SYMBOL    EDATA    INT       speed
      00FF7B03H   LINE      CODE     ---       #32
      00FF7B0BH   LINE      CODE     ---       #34
      00FF7B0EH   LINE      CODE     ---       #36
      00FF7B11H   LINE      CODE     ---       #37
      00FF7B19H   LINE      CODE     ---       #39
      00FF7B2BH   LINE      CODE     ---       #42
      00FF7B46H   LINE      CODE     ---       #43
      00FF7B5FH   LINE      CODE     ---       #44
      00FF7B61H   LINE      CODE     ---       #45
      00FF7B71H   LINE      CODE     ---       #48
      00FF7B8CH   LINE      CODE     ---       #49
      00FF7BA5H   LINE      CODE     ---       #50
      00FF7BA5H   LINE      CODE     ---       #52
      00FF7BB4H   LINE      CODE     ---       #54
      00FF7BB7H   LINE      CODE     ---       #55
      ---         BLOCKEND  ---      ---       LVL=0

      00FF851EH   BLOCK     CODE     ---       LVL=0
      00000C8AH   SYMBOL    EDATA    INT       adcn
      00000C8CH   SYMBOL    EDATA    INT       resolution
      00FF8526H   BLOCK     CODE     NEAR LAB  LVL=1
L251 LINKER/LOCATER V4.66.93.0                                                        04/10/2024  19:22:09  PAGE 40


      00000C8EH   SYMBOL    EDATA    WORD      adc_value
      ---         BLOCKEND  ---      ---       LVL=1
      00FF851EH   LINE      CODE     ---       #66
      00FF8526H   LINE      CODE     ---       #67
      00FF8526H   LINE      CODE     ---       #70
      00FF8529H   LINE      CODE     ---       #71
      00FF8531H   LINE      CODE     ---       #73
      00FF8534H   LINE      CODE     ---       #74
      00FF8539H   LINE      CODE     ---       #75
      00FF853CH   LINE      CODE     ---       #77
      00FF8544H   LINE      CODE     ---       #78
      00FF854CH   LINE      CODE     ---       #79
      00FF855AH   LINE      CODE     ---       #81
      00FF855DH   LINE      CODE     ---       #82
      00FF8560H   LINE      CODE     ---       #84
      00FF8573H   LINE      CODE     ---       #87
      00FF8573H   LINE      CODE     ---       #88
      ---         BLOCKEND  ---      ---       LVL=0

      ---         MODULE    ---      ---       zf_delay
      00FF8AD6H   PUBLIC    CODE     ---       delay_init
      00FF88F0H   PUBLIC    CODE     ---       delay_ms
      00000D6AH   PUBLIC    EDATA    WORD      zf_delay_ms
      00000D6CH   PUBLIC    EDATA    WORD      zf_delay_us
      000000D0H   SFRSYM    DATA     BYTE      PSW
      0000009DH   SFRSYM    DATA     BYTE      IRCBAND
      00000097H   SFRSYM    DATA     BYTE      AUXR2
      000000EFH   SFRSYM    DATA     BYTE      AUXINTIF
      000000FDH   SFRSYM    DATA     BYTE      S4CON
      000000ACH   SFRSYM    DATA     BYTE      S3CON
      0000009AH   SFRSYM    DATA     BYTE      S2CON
      000000B7H   SFRSYM    DATA     BYTE      IPH
      000000CDH   SFRSYM    DATA     BYTE      SPSTAT
      000000DDH   SFRSYM    DATA     BYTE      T4T3M
      000000C1H   SFRSYM    DATA     BYTE      WDT_CONTR
      000000DFH   SFRSYM    DATA     BYTE      IP3
      000000F4H   SFRSYM    DATA     BYTE      USBCON
      000000B5H   SFRSYM    DATA     BYTE      IP2
      000000FFH   SFRSYM    DATA     BYTE      RSTCFG
      000000C7H   SFRSYM    DATA     BYTE      IAP_CONTR
      000000F9H   SFRSYM    DATA     BYTE      LINICR
      0000008EH   SFRSYM    DATA     BYTE      AUXR
      000000AFH   SFRSYM    DATA     BYTE      IE2
      00000088H   SFRSYM    DATA     BYTE      TCON
      00000089H   SFRSYM    DATA     BYTE      TMOD
      00000098H   SFRSYM    DATA     BYTE      SCON
      000000F1H   SFRSYM    DATA     BYTE      CANICR
      00000087H   SFRSYM    DATA     BYTE      PCON
      000000BCH   SFRSYM    DATA     BYTE      ADC_CONTR
      000000E7H   SFRSYM    DATA     BYTE      CMPCR2
      000000E6H   SFRSYM    DATA     BYTE      CMPCR1
      000000DEH   SFRSYM    DATA     BYTE      ADCCFG
      000000B8H   SFRSYM    DATA     BYTE      IP
      0000008FH   SFRSYM    DATA     BYTE      INTCLKO
      000000EEH   SFRSYM    DATA     BYTE      IP3H
      000000B6H   SFRSYM    DATA     BYTE      IP2H
      000000A8H   SFRSYM    DATA     BYTE      IE
      000000BBH   SFRSYM    DATA     BYTE      P_SW3
      000000BAH   SFRSYM    DATA     BYTE      P_SW2
      000000A2H   SFRSYM    DATA     BYTE      P_SW1
      000000CEH   SFRSYM    DATA     BYTE      SPCTL
      000000F8H   SFRSYM    DATA     BYTE      P7
      000000E8H   SFRSYM    DATA     BYTE      P6
      000000C8H   SFRSYM    DATA     BYTE      P5
      000000C0H   SFRSYM    DATA     BYTE      P4
L251 LINKER/LOCATER V4.66.93.0                                                        04/10/2024  19:22:09  PAGE 41


      000000B0H   SFRSYM    DATA     BYTE      P3
      000000A0H   SFRSYM    DATA     BYTE      P2
      00000090H   SFRSYM    DATA     BYTE      P1
      00000080H   SFRSYM    DATA     BYTE      P0

      00FF8AD6H   BLOCK     CODE     ---       LVL=0
      00FF8AD6H   LINE      CODE     ---       #34
      00FF8AD6H   LINE      CODE     ---       #36
      00FF8AE5H   LINE      CODE     ---       #37
      00FF8AF8H   LINE      CODE     ---       #38
      ---         BLOCKEND  ---      ---       LVL=0

      00FF88F0H   BLOCK     CODE     ---       LVL=0
      00000D6EH   SYMBOL    EDATA    WORD      ms
      00FF88F4H   BLOCK     CODE     NEAR LAB  LVL=1
      00000D70H   SYMBOL    EDATA    WORD      i
      ---         BLOCKEND  ---      ---       LVL=1
      00FF88F0H   LINE      CODE     ---       #46
      00FF88F4H   LINE      CODE     ---       #47
      00FF88F4H   LINE      CODE     ---       #49
      00FF88F4H   LINE      CODE     ---       #50
      00FF88FCH   LINE      CODE     ---       #51
      00FF8910H   LINE      CODE     ---       #52
      00FF8924H   LINE      CODE     ---       #53
      ---         BLOCKEND  ---      ---       LVL=0
      00000C90H   SYMBOL    EDATA    DWORD     us
      00000C94H   SYMBOL    EDATA    WORD      i

      ---         MODULE    ---      ---       zf_eeprom
      00000A93H   PUBLIC    EDATA    BYTE      ?iap_read_bytes?BYTE
      00000A9DH   PUBLIC    EDATA    BYTE      ?iap_write_bytes?BYTE
      000000D0H   SFRSYM    DATA     BYTE      PSW
      0000009DH   SFRSYM    DATA     BYTE      IRCBAND
      000000D0H.5 SFRSYM    DATA     BIT       F0
      00000097H   SFRSYM    DATA     BYTE      AUXR2
      000000C6H   SFRSYM    DATA     BYTE      IAP_TRIG
      000000EFH   SFRSYM    DATA     BYTE      AUXINTIF
      000000FDH   SFRSYM    DATA     BYTE      S4CON
      000000ACH   SFRSYM    DATA     BYTE      S3CON
      0000009AH   SFRSYM    DATA     BYTE      S2CON
      000000B7H   SFRSYM    DATA     BYTE      IPH
      000000CDH   SFRSYM    DATA     BYTE      SPSTAT
      000000DDH   SFRSYM    DATA     BYTE      T4T3M
      000000C1H   SFRSYM    DATA     BYTE      WDT_CONTR
      000000C2H   SFRSYM    DATA     BYTE      IAP_DATA
      000000DFH   SFRSYM    DATA     BYTE      IP3
      000000F4H   SFRSYM    DATA     BYTE      USBCON
      000000B5H   SFRSYM    DATA     BYTE      IP2
      000000FFH   SFRSYM    DATA     BYTE      RSTCFG
      000000C7H   SFRSYM    DATA     BYTE      IAP_CONTR
      000000F9H   SFRSYM    DATA     BYTE      LINICR
      0000008EH   SFRSYM    DATA     BYTE      AUXR
      000000AFH   SFRSYM    DATA     BYTE      IE2
      00000088H   SFRSYM    DATA     BYTE      TCON
      00000089H   SFRSYM    DATA     BYTE      TMOD
      00000098H   SFRSYM    DATA     BYTE      SCON
      000000F5H   SFRSYM    DATA     BYTE      IAP_TPS
      000000F1H   SFRSYM    DATA     BYTE      CANICR
      00000087H   SFRSYM    DATA     BYTE      PCON
      000000BCH   SFRSYM    DATA     BYTE      ADC_CONTR
      000000E7H   SFRSYM    DATA     BYTE      CMPCR2
      000000E6H   SFRSYM    DATA     BYTE      CMPCR1
      000000C4H   SFRSYM    DATA     BYTE      IAP_ADDRL
      000000C3H   SFRSYM    DATA     BYTE      IAP_ADDRH
      000000F6H   SFRSYM    DATA     BYTE      IAP_ADDRE
L251 LINKER/LOCATER V4.66.93.0                                                        04/10/2024  19:22:09  PAGE 42


      000000DEH   SFRSYM    DATA     BYTE      ADCCFG
      000000B8H   SFRSYM    DATA     BYTE      IP
      0000008FH   SFRSYM    DATA     BYTE      INTCLKO
      000000EEH   SFRSYM    DATA     BYTE      IP3H
      000000B6H   SFRSYM    DATA     BYTE      IP2H
      000000C5H   SFRSYM    DATA     BYTE      IAP_CMD
      000000A8H   SFRSYM    DATA     BYTE      IE
      000000BBH   SFRSYM    DATA     BYTE      P_SW3
      000000BAH   SFRSYM    DATA     BYTE      P_SW2
      000000A2H   SFRSYM    DATA     BYTE      P_SW1
      000000CEH   SFRSYM    DATA     BYTE      SPCTL
      000000F8H   SFRSYM    DATA     BYTE      P7
      000000A8H.7 SFRSYM    DATA     BIT       EA
      000000E8H   SFRSYM    DATA     BYTE      P6
      000000C8H   SFRSYM    DATA     BYTE      P5
      000000C0H   SFRSYM    DATA     BYTE      P4
      000000B0H   SFRSYM    DATA     BYTE      P3
      000000A0H   SFRSYM    DATA     BYTE      P2
      00000090H   SFRSYM    DATA     BYTE      P1
      00000080H   SFRSYM    DATA     BYTE      P0
      00000E70H   SYMBOL    EDATA    BYTE      write_time
      00000A93H   SYMBOL    EDATA    DWORD     addr
      00000A97H   SYMBOL    EDATA    ---       buf
      00000A9BH   SYMBOL    EDATA    WORD      len
      00000A9DH   SYMBOL    EDATA    DWORD     addr
      00000AA1H   SYMBOL    EDATA    ---       buf
      00000AA5H   SYMBOL    EDATA    WORD      len
      00000D72H   SYMBOL    EDATA    DWORD     addr

      ---         MODULE    ---      ---       zf_exti
      000000D0H   SFRSYM    DATA     BYTE      PSW
      0000009DH   SFRSYM    DATA     BYTE      IRCBAND
      00000097H   SFRSYM    DATA     BYTE      AUXR2
      000000EFH   SFRSYM    DATA     BYTE      AUXINTIF
      000000FDH   SFRSYM    DATA     BYTE      S4CON
      000000ACH   SFRSYM    DATA     BYTE      S3CON
      0000009AH   SFRSYM    DATA     BYTE      S2CON
      000000B7H   SFRSYM    DATA     BYTE      IPH
      000000CDH   SFRSYM    DATA     BYTE      SPSTAT
      000000DDH   SFRSYM    DATA     BYTE      T4T3M
      000000C1H   SFRSYM    DATA     BYTE      WDT_CONTR
      00000088H.2 SFRSYM    DATA     BIT       IT1
      000000A8H.2 SFRSYM    DATA     BIT       EX1
      00000088H.0 SFRSYM    DATA     BIT       IT0
      000000A8H.0 SFRSYM    DATA     BIT       EX0
      000000DFH   SFRSYM    DATA     BYTE      IP3
      000000F4H   SFRSYM    DATA     BYTE      USBCON
      000000B5H   SFRSYM    DATA     BYTE      IP2
      000000FFH   SFRSYM    DATA     BYTE      RSTCFG
      000000C7H   SFRSYM    DATA     BYTE      IAP_CONTR
      000000F9H   SFRSYM    DATA     BYTE      LINICR
      0000008EH   SFRSYM    DATA     BYTE      AUXR
      000000AFH   SFRSYM    DATA     BYTE      IE2
      00000088H   SFRSYM    DATA     BYTE      TCON
      00000089H   SFRSYM    DATA     BYTE      TMOD
      00000098H   SFRSYM    DATA     BYTE      SCON
      000000F1H   SFRSYM    DATA     BYTE      CANICR
      00000087H   SFRSYM    DATA     BYTE      PCON
      000000BCH   SFRSYM    DATA     BYTE      ADC_CONTR
      000000E7H   SFRSYM    DATA     BYTE      CMPCR2
      000000E6H   SFRSYM    DATA     BYTE      CMPCR1
      000000DEH   SFRSYM    DATA     BYTE      ADCCFG
      000000B8H   SFRSYM    DATA     BYTE      IP
      0000008FH   SFRSYM    DATA     BYTE      INTCLKO
      000000EEH   SFRSYM    DATA     BYTE      IP3H
L251 LINKER/LOCATER V4.66.93.0                                                        04/10/2024  19:22:09  PAGE 43


      000000B6H   SFRSYM    DATA     BYTE      IP2H
      000000A8H   SFRSYM    DATA     BYTE      IE
      000000BBH   SFRSYM    DATA     BYTE      P_SW3
      000000BAH   SFRSYM    DATA     BYTE      P_SW2
      000000A2H   SFRSYM    DATA     BYTE      P_SW1
      000000CEH   SFRSYM    DATA     BYTE      SPCTL
      000000F8H   SFRSYM    DATA     BYTE      P7
      000000E8H   SFRSYM    DATA     BYTE      P6
      000000C8H   SFRSYM    DATA     BYTE      P5
      000000C0H   SFRSYM    DATA     BYTE      P4
      000000B0H   SFRSYM    DATA     BYTE      P3
      000000A0H   SFRSYM    DATA     BYTE      P2
      00000090H   SFRSYM    DATA     BYTE      P1
      00000080H   SFRSYM    DATA     BYTE      P0
      00000D76H   SYMBOL    EDATA    INT       int_n
      00000D78H   SYMBOL    EDATA    INT       mode

      ---         MODULE    ---      ---       zf_gpio
      00FF2F35H   PUBLIC    CODE     ---       gpio_mode
      00000094H   SFRSYM    DATA     BYTE      P0M0
      000000D0H   SFRSYM    DATA     BYTE      PSW
      0000009DH   SFRSYM    DATA     BYTE      IRCBAND
      00000097H   SFRSYM    DATA     BYTE      AUXR2
      000000EFH   SFRSYM    DATA     BYTE      AUXINTIF
      000000FDH   SFRSYM    DATA     BYTE      S4CON
      000000ACH   SFRSYM    DATA     BYTE      S3CON
      0000009AH   SFRSYM    DATA     BYTE      S2CON
      000000B7H   SFRSYM    DATA     BYTE      IPH
      000000CDH   SFRSYM    DATA     BYTE      SPSTAT
      000000DDH   SFRSYM    DATA     BYTE      T4T3M
      000000C1H   SFRSYM    DATA     BYTE      WDT_CONTR
      000000DFH   SFRSYM    DATA     BYTE      IP3
      000000F4H   SFRSYM    DATA     BYTE      USBCON
      000000B5H   SFRSYM    DATA     BYTE      IP2
      000000FFH   SFRSYM    DATA     BYTE      RSTCFG
      000000C7H   SFRSYM    DATA     BYTE      IAP_CONTR
      000000F9H   SFRSYM    DATA     BYTE      LINICR
      0000008EH   SFRSYM    DATA     BYTE      AUXR
      000000AFH   SFRSYM    DATA     BYTE      IE2
      00000088H   SFRSYM    DATA     BYTE      TCON
      00000089H   SFRSYM    DATA     BYTE      TMOD
      00000098H   SFRSYM    DATA     BYTE      SCON
      000000F1H   SFRSYM    DATA     BYTE      CANICR
      00000087H   SFRSYM    DATA     BYTE      PCON
      000000BCH   SFRSYM    DATA     BYTE      ADC_CONTR
      000000E7H   SFRSYM    DATA     BYTE      CMPCR2
      000000E6H   SFRSYM    DATA     BYTE      CMPCR1
      000000DEH   SFRSYM    DATA     BYTE      ADCCFG
      000000B8H   SFRSYM    DATA     BYTE      IP
      0000008FH   SFRSYM    DATA     BYTE      INTCLKO
      000000EEH   SFRSYM    DATA     BYTE      IP3H
      000000B6H   SFRSYM    DATA     BYTE      IP2H
      000000A8H   SFRSYM    DATA     BYTE      IE
      000000BBH   SFRSYM    DATA     BYTE      P_SW3
      000000BAH   SFRSYM    DATA     BYTE      P_SW2
      000000A2H   SFRSYM    DATA     BYTE      P_SW1
      000000CEH   SFRSYM    DATA     BYTE      SPCTL
      000000F8H   SFRSYM    DATA     BYTE      P7
      000000E1H   SFRSYM    DATA     BYTE      P7M1
      000000E8H   SFRSYM    DATA     BYTE      P6
      000000C8H   SFRSYM    DATA     BYTE      P5
      000000CBH   SFRSYM    DATA     BYTE      P6M1
      000000E2H   SFRSYM    DATA     BYTE      P7M0
      000000C0H   SFRSYM    DATA     BYTE      P4
      000000C9H   SFRSYM    DATA     BYTE      P5M1
L251 LINKER/LOCATER V4.66.93.0                                                        04/10/2024  19:22:09  PAGE 44


      000000CCH   SFRSYM    DATA     BYTE      P6M0
      000000B0H   SFRSYM    DATA     BYTE      P3
      000000B3H   SFRSYM    DATA     BYTE      P4M1
      000000CAH   SFRSYM    DATA     BYTE      P5M0
      000000A0H   SFRSYM    DATA     BYTE      P2
      000000B1H   SFRSYM    DATA     BYTE      P3M1
      000000B4H   SFRSYM    DATA     BYTE      P4M0
      00000090H   SFRSYM    DATA     BYTE      P1
      00000095H   SFRSYM    DATA     BYTE      P2M1
      000000B2H   SFRSYM    DATA     BYTE      P3M0
      00000080H   SFRSYM    DATA     BYTE      P0
      00000091H   SFRSYM    DATA     BYTE      P1M1
      00000096H   SFRSYM    DATA     BYTE      P2M0
      00000092H   SFRSYM    DATA     BYTE      P1M0
      00000093H   SFRSYM    DATA     BYTE      P0M1
      00000D7AH   SYMBOL    EDATA    INT       pin
      00000D7CH   SYMBOL    EDATA    INT       pull

      00FF2F35H   BLOCK     CODE     ---       LVL=0
      00000D7EH   SYMBOL    EDATA    INT       pin
      00000D80H   SYMBOL    EDATA    INT       mode
      00FF2F35H   LINE      CODE     ---       #54
      00FF2F3DH   LINE      CODE     ---       #56
      00FF2F4AH   LINE      CODE     ---       #58
      00FF2F5AH   LINE      CODE     ---       #60
      00FF2F75H   LINE      CODE     ---       #61
      00FF2F90H   LINE      CODE     ---       #62
      00FF2F90H   LINE      CODE     ---       #63
      00FF2FA2H   LINE      CODE     ---       #65
      00FF2FBDH   LINE      CODE     ---       #66
      00FF2FD8H   LINE      CODE     ---       #67
      00FF2FD8H   LINE      CODE     ---       #68
      00FF2FEAH   LINE      CODE     ---       #70
      00FF3005H   LINE      CODE     ---       #71
      00FF3020H   LINE      CODE     ---       #72
      00FF3020H   LINE      CODE     ---       #74
      00FF3032H   LINE      CODE     ---       #76
      00FF304DH   LINE      CODE     ---       #77
      00FF3068H   LINE      CODE     ---       #78
      00FF3068H   LINE      CODE     ---       #79
      00FF307AH   LINE      CODE     ---       #81
      00FF3095H   LINE      CODE     ---       #82
      00FF30B0H   LINE      CODE     ---       #83
      00FF30B0H   LINE      CODE     ---       #84
      00FF30C2H   LINE      CODE     ---       #86
      00FF30DDH   LINE      CODE     ---       #87
      00FF30F8H   LINE      CODE     ---       #88
      00FF30F8H   LINE      CODE     ---       #89
      00FF310AH   LINE      CODE     ---       #91
      00FF3125H   LINE      CODE     ---       #92
      00FF3140H   LINE      CODE     ---       #93
      00FF3140H   LINE      CODE     ---       #94
      00FF3155H   LINE      CODE     ---       #96
      00FF3170H   LINE      CODE     ---       #97
      00FF318BH   LINE      CODE     ---       #98
      00FF318EH   LINE      CODE     ---       #100
      00FF319DH   LINE      CODE     ---       #102
      00FF31ADH   LINE      CODE     ---       #104
      00FF31C8H   LINE      CODE     ---       #105
      00FF31E1H   LINE      CODE     ---       #106
      00FF31E1H   LINE      CODE     ---       #107
      00FF31F3H   LINE      CODE     ---       #109
      00FF320EH   LINE      CODE     ---       #110
      00FF3227H   LINE      CODE     ---       #111
      00FF3227H   LINE      CODE     ---       #112
L251 LINKER/LOCATER V4.66.93.0                                                        04/10/2024  19:22:09  PAGE 45


      00FF3239H   LINE      CODE     ---       #114
      00FF3254H   LINE      CODE     ---       #115
      00FF326DH   LINE      CODE     ---       #116
      00FF326DH   LINE      CODE     ---       #118
      00FF327FH   LINE      CODE     ---       #120
      00FF329AH   LINE      CODE     ---       #121
      00FF32B3H   LINE      CODE     ---       #122
      00FF32B3H   LINE      CODE     ---       #123
      00FF32C5H   LINE      CODE     ---       #125
      00FF32E0H   LINE      CODE     ---       #126
      00FF32F9H   LINE      CODE     ---       #127
      00FF32F9H   LINE      CODE     ---       #128
      00FF330BH   LINE      CODE     ---       #130
      00FF3326H   LINE      CODE     ---       #131
      00FF333FH   LINE      CODE     ---       #132
      00FF333FH   LINE      CODE     ---       #133
      00FF3351H   LINE      CODE     ---       #135
      00FF336CH   LINE      CODE     ---       #136
      00FF3385H   LINE      CODE     ---       #137
      00FF3385H   LINE      CODE     ---       #138
      00FF339AH   LINE      CODE     ---       #140
      00FF33B5H   LINE      CODE     ---       #141
      00FF33CEH   LINE      CODE     ---       #142
      00FF33D1H   LINE      CODE     ---       #145
      00FF33E0H   LINE      CODE     ---       #147
      00FF33F0H   LINE      CODE     ---       #149
      00FF3409H   LINE      CODE     ---       #150
      00FF3424H   LINE      CODE     ---       #151
      00FF3424H   LINE      CODE     ---       #152
      00FF3436H   LINE      CODE     ---       #154
      00FF344FH   LINE      CODE     ---       #155
      00FF346AH   LINE      CODE     ---       #156
      00FF346AH   LINE      CODE     ---       #157
      00FF347CH   LINE      CODE     ---       #159
      00FF3495H   LINE      CODE     ---       #160
      00FF34B0H   LINE      CODE     ---       #161
      00FF34B0H   LINE      CODE     ---       #163
      00FF34C2H   LINE      CODE     ---       #165
      00FF34DBH   LINE      CODE     ---       #166
      00FF34F6H   LINE      CODE     ---       #167
      00FF34F6H   LINE      CODE     ---       #168
      00FF3508H   LINE      CODE     ---       #170
      00FF3521H   LINE      CODE     ---       #171
      00FF353CH   LINE      CODE     ---       #172
      00FF353CH   LINE      CODE     ---       #173
      00FF354EH   LINE      CODE     ---       #175
      00FF3567H   LINE      CODE     ---       #176
      00FF3582H   LINE      CODE     ---       #177
      00FF3582H   LINE      CODE     ---       #178
      00FF3594H   LINE      CODE     ---       #180
      00FF35ADH   LINE      CODE     ---       #181
      00FF35C8H   LINE      CODE     ---       #182
      00FF35C8H   LINE      CODE     ---       #183
      00FF35DDH   LINE      CODE     ---       #185
      00FF35F6H   LINE      CODE     ---       #186
      00FF3611H   LINE      CODE     ---       #187
      00FF3614H   LINE      CODE     ---       #189
      00FF3623H   LINE      CODE     ---       #191
      00FF3633H   LINE      CODE     ---       #193
      00FF364CH   LINE      CODE     ---       #194
      00FF3665H   LINE      CODE     ---       #195
      00FF3665H   LINE      CODE     ---       #196
      00FF3677H   LINE      CODE     ---       #198
      00FF3690H   LINE      CODE     ---       #199
      00FF36A9H   LINE      CODE     ---       #200
L251 LINKER/LOCATER V4.66.93.0                                                        04/10/2024  19:22:09  PAGE 46


      00FF36A9H   LINE      CODE     ---       #201
      00FF36BBH   LINE      CODE     ---       #203
      00FF36D4H   LINE      CODE     ---       #204
      00FF36EDH   LINE      CODE     ---       #205
      00FF36EDH   LINE      CODE     ---       #207
      00FF36FFH   LINE      CODE     ---       #209
      00FF3718H   LINE      CODE     ---       #210
      00FF3731H   LINE      CODE     ---       #211
      00FF3731H   LINE      CODE     ---       #212
      00FF3743H   LINE      CODE     ---       #214
      00FF375CH   LINE      CODE     ---       #215
      00FF3775H   LINE      CODE     ---       #216
      00FF3775H   LINE      CODE     ---       #217
      00FF3787H   LINE      CODE     ---       #219
      00FF37A0H   LINE      CODE     ---       #220
      00FF37B9H   LINE      CODE     ---       #221
      00FF37B9H   LINE      CODE     ---       #222
      00FF37CBH   LINE      CODE     ---       #224
      00FF37E4H   LINE      CODE     ---       #225
      00FF37FDH   LINE      CODE     ---       #226
      00FF37FDH   LINE      CODE     ---       #227
      00FF380FH   LINE      CODE     ---       #229
      00FF3828H   LINE      CODE     ---       #230
      00FF3841H   LINE      CODE     ---       #231
      00FF3841H   LINE      CODE     ---       #233
      ---         BLOCKEND  ---      ---       LVL=0

      ---         MODULE    ---      ---       zf_iic
      00000C92H   PUBLIC    EDATA    BYTE      ?iic_init?BYTE
      000000D0H   SFRSYM    DATA     BYTE      PSW
      0000009DH   SFRSYM    DATA     BYTE      IRCBAND
      00000097H   SFRSYM    DATA     BYTE      AUXR2
      000000EFH   SFRSYM    DATA     BYTE      AUXINTIF
      000000FDH   SFRSYM    DATA     BYTE      S4CON
      000000ACH   SFRSYM    DATA     BYTE      S3CON
      0000009AH   SFRSYM    DATA     BYTE      S2CON
      000000B7H   SFRSYM    DATA     BYTE      IPH
      000000CDH   SFRSYM    DATA     BYTE      SPSTAT
      000000DDH   SFRSYM    DATA     BYTE      T4T3M
      000000C1H   SFRSYM    DATA     BYTE      WDT_CONTR
      000000DFH   SFRSYM    DATA     BYTE      IP3
      000000F4H   SFRSYM    DATA     BYTE      USBCON
      000000B5H   SFRSYM    DATA     BYTE      IP2
      000000FFH   SFRSYM    DATA     BYTE      RSTCFG
      000000C7H   SFRSYM    DATA     BYTE      IAP_CONTR
      000000F9H   SFRSYM    DATA     BYTE      LINICR
      0000008EH   SFRSYM    DATA     BYTE      AUXR
      000000AFH   SFRSYM    DATA     BYTE      IE2
      00000088H   SFRSYM    DATA     BYTE      TCON
      00000089H   SFRSYM    DATA     BYTE      TMOD
      00000098H   SFRSYM    DATA     BYTE      SCON
      000000F1H   SFRSYM    DATA     BYTE      CANICR
      00000087H   SFRSYM    DATA     BYTE      PCON
      000000BCH   SFRSYM    DATA     BYTE      ADC_CONTR
      000000E7H   SFRSYM    DATA     BYTE      CMPCR2
      000000E6H   SFRSYM    DATA     BYTE      CMPCR1
      000000DEH   SFRSYM    DATA     BYTE      ADCCFG
      000000B8H   SFRSYM    DATA     BYTE      IP
      0000008FH   SFRSYM    DATA     BYTE      INTCLKO
      000000EEH   SFRSYM    DATA     BYTE      IP3H
      000000B6H   SFRSYM    DATA     BYTE      IP2H
      000000A8H   SFRSYM    DATA     BYTE      IE
      000000BBH   SFRSYM    DATA     BYTE      P_SW3
      000000BAH   SFRSYM    DATA     BYTE      P_SW2
      000000A2H   SFRSYM    DATA     BYTE      P_SW1
L251 LINKER/LOCATER V4.66.93.0                                                        04/10/2024  19:22:09  PAGE 47


      000000CEH   SFRSYM    DATA     BYTE      SPCTL
      000000F8H   SFRSYM    DATA     BYTE      P7
      000000E8H   SFRSYM    DATA     BYTE      P6
      000000C8H   SFRSYM    DATA     BYTE      P5
      000000C0H   SFRSYM    DATA     BYTE      P4
      000000B0H   SFRSYM    DATA     BYTE      P3
      000000A0H   SFRSYM    DATA     BYTE      P2
      00000090H   SFRSYM    DATA     BYTE      P1
      00000080H   SFRSYM    DATA     BYTE      P0
      00000DC6H   SYMBOL    EDATA    WORD      x
      00000DC8H   SYMBOL    EDATA    BYTE      i
      00000DC9H   SYMBOL    EDATA    WORD      count
      00000DCBH   SYMBOL    EDATA    BYTE      ret
      00000E71H   SYMBOL    EDATA    BYTE      ret
      00000E0DH   SYMBOL    EDATA    CHAR      dat
      00000E0EH   SYMBOL    EDATA    BYTE      ret
      00000E72H   SYMBOL    EDATA    BYTE      ret
      00000E73H   SYMBOL    EDATA    BYTE      ret
      00000E74H   SYMBOL    EDATA    BYTE      ret
      00000C96H   SYMBOL    EDATA    INT       iic_n
      00000C98H   SYMBOL    EDATA    DWORD     wait_time
      00000DCCH   SYMBOL    EDATA    BYTE      dev_add
      00000DCDH   SYMBOL    EDATA    BYTE      reg
      00000DCEH   SYMBOL    EDATA    BYTE      dat
      00000C9CH   SYMBOL    EDATA    BYTE      dev_add
      00000C9DH   SYMBOL    EDATA    BYTE      reg
      00000C9EH   SYMBOL    EDATA    ---       dat
      00000C52H   SYMBOL    EDATA    BYTE      dev_add
      00000C53H   SYMBOL    EDATA    BYTE      reg
      00000C54H   SYMBOL    EDATA    ---       dat
      00000C58H   SYMBOL    EDATA    BYTE      num
      00000E0FH   SYMBOL    EDATA    INT       iic_n

      ---         MODULE    ---      ---       zf_nvic
      000000D0H   SFRSYM    DATA     BYTE      PSW
      0000009DH   SFRSYM    DATA     BYTE      IRCBAND
      00000097H   SFRSYM    DATA     BYTE      AUXR2
      000000EFH   SFRSYM    DATA     BYTE      AUXINTIF
      000000FDH   SFRSYM    DATA     BYTE      S4CON
      000000ACH   SFRSYM    DATA     BYTE      S3CON
      0000009AH   SFRSYM    DATA     BYTE      S2CON
      000000B7H   SFRSYM    DATA     BYTE      IPH
      000000CDH   SFRSYM    DATA     BYTE      SPSTAT
      000000DDH   SFRSYM    DATA     BYTE      T4T3M
      000000C1H   SFRSYM    DATA     BYTE      WDT_CONTR
      000000DFH   SFRSYM    DATA     BYTE      IP3
      000000F4H   SFRSYM    DATA     BYTE      USBCON
      000000B5H   SFRSYM    DATA     BYTE      IP2
      000000FFH   SFRSYM    DATA     BYTE      RSTCFG
      000000C7H   SFRSYM    DATA     BYTE      IAP_CONTR
      000000F9H   SFRSYM    DATA     BYTE      LINICR
      0000008EH   SFRSYM    DATA     BYTE      AUXR
      000000AFH   SFRSYM    DATA     BYTE      IE2
      00000088H   SFRSYM    DATA     BYTE      TCON
      00000089H   SFRSYM    DATA     BYTE      TMOD
      00000098H   SFRSYM    DATA     BYTE      SCON
      000000F1H   SFRSYM    DATA     BYTE      CANICR
      00000087H   SFRSYM    DATA     BYTE      PCON
      000000BCH   SFRSYM    DATA     BYTE      ADC_CONTR
      000000E7H   SFRSYM    DATA     BYTE      CMPCR2
      000000E6H   SFRSYM    DATA     BYTE      CMPCR1
      000000DEH   SFRSYM    DATA     BYTE      ADCCFG
      000000B8H   SFRSYM    DATA     BYTE      IP
      0000008FH   SFRSYM    DATA     BYTE      INTCLKO
      000000EEH   SFRSYM    DATA     BYTE      IP3H
L251 LINKER/LOCATER V4.66.93.0                                                        04/10/2024  19:22:09  PAGE 48


      000000B6H   SFRSYM    DATA     BYTE      IP2H
      000000A8H   SFRSYM    DATA     BYTE      IE
      000000BBH   SFRSYM    DATA     BYTE      P_SW3
      000000BAH   SFRSYM    DATA     BYTE      P_SW2
      000000A2H   SFRSYM    DATA     BYTE      P_SW1
      000000CEH   SFRSYM    DATA     BYTE      SPCTL
      000000F8H   SFRSYM    DATA     BYTE      P7
      000000E8H   SFRSYM    DATA     BYTE      P6
      000000C8H   SFRSYM    DATA     BYTE      P5
      000000C0H   SFRSYM    DATA     BYTE      P4
      000000B0H   SFRSYM    DATA     BYTE      P3
      000000A0H   SFRSYM    DATA     BYTE      P2
      00000090H   SFRSYM    DATA     BYTE      P1
      00000080H   SFRSYM    DATA     BYTE      P0
      00000DCFH   SYMBOL    EDATA    INT       irqn
      00000DD1H   SYMBOL    EDATA    BYTE      priority

      ---         MODULE    ---      ---       zf_pwm
      00FF72DAH   PUBLIC    CODE     ---       pwm_duty
      00FF60A3H   PUBLIC    CODE     ---       pwm_set_gpio
      00FF5CC9H   PUBLIC    CODE     ---       pwm_init
      00FF9078H   PUBLIC    HCONST   ---       PWM_CCR_ADDR
      00FF9098H   PUBLIC    HCONST   ---       PWM_ARR_ADDR
      00FF90A0H   PUBLIC    HCONST   ---       PWM_CCER_ADDR
      00FF90B0H   PUBLIC    HCONST   ---       PWM_CCMR_ADDR
      00000857H   PUBLIC    EDATA    BYTE      ?pwm_init?BYTE
      0000086BH   PUBLIC    EDATA    BYTE      ?pwm_freq?BYTE
      000000D0H   SFRSYM    DATA     BYTE      PSW
      0000009DH   SFRSYM    DATA     BYTE      IRCBAND
      00000097H   SFRSYM    DATA     BYTE      AUXR2
      000000EFH   SFRSYM    DATA     BYTE      AUXINTIF
      000000FDH   SFRSYM    DATA     BYTE      S4CON
      000000ACH   SFRSYM    DATA     BYTE      S3CON
      0000009AH   SFRSYM    DATA     BYTE      S2CON
      000000B7H   SFRSYM    DATA     BYTE      IPH
      000000CDH   SFRSYM    DATA     BYTE      SPSTAT
      000000DDH   SFRSYM    DATA     BYTE      T4T3M
      000000C1H   SFRSYM    DATA     BYTE      WDT_CONTR
      000000DFH   SFRSYM    DATA     BYTE      IP3
      000000F4H   SFRSYM    DATA     BYTE      USBCON
      000000B5H   SFRSYM    DATA     BYTE      IP2
      000000FFH   SFRSYM    DATA     BYTE      RSTCFG
      000000C7H   SFRSYM    DATA     BYTE      IAP_CONTR
      000000F9H   SFRSYM    DATA     BYTE      LINICR
      0000008EH   SFRSYM    DATA     BYTE      AUXR
      000000AFH   SFRSYM    DATA     BYTE      IE2
      00000088H   SFRSYM    DATA     BYTE      TCON
      00000089H   SFRSYM    DATA     BYTE      TMOD
      00000098H   SFRSYM    DATA     BYTE      SCON
      000000F1H   SFRSYM    DATA     BYTE      CANICR
      00000087H   SFRSYM    DATA     BYTE      PCON
      000000BCH   SFRSYM    DATA     BYTE      ADC_CONTR
      000000E7H   SFRSYM    DATA     BYTE      CMPCR2
      000000E6H   SFRSYM    DATA     BYTE      CMPCR1
      000000DEH   SFRSYM    DATA     BYTE      ADCCFG
      000000B8H   SFRSYM    DATA     BYTE      IP
      0000008FH   SFRSYM    DATA     BYTE      INTCLKO
      000000EEH   SFRSYM    DATA     BYTE      IP3H
      000000B6H   SFRSYM    DATA     BYTE      IP2H
      000000A8H   SFRSYM    DATA     BYTE      IE
      000000BBH   SFRSYM    DATA     BYTE      P_SW3
      000000BAH   SFRSYM    DATA     BYTE      P_SW2
      000000A2H   SFRSYM    DATA     BYTE      P_SW1
      000000CEH   SFRSYM    DATA     BYTE      SPCTL
      000000F8H   SFRSYM    DATA     BYTE      P7
L251 LINKER/LOCATER V4.66.93.0                                                        04/10/2024  19:22:09  PAGE 49


      000000E8H   SFRSYM    DATA     BYTE      P6
      000000C8H   SFRSYM    DATA     BYTE      P5
      000000C0H   SFRSYM    DATA     BYTE      P4
      000000B0H   SFRSYM    DATA     BYTE      P3
      000000A0H   SFRSYM    DATA     BYTE      P2
      00000090H   SFRSYM    DATA     BYTE      P1
      00000080H   SFRSYM    DATA     BYTE      P0

      00FF60A3H   BLOCK     CODE     ---       LVL=0
      00000E11H   SYMBOL    EDATA    INT       pwmch
      00FF60A3H   LINE      CODE     ---       #49
      00FF60A7H   LINE      CODE     ---       #51
      00FF621CH   LINE      CODE     ---       #53
      00FF621CH   LINE      CODE     ---       #55
      00FF6227H   LINE      CODE     ---       #56
      00FF622AH   LINE      CODE     ---       #58
      00FF622AH   LINE      CODE     ---       #60
      00FF6235H   LINE      CODE     ---       #61
      00FF6238H   LINE      CODE     ---       #63
      00FF6238H   LINE      CODE     ---       #65
      00FF6243H   LINE      CODE     ---       #66
      00FF6246H   LINE      CODE     ---       #68
      00FF6246H   LINE      CODE     ---       #70
      00FF6251H   LINE      CODE     ---       #71
      00FF6254H   LINE      CODE     ---       #73
      00FF6254H   LINE      CODE     ---       #75
      00FF625FH   LINE      CODE     ---       #76
      00FF6262H   LINE      CODE     ---       #78
      00FF6262H   LINE      CODE     ---       #80
      00FF626DH   LINE      CODE     ---       #81
      00FF6270H   LINE      CODE     ---       #84
      00FF6270H   LINE      CODE     ---       #86
      00FF627BH   LINE      CODE     ---       #87
      00FF627EH   LINE      CODE     ---       #89
      00FF627EH   LINE      CODE     ---       #91
      00FF6289H   LINE      CODE     ---       #92
      00FF628CH   LINE      CODE     ---       #94
      00FF628CH   LINE      CODE     ---       #96
      00FF6297H   LINE      CODE     ---       #97
      00FF629AH   LINE      CODE     ---       #99
      00FF629AH   LINE      CODE     ---       #101
      00FF62A5H   LINE      CODE     ---       #102
      00FF62A8H   LINE      CODE     ---       #104
      00FF62A8H   LINE      CODE     ---       #106
      00FF62B3H   LINE      CODE     ---       #107
      00FF62B6H   LINE      CODE     ---       #109
      00FF62B6H   LINE      CODE     ---       #111
      00FF62C1H   LINE      CODE     ---       #112
      00FF62C4H   LINE      CODE     ---       #115
      00FF62C4H   LINE      CODE     ---       #117
      00FF62CFH   LINE      CODE     ---       #118
      00FF62D2H   LINE      CODE     ---       #120
      00FF62D2H   LINE      CODE     ---       #122
      00FF62DDH   LINE      CODE     ---       #123
      00FF62E0H   LINE      CODE     ---       #125
      00FF62E0H   LINE      CODE     ---       #127
      00FF62EBH   LINE      CODE     ---       #128
      00FF62EEH   LINE      CODE     ---       #130
      00FF62EEH   LINE      CODE     ---       #132
      00FF62F9H   LINE      CODE     ---       #133
      00FF62FCH   LINE      CODE     ---       #135
      00FF62FCH   LINE      CODE     ---       #137
      00FF6307H   LINE      CODE     ---       #138
      00FF630AH   LINE      CODE     ---       #140
      00FF630AH   LINE      CODE     ---       #142
L251 LINKER/LOCATER V4.66.93.0                                                        04/10/2024  19:22:09  PAGE 50


      00FF6315H   LINE      CODE     ---       #143
      00FF6318H   LINE      CODE     ---       #147
      00FF6318H   LINE      CODE     ---       #149
      00FF6323H   LINE      CODE     ---       #150
      00FF6326H   LINE      CODE     ---       #152
      00FF6326H   LINE      CODE     ---       #154
      00FF6331H   LINE      CODE     ---       #155
      00FF6334H   LINE      CODE     ---       #157
      00FF6334H   LINE      CODE     ---       #159
      00FF633FH   LINE      CODE     ---       #160
      00FF6342H   LINE      CODE     ---       #162
      00FF6342H   LINE      CODE     ---       #164
      00FF634DH   LINE      CODE     ---       #165
      00FF6350H   LINE      CODE     ---       #167
      00FF6350H   LINE      CODE     ---       #169
      00FF635BH   LINE      CODE     ---       #170
      00FF635EH   LINE      CODE     ---       #172
      00FF635EH   LINE      CODE     ---       #174
      00FF6369H   LINE      CODE     ---       #175
      00FF636CH   LINE      CODE     ---       #177
      00FF636CH   LINE      CODE     ---       #179
      00FF6377H   LINE      CODE     ---       #180
      00FF637AH   LINE      CODE     ---       #182
      00FF637AH   LINE      CODE     ---       #184
      00FF6385H   LINE      CODE     ---       #185
      00FF6388H   LINE      CODE     ---       #189
      00FF6388H   LINE      CODE     ---       #191
      00FF6393H   LINE      CODE     ---       #192
      00FF6396H   LINE      CODE     ---       #194
      00FF6396H   LINE      CODE     ---       #196
      00FF63A1H   LINE      CODE     ---       #197
      00FF63A4H   LINE      CODE     ---       #199
      00FF63A4H   LINE      CODE     ---       #201
      00FF63ADH   LINE      CODE     ---       #202
      00FF63B0H   LINE      CODE     ---       #204
      00FF63B0H   LINE      CODE     ---       #206
      00FF63BBH   LINE      CODE     ---       #207
      00FF63BEH   LINE      CODE     ---       #210
      00FF63BEH   LINE      CODE     ---       #212
      00FF63C9H   LINE      CODE     ---       #213
      00FF63CCH   LINE      CODE     ---       #215
      00FF63CCH   LINE      CODE     ---       #217
      00FF63D7H   LINE      CODE     ---       #218
      00FF63DAH   LINE      CODE     ---       #220
      00FF63DAH   LINE      CODE     ---       #222
      00FF63E5H   LINE      CODE     ---       #223
      00FF63E7H   LINE      CODE     ---       #225
      00FF63E7H   LINE      CODE     ---       #227
      00FF63F2H   LINE      CODE     ---       #228
      00FF63F4H   LINE      CODE     ---       #232
      00FF63F4H   LINE      CODE     ---       #234
      00FF63FFH   LINE      CODE     ---       #235
      00FF6401H   LINE      CODE     ---       #237
      00FF6401H   LINE      CODE     ---       #239
      00FF640CH   LINE      CODE     ---       #240
      00FF640EH   LINE      CODE     ---       #242
      00FF640EH   LINE      CODE     ---       #244
      00FF6419H   LINE      CODE     ---       #245
      00FF641BH   LINE      CODE     ---       #247
      00FF641BH   LINE      CODE     ---       #249
      00FF6426H   LINE      CODE     ---       #250
      00FF6428H   LINE      CODE     ---       #254
      00FF6428H   LINE      CODE     ---       #256
      00FF6433H   LINE      CODE     ---       #257
      00FF6435H   LINE      CODE     ---       #259
L251 LINKER/LOCATER V4.66.93.0                                                        04/10/2024  19:22:09  PAGE 51


      00FF6435H   LINE      CODE     ---       #261
      00FF6440H   LINE      CODE     ---       #262
      00FF6442H   LINE      CODE     ---       #264
      00FF6442H   LINE      CODE     ---       #266
      00FF644DH   LINE      CODE     ---       #267
      00FF644FH   LINE      CODE     ---       #269
      00FF644FH   LINE      CODE     ---       #271
      00FF645AH   LINE      CODE     ---       #272
      00FF645AH   LINE      CODE     ---       #275
      00FF645AH   LINE      CODE     ---       #277
      ---         BLOCKEND  ---      ---       LVL=0

      00FF5CC9H   BLOCK     CODE     ---       LVL=0
      00000857H   SYMBOL    EDATA    INT       pwmch
      00000859H   SYMBOL    EDATA    DWORD     freq
      0000085DH   SYMBOL    EDATA    DWORD     duty
      00FF5CD1H   BLOCK     CODE     NEAR LAB  LVL=1
      00000861H   SYMBOL    EDATA    DWORD     match_temp
      00000865H   SYMBOL    EDATA    DWORD     period_temp
      00000869H   SYMBOL    EDATA    WORD      freq_div
      ---         BLOCKEND  ---      ---       LVL=1
      00FF5CC9H   LINE      CODE     ---       #290
      00FF5CD1H   LINE      CODE     ---       #291
      00FF5CD1H   LINE      CODE     ---       #295
      00FF5CD7H   LINE      CODE     ---       #298
      00FF5CDAH   LINE      CODE     ---       #301
      00FF5CE1H   LINE      CODE     ---       #305
      00FF5CF4H   LINE      CODE     ---       #306
      00FF5D03H   LINE      CODE     ---       #307
      00FF5D1EH   LINE      CODE     ---       #309
      00FF5D28H   LINE      CODE     ---       #311
      00FF5D4FH   LINE      CODE     ---       #312
      00FF5D51H   LINE      CODE     ---       #315
      00FF5D5FH   LINE      CODE     ---       #316
      00FF5D5FH   LINE      CODE     ---       #319
      00FF5D6EH   LINE      CODE     ---       #322
      00FF5D9FH   LINE      CODE     ---       #323
      00FF5DD6H   LINE      CODE     ---       #326
      00FF5E28H   LINE      CODE     ---       #329
      00FF5E3BH   LINE      CODE     ---       #330
      00FF5E4AH   LINE      CODE     ---       #332
      00FF5E57H   LINE      CODE     ---       #333
      00FF5E64H   LINE      CODE     ---       #334
      00FF5E67H   LINE      CODE     ---       #337
      00FF5EA5H   LINE      CODE     ---       #338
      00FF5ED8H   LINE      CODE     ---       #341
      00FF5F38H   LINE      CODE     ---       #345
      00FF5F4BH   LINE      CODE     ---       #346
      00FF5F5AH   LINE      CODE     ---       #348
      00FF5F67H   LINE      CODE     ---       #349
      00FF5F74H   LINE      CODE     ---       #350
      00FF5F74H   LINE      CODE     ---       #353
      00FF5FA6H   LINE      CODE     ---       #354
      00FF5FDEH   LINE      CODE     ---       #357
      00FF600CH   LINE      CODE     ---       #358
      00FF6040H   LINE      CODE     ---       #361
      00FF6071H   LINE      CODE     ---       #362
      00FF60A2H   LINE      CODE     ---       #367
      ---         BLOCKEND  ---      ---       LVL=0

      00FF72DAH   BLOCK     CODE     ---       LVL=0
      0000090CH   SYMBOL    EDATA    INT       pwmch
      0000090EH   SYMBOL    EDATA    DWORD     duty
      00FF72E2H   BLOCK     CODE     NEAR LAB  LVL=1
      00000912H   SYMBOL    EDATA    DWORD     match_temp
L251 LINKER/LOCATER V4.66.93.0                                                        04/10/2024  19:22:09  PAGE 52


      00000916H   SYMBOL    EDATA    DWORD     arr
      ---         BLOCKEND  ---      ---       LVL=1
      00FF72DAH   LINE      CODE     ---       #377
      00FF72E2H   LINE      CODE     ---       #378
      00FF72E2H   LINE      CODE     ---       #380
      00FF734EH   LINE      CODE     ---       #384
      00FF7358H   LINE      CODE     ---       #386
      00FF737FH   LINE      CODE     ---       #387
      00FF7381H   LINE      CODE     ---       #390
      00FF738FH   LINE      CODE     ---       #391
      00FF738FH   LINE      CODE     ---       #396
      00FF73BDH   LINE      CODE     ---       #397
      00FF73F1H   LINE      CODE     ---       #401
      ---         BLOCKEND  ---      ---       LVL=0
      0000086BH   SYMBOL    EDATA    INT       pwmch
      0000086DH   SYMBOL    EDATA    DWORD     freq
      00000871H   SYMBOL    EDATA    DWORD     duty
      00000875H   SYMBOL    EDATA    DWORD     match_temp
      00000879H   SYMBOL    EDATA    DWORD     period_temp
      0000087DH   SYMBOL    EDATA    WORD      freq_div

      ---         MODULE    ---      ---       zf_spi
      00000C53H   PUBLIC    EDATA    BYTE      ?spi_init?BYTE
      000000CFH   SFRSYM    DATA     BYTE      SPDAT
      000000D0H   SFRSYM    DATA     BYTE      PSW
      0000009DH   SFRSYM    DATA     BYTE      IRCBAND
      00000097H   SFRSYM    DATA     BYTE      AUXR2
      000000EFH   SFRSYM    DATA     BYTE      AUXINTIF
      000000FDH   SFRSYM    DATA     BYTE      S4CON
      000000ACH   SFRSYM    DATA     BYTE      S3CON
      0000009AH   SFRSYM    DATA     BYTE      S2CON
      000000B7H   SFRSYM    DATA     BYTE      IPH
      000000CDH   SFRSYM    DATA     BYTE      SPSTAT
      000000DDH   SFRSYM    DATA     BYTE      T4T3M
      000000C1H   SFRSYM    DATA     BYTE      WDT_CONTR
      000000DFH   SFRSYM    DATA     BYTE      IP3
      000000F4H   SFRSYM    DATA     BYTE      USBCON
      000000B5H   SFRSYM    DATA     BYTE      IP2
      000000FFH   SFRSYM    DATA     BYTE      RSTCFG
      000000C7H   SFRSYM    DATA     BYTE      IAP_CONTR
      000000F9H   SFRSYM    DATA     BYTE      LINICR
      0000008EH   SFRSYM    DATA     BYTE      AUXR
      000000AFH   SFRSYM    DATA     BYTE      IE2
      00000088H   SFRSYM    DATA     BYTE      TCON
      00000089H   SFRSYM    DATA     BYTE      TMOD
      00000098H   SFRSYM    DATA     BYTE      SCON
      000000F1H   SFRSYM    DATA     BYTE      CANICR
      00000087H   SFRSYM    DATA     BYTE      PCON
      000000BCH   SFRSYM    DATA     BYTE      ADC_CONTR
      000000E7H   SFRSYM    DATA     BYTE      CMPCR2
      000000E6H   SFRSYM    DATA     BYTE      CMPCR1
      000000DEH   SFRSYM    DATA     BYTE      ADCCFG
      000000B8H   SFRSYM    DATA     BYTE      IP
      0000008FH   SFRSYM    DATA     BYTE      INTCLKO
      000000EEH   SFRSYM    DATA     BYTE      IP3H
      000000B6H   SFRSYM    DATA     BYTE      IP2H
      000000A8H   SFRSYM    DATA     BYTE      IE
      000000BBH   SFRSYM    DATA     BYTE      P_SW3
      000000BAH   SFRSYM    DATA     BYTE      P_SW2
      000000A2H   SFRSYM    DATA     BYTE      P_SW1
      000000CEH   SFRSYM    DATA     BYTE      SPCTL
      000000F8H   SFRSYM    DATA     BYTE      P7
      000000E8H   SFRSYM    DATA     BYTE      P6
      000000C8H   SFRSYM    DATA     BYTE      P5
      000000C0H   SFRSYM    DATA     BYTE      P4
L251 LINKER/LOCATER V4.66.93.0                                                        04/10/2024  19:22:09  PAGE 53


      000000B0H   SFRSYM    DATA     BYTE      P3
      000000A0H   SFRSYM    DATA     BYTE      P2
      00000090H   SFRSYM    DATA     BYTE      P1
      00000080H   SFRSYM    DATA     BYTE      P0
      00000C59H   SYMBOL    EDATA    INT       spi_n
      00000C5BH   SYMBOL    EDATA    BYTE      mode
      00000C5CH   SYMBOL    EDATA    INT       mstr
      00000C5EH   SYMBOL    EDATA    INT       baud
      00000E75H   SYMBOL    EDATA    BYTE      dat
      00000E13H   SYMBOL    EDATA    INT       spi_n
      00000E76H   SYMBOL    EDATA    BYTE      mode

      ---         MODULE    ---      ---       zf_tim
      00FF7BB8H   PUBLIC    CODE     ---       ctimer_count_read
      00FF75FBH   PUBLIC    CODE     ---       pit_timer_ms
      00FF8574H   PUBLIC    CODE     ---       ctimer_count_init
      00FF83B0H   PUBLIC    CODE     ---       ctimer_count_clean
      000000D0H   SFRSYM    DATA     BYTE      PSW
      0000009DH   SFRSYM    DATA     BYTE      IRCBAND
      00000097H   SFRSYM    DATA     BYTE      AUXR2
      000000EFH   SFRSYM    DATA     BYTE      AUXINTIF
      000000FDH   SFRSYM    DATA     BYTE      S4CON
      000000ACH   SFRSYM    DATA     BYTE      S3CON
      0000009AH   SFRSYM    DATA     BYTE      S2CON
      000000B7H   SFRSYM    DATA     BYTE      IPH
      000000CDH   SFRSYM    DATA     BYTE      SPSTAT
      000000DDH   SFRSYM    DATA     BYTE      T4T3M
      000000C1H   SFRSYM    DATA     BYTE      WDT_CONTR
      00000088H.6 SFRSYM    DATA     BIT       TR1
      00000088H.4 SFRSYM    DATA     BIT       TR0
      000000D3H   SFRSYM    DATA     BYTE      T4L
      000000D5H   SFRSYM    DATA     BYTE      T3L
      000000D7H   SFRSYM    DATA     BYTE      T2L
      0000008BH   SFRSYM    DATA     BYTE      TL1
      0000008AH   SFRSYM    DATA     BYTE      TL0
      000000D2H   SFRSYM    DATA     BYTE      T4H
      000000D4H   SFRSYM    DATA     BYTE      T3H
      000000D6H   SFRSYM    DATA     BYTE      T2H
      0000008DH   SFRSYM    DATA     BYTE      TH1
      0000008CH   SFRSYM    DATA     BYTE      TH0
      000000DFH   SFRSYM    DATA     BYTE      IP3
      000000F4H   SFRSYM    DATA     BYTE      USBCON
      000000B5H   SFRSYM    DATA     BYTE      IP2
      000000FFH   SFRSYM    DATA     BYTE      RSTCFG
      000000A8H.3 SFRSYM    DATA     BIT       ET1
      000000A8H.1 SFRSYM    DATA     BIT       ET0
      000000C7H   SFRSYM    DATA     BYTE      IAP_CONTR
      000000F9H   SFRSYM    DATA     BYTE      LINICR
      0000008EH   SFRSYM    DATA     BYTE      AUXR
      000000AFH   SFRSYM    DATA     BYTE      IE2
      00000088H   SFRSYM    DATA     BYTE      TCON
      00000089H   SFRSYM    DATA     BYTE      TMOD
      00000098H   SFRSYM    DATA     BYTE      SCON
      000000F1H   SFRSYM    DATA     BYTE      CANICR
      00000087H   SFRSYM    DATA     BYTE      PCON
      000000BCH   SFRSYM    DATA     BYTE      ADC_CONTR
      000000E7H   SFRSYM    DATA     BYTE      CMPCR2
      000000E6H   SFRSYM    DATA     BYTE      CMPCR1
      000000DEH   SFRSYM    DATA     BYTE      ADCCFG
      000000B8H   SFRSYM    DATA     BYTE      IP
      0000008FH   SFRSYM    DATA     BYTE      INTCLKO
      000000EEH   SFRSYM    DATA     BYTE      IP3H
      000000B6H   SFRSYM    DATA     BYTE      IP2H
      000000A8H   SFRSYM    DATA     BYTE      IE
      000000BBH   SFRSYM    DATA     BYTE      P_SW3
L251 LINKER/LOCATER V4.66.93.0                                                        04/10/2024  19:22:09  PAGE 54


      000000BAH   SFRSYM    DATA     BYTE      P_SW2
      000000A2H   SFRSYM    DATA     BYTE      P_SW1
      000000CEH   SFRSYM    DATA     BYTE      SPCTL
      000000F8H   SFRSYM    DATA     BYTE      P7
      000000E8H   SFRSYM    DATA     BYTE      P6
      000000C8H   SFRSYM    DATA     BYTE      P5
      000000C0H   SFRSYM    DATA     BYTE      P4
      000000B0H   SFRSYM    DATA     BYTE      P3
      000000A0H   SFRSYM    DATA     BYTE      P2
      00000090H   SFRSYM    DATA     BYTE      P1
      00000080H   SFRSYM    DATA     BYTE      P0

      00FF8574H   BLOCK     CODE     ---       LVL=0
      00000E15H   SYMBOL    EDATA    INT       tim_n
      00FF8574H   LINE      CODE     ---       #39
      00FF8578H   LINE      CODE     ---       #42
      00FF858CH   LINE      CODE     ---       #44
      00FF858CH   LINE      CODE     ---       #46
      00FF858FH   LINE      CODE     ---       #47
      00FF8592H   LINE      CODE     ---       #48
      00FF8595H   LINE      CODE     ---       #49
      00FF8598H   LINE      CODE     ---       #50
      00FF859AH   LINE      CODE     ---       #53
      00FF859AH   LINE      CODE     ---       #55
      00FF859DH   LINE      CODE     ---       #56
      00FF85A0H   LINE      CODE     ---       #57
      00FF85A3H   LINE      CODE     ---       #58
      00FF85A6H   LINE      CODE     ---       #59
      00FF85A8H   LINE      CODE     ---       #62
      00FF85A8H   LINE      CODE     ---       #64
      00FF85ABH   LINE      CODE     ---       #65
      00FF85AEH   LINE      CODE     ---       #66
      00FF85B1H   LINE      CODE     ---       #67
      00FF85B3H   LINE      CODE     ---       #70
      00FF85B3H   LINE      CODE     ---       #72
      00FF85B6H   LINE      CODE     ---       #73
      00FF85B9H   LINE      CODE     ---       #74
      00FF85BCH   LINE      CODE     ---       #75
      00FF85BEH   LINE      CODE     ---       #78
      00FF85BEH   LINE      CODE     ---       #80
      00FF85C1H   LINE      CODE     ---       #81
      00FF85C4H   LINE      CODE     ---       #82
      00FF85C7H   LINE      CODE     ---       #83
      00FF85C7H   LINE      CODE     ---       #86
      00FF85C7H   LINE      CODE     ---       #87
      ---         BLOCKEND  ---      ---       LVL=0

      00FF7BB8H   BLOCK     CODE     ---       LVL=0
      00000D82H   SYMBOL    EDATA    INT       tim_n
      00FF7BBCH   BLOCK     CODE     NEAR LAB  LVL=1
      00000D84H   SYMBOL    EDATA    WORD      dat
      ---         BLOCKEND  ---      ---       LVL=1
      00FF7BB8H   LINE      CODE     ---       #95
      00FF7BBCH   LINE      CODE     ---       #96
      00FF7BBCH   LINE      CODE     ---       #97
      00FF7BC2H   LINE      CODE     ---       #99
      00FF7BDDH   LINE      CODE     ---       #101
      00FF7BDDH   LINE      CODE     ---       #103
      00FF7BE9H   LINE      CODE     ---       #104
      00FF7BF7H   LINE      CODE     ---       #105
      00FF7BF9H   LINE      CODE     ---       #107
      00FF7BF9H   LINE      CODE     ---       #109
      00FF7C05H   LINE      CODE     ---       #110
      00FF7C13H   LINE      CODE     ---       #111
      00FF7C15H   LINE      CODE     ---       #113
L251 LINKER/LOCATER V4.66.93.0                                                        04/10/2024  19:22:09  PAGE 55


      00FF7C15H   LINE      CODE     ---       #115
      00FF7C21H   LINE      CODE     ---       #116
      00FF7C2FH   LINE      CODE     ---       #117
      00FF7C31H   LINE      CODE     ---       #119
      00FF7C31H   LINE      CODE     ---       #121
      00FF7C3DH   LINE      CODE     ---       #122
      00FF7C4BH   LINE      CODE     ---       #123
      00FF7C4DH   LINE      CODE     ---       #125
      00FF7C4DH   LINE      CODE     ---       #127
      00FF7C59H   LINE      CODE     ---       #128
      00FF7C67H   LINE      CODE     ---       #129
      00FF7C67H   LINE      CODE     ---       #132
      00FF7C67H   LINE      CODE     ---       #133
      00FF7C6BH   LINE      CODE     ---       #134
      ---         BLOCKEND  ---      ---       LVL=0

      00FF83B0H   BLOCK     CODE     ---       LVL=0
      00000E17H   SYMBOL    EDATA    INT       tim_n
      00FF83B0H   LINE      CODE     ---       #143
      00FF83B4H   LINE      CODE     ---       #145
      00FF83C8H   LINE      CODE     ---       #147
      00FF83C8H   LINE      CODE     ---       #149
      00FF83CBH   LINE      CODE     ---       #150
      00FF83CEH   LINE      CODE     ---       #151
      00FF83D1H   LINE      CODE     ---       #152
      00FF83D4H   LINE      CODE     ---       #153
      00FF83D6H   LINE      CODE     ---       #155
      00FF83D6H   LINE      CODE     ---       #157
      00FF83D9H   LINE      CODE     ---       #158
      00FF83DCH   LINE      CODE     ---       #159
      00FF83DFH   LINE      CODE     ---       #160
      00FF83E2H   LINE      CODE     ---       #161
      00FF83E4H   LINE      CODE     ---       #163
      00FF83E4H   LINE      CODE     ---       #165
      00FF83E7H   LINE      CODE     ---       #166
      00FF83EAH   LINE      CODE     ---       #167
      00FF83EDH   LINE      CODE     ---       #168
      00FF83F0H   LINE      CODE     ---       #169
      00FF83F2H   LINE      CODE     ---       #171
      00FF83F2H   LINE      CODE     ---       #173
      00FF83F5H   LINE      CODE     ---       #174
      00FF83F8H   LINE      CODE     ---       #175
      00FF83FBH   LINE      CODE     ---       #176
      00FF83FEH   LINE      CODE     ---       #177
      00FF8400H   LINE      CODE     ---       #179
      00FF8400H   LINE      CODE     ---       #181
      00FF8403H   LINE      CODE     ---       #182
      00FF8406H   LINE      CODE     ---       #183
      00FF8409H   LINE      CODE     ---       #184
      00FF840CH   LINE      CODE     ---       #185
      00FF840CH   LINE      CODE     ---       #187
      00FF840CH   LINE      CODE     ---       #188
      ---         BLOCKEND  ---      ---       LVL=0

      00FF75FBH   BLOCK     CODE     ---       LVL=0
      00000CA2H   SYMBOL    EDATA    INT       tim_n
      00000CA4H   SYMBOL    EDATA    WORD      time_ms
      00FF7603H   BLOCK     CODE     NEAR LAB  LVL=1
      00000CA6H   SYMBOL    EDATA    WORD      temp
      ---         BLOCKEND  ---      ---       LVL=1
      00FF75FBH   LINE      CODE     ---       #198
      00FF7603H   LINE      CODE     ---       #199
      00FF7603H   LINE      CODE     ---       #201
      00FF7626H   LINE      CODE     ---       #203
      00FF7630H   LINE      CODE     ---       #205
L251 LINKER/LOCATER V4.66.93.0                                                        04/10/2024  19:22:09  PAGE 56


      00FF7634H   LINE      CODE     ---       #206
      00FF763AH   LINE      CODE     ---       #207
      00FF7644H   LINE      CODE     ---       #208
      00FF7647H   LINE      CODE     ---       #209
      00FF764AH   LINE      CODE     ---       #210
      00FF764DH   LINE      CODE     ---       #211
      00FF7659H   LINE      CODE     ---       #213
      00FF765DH   LINE      CODE     ---       #214
      00FF7663H   LINE      CODE     ---       #215
      00FF766DH   LINE      CODE     ---       #216
      00FF7670H   LINE      CODE     ---       #217
      00FF7673H   LINE      CODE     ---       #218
      00FF7675H   LINE      CODE     ---       #219
      00FF7681H   LINE      CODE     ---       #221
      00FF7687H   LINE      CODE     ---       #222
      00FF7691H   LINE      CODE     ---       #223
      00FF7694H   LINE      CODE     ---       #224
      00FF7697H   LINE      CODE     ---       #225
      00FF7699H   LINE      CODE     ---       #226
      00FF76A5H   LINE      CODE     ---       #228
      00FF76ABH   LINE      CODE     ---       #229
      00FF76B5H   LINE      CODE     ---       #230
      00FF76B8H   LINE      CODE     ---       #231
      00FF76BBH   LINE      CODE     ---       #232
      00FF76BDH   LINE      CODE     ---       #233
      00FF76C9H   LINE      CODE     ---       #235
      00FF76CFH   LINE      CODE     ---       #236
      00FF76D9H   LINE      CODE     ---       #237
      00FF76DCH   LINE      CODE     ---       #238
      00FF76DFH   LINE      CODE     ---       #239
      ---         BLOCKEND  ---      ---       LVL=0

      ---         MODULE    ---      ---       zf_uart
      00FF7EA7H   PUBLIC    CODE     ---       uart_putchar
      00FF67F1H   PUBLIC    CODE     ---       uart_init
      00000D2CH   PUBLIC    EDATA    ---       busy
      0000091AH   PUBLIC    EDATA    BYTE      ?uart_init?BYTE
      000000D0H   SFRSYM    DATA     BYTE      PSW
      0000009DH   SFRSYM    DATA     BYTE      IRCBAND
      00000097H   SFRSYM    DATA     BYTE      AUXR2
      000000EFH   SFRSYM    DATA     BYTE      AUXINTIF
      000000FDH   SFRSYM    DATA     BYTE      S4CON
      000000ACH   SFRSYM    DATA     BYTE      S3CON
      0000009AH   SFRSYM    DATA     BYTE      S2CON
      000000FEH   SFRSYM    DATA     BYTE      S4BUF
      000000ADH   SFRSYM    DATA     BYTE      S3BUF
      0000009BH   SFRSYM    DATA     BYTE      S2BUF
      000000B7H   SFRSYM    DATA     BYTE      IPH
      000000CDH   SFRSYM    DATA     BYTE      SPSTAT
      000000DDH   SFRSYM    DATA     BYTE      T4T3M
      000000C1H   SFRSYM    DATA     BYTE      WDT_CONTR
      00000088H.6 SFRSYM    DATA     BIT       TR1
      000000D3H   SFRSYM    DATA     BYTE      T4L
      000000D5H   SFRSYM    DATA     BYTE      T3L
      000000D7H   SFRSYM    DATA     BYTE      T2L
      0000008BH   SFRSYM    DATA     BYTE      TL1
      000000D2H   SFRSYM    DATA     BYTE      T4H
      000000D4H   SFRSYM    DATA     BYTE      T3H
      000000D6H   SFRSYM    DATA     BYTE      T2H
      0000008DH   SFRSYM    DATA     BYTE      TH1
      000000DFH   SFRSYM    DATA     BYTE      IP3
      000000F4H   SFRSYM    DATA     BYTE      USBCON
      000000B5H   SFRSYM    DATA     BYTE      IP2
      000000FFH   SFRSYM    DATA     BYTE      RSTCFG
      000000C7H   SFRSYM    DATA     BYTE      IAP_CONTR
L251 LINKER/LOCATER V4.66.93.0                                                        04/10/2024  19:22:09  PAGE 57


      000000F9H   SFRSYM    DATA     BYTE      LINICR
      0000008EH   SFRSYM    DATA     BYTE      AUXR
      000000AFH   SFRSYM    DATA     BYTE      IE2
      00000088H   SFRSYM    DATA     BYTE      TCON
      00000089H   SFRSYM    DATA     BYTE      TMOD
      00000098H   SFRSYM    DATA     BYTE      SCON
      000000F1H   SFRSYM    DATA     BYTE      CANICR
      00000087H   SFRSYM    DATA     BYTE      PCON
      00000099H   SFRSYM    DATA     BYTE      SBUF
      000000BCH   SFRSYM    DATA     BYTE      ADC_CONTR
      000000E7H   SFRSYM    DATA     BYTE      CMPCR2
      000000E6H   SFRSYM    DATA     BYTE      CMPCR1
      000000DEH   SFRSYM    DATA     BYTE      ADCCFG
      000000B8H   SFRSYM    DATA     BYTE      IP
      000000A8H.4 SFRSYM    DATA     BIT       ES
      0000008FH   SFRSYM    DATA     BYTE      INTCLKO
      000000EEH   SFRSYM    DATA     BYTE      IP3H
      000000B6H   SFRSYM    DATA     BYTE      IP2H
      000000A8H   SFRSYM    DATA     BYTE      IE
      000000BBH   SFRSYM    DATA     BYTE      P_SW3
      000000BAH   SFRSYM    DATA     BYTE      P_SW2
      000000A2H   SFRSYM    DATA     BYTE      P_SW1
      000000CEH   SFRSYM    DATA     BYTE      SPCTL
      000000F8H   SFRSYM    DATA     BYTE      P7
      000000E8H   SFRSYM    DATA     BYTE      P6
      000000C8H   SFRSYM    DATA     BYTE      P5
      000000C0H   SFRSYM    DATA     BYTE      P4
      000000C9H   SFRSYM    DATA     BYTE      P5M1
      000000B0H   SFRSYM    DATA     BYTE      P3
      000000CAH   SFRSYM    DATA     BYTE      P5M0
      000000A0H   SFRSYM    DATA     BYTE      P2
      00000090H   SFRSYM    DATA     BYTE      P1
      00000080H   SFRSYM    DATA     BYTE      P0

      00FF67F1H   BLOCK     CODE     ---       LVL=0
      0000091AH   SYMBOL    EDATA    INT       uart_n
      0000091CH   SYMBOL    EDATA    INT       uart_rx_pin
      0000091EH   SYMBOL    EDATA    INT       uart_tx_pin
      00000920H   SYMBOL    EDATA    DWORD     baud
      00000924H   SYMBOL    EDATA    INT       tim_n
      00FF6801H   BLOCK     CODE     NEAR LAB  LVL=1
      00000926H   SYMBOL    EDATA    WORD      brt
      ---         BLOCKEND  ---      ---       LVL=1
      00FF67F1H   LINE      CODE     ---       #45
      00FF6801H   LINE      CODE     ---       #46
      00FF6801H   LINE      CODE     ---       #49
      00FF6828H   LINE      CODE     ---       #52
      00FF684AH   LINE      CODE     ---       #54
      00FF684AH   LINE      CODE     ---       #56
      00FF6856H   LINE      CODE     ---       #58
      00FF6859H   LINE      CODE     ---       #59
      00FF685DH   LINE      CODE     ---       #60
      00FF6863H   LINE      CODE     ---       #61
      00FF686DH   LINE      CODE     ---       #62
      00FF6870H   LINE      CODE     ---       #63
      00FF6873H   LINE      CODE     ---       #64
      00FF6878H   LINE      CODE     ---       #65
      00FF687AH   LINE      CODE     ---       #66
      00FF6886H   LINE      CODE     ---       #68
      00FF6889H   LINE      CODE     ---       #69
      00FF688FH   LINE      CODE     ---       #70
      00FF6899H   LINE      CODE     ---       #71
      00FF689CH   LINE      CODE     ---       #72
      00FF689CH   LINE      CODE     ---       #73
      00FF689FH   LINE      CODE     ---       #74
L251 LINKER/LOCATER V4.66.93.0                                                        04/10/2024  19:22:09  PAGE 58


      00FF68B5H   LINE      CODE     ---       #76
      00FF68B9H   LINE      CODE     ---       #77
      00FF68BBH   LINE      CODE     ---       #78
      00FF68D3H   LINE      CODE     ---       #80
      00FF68D6H   LINE      CODE     ---       #81
      00FF68D8H   LINE      CODE     ---       #82
      00FF68F0H   LINE      CODE     ---       #84
      00FF68F3H   LINE      CODE     ---       #85
      00FF68F5H   LINE      CODE     ---       #86
      00FF690DH   LINE      CODE     ---       #88
      00FF6910H   LINE      CODE     ---       #89
      00FF6910H   LINE      CODE     ---       #90
      00FF6915H   LINE      CODE     ---       #91
      00FF6918H   LINE      CODE     ---       #92
      00FF691BH   LINE      CODE     ---       #95
      00FF691BH   LINE      CODE     ---       #97
      00FF6927H   LINE      CODE     ---       #99
      00FF692AH   LINE      CODE     ---       #100
      00FF6930H   LINE      CODE     ---       #101
      00FF693AH   LINE      CODE     ---       #102
      00FF693DH   LINE      CODE     ---       #103
      00FF693DH   LINE      CODE     ---       #105
      00FF6940H   LINE      CODE     ---       #106
      00FF6958H   LINE      CODE     ---       #108
      00FF695CH   LINE      CODE     ---       #109
      00FF695EH   LINE      CODE     ---       #110
      00FF6976H   LINE      CODE     ---       #112
      00FF6979H   LINE      CODE     ---       #113
      00FF6979H   LINE      CODE     ---       #115
      00FF697CH   LINE      CODE     ---       #116
      00FF6981H   LINE      CODE     ---       #117
      00FF6984H   LINE      CODE     ---       #120
      00FF6984H   LINE      CODE     ---       #122
      00FF6990H   LINE      CODE     ---       #124
      00FF6993H   LINE      CODE     ---       #125
      00FF6999H   LINE      CODE     ---       #126
      00FF69A3H   LINE      CODE     ---       #127
      00FF69A6H   LINE      CODE     ---       #128
      00FF69A8H   LINE      CODE     ---       #129
      00FF69B4H   LINE      CODE     ---       #131
      00FF69B7H   LINE      CODE     ---       #132
      00FF69BDH   LINE      CODE     ---       #133
      00FF69C7H   LINE      CODE     ---       #134
      00FF69CAH   LINE      CODE     ---       #135
      00FF69CAH   LINE      CODE     ---       #137
      00FF69CDH   LINE      CODE     ---       #138
      00FF69E5H   LINE      CODE     ---       #140
      00FF69E9H   LINE      CODE     ---       #141
      00FF69EBH   LINE      CODE     ---       #142
      00FF6A03H   LINE      CODE     ---       #144
      00FF6A06H   LINE      CODE     ---       #145
      00FF6A06H   LINE      CODE     ---       #147
      00FF6A09H   LINE      CODE     ---       #148
      00FF6A0EH   LINE      CODE     ---       #149
      00FF6A11H   LINE      CODE     ---       #152
      00FF6A11H   LINE      CODE     ---       #154
      00FF6A1DH   LINE      CODE     ---       #156
      00FF6A20H   LINE      CODE     ---       #157
      00FF6A26H   LINE      CODE     ---       #158
      00FF6A30H   LINE      CODE     ---       #159
      00FF6A34H   LINE      CODE     ---       #160
      00FF6A36H   LINE      CODE     ---       #161
      00FF6A42H   LINE      CODE     ---       #163
      00FF6A45H   LINE      CODE     ---       #164
      00FF6A4BH   LINE      CODE     ---       #165
L251 LINKER/LOCATER V4.66.93.0                                                        04/10/2024  19:22:09  PAGE 59


      00FF6A55H   LINE      CODE     ---       #166
      00FF6A58H   LINE      CODE     ---       #167
      00FF6A58H   LINE      CODE     ---       #169
      00FF6A5BH   LINE      CODE     ---       #170
      00FF6A73H   LINE      CODE     ---       #172
      00FF6A77H   LINE      CODE     ---       #173
      00FF6A79H   LINE      CODE     ---       #174
      00FF6A91H   LINE      CODE     ---       #176
      00FF6A94H   LINE      CODE     ---       #177
      00FF6A98H   LINE      CODE     ---       #178
      00FF6A9BH   LINE      CODE     ---       #179
      00FF6A9BH   LINE      CODE     ---       #180
      00FF6A9EH   LINE      CODE     ---       #181
      00FF6AA3H   LINE      CODE     ---       #182
      00FF6AA3H   LINE      CODE     ---       #185
      00FF6AA3H   LINE      CODE     ---       #187
      ---         BLOCKEND  ---      ---       LVL=0

      00FF7EA7H   BLOCK     CODE     ---       LVL=0
      00000DD2H   SYMBOL    EDATA    INT       uart_n
      00000DD4H   SYMBOL    EDATA    BYTE      dat
      00FF7EA7H   LINE      CODE     ---       #196
      00FF7EAFH   LINE      CODE     ---       #198
      00FF7EC1H   LINE      CODE     ---       #200
      00FF7EC1H   LINE      CODE     ---       #201
      00FF7ECAH   LINE      CODE     ---       #202
      00FF7ED0H   LINE      CODE     ---       #203
      00FF7ED6H   LINE      CODE     ---       #204
      00FF7ED8H   LINE      CODE     ---       #205
      00FF7ED8H   LINE      CODE     ---       #206
      00FF7EE1H   LINE      CODE     ---       #207
      00FF7EE7H   LINE      CODE     ---       #208
      00FF7EEDH   LINE      CODE     ---       #209
      00FF7EEFH   LINE      CODE     ---       #210
      00FF7EEFH   LINE      CODE     ---       #211
      00FF7EF8H   LINE      CODE     ---       #212
      00FF7EFEH   LINE      CODE     ---       #213
      00FF7F04H   LINE      CODE     ---       #214
      00FF7F06H   LINE      CODE     ---       #215
      00FF7F06H   LINE      CODE     ---       #216
      00FF7F0FH   LINE      CODE     ---       #217
      00FF7F15H   LINE      CODE     ---       #218
      00FF7F1BH   LINE      CODE     ---       #219
      00FF7F1BH   LINE      CODE     ---       #220
      00FF7F1BH   LINE      CODE     ---       #221
      ---         BLOCKEND  ---      ---       LVL=0
      00000BE2H   SYMBOL    EDATA    INT       uart_n
      00000BE4H   SYMBOL    EDATA    ---       p
      00000BE8H   SYMBOL    EDATA    WORD      len
      00000CA8H   SYMBOL    EDATA    INT       uart_n
      00000CAAH   SYMBOL    EDATA    ---       str

      ---         MODULE    ---      ---       zf_fifo
      00FF814AH   PUBLIC    CODE     ---       fifo_head_offset
      00FF6F53H   PUBLIC    CODE     ---       fifo_write_buffer
      0000096CH   PUBLIC    EDATA    BYTE      ?fifo_init?BYTE
      000008DCH   PUBLIC    EDATA    BYTE      ?fifo_write_buffer?BYTE
      00000893H   PUBLIC    EDATA    BYTE      ?fifo_read_buffer?BYTE
      000000D0H   SFRSYM    DATA     BYTE      PSW
      0000009DH   SFRSYM    DATA     BYTE      IRCBAND
      00000097H   SFRSYM    DATA     BYTE      AUXR2
      000000EFH   SFRSYM    DATA     BYTE      AUXINTIF
      000000FDH   SFRSYM    DATA     BYTE      S4CON
      000000ACH   SFRSYM    DATA     BYTE      S3CON
      0000009AH   SFRSYM    DATA     BYTE      S2CON
L251 LINKER/LOCATER V4.66.93.0                                                        04/10/2024  19:22:09  PAGE 60


      000000B7H   SFRSYM    DATA     BYTE      IPH
      000000CDH   SFRSYM    DATA     BYTE      SPSTAT
      000000DDH   SFRSYM    DATA     BYTE      T4T3M
      000000C1H   SFRSYM    DATA     BYTE      WDT_CONTR
      000000DFH   SFRSYM    DATA     BYTE      IP3
      000000F4H   SFRSYM    DATA     BYTE      USBCON
      000000B5H   SFRSYM    DATA     BYTE      IP2
      000000FFH   SFRSYM    DATA     BYTE      RSTCFG
      000000C7H   SFRSYM    DATA     BYTE      IAP_CONTR
      000000F9H   SFRSYM    DATA     BYTE      LINICR
      0000008EH   SFRSYM    DATA     BYTE      AUXR
      000000AFH   SFRSYM    DATA     BYTE      IE2
      00000088H   SFRSYM    DATA     BYTE      TCON
      00000089H   SFRSYM    DATA     BYTE      TMOD
      00000098H   SFRSYM    DATA     BYTE      SCON
      000000F1H   SFRSYM    DATA     BYTE      CANICR
      00000087H   SFRSYM    DATA     BYTE      PCON
      000000BCH   SFRSYM    DATA     BYTE      ADC_CONTR
      000000E7H   SFRSYM    DATA     BYTE      CMPCR2
      000000E6H   SFRSYM    DATA     BYTE      CMPCR1
      000000DEH   SFRSYM    DATA     BYTE      ADCCFG
      000000B8H   SFRSYM    DATA     BYTE      IP
      0000008FH   SFRSYM    DATA     BYTE      INTCLKO
      000000EEH   SFRSYM    DATA     BYTE      IP3H
      000000B6H   SFRSYM    DATA     BYTE      IP2H
      000000A8H   SFRSYM    DATA     BYTE      IE
      000000BBH   SFRSYM    DATA     BYTE      P_SW3
      000000BAH   SFRSYM    DATA     BYTE      P_SW2
      000000A2H   SFRSYM    DATA     BYTE      P_SW1
      000000CEH   SFRSYM    DATA     BYTE      SPCTL
      000000F8H   SFRSYM    DATA     BYTE      P7
      000000E8H   SFRSYM    DATA     BYTE      P6
      000000C8H   SFRSYM    DATA     BYTE      P5
      000000C0H   SFRSYM    DATA     BYTE      P4
      000000B0H   SFRSYM    DATA     BYTE      P3
      000000A0H   SFRSYM    DATA     BYTE      P2
      00000090H   SFRSYM    DATA     BYTE      P1
      00000080H   SFRSYM    DATA     BYTE      P0
      0000096CH   SYMBOL    EDATA    ---       fifo
      00000970H   SYMBOL    EDATA    ---       buffer_addr
      00000974H   SYMBOL    EDATA    DWORD     size

      00FF814AH   BLOCK     CODE     ---       LVL=0
      00000BEAH   SYMBOL    EDATA    ---       fifo
      00000BEEH   SYMBOL    EDATA    DWORD     offset
      00FF814AH   LINE      CODE     ---       #61
      00FF8152H   LINE      CODE     ---       #63
      00FF816CH   LINE      CODE     ---       #65
      00FF816EH   LINE      CODE     ---       #67
      00FF8193H   LINE      CODE     ---       #68
      00FF81B3H   LINE      CODE     ---       #69
      ---         BLOCKEND  ---      ---       LVL=0
      00000BF2H   SYMBOL    EDATA    ---       fifo
      00000BF6H   SYMBOL    EDATA    DWORD     offset
      00000D86H   SYMBOL    EDATA    ---       fifo
      00000D8AH   SYMBOL    EDATA    ---       fifo

      00FF6F53H   BLOCK     CODE     ---       LVL=0
      000008DCH   SYMBOL    EDATA    ---       fifo
      000008E0H   SYMBOL    EDATA    ---       dat
      000008E4H   SYMBOL    EDATA    DWORD     length
      00FF6F5BH   BLOCK     CODE     NEAR LAB  LVL=1
      000008E8H   SYMBOL    EDATA    DWORD     temp_length
      ---         BLOCKEND  ---      ---       LVL=1
      00FF6F53H   LINE      CODE     ---       #120
L251 LINKER/LOCATER V4.66.93.0                                                        04/10/2024  19:22:09  PAGE 61


      00FF6F5BH   LINE      CODE     ---       #121
      00FF6F5BH   LINE      CODE     ---       #124
      00FF6F75H   LINE      CODE     ---       #126
      00FF6F97H   LINE      CODE     ---       #128
      00FF6FA6H   LINE      CODE     ---       #130
      00FF6FCFH   LINE      CODE     ---       #131
      00FF6FDAH   LINE      CODE     ---       #132
      00FF6FEAH   LINE      CODE     ---       #133
      00FF701DH   LINE      CODE     ---       #134
      00FF702EH   LINE      CODE     ---       #135
      00FF7030H   LINE      CODE     ---       #138
      00FF7059H   LINE      CODE     ---       #139
      00FF7064H   LINE      CODE     ---       #140
      00FF7064H   LINE      CODE     ---       #142
      00FF7080H   LINE      CODE     ---       #143
      00FF7082H   LINE      CODE     ---       #146
      00FF7088H   LINE      CODE     ---       #147
      00FF7088H   LINE      CODE     ---       #149
      00FF708AH   LINE      CODE     ---       #150
      ---         BLOCKEND  ---      ---       LVL=0
      00000893H   SYMBOL    EDATA    ---       fifo
      00000897H   SYMBOL    EDATA    ---       dat
      0000089BH   SYMBOL    EDATA    ---       length
      0000089FH   SYMBOL    EDATA    INT       flag
      000008A1H   SYMBOL    EDATA    BYTE      data_check
      000008A2H   SYMBOL    EDATA    DWORD     temp_length

      ---         MODULE    ---      ---       SEEKFREE_18TFT
      00000420H   PUBLIC    EDATA    BYTE      ?lcd_showfloat_simspi?BYTE
      00000450H   PUBLIC    EDATA    BYTE      ?lcd_showfloat?BYTE
      000000D0H   SFRSYM    DATA     BYTE      PSW
      0000009DH   SFRSYM    DATA     BYTE      IRCBAND
      00000097H   SFRSYM    DATA     BYTE      AUXR2
      000000EFH   SFRSYM    DATA     BYTE      AUXINTIF
      000000FDH   SFRSYM    DATA     BYTE      S4CON
      000000ACH   SFRSYM    DATA     BYTE      S3CON
      0000009AH   SFRSYM    DATA     BYTE      S2CON
      000000B7H   SFRSYM    DATA     BYTE      IPH
      000000CDH   SFRSYM    DATA     BYTE      SPSTAT
      000000DDH   SFRSYM    DATA     BYTE      T4T3M
      000000C1H   SFRSYM    DATA     BYTE      WDT_CONTR
      000000DFH   SFRSYM    DATA     BYTE      IP3
      000000F4H   SFRSYM    DATA     BYTE      USBCON
      000000B5H   SFRSYM    DATA     BYTE      IP2
      000000FFH   SFRSYM    DATA     BYTE      RSTCFG
      000000C7H   SFRSYM    DATA     BYTE      IAP_CONTR
      000000F9H   SFRSYM    DATA     BYTE      LINICR
      0000008EH   SFRSYM    DATA     BYTE      AUXR
      000000AFH   SFRSYM    DATA     BYTE      IE2
      000000A0H.5 SFRSYM    DATA     BIT       P25
      00000088H   SFRSYM    DATA     BYTE      TCON
      00000089H   SFRSYM    DATA     BYTE      TMOD
      000000A0H.3 SFRSYM    DATA     BIT       P23
      00000098H   SFRSYM    DATA     BYTE      SCON
      000000A0H.2 SFRSYM    DATA     BIT       P22
      000000A0H.1 SFRSYM    DATA     BIT       P21
      000000A0H.0 SFRSYM    DATA     BIT       P20
      000000F1H   SFRSYM    DATA     BYTE      CANICR
      00000087H   SFRSYM    DATA     BYTE      PCON
      000000BCH   SFRSYM    DATA     BYTE      ADC_CONTR
      000000E7H   SFRSYM    DATA     BYTE      CMPCR2
      000000E6H   SFRSYM    DATA     BYTE      CMPCR1
      000000DEH   SFRSYM    DATA     BYTE      ADCCFG
      000000B8H   SFRSYM    DATA     BYTE      IP
      0000008FH   SFRSYM    DATA     BYTE      INTCLKO
L251 LINKER/LOCATER V4.66.93.0                                                        04/10/2024  19:22:09  PAGE 62


      000000EEH   SFRSYM    DATA     BYTE      IP3H
      000000B6H   SFRSYM    DATA     BYTE      IP2H
      000000A8H   SFRSYM    DATA     BYTE      IE
      000000BBH   SFRSYM    DATA     BYTE      P_SW3
      000000BAH   SFRSYM    DATA     BYTE      P_SW2
      000000A2H   SFRSYM    DATA     BYTE      P_SW1
      000000CEH   SFRSYM    DATA     BYTE      SPCTL
      000000F8H   SFRSYM    DATA     BYTE      P7
      000000E8H   SFRSYM    DATA     BYTE      P6
      000000C8H   SFRSYM    DATA     BYTE      P5
      000000C0H   SFRSYM    DATA     BYTE      P4
      000000B0H   SFRSYM    DATA     BYTE      P3
      000000A0H   SFRSYM    DATA     BYTE      P2
      00000090H   SFRSYM    DATA     BYTE      P1
      00000080H   SFRSYM    DATA     BYTE      P0
      00000E19H   SYMBOL    EDATA    BYTE      dat
      00000E1AH   SYMBOL    EDATA    BYTE      i
      00000E1BH   SYMBOL    EDATA    BYTE      dat
      00000E1CH   SYMBOL    EDATA    BYTE      i
      00000DD5H   SYMBOL    EDATA    WORD      dat
      00000DD7H   SYMBOL    EDATA    BYTE      i
      00000BFAH   SYMBOL    EDATA    WORD      x_start
      00000BFCH   SYMBOL    EDATA    WORD      y_start
      00000BFEH   SYMBOL    EDATA    WORD      x_end
      00000C00H   SYMBOL    EDATA    WORD      y_end
      00000D8EH   SYMBOL    EDATA    INT       color
      00000D90H   SYMBOL    EDATA    BYTE      i
      00000D91H   SYMBOL    EDATA    BYTE      j
      00000CAEH   SYMBOL    EDATA    WORD      x
      00000CB0H   SYMBOL    EDATA    WORD      y
      00000CB2H   SYMBOL    EDATA    WORD      color
      00000C02H   SYMBOL    EDATA    WORD      x
      00000C04H   SYMBOL    EDATA    WORD      y
      00000C06H   SYMBOL    EDATA    CHAR      dat
      00000C07H   SYMBOL    EDATA    BYTE      i
      00000C08H   SYMBOL    EDATA    BYTE      j
      00000C09H   SYMBOL    EDATA    BYTE      temp
      00000AA7H   SYMBOL    EDATA    WORD      x
      00000AA9H   SYMBOL    EDATA    WORD      y
      00000AABH   SYMBOL    EDATA    ---       dat
      00000AAFH   SYMBOL    EDATA    WORD      j
      00000B0BH   SYMBOL    EDATA    WORD      x
      00000B0DH   SYMBOL    EDATA    WORD      y
      00000B0FH   SYMBOL    EDATA    CHAR      dat
      00000B10H   SYMBOL    EDATA    ---       a
      00000B13H   SYMBOL    EDATA    BYTE      i
      00000B14H   SYMBOL    EDATA    WORD      x
      00000B16H   SYMBOL    EDATA    WORD      y
      00000B18H   SYMBOL    EDATA    BYTE      dat
      00000B19H   SYMBOL    EDATA    ---       a
      00000B1CH   SYMBOL    EDATA    BYTE      i
      00000978H   SYMBOL    EDATA    WORD      x
      0000097AH   SYMBOL    EDATA    WORD      y
      0000097CH   SYMBOL    EDATA    INT       dat
      0000097EH   SYMBOL    EDATA    ---       a
      00000983H   SYMBOL    EDATA    BYTE      i
      00000984H   SYMBOL    EDATA    WORD      x
      00000986H   SYMBOL    EDATA    WORD      y
      00000988H   SYMBOL    EDATA    WORD      dat
      0000098AH   SYMBOL    EDATA    ---       a
      0000098FH   SYMBOL    EDATA    BYTE      i
      000005CFH   SYMBOL    EDATA    WORD      x
      000005D1H   SYMBOL    EDATA    WORD      y
      000005D3H   SYMBOL    EDATA    LONG      dat
      000005D7H   SYMBOL    EDATA    BYTE      num
L251 LINKER/LOCATER V4.66.93.0                                                        04/10/2024  19:22:09  PAGE 63


      000005D8H   SYMBOL    EDATA    ---       buff
      000005FAH   SYMBOL    EDATA    BYTE      length
      00000420H   SYMBOL    EDATA    WORD      x
      00000422H   SYMBOL    EDATA    WORD      y
      00000424H   SYMBOL    EDATA    FLOAT     dat
      00000428H   SYMBOL    EDATA    BYTE      num
      00000429H   SYMBOL    EDATA    BYTE      pointnum
      0000042AH   SYMBOL    EDATA    BYTE      length
      0000042BH   SYMBOL    EDATA    ---       buff
      0000044DH   SYMBOL    EDATA    CHAR      start
      0000044EH   SYMBOL    EDATA    CHAR      end
      0000044FH   SYMBOL    EDATA    CHAR      point
      00000E77H   SYMBOL    EDATA    BYTE      dat
      00000E78H   SYMBOL    EDATA    BYTE      dat
      00000D92H   SYMBOL    EDATA    WORD      dat
      00000D94H   SYMBOL    EDATA    ---       dat1
      00000C0AH   SYMBOL    EDATA    WORD      x_start
      00000C0CH   SYMBOL    EDATA    WORD      y_start
      00000C0EH   SYMBOL    EDATA    WORD      x_end
      00000C10H   SYMBOL    EDATA    WORD      y_end
      00000D96H   SYMBOL    EDATA    INT       color
      00000D98H   SYMBOL    EDATA    BYTE      i
      00000D99H   SYMBOL    EDATA    BYTE      j
      00000CB4H   SYMBOL    EDATA    WORD      x
      00000CB6H   SYMBOL    EDATA    WORD      y
      00000CB8H   SYMBOL    EDATA    WORD      color
      00000C12H   SYMBOL    EDATA    WORD      x
      00000C14H   SYMBOL    EDATA    WORD      y
      00000C16H   SYMBOL    EDATA    CHAR      dat
      00000C17H   SYMBOL    EDATA    BYTE      i
      00000C18H   SYMBOL    EDATA    BYTE      j
      00000C19H   SYMBOL    EDATA    BYTE      temp
      00000AB1H   SYMBOL    EDATA    WORD      x
      00000AB3H   SYMBOL    EDATA    WORD      y
      00000AB5H   SYMBOL    EDATA    ---       dat
      00000AB9H   SYMBOL    EDATA    WORD      j
      00000B1DH   SYMBOL    EDATA    WORD      x
      00000B1FH   SYMBOL    EDATA    WORD      y
      00000B21H   SYMBOL    EDATA    CHAR      dat
      00000B22H   SYMBOL    EDATA    ---       a
      00000B25H   SYMBOL    EDATA    BYTE      i
      00000B26H   SYMBOL    EDATA    WORD      x
      00000B28H   SYMBOL    EDATA    WORD      y
      00000B2AH   SYMBOL    EDATA    BYTE      dat
      00000B2BH   SYMBOL    EDATA    ---       a
      00000B2EH   SYMBOL    EDATA    BYTE      i
      00000990H   SYMBOL    EDATA    WORD      x
      00000992H   SYMBOL    EDATA    WORD      y
      00000994H   SYMBOL    EDATA    INT       dat
      00000996H   SYMBOL    EDATA    ---       a
      0000099BH   SYMBOL    EDATA    BYTE      i
      0000099CH   SYMBOL    EDATA    WORD      x
      0000099EH   SYMBOL    EDATA    WORD      y
      000009A0H   SYMBOL    EDATA    WORD      dat
      000009A2H   SYMBOL    EDATA    ---       a
      000009A7H   SYMBOL    EDATA    BYTE      i
      000005FBH   SYMBOL    EDATA    WORD      x
      000005FDH   SYMBOL    EDATA    WORD      y
      000005FFH   SYMBOL    EDATA    LONG      dat
      00000603H   SYMBOL    EDATA    BYTE      num
      00000604H   SYMBOL    EDATA    ---       buff
      00000626H   SYMBOL    EDATA    BYTE      length
      00000450H   SYMBOL    EDATA    WORD      x
      00000452H   SYMBOL    EDATA    WORD      y
      00000454H   SYMBOL    EDATA    FLOAT     dat
L251 LINKER/LOCATER V4.66.93.0                                                        04/10/2024  19:22:09  PAGE 64


      00000458H   SYMBOL    EDATA    BYTE      num
      00000459H   SYMBOL    EDATA    BYTE      pointnum
      0000045AH   SYMBOL    EDATA    BYTE      length
      0000045BH   SYMBOL    EDATA    ---       buff
      0000047DH   SYMBOL    EDATA    CHAR      start
      0000047EH   SYMBOL    EDATA    CHAR      end
      0000047FH   SYMBOL    EDATA    CHAR      point
      000009A8H   SYMBOL    EDATA    ---       p
      000009ACH   SYMBOL    EDATA    INT       i
      000009AEH   SYMBOL    EDATA    INT       j
      000009B0H   SYMBOL    EDATA    INT       k
      000009B2H   SYMBOL    EDATA    BYTE      picH
      000009B3H   SYMBOL    EDATA    BYTE      picL

      ---         MODULE    ---      ---       SEEKFREE_ABSOLUTE_ENCODER
      000000D0H   SFRSYM    DATA     BYTE      PSW
      0000009DH   SFRSYM    DATA     BYTE      IRCBAND
      00000097H   SFRSYM    DATA     BYTE      AUXR2
      000000EFH   SFRSYM    DATA     BYTE      AUXINTIF
      000000FDH   SFRSYM    DATA     BYTE      S4CON
      000000ACH   SFRSYM    DATA     BYTE      S3CON
      0000009AH   SFRSYM    DATA     BYTE      S2CON
      000000B7H   SFRSYM    DATA     BYTE      IPH
      000000CDH   SFRSYM    DATA     BYTE      SPSTAT
      000000DDH   SFRSYM    DATA     BYTE      T4T3M
      000000C1H   SFRSYM    DATA     BYTE      WDT_CONTR
      000000DFH   SFRSYM    DATA     BYTE      IP3
      000000F4H   SFRSYM    DATA     BYTE      USBCON
      000000B5H   SFRSYM    DATA     BYTE      IP2
      000000FFH   SFRSYM    DATA     BYTE      RSTCFG
      000000C7H   SFRSYM    DATA     BYTE      IAP_CONTR
      000000F9H   SFRSYM    DATA     BYTE      LINICR
      0000008EH   SFRSYM    DATA     BYTE      AUXR
      000000AFH   SFRSYM    DATA     BYTE      IE2
      000000A0H.7 SFRSYM    DATA     BIT       P27
      000000A0H.6 SFRSYM    DATA     BIT       P26
      000000A0H.5 SFRSYM    DATA     BIT       P25
      000000A0H.4 SFRSYM    DATA     BIT       P24
      00000088H   SFRSYM    DATA     BYTE      TCON
      00000089H   SFRSYM    DATA     BYTE      TMOD
      00000098H   SFRSYM    DATA     BYTE      SCON
      000000A0H.2 SFRSYM    DATA     BIT       P22
      000000F1H   SFRSYM    DATA     BYTE      CANICR
      00000087H   SFRSYM    DATA     BYTE      PCON
      000000BCH   SFRSYM    DATA     BYTE      ADC_CONTR
      000000E7H   SFRSYM    DATA     BYTE      CMPCR2
      000000E6H   SFRSYM    DATA     BYTE      CMPCR1
      000000DEH   SFRSYM    DATA     BYTE      ADCCFG
      000000B8H   SFRSYM    DATA     BYTE      IP
      0000008FH   SFRSYM    DATA     BYTE      INTCLKO
      000000EEH   SFRSYM    DATA     BYTE      IP3H
      000000B6H   SFRSYM    DATA     BYTE      IP2H
      000000A8H   SFRSYM    DATA     BYTE      IE
      000000BBH   SFRSYM    DATA     BYTE      P_SW3
      000000BAH   SFRSYM    DATA     BYTE      P_SW2
      000000A2H   SFRSYM    DATA     BYTE      P_SW1
      000000CEH   SFRSYM    DATA     BYTE      SPCTL
      000000F8H   SFRSYM    DATA     BYTE      P7
      000000E8H   SFRSYM    DATA     BYTE      P6
      000000C8H   SFRSYM    DATA     BYTE      P5
      000000C0H   SFRSYM    DATA     BYTE      P4
      000000B0H   SFRSYM    DATA     BYTE      P3
      000000A0H   SFRSYM    DATA     BYTE      P2
      00000090H   SFRSYM    DATA     BYTE      P1
      00000080H   SFRSYM    DATA     BYTE      P0
L251 LINKER/LOCATER V4.66.93.0                                                        04/10/2024  19:22:09  PAGE 65


      00000E1DH   SYMBOL    EDATA    WORD      x
      00000E1FH   SYMBOL    EDATA    BYTE      byte
      00000E20H   SYMBOL    EDATA    BYTE      i
      00000E21H   SYMBOL    EDATA    BYTE      cmd
      00000E22H   SYMBOL    EDATA    BYTE      val
      00000D31H   SYMBOL    EDATA    BYTE      cmd
      00000D32H   SYMBOL    EDATA    ---       val
      00000DD8H   SYMBOL    EDATA    BYTE      cmd
      00000DD9H   SYMBOL    EDATA    BYTE      val
      00000DDAH   SYMBOL    EDATA    BYTE      dat
      00000D36H   SYMBOL    EDATA    BYTE      cmd
      00000D37H   SYMBOL    EDATA    ---       val
      00000E23H   SYMBOL    EDATA    WORD      zero_position
      00000E25H   SYMBOL    EDATA    WORD      angle
      00000E79H   SYMBOL    EDATA    BYTE      val
      00000E7AH   SYMBOL    EDATA    BYTE      byte
      00000E27H   SYMBOL    EDATA    BYTE      cmd
      00000E28H   SYMBOL    EDATA    BYTE      val
      00000D3BH   SYMBOL    EDATA    BYTE      cmd
      00000D3CH   SYMBOL    EDATA    ---       val
      00000DDBH   SYMBOL    EDATA    BYTE      cmd
      00000DDCH   SYMBOL    EDATA    BYTE      val
      00000DDDH   SYMBOL    EDATA    BYTE      dat
      00000D40H   SYMBOL    EDATA    BYTE      cmd
      00000D41H   SYMBOL    EDATA    ---       val
      00000E29H   SYMBOL    EDATA    WORD      zero_position
      00000E2BH   SYMBOL    EDATA    WORD      angle
      00000E7BH   SYMBOL    EDATA    BYTE      val

      ---         MODULE    ---      ---       SEEKFREE_BLUETOOTH_CH9141
      00FF0066H   PUBLIC    CODE     ---       bluetooth_ch9141_uart_callback
      000000D0H   SFRSYM    DATA     BYTE      PSW
      0000009DH   SFRSYM    DATA     BYTE      IRCBAND
      00000097H   SFRSYM    DATA     BYTE      AUXR2
      000000EFH   SFRSYM    DATA     BYTE      AUXINTIF
      000000FDH   SFRSYM    DATA     BYTE      S4CON
      000000ACH   SFRSYM    DATA     BYTE      S3CON
      0000009AH   SFRSYM    DATA     BYTE      S2CON
      000000FEH   SFRSYM    DATA     BYTE      S4BUF
      000000B7H   SFRSYM    DATA     BYTE      IPH
      000000CDH   SFRSYM    DATA     BYTE      SPSTAT
      000000DDH   SFRSYM    DATA     BYTE      T4T3M
      000000C1H   SFRSYM    DATA     BYTE      WDT_CONTR
      000000DFH   SFRSYM    DATA     BYTE      IP3
      000000F4H   SFRSYM    DATA     BYTE      USBCON
      000000B5H   SFRSYM    DATA     BYTE      IP2
      000000FFH   SFRSYM    DATA     BYTE      RSTCFG
      000000C7H   SFRSYM    DATA     BYTE      IAP_CONTR
      000000F9H   SFRSYM    DATA     BYTE      LINICR
      0000008EH   SFRSYM    DATA     BYTE      AUXR
      000000AFH   SFRSYM    DATA     BYTE      IE2
      00000080H.7 SFRSYM    DATA     BIT       P07
      00000088H   SFRSYM    DATA     BYTE      TCON
      00000089H   SFRSYM    DATA     BYTE      TMOD
      00000098H   SFRSYM    DATA     BYTE      SCON
      000000F1H   SFRSYM    DATA     BYTE      CANICR
      00000087H   SFRSYM    DATA     BYTE      PCON
      000000BCH   SFRSYM    DATA     BYTE      ADC_CONTR
      000000E7H   SFRSYM    DATA     BYTE      CMPCR2
      000000E6H   SFRSYM    DATA     BYTE      CMPCR1
      000000DEH   SFRSYM    DATA     BYTE      ADCCFG
      000000B8H   SFRSYM    DATA     BYTE      IP
      0000008FH   SFRSYM    DATA     BYTE      INTCLKO
      000000EEH   SFRSYM    DATA     BYTE      IP3H
      000000B6H   SFRSYM    DATA     BYTE      IP2H
L251 LINKER/LOCATER V4.66.93.0                                                        04/10/2024  19:22:09  PAGE 66


      000000A8H   SFRSYM    DATA     BYTE      IE
      000000BBH   SFRSYM    DATA     BYTE      P_SW3
      000000BAH   SFRSYM    DATA     BYTE      P_SW2
      000000A2H   SFRSYM    DATA     BYTE      P_SW1
      000000CEH   SFRSYM    DATA     BYTE      SPCTL
      000000F8H   SFRSYM    DATA     BYTE      P7
      000000E8H   SFRSYM    DATA     BYTE      P6
      000000C8H   SFRSYM    DATA     BYTE      P5
      000000C0H   SFRSYM    DATA     BYTE      P4
      000000B0H   SFRSYM    DATA     BYTE      P3
      000000A0H   SFRSYM    DATA     BYTE      P2
      00000090H   SFRSYM    DATA     BYTE      P1
      00000080H   SFRSYM    DATA     BYTE      P0
      000002F0H   SYMBOL    EDATA    ---       bluetooth_ch9141_buffer
      00000330H   SYMBOL    EDATA    BYTE      bluetooth_ch9141_data
      00000331H   SYMBOL    EDATA    ---       bluetooth_ch9141_fifo

      00FF0066H   BLOCK     CODE     ---       LVL=0
      00FF0066H   LINE      CODE     ---       #67
      00FF0066H   LINE      CODE     ---       #70
      00FF006CH   LINE      CODE     ---       #71
      00FF007FH   LINE      CODE     ---       #72
      ---         BLOCKEND  ---      ---       LVL=0
      00000ABBH   SYMBOL    EDATA    ---       buff
      00000ABFH   SYMBOL    EDATA    DWORD     len
      00000AC3H   SYMBOL    EDATA    WORD      time_count
      000009B4H   SYMBOL    EDATA    ---       buff
      000009B8H   SYMBOL    EDATA    DWORD     len
      000009BCH   SYMBOL    EDATA    DWORD     data_len

      ---         MODULE    ---      ---       SEEKFREE_DL1A
      00000DDEH   PUBLIC    EDATA    WORD      dl1a_distance_mm
      00000DE0H   PUBLIC    EDATA    BYTE      dl1a_finsh_flag
      000000D0H   SFRSYM    DATA     BYTE      PSW
      0000009DH   SFRSYM    DATA     BYTE      IRCBAND
      00000097H   SFRSYM    DATA     BYTE      AUXR2
      000000EFH   SFRSYM    DATA     BYTE      AUXINTIF
      000000FDH   SFRSYM    DATA     BYTE      S4CON
      000000ACH   SFRSYM    DATA     BYTE      S3CON
      0000009AH   SFRSYM    DATA     BYTE      S2CON
      000000B7H   SFRSYM    DATA     BYTE      IPH
      000000CDH   SFRSYM    DATA     BYTE      SPSTAT
      000000DDH   SFRSYM    DATA     BYTE      T4T3M
      000000C1H   SFRSYM    DATA     BYTE      WDT_CONTR
      000000DFH   SFRSYM    DATA     BYTE      IP3
      000000F4H   SFRSYM    DATA     BYTE      USBCON
      000000B5H   SFRSYM    DATA     BYTE      IP2
      000000FFH   SFRSYM    DATA     BYTE      RSTCFG
      000000C7H   SFRSYM    DATA     BYTE      IAP_CONTR
      000000F9H   SFRSYM    DATA     BYTE      LINICR
      0000008EH   SFRSYM    DATA     BYTE      AUXR
      000000AFH   SFRSYM    DATA     BYTE      IE2
      00000090H.5 SFRSYM    DATA     BIT       P15
      000000A0H.4 SFRSYM    DATA     BIT       P24
      000000B0H.3 SFRSYM    DATA     BIT       P33
      00000088H   SFRSYM    DATA     BYTE      TCON
      00000089H   SFRSYM    DATA     BYTE      TMOD
      00000098H   SFRSYM    DATA     BYTE      SCON
      000000F1H   SFRSYM    DATA     BYTE      CANICR
      00000087H   SFRSYM    DATA     BYTE      PCON
      000000BCH   SFRSYM    DATA     BYTE      ADC_CONTR
      000000E7H   SFRSYM    DATA     BYTE      CMPCR2
      000000E6H   SFRSYM    DATA     BYTE      CMPCR1
      000000DEH   SFRSYM    DATA     BYTE      ADCCFG
      000000B8H   SFRSYM    DATA     BYTE      IP
L251 LINKER/LOCATER V4.66.93.0                                                        04/10/2024  19:22:09  PAGE 67


      0000008FH   SFRSYM    DATA     BYTE      INTCLKO
      000000EEH   SFRSYM    DATA     BYTE      IP3H
      000000B6H   SFRSYM    DATA     BYTE      IP2H
      000000A8H   SFRSYM    DATA     BYTE      IE
      000000BBH   SFRSYM    DATA     BYTE      P_SW3
      000000BAH   SFRSYM    DATA     BYTE      P_SW2
      000000A2H   SFRSYM    DATA     BYTE      P_SW1
      000000CEH   SFRSYM    DATA     BYTE      SPCTL
      000000F8H   SFRSYM    DATA     BYTE      P7
      000000E8H   SFRSYM    DATA     BYTE      P6
      000000C8H   SFRSYM    DATA     BYTE      P5
      000000C0H   SFRSYM    DATA     BYTE      P4
      000000B0H   SFRSYM    DATA     BYTE      P3
      000000A0H   SFRSYM    DATA     BYTE      P2
      00000090H   SFRSYM    DATA     BYTE      P1
      00000080H   SFRSYM    DATA     BYTE      P0
      00000E2DH   SYMBOL    EDATA    WORD      j
      00000E7CH   SYMBOL    EDATA    BYTE      ack_dat
      00000E2FH   SYMBOL    EDATA    BYTE      c
      00000E30H   SYMBOL    EDATA    BYTE      i
      00000DE1H   SYMBOL    EDATA    BYTE      ack_x
      00000DE2H   SYMBOL    EDATA    BYTE      i
      00000DE3H   SYMBOL    EDATA    BYTE      c
      00000B2FH   SYMBOL    EDATA    BYTE      dev_add
      00000B30H   SYMBOL    EDATA    ---       dat
      00000B34H   SYMBOL    EDATA    DWORD     len
      00000DE4H   SYMBOL    EDATA    BYTE      dev_add
      00000DE5H   SYMBOL    EDATA    BYTE      reg
      00000DE6H   SYMBOL    EDATA    BYTE      dat
      00000DE7H   SYMBOL    EDATA    BYTE      dev_add
      00000DE8H   SYMBOL    EDATA    BYTE      reg
      00000DE9H   SYMBOL    EDATA    BYTE      dat
      00000AC5H   SYMBOL    EDATA    BYTE      dev_add
      00000AC6H   SYMBOL    EDATA    BYTE      reg
      00000AC7H   SYMBOL    EDATA    ---       dat_add
      00000ACBH   SYMBOL    EDATA    DWORD     num
      00000ACFH   SYMBOL    EDATA    BYTE      dev_add
      00000AD0H   SYMBOL    EDATA    BYTE      reg
      00000AD1H   SYMBOL    EDATA    ---       dat_add
      00000AD5H   SYMBOL    EDATA    DWORD     num
      000009C0H   SYMBOL    EDATA    ---       index
      000009C4H   SYMBOL    EDATA    ---       type_is_aperture
      000009C8H   SYMBOL    EDATA    BYTE      tmp
      000009C9H   SYMBOL    EDATA    BYTE      return_state
      000009CAH   SYMBOL    EDATA    WORD      loop_count
      00000C60H   SYMBOL    EDATA    WORD      timeout_period_mclks
      00000C62H   SYMBOL    EDATA    BYTE      vcsel_period_pclks
      00000C63H   SYMBOL    EDATA    DWORD     macro_period_ns
      00000B38H   SYMBOL    EDATA    DWORD     timeout_period_us
      00000B3CH   SYMBOL    EDATA    BYTE      vcsel_period_pclks
      00000B3DH   SYMBOL    EDATA    DWORD     macro_period_ns
      00000E31H   SYMBOL    EDATA    WORD      reg_val
      00000AD9H   SYMBOL    EDATA    WORD      timeout_mclks
      00000ADBH   SYMBOL    EDATA    DWORD     ls_byte
      00000ADFH   SYMBOL    EDATA    WORD      ms_byte
      00000AE1H   SYMBOL    EDATA    WORD      return_data
      00000D45H   SYMBOL    EDATA    ---       enables
      00000D49H   SYMBOL    EDATA    BYTE      sequence_config
      00000DEAH   SYMBOL    EDATA    INT       type
      00000DECH   SYMBOL    EDATA    BYTE      data_buffer
      000009CCH   SYMBOL    EDATA    ---       enables
      000009D0H   SYMBOL    EDATA    ---       timeouts
      000009D4H   SYMBOL    EDATA    ---       reg_buffer
      000009D6H   SYMBOL    EDATA    WORD      reg16_buffer
      00000D4AH   SYMBOL    EDATA    BYTE      vhv_init_byte
L251 LINKER/LOCATER V4.66.93.0                                                        04/10/2024  19:22:09  PAGE 68


      00000D4BH   SYMBOL    EDATA    BYTE      return_state
      00000D4CH   SYMBOL    EDATA    BYTE      data_buffer
      00000D4DH   SYMBOL    EDATA    WORD      loop_count
      000005A0H   SYMBOL    EDATA    DWORD     budget_us
      000005A4H   SYMBOL    EDATA    BYTE      return_state
      000005A5H   SYMBOL    EDATA    ---       data_buffer
      000005A8H   SYMBOL    EDATA    WORD      dat
      000005AAH   SYMBOL    EDATA    DWORD     used_budget_us
      000005AEH   SYMBOL    EDATA    DWORD     final_range_timeout_us
      000005B2H   SYMBOL    EDATA    WORD      final_range_timeout_mclks
      000005B4H   SYMBOL    EDATA    ---       enables
      000005B9H   SYMBOL    EDATA    ---       timeouts
      00000753H   SYMBOL    EDATA    ---       enables
      00000758H   SYMBOL    EDATA    ---       timeouts
      0000076EH   SYMBOL    EDATA    DWORD     budget_us
      00000B41H   SYMBOL    EDATA    FLOAT     limit_mcps
      00000B45H   SYMBOL    EDATA    ---       data_buffer
      00000B48H   SYMBOL    EDATA    WORD      limit_mcps_16bit
      00000DEDH   SYMBOL    EDATA    ---       reg_databuffer
      00000842H   SYMBOL    EDATA    DWORD     measurement_timing_budget_us
      00000846H   SYMBOL    EDATA    BYTE      stop_variable
      00000847H   SYMBOL    EDATA    BYTE      return_state
      00000848H   SYMBOL    EDATA    BYTE      reg_data_buffer
      00000849H   SYMBOL    EDATA    ---       ref_spad_map
      0000084FH   SYMBOL    EDATA    ---       data_buffer
      00000856H   SYMBOL    EDATA    BYTE      i

      ---         MODULE    ---      ---       SEEKFREE_FONT
      00FF212DH   PUBLIC    CODE     ---       oled_8x16
      00FF271DH   PUBLIC    CODE     ---       tft_ascii
      00FF2D0DH   PUBLIC    CODE     ---       oled_6x8
      000000D0H   SFRSYM    DATA     BYTE      PSW
      0000009DH   SFRSYM    DATA     BYTE      IRCBAND
      00000097H   SFRSYM    DATA     BYTE      AUXR2
      000000EFH   SFRSYM    DATA     BYTE      AUXINTIF
      000000FDH   SFRSYM    DATA     BYTE      S4CON
      000000ACH   SFRSYM    DATA     BYTE      S3CON
      0000009AH   SFRSYM    DATA     BYTE      S2CON
      000000B7H   SFRSYM    DATA     BYTE      IPH
      000000CDH   SFRSYM    DATA     BYTE      SPSTAT
      000000DDH   SFRSYM    DATA     BYTE      T4T3M
      000000C1H   SFRSYM    DATA     BYTE      WDT_CONTR
      000000DFH   SFRSYM    DATA     BYTE      IP3
      000000F4H   SFRSYM    DATA     BYTE      USBCON
      000000B5H   SFRSYM    DATA     BYTE      IP2
      000000FFH   SFRSYM    DATA     BYTE      RSTCFG
      000000C7H   SFRSYM    DATA     BYTE      IAP_CONTR
      000000F9H   SFRSYM    DATA     BYTE      LINICR
      0000008EH   SFRSYM    DATA     BYTE      AUXR
      000000AFH   SFRSYM    DATA     BYTE      IE2
      00000088H   SFRSYM    DATA     BYTE      TCON
      00000089H   SFRSYM    DATA     BYTE      TMOD
      00000098H   SFRSYM    DATA     BYTE      SCON
      000000F1H   SFRSYM    DATA     BYTE      CANICR
      00000087H   SFRSYM    DATA     BYTE      PCON
      000000BCH   SFRSYM    DATA     BYTE      ADC_CONTR
      000000E7H   SFRSYM    DATA     BYTE      CMPCR2
      000000E6H   SFRSYM    DATA     BYTE      CMPCR1
      000000DEH   SFRSYM    DATA     BYTE      ADCCFG
      000000B8H   SFRSYM    DATA     BYTE      IP
      0000008FH   SFRSYM    DATA     BYTE      INTCLKO
      000000EEH   SFRSYM    DATA     BYTE      IP3H
      000000B6H   SFRSYM    DATA     BYTE      IP2H
      000000A8H   SFRSYM    DATA     BYTE      IE
      000000BBH   SFRSYM    DATA     BYTE      P_SW3
L251 LINKER/LOCATER V4.66.93.0                                                        04/10/2024  19:22:09  PAGE 69


      000000BAH   SFRSYM    DATA     BYTE      P_SW2
      000000A2H   SFRSYM    DATA     BYTE      P_SW1
      000000CEH   SFRSYM    DATA     BYTE      SPCTL
      000000F8H   SFRSYM    DATA     BYTE      P7
      000000E8H   SFRSYM    DATA     BYTE      P6
      000000C8H   SFRSYM    DATA     BYTE      P5
      000000C0H   SFRSYM    DATA     BYTE      P4
      000000B0H   SFRSYM    DATA     BYTE      P3
      000000A0H   SFRSYM    DATA     BYTE      P2
      00000090H   SFRSYM    DATA     BYTE      P1
      00000080H   SFRSYM    DATA     BYTE      P0

      ---         MODULE    ---      ---       SEEKFREE_ICM20602
      000009D8H   PUBLIC    EDATA    INT       icm20602_acc_x
      000009DAH   PUBLIC    EDATA    INT       icm20602_acc_y
      000009DCH   PUBLIC    EDATA    INT       icm20602_acc_z
      000009DEH   PUBLIC    EDATA    INT       icm20602_gyro_x
      000009E0H   PUBLIC    EDATA    INT       icm20602_gyro_y
      000009E2H   PUBLIC    EDATA    INT       icm20602_gyro_z
      000000D0H   SFRSYM    DATA     BYTE      PSW
      0000009DH   SFRSYM    DATA     BYTE      IRCBAND
      00000097H   SFRSYM    DATA     BYTE      AUXR2
      000000EFH   SFRSYM    DATA     BYTE      AUXINTIF
      000000FDH   SFRSYM    DATA     BYTE      S4CON
      000000ACH   SFRSYM    DATA     BYTE      S3CON
      0000009AH   SFRSYM    DATA     BYTE      S2CON
      000000B7H   SFRSYM    DATA     BYTE      IPH
      000000CDH   SFRSYM    DATA     BYTE      SPSTAT
      000000DDH   SFRSYM    DATA     BYTE      T4T3M
      000000C1H   SFRSYM    DATA     BYTE      WDT_CONTR
      000000DFH   SFRSYM    DATA     BYTE      IP3
      000000F4H   SFRSYM    DATA     BYTE      USBCON
      000000B5H   SFRSYM    DATA     BYTE      IP2
      000000FFH   SFRSYM    DATA     BYTE      RSTCFG
      000000C7H   SFRSYM    DATA     BYTE      IAP_CONTR
      000000F9H   SFRSYM    DATA     BYTE      LINICR
      0000008EH   SFRSYM    DATA     BYTE      AUXR
      000000AFH   SFRSYM    DATA     BYTE      IE2
      000000C0H.3 SFRSYM    DATA     BIT       P43
      000000C0H.2 SFRSYM    DATA     BIT       P42
      00000088H   SFRSYM    DATA     BYTE      TCON
      00000089H   SFRSYM    DATA     BYTE      TMOD
      000000C0H.1 SFRSYM    DATA     BIT       P41
      00000098H   SFRSYM    DATA     BYTE      SCON
      000000C0H.0 SFRSYM    DATA     BIT       P40
      000000F1H   SFRSYM    DATA     BYTE      CANICR
      00000087H   SFRSYM    DATA     BYTE      PCON
      000000BCH   SFRSYM    DATA     BYTE      ADC_CONTR
      000000E7H   SFRSYM    DATA     BYTE      CMPCR2
      000000E6H   SFRSYM    DATA     BYTE      CMPCR1
      000000DEH   SFRSYM    DATA     BYTE      ADCCFG
      000000B8H   SFRSYM    DATA     BYTE      IP
      0000008FH   SFRSYM    DATA     BYTE      INTCLKO
      000000EEH   SFRSYM    DATA     BYTE      IP3H
      000000B6H   SFRSYM    DATA     BYTE      IP2H
      000000A8H   SFRSYM    DATA     BYTE      IE
      000000BBH   SFRSYM    DATA     BYTE      P_SW3
      000000BAH   SFRSYM    DATA     BYTE      P_SW2
      000000A2H   SFRSYM    DATA     BYTE      P_SW1
      000000CEH   SFRSYM    DATA     BYTE      SPCTL
      000000F8H   SFRSYM    DATA     BYTE      P7
      000000E8H   SFRSYM    DATA     BYTE      P6
      000000C8H   SFRSYM    DATA     BYTE      P5
      000000C0H   SFRSYM    DATA     BYTE      P4
      000000B0H   SFRSYM    DATA     BYTE      P3
L251 LINKER/LOCATER V4.66.93.0                                                        04/10/2024  19:22:09  PAGE 70


      000000A0H   SFRSYM    DATA     BYTE      P2
      00000090H   SFRSYM    DATA     BYTE      P1
      00000080H   SFRSYM    DATA     BYTE      P0
      00000E33H   SYMBOL    EDATA    BYTE      byte
      00000E34H   SYMBOL    EDATA    BYTE      i
      00000E35H   SYMBOL    EDATA    BYTE      cmd
      00000E36H   SYMBOL    EDATA    BYTE      val
      00000D4FH   SYMBOL    EDATA    BYTE      cmd
      00000D50H   SYMBOL    EDATA    ---       val
      00000952H   SYMBOL    EDATA    BYTE      cmd
      00000953H   SYMBOL    EDATA    ---       val
      00000957H   SYMBOL    EDATA    DWORD     num
      0000095BH   SYMBOL    EDATA    DWORD     i
      00000E37H   SYMBOL    EDATA    BYTE      reg
      00000E38H   SYMBOL    EDATA    BYTE      dat
      00000E39H   SYMBOL    EDATA    BYTE      reg
      00000E3AH   SYMBOL    EDATA    BYTE      dat
      00000B4AH   SYMBOL    EDATA    BYTE      reg
      00000B4BH   SYMBOL    EDATA    ---       dat
      00000B4FH   SYMBOL    EDATA    DWORD     len
      00000D9AH   SYMBOL    EDATA    BYTE      dat
      00000D9BH   SYMBOL    EDATA    BYTE      return_state
      00000D9CH   SYMBOL    EDATA    WORD      timeout_count
      00000CBAH   SYMBOL    EDATA    ---       dat
      00000CC0H   SYMBOL    EDATA    ---       dat
      00000CC6H   SYMBOL    EDATA    INT       acc_value
      00000CC8H   SYMBOL    EDATA    FLOAT     acc_data
      00000CCCH   SYMBOL    EDATA    INT       gyro_value
      00000CCEH   SYMBOL    EDATA    FLOAT     gyro_data
      00000D9EH   SYMBOL    EDATA    BYTE      val
      00000D9FH   SYMBOL    EDATA    BYTE      return_state
      00000DA0H   SYMBOL    EDATA    WORD      timeout_count

      ---         MODULE    ---      ---       SEEKFREE_IMU660RA
      000009E4H   PUBLIC    EDATA    INT       imu660ra_acc_x
      000009E6H   PUBLIC    EDATA    INT       imu660ra_acc_y
      000009E8H   PUBLIC    EDATA    INT       imu660ra_acc_z
      000009EAH   PUBLIC    EDATA    INT       imu660ra_gyro_x
      000009ECH   PUBLIC    EDATA    INT       imu660ra_gyro_y
      000009EEH   PUBLIC    EDATA    INT       imu660ra_gyro_z
      000000D0H   SFRSYM    DATA     BYTE      PSW
      0000009DH   SFRSYM    DATA     BYTE      IRCBAND
      00000097H   SFRSYM    DATA     BYTE      AUXR2
      000000EFH   SFRSYM    DATA     BYTE      AUXINTIF
      000000FDH   SFRSYM    DATA     BYTE      S4CON
      000000ACH   SFRSYM    DATA     BYTE      S3CON
      0000009AH   SFRSYM    DATA     BYTE      S2CON
      000000B7H   SFRSYM    DATA     BYTE      IPH
      000000CDH   SFRSYM    DATA     BYTE      SPSTAT
      000000DDH   SFRSYM    DATA     BYTE      T4T3M
      000000C1H   SFRSYM    DATA     BYTE      WDT_CONTR
      000000DFH   SFRSYM    DATA     BYTE      IP3
      000000F4H   SFRSYM    DATA     BYTE      USBCON
      000000B5H   SFRSYM    DATA     BYTE      IP2
      000000FFH   SFRSYM    DATA     BYTE      RSTCFG
      000000C7H   SFRSYM    DATA     BYTE      IAP_CONTR
      000000F9H   SFRSYM    DATA     BYTE      LINICR
      0000008EH   SFRSYM    DATA     BYTE      AUXR
      000000AFH   SFRSYM    DATA     BYTE      IE2
      000000C0H.3 SFRSYM    DATA     BIT       P43
      000000C0H.2 SFRSYM    DATA     BIT       P42
      00000088H   SFRSYM    DATA     BYTE      TCON
      00000089H   SFRSYM    DATA     BYTE      TMOD
      000000C0H.1 SFRSYM    DATA     BIT       P41
      00000098H   SFRSYM    DATA     BYTE      SCON
L251 LINKER/LOCATER V4.66.93.0                                                        04/10/2024  19:22:09  PAGE 71


      000000C0H.0 SFRSYM    DATA     BIT       P40
      000000F1H   SFRSYM    DATA     BYTE      CANICR
      00000087H   SFRSYM    DATA     BYTE      PCON
      000000BCH   SFRSYM    DATA     BYTE      ADC_CONTR
      000000E7H   SFRSYM    DATA     BYTE      CMPCR2
      000000E6H   SFRSYM    DATA     BYTE      CMPCR1
      000000DEH   SFRSYM    DATA     BYTE      ADCCFG
      000000B8H   SFRSYM    DATA     BYTE      IP
      0000008FH   SFRSYM    DATA     BYTE      INTCLKO
      000000EEH   SFRSYM    DATA     BYTE      IP3H
      000000B6H   SFRSYM    DATA     BYTE      IP2H
      000000A8H   SFRSYM    DATA     BYTE      IE
      000000BBH   SFRSYM    DATA     BYTE      P_SW3
      000000BAH   SFRSYM    DATA     BYTE      P_SW2
      000000A2H   SFRSYM    DATA     BYTE      P_SW1
      000000CEH   SFRSYM    DATA     BYTE      SPCTL
      000000F8H   SFRSYM    DATA     BYTE      P7
      000000E8H   SFRSYM    DATA     BYTE      P6
      000000C8H   SFRSYM    DATA     BYTE      P5
      000000C0H   SFRSYM    DATA     BYTE      P4
      000000B0H   SFRSYM    DATA     BYTE      P3
      000000A0H   SFRSYM    DATA     BYTE      P2
      00000090H   SFRSYM    DATA     BYTE      P1
      00000080H   SFRSYM    DATA     BYTE      P0
      00000E3BH   SYMBOL    EDATA    BYTE      byte
      00000E3CH   SYMBOL    EDATA    BYTE      i
      00000E3DH   SYMBOL    EDATA    BYTE      cmd
      00000E3EH   SYMBOL    EDATA    BYTE      val
      00000B53H   SYMBOL    EDATA    BYTE      cmd
      00000B54H   SYMBOL    EDATA    ---       dat_addr
      00000B58H   SYMBOL    EDATA    DWORD     len
      00000B5CH   SYMBOL    EDATA    BYTE      cmd
      00000B5DH   SYMBOL    EDATA    ---       val
      00000B61H   SYMBOL    EDATA    DWORD     num
      00000E3FH   SYMBOL    EDATA    BYTE      reg
      00000E40H   SYMBOL    EDATA    BYTE      dat
      00000B65H   SYMBOL    EDATA    BYTE      reg
      00000B66H   SYMBOL    EDATA    ---       dat
      00000B6AH   SYMBOL    EDATA    DWORD     len
      00000DF0H   SYMBOL    EDATA    BYTE      reg
      00000DF1H   SYMBOL    EDATA    ---       dat
      00000B6EH   SYMBOL    EDATA    BYTE      reg
      00000B6FH   SYMBOL    EDATA    ---       dat
      00000B73H   SYMBOL    EDATA    DWORD     len
      00000DA2H   SYMBOL    EDATA    BYTE      dat
      00000DA3H   SYMBOL    EDATA    BYTE      return_state
      00000DA4H   SYMBOL    EDATA    WORD      timeout_count
      00000C67H   SYMBOL    EDATA    ---       dat
      00000C6EH   SYMBOL    EDATA    ---       dat
      00000CD2H   SYMBOL    EDATA    INT       acc_value
      00000CD4H   SYMBOL    EDATA    FLOAT     acc_dat
      00000CD8H   SYMBOL    EDATA    INT       gyro_value
      00000CDAH   SYMBOL    EDATA    FLOAT     gyro_dat
      00000E7DH   SYMBOL    EDATA    BYTE      return_state

      ---         MODULE    ---      ---       SEEKFREE_IMU963RA
      000008A6H   PUBLIC    EDATA    INT       imu963ra_acc_x
      000008A8H   PUBLIC    EDATA    INT       imu963ra_acc_y
      000008AAH   PUBLIC    EDATA    INT       imu963ra_acc_z
      000008ACH   PUBLIC    EDATA    INT       imu963ra_mag_x
      000008AEH   PUBLIC    EDATA    INT       imu963ra_mag_y
      000008B0H   PUBLIC    EDATA    INT       imu963ra_mag_z
      000008B2H   PUBLIC    EDATA    INT       imu963ra_gyro_x
      000008B4H   PUBLIC    EDATA    INT       imu963ra_gyro_y
      000008B6H   PUBLIC    EDATA    INT       imu963ra_gyro_z
L251 LINKER/LOCATER V4.66.93.0                                                        04/10/2024  19:22:09  PAGE 72


      000000D0H   SFRSYM    DATA     BYTE      PSW
      0000009DH   SFRSYM    DATA     BYTE      IRCBAND
      00000097H   SFRSYM    DATA     BYTE      AUXR2
      000000EFH   SFRSYM    DATA     BYTE      AUXINTIF
      000000FDH   SFRSYM    DATA     BYTE      S4CON
      000000ACH   SFRSYM    DATA     BYTE      S3CON
      0000009AH   SFRSYM    DATA     BYTE      S2CON
      000000B7H   SFRSYM    DATA     BYTE      IPH
      000000CDH   SFRSYM    DATA     BYTE      SPSTAT
      000000DDH   SFRSYM    DATA     BYTE      T4T3M
      000000C1H   SFRSYM    DATA     BYTE      WDT_CONTR
      000000DFH   SFRSYM    DATA     BYTE      IP3
      000000F4H   SFRSYM    DATA     BYTE      USBCON
      000000B5H   SFRSYM    DATA     BYTE      IP2
      000000FFH   SFRSYM    DATA     BYTE      RSTCFG
      000000C7H   SFRSYM    DATA     BYTE      IAP_CONTR
      000000F9H   SFRSYM    DATA     BYTE      LINICR
      0000008EH   SFRSYM    DATA     BYTE      AUXR
      000000AFH   SFRSYM    DATA     BYTE      IE2
      000000C0H.3 SFRSYM    DATA     BIT       P43
      000000C0H.2 SFRSYM    DATA     BIT       P42
      00000088H   SFRSYM    DATA     BYTE      TCON
      00000089H   SFRSYM    DATA     BYTE      TMOD
      000000C0H.1 SFRSYM    DATA     BIT       P41
      00000098H   SFRSYM    DATA     BYTE      SCON
      000000C0H.0 SFRSYM    DATA     BIT       P40
      000000F1H   SFRSYM    DATA     BYTE      CANICR
      00000087H   SFRSYM    DATA     BYTE      PCON
      000000BCH   SFRSYM    DATA     BYTE      ADC_CONTR
      000000E7H   SFRSYM    DATA     BYTE      CMPCR2
      000000E6H   SFRSYM    DATA     BYTE      CMPCR1
      000000DEH   SFRSYM    DATA     BYTE      ADCCFG
      000000B8H   SFRSYM    DATA     BYTE      IP
      0000008FH   SFRSYM    DATA     BYTE      INTCLKO
      000000EEH   SFRSYM    DATA     BYTE      IP3H
      000000B6H   SFRSYM    DATA     BYTE      IP2H
      000000A8H   SFRSYM    DATA     BYTE      IE
      000000BBH   SFRSYM    DATA     BYTE      P_SW3
      000000BAH   SFRSYM    DATA     BYTE      P_SW2
      000000A2H   SFRSYM    DATA     BYTE      P_SW1
      000000CEH   SFRSYM    DATA     BYTE      SPCTL
      000000F8H   SFRSYM    DATA     BYTE      P7
      000000E8H   SFRSYM    DATA     BYTE      P6
      000000C8H   SFRSYM    DATA     BYTE      P5
      000000C0H   SFRSYM    DATA     BYTE      P4
      000000B0H   SFRSYM    DATA     BYTE      P3
      000000A0H   SFRSYM    DATA     BYTE      P2
      00000090H   SFRSYM    DATA     BYTE      P1
      00000080H   SFRSYM    DATA     BYTE      P0
      00000E41H   SYMBOL    EDATA    BYTE      byte
      00000E42H   SYMBOL    EDATA    BYTE      i
      00000E43H   SYMBOL    EDATA    BYTE      cmd
      00000E44H   SYMBOL    EDATA    BYTE      val
      00000D54H   SYMBOL    EDATA    BYTE      cmd
      00000D55H   SYMBOL    EDATA    ---       val
      00000B77H   SYMBOL    EDATA    BYTE      cmd
      00000B78H   SYMBOL    EDATA    ---       val
      00000B7CH   SYMBOL    EDATA    DWORD     num
      00000E45H   SYMBOL    EDATA    BYTE      reg
      00000E46H   SYMBOL    EDATA    BYTE      dat
      00000E47H   SYMBOL    EDATA    BYTE      reg
      00000E48H   SYMBOL    EDATA    BYTE      dat
      00000B80H   SYMBOL    EDATA    BYTE      reg
      00000B81H   SYMBOL    EDATA    ---       dat
      00000B85H   SYMBOL    EDATA    DWORD     len
L251 LINKER/LOCATER V4.66.93.0                                                        04/10/2024  19:22:09  PAGE 73


      00000CDEH   SYMBOL    EDATA    BYTE      addr
      00000CDFH   SYMBOL    EDATA    BYTE      reg
      00000CE0H   SYMBOL    EDATA    BYTE      dat
      00000CE1H   SYMBOL    EDATA    BYTE      return_state
      00000CE2H   SYMBOL    EDATA    WORD      timeout_count
      00000DA6H   SYMBOL    EDATA    BYTE      addr
      00000DA7H   SYMBOL    EDATA    BYTE      reg
      00000DA8H   SYMBOL    EDATA    WORD      timeout_count
      00000E49H   SYMBOL    EDATA    BYTE      addr
      00000E4AH   SYMBOL    EDATA    BYTE      reg
      00000DAAH   SYMBOL    EDATA    BYTE      return_state
      00000DABH   SYMBOL    EDATA    BYTE      dat
      00000DACH   SYMBOL    EDATA    WORD      timeout_count
      00000DAEH   SYMBOL    EDATA    BYTE      return_state
      00000DAFH   SYMBOL    EDATA    BYTE      dat
      00000DB0H   SYMBOL    EDATA    WORD      timeout_count
      00000CE4H   SYMBOL    EDATA    ---       dat
      00000CEAH   SYMBOL    EDATA    ---       dat
      00000C75H   SYMBOL    EDATA    BYTE      temp_status
      00000C76H   SYMBOL    EDATA    ---       dat
      00000CF0H   SYMBOL    EDATA    INT       acc_value
      00000CF2H   SYMBOL    EDATA    FLOAT     acc_dat
      00000CF6H   SYMBOL    EDATA    INT       gyro_value
      00000CF8H   SYMBOL    EDATA    FLOAT     gyro_dat
      00000CFCH   SYMBOL    EDATA    INT       mag_value
      00000CFEH   SYMBOL    EDATA    FLOAT     mag_dat
      00000E7EH   SYMBOL    EDATA    BYTE      return_state

      ---         MODULE    ---      ---       SEEKFREE_IPS114_SPI
      00000480H   PUBLIC    EDATA    BYTE      ?ips114_showfloat_simspi?BYTE
      000004B0H   PUBLIC    EDATA    BYTE      ?ips114_showfloat?BYTE
      000000D0H   SFRSYM    DATA     BYTE      PSW
      0000009DH   SFRSYM    DATA     BYTE      IRCBAND
      00000097H   SFRSYM    DATA     BYTE      AUXR2
      000000EFH   SFRSYM    DATA     BYTE      AUXINTIF
      000000FDH   SFRSYM    DATA     BYTE      S4CON
      000000ACH   SFRSYM    DATA     BYTE      S3CON
      0000009AH   SFRSYM    DATA     BYTE      S2CON
      000000B7H   SFRSYM    DATA     BYTE      IPH
      000000CDH   SFRSYM    DATA     BYTE      SPSTAT
      000000DDH   SFRSYM    DATA     BYTE      T4T3M
      000000C1H   SFRSYM    DATA     BYTE      WDT_CONTR
      000000DFH   SFRSYM    DATA     BYTE      IP3
      000000F4H   SFRSYM    DATA     BYTE      USBCON
      000000B5H   SFRSYM    DATA     BYTE      IP2
      000000FFH   SFRSYM    DATA     BYTE      RSTCFG
      000000C7H   SFRSYM    DATA     BYTE      IAP_CONTR
      000000F9H   SFRSYM    DATA     BYTE      LINICR
      0000008EH   SFRSYM    DATA     BYTE      AUXR
      000000AFH   SFRSYM    DATA     BYTE      IE2
      000000A0H.7 SFRSYM    DATA     BIT       P27
      000000A0H.5 SFRSYM    DATA     BIT       P25
      00000088H   SFRSYM    DATA     BYTE      TCON
      00000089H   SFRSYM    DATA     BYTE      TMOD
      000000A0H.3 SFRSYM    DATA     BIT       P23
      00000098H   SFRSYM    DATA     BYTE      SCON
      000000A0H.2 SFRSYM    DATA     BIT       P22
      000000A0H.1 SFRSYM    DATA     BIT       P21
      000000A0H.0 SFRSYM    DATA     BIT       P20
      000000F1H   SFRSYM    DATA     BYTE      CANICR
      00000087H   SFRSYM    DATA     BYTE      PCON
      000000BCH   SFRSYM    DATA     BYTE      ADC_CONTR
      000000E7H   SFRSYM    DATA     BYTE      CMPCR2
      000000E6H   SFRSYM    DATA     BYTE      CMPCR1
      000000DEH   SFRSYM    DATA     BYTE      ADCCFG
L251 LINKER/LOCATER V4.66.93.0                                                        04/10/2024  19:22:09  PAGE 74


      000000B8H   SFRSYM    DATA     BYTE      IP
      0000008FH   SFRSYM    DATA     BYTE      INTCLKO
      000000EEH   SFRSYM    DATA     BYTE      IP3H
      000000B6H   SFRSYM    DATA     BYTE      IP2H
      000000A8H   SFRSYM    DATA     BYTE      IE
      000000BBH   SFRSYM    DATA     BYTE      P_SW3
      000000BAH   SFRSYM    DATA     BYTE      P_SW2
      000000A2H   SFRSYM    DATA     BYTE      P_SW1
      000000CEH   SFRSYM    DATA     BYTE      SPCTL
      000000F8H   SFRSYM    DATA     BYTE      P7
      000000E8H   SFRSYM    DATA     BYTE      P6
      000000C8H   SFRSYM    DATA     BYTE      P5
      000000C0H   SFRSYM    DATA     BYTE      P4
      000000B0H   SFRSYM    DATA     BYTE      P3
      000000A0H   SFRSYM    DATA     BYTE      P2
      00000090H   SFRSYM    DATA     BYTE      P1
      00000080H   SFRSYM    DATA     BYTE      P0
      00000E4BH   SYMBOL    EDATA    BYTE      dat
      00000E4CH   SYMBOL    EDATA    BYTE      i
      00000E4DH   SYMBOL    EDATA    BYTE      dat
      00000E4EH   SYMBOL    EDATA    BYTE      i
      00000DF3H   SYMBOL    EDATA    WORD      dat
      00000DF5H   SYMBOL    EDATA    BYTE      i
      00000C1AH   SYMBOL    EDATA    WORD      x1
      00000C1CH   SYMBOL    EDATA    WORD      y1
      00000C1EH   SYMBOL    EDATA    WORD      x2
      00000C20H   SYMBOL    EDATA    WORD      y2
      00000D02H   SYMBOL    EDATA    WORD      color
      00000D04H   SYMBOL    EDATA    WORD      i
      00000D06H   SYMBOL    EDATA    WORD      j
      00000D08H   SYMBOL    EDATA    WORD      x
      00000D0AH   SYMBOL    EDATA    WORD      y
      00000D0CH   SYMBOL    EDATA    WORD      color
      00000C22H   SYMBOL    EDATA    WORD      x
      00000C24H   SYMBOL    EDATA    WORD      y
      00000C26H   SYMBOL    EDATA    CHAR      dat
      00000C27H   SYMBOL    EDATA    BYTE      i
      00000C28H   SYMBOL    EDATA    BYTE      j
      00000C29H   SYMBOL    EDATA    BYTE      temp
      00000AE3H   SYMBOL    EDATA    WORD      x
      00000AE5H   SYMBOL    EDATA    WORD      y
      00000AE7H   SYMBOL    EDATA    ---       dat
      00000AEBH   SYMBOL    EDATA    WORD      j
      00000B89H   SYMBOL    EDATA    WORD      x
      00000B8BH   SYMBOL    EDATA    WORD      y
      00000B8DH   SYMBOL    EDATA    CHAR      dat
      00000B8EH   SYMBOL    EDATA    ---       a
      00000B91H   SYMBOL    EDATA    BYTE      i
      00000B92H   SYMBOL    EDATA    WORD      x
      00000B94H   SYMBOL    EDATA    WORD      y
      00000B96H   SYMBOL    EDATA    BYTE      dat
      00000B97H   SYMBOL    EDATA    ---       a
      00000B9AH   SYMBOL    EDATA    BYTE      i
      000009F0H   SYMBOL    EDATA    WORD      x
      000009F2H   SYMBOL    EDATA    WORD      y
      000009F4H   SYMBOL    EDATA    INT       dat
      000009F6H   SYMBOL    EDATA    ---       a
      000009FBH   SYMBOL    EDATA    BYTE      i
      000009FCH   SYMBOL    EDATA    WORD      x
      000009FEH   SYMBOL    EDATA    WORD      y
      00000A00H   SYMBOL    EDATA    WORD      dat
      00000A02H   SYMBOL    EDATA    ---       a
      00000A07H   SYMBOL    EDATA    BYTE      i
      00000627H   SYMBOL    EDATA    WORD      x
      00000629H   SYMBOL    EDATA    WORD      y
L251 LINKER/LOCATER V4.66.93.0                                                        04/10/2024  19:22:09  PAGE 75


      0000062BH   SYMBOL    EDATA    LONG      dat
      0000062FH   SYMBOL    EDATA    BYTE      num
      00000630H   SYMBOL    EDATA    ---       buff
      00000652H   SYMBOL    EDATA    BYTE      length
      00000480H   SYMBOL    EDATA    WORD      x
      00000482H   SYMBOL    EDATA    WORD      y
      00000484H   SYMBOL    EDATA    FLOAT     dat
      00000488H   SYMBOL    EDATA    BYTE      num
      00000489H   SYMBOL    EDATA    BYTE      pointnum
      0000048AH   SYMBOL    EDATA    BYTE      length
      0000048BH   SYMBOL    EDATA    ---       buff
      000004ADH   SYMBOL    EDATA    CHAR      start
      000004AEH   SYMBOL    EDATA    CHAR      end
      000004AFH   SYMBOL    EDATA    CHAR      point
      00000E7FH   SYMBOL    EDATA    BYTE      dat
      00000E80H   SYMBOL    EDATA    BYTE      dat
      00000DB2H   SYMBOL    EDATA    WORD      dat
      00000DB4H   SYMBOL    EDATA    ---       dat1
      00000C2AH   SYMBOL    EDATA    WORD      x1
      00000C2CH   SYMBOL    EDATA    WORD      y1
      00000C2EH   SYMBOL    EDATA    WORD      x2
      00000C30H   SYMBOL    EDATA    WORD      y2
      00000D0EH   SYMBOL    EDATA    WORD      color
      00000D10H   SYMBOL    EDATA    WORD      i
      00000D12H   SYMBOL    EDATA    WORD      j
      00000D14H   SYMBOL    EDATA    WORD      x
      00000D16H   SYMBOL    EDATA    WORD      y
      00000D18H   SYMBOL    EDATA    WORD      color
      00000C32H   SYMBOL    EDATA    WORD      x
      00000C34H   SYMBOL    EDATA    WORD      y
      00000C36H   SYMBOL    EDATA    CHAR      dat
      00000C37H   SYMBOL    EDATA    BYTE      i
      00000C38H   SYMBOL    EDATA    BYTE      j
      00000C39H   SYMBOL    EDATA    BYTE      temp
      00000AEDH   SYMBOL    EDATA    WORD      x
      00000AEFH   SYMBOL    EDATA    WORD      y
      00000AF1H   SYMBOL    EDATA    ---       dat
      00000AF5H   SYMBOL    EDATA    WORD      j
      00000B9BH   SYMBOL    EDATA    WORD      x
      00000B9DH   SYMBOL    EDATA    WORD      y
      00000B9FH   SYMBOL    EDATA    CHAR      dat
      00000BA0H   SYMBOL    EDATA    ---       a
      00000BA3H   SYMBOL    EDATA    BYTE      i
      00000BA4H   SYMBOL    EDATA    WORD      x
      00000BA6H   SYMBOL    EDATA    WORD      y
      00000BA8H   SYMBOL    EDATA    BYTE      dat
      00000BA9H   SYMBOL    EDATA    ---       a
      00000BACH   SYMBOL    EDATA    BYTE      i
      00000A08H   SYMBOL    EDATA    WORD      x
      00000A0AH   SYMBOL    EDATA    WORD      y
      00000A0CH   SYMBOL    EDATA    INT       dat
      00000A0EH   SYMBOL    EDATA    ---       a
      00000A13H   SYMBOL    EDATA    BYTE      i
      00000A14H   SYMBOL    EDATA    WORD      x
      00000A16H   SYMBOL    EDATA    WORD      y
      00000A18H   SYMBOL    EDATA    WORD      dat
      00000A1AH   SYMBOL    EDATA    ---       a
      00000A1FH   SYMBOL    EDATA    BYTE      i
      00000653H   SYMBOL    EDATA    WORD      x
      00000655H   SYMBOL    EDATA    WORD      y
      00000657H   SYMBOL    EDATA    LONG      dat
      0000065BH   SYMBOL    EDATA    BYTE      num
      0000065CH   SYMBOL    EDATA    ---       buff
      0000067EH   SYMBOL    EDATA    BYTE      length
      000004B0H   SYMBOL    EDATA    WORD      x
L251 LINKER/LOCATER V4.66.93.0                                                        04/10/2024  19:22:09  PAGE 76


      000004B2H   SYMBOL    EDATA    WORD      y
      000004B4H   SYMBOL    EDATA    FLOAT     dat
      000004B8H   SYMBOL    EDATA    BYTE      num
      000004B9H   SYMBOL    EDATA    BYTE      pointnum
      000004BAH   SYMBOL    EDATA    BYTE      length
      000004BBH   SYMBOL    EDATA    ---       buff
      000004DDH   SYMBOL    EDATA    CHAR      start
      000004DEH   SYMBOL    EDATA    CHAR      end
      000004DFH   SYMBOL    EDATA    CHAR      point

      ---         MODULE    ---      ---       SEEKFREE_MPU6050
      00FF80DEH   PUBLIC    CODE     ---       mpu6050_simiic_read_regs
      00FF8841H   PUBLIC    CODE     ---       mpu6050_simiic_read_reg
      00FF8350H   PUBLIC    CODE     ---       mpu6050_init
      00FF85C8H   PUBLIC    CODE     ---       mpu6050_get_gyro
      00000A20H   PUBLIC    EDATA    INT       mpu6050_acc_x
      00000A22H   PUBLIC    EDATA    INT       mpu6050_acc_y
      00000A24H   PUBLIC    EDATA    INT       mpu6050_acc_z
      00000A26H   PUBLIC    EDATA    INT       mpu6050_gyro_x
      00000A28H   PUBLIC    EDATA    INT       mpu6050_gyro_y
      00000A2AH   PUBLIC    EDATA    INT       mpu6050_gyro_z
      000000D0H   SFRSYM    DATA     BYTE      PSW
      0000009DH   SFRSYM    DATA     BYTE      IRCBAND
      00000097H   SFRSYM    DATA     BYTE      AUXR2
      000000EFH   SFRSYM    DATA     BYTE      AUXINTIF
      000000FDH   SFRSYM    DATA     BYTE      S4CON
      000000ACH   SFRSYM    DATA     BYTE      S3CON
      0000009AH   SFRSYM    DATA     BYTE      S2CON
      000000B7H   SFRSYM    DATA     BYTE      IPH
      000000CDH   SFRSYM    DATA     BYTE      SPSTAT
      000000DDH   SFRSYM    DATA     BYTE      T4T3M
      000000C1H   SFRSYM    DATA     BYTE      WDT_CONTR
      000000DFH   SFRSYM    DATA     BYTE      IP3
      000000F4H   SFRSYM    DATA     BYTE      USBCON
      000000B5H   SFRSYM    DATA     BYTE      IP2
      000000FFH   SFRSYM    DATA     BYTE      RSTCFG
      000000C7H   SFRSYM    DATA     BYTE      IAP_CONTR
      000000F9H   SFRSYM    DATA     BYTE      LINICR
      0000008EH   SFRSYM    DATA     BYTE      AUXR
      000000AFH   SFRSYM    DATA     BYTE      IE2
      00000088H   SFRSYM    DATA     BYTE      TCON
      00000089H   SFRSYM    DATA     BYTE      TMOD
      000000C0H.1 SFRSYM    DATA     BIT       P41
      00000098H   SFRSYM    DATA     BYTE      SCON
      000000C0H.0 SFRSYM    DATA     BIT       P40
      000000F1H   SFRSYM    DATA     BYTE      CANICR
      00000087H   SFRSYM    DATA     BYTE      PCON
      000000BCH   SFRSYM    DATA     BYTE      ADC_CONTR
      000000E7H   SFRSYM    DATA     BYTE      CMPCR2
      000000E6H   SFRSYM    DATA     BYTE      CMPCR1
      000000DEH   SFRSYM    DATA     BYTE      ADCCFG
      000000B8H   SFRSYM    DATA     BYTE      IP
      0000008FH   SFRSYM    DATA     BYTE      INTCLKO
      000000EEH   SFRSYM    DATA     BYTE      IP3H
      000000B6H   SFRSYM    DATA     BYTE      IP2H
      000000A8H   SFRSYM    DATA     BYTE      IE
      000000BBH   SFRSYM    DATA     BYTE      P_SW3
      000000BAH   SFRSYM    DATA     BYTE      P_SW2
      000000A2H   SFRSYM    DATA     BYTE      P_SW1
      000000CEH   SFRSYM    DATA     BYTE      SPCTL
      000000F8H   SFRSYM    DATA     BYTE      P7
      000000E8H   SFRSYM    DATA     BYTE      P6
      000000C8H   SFRSYM    DATA     BYTE      P5
      000000C0H   SFRSYM    DATA     BYTE      P4
      000000B0H   SFRSYM    DATA     BYTE      P3
L251 LINKER/LOCATER V4.66.93.0                                                        04/10/2024  19:22:09  PAGE 77


      000000A0H   SFRSYM    DATA     BYTE      P2
      00000090H   SFRSYM    DATA     BYTE      P1
      00000080H   SFRSYM    DATA     BYTE      P0
      00FF8BCBH   SYMBOL    CODE     ---       mpu6050_simiic_start
      00FF8BA1H   SYMBOL    CODE     ---       mpu6050_simiic_stop
      00FF89EBH   SYMBOL    CODE     ---       mpu6050_simiic_write_reg
      00FF895AH   SYMBOL    CODE     ---       mpu6050_self1_check
      00FF8A15H   SYMBOL    CODE     ---       mpu6050_simiic_sendack
      00FF81B4H   SYMBOL    CODE     ---       mpu6050_read_ch
      00FF86FDH   SYMBOL    CODE     ---       mpu6050_send_ch
      00FF8B1BH   SYMBOL    CODE     ---       mpu6050_sccb_waitack
      00FF0026H   SYMBOL    CODE     ---       mpu6050_simiic_delay

      00FF0026H   BLOCK     CODE     ---       LVL=0
      00000E4FH   SYMBOL    EDATA    WORD      j
      00FF0026H   LINE      CODE     ---       #52
      00FF0026H   LINE      CODE     ---       #53
      00FF0026H   LINE      CODE     ---       #54
      00FF002CH   LINE      CODE     ---       #55
      00FF0042H   LINE      CODE     ---       #56
      ---         BLOCKEND  ---      ---       LVL=0

      00FF8BCBH   BLOCK     CODE     ---       LVL=0
      00FF8BCBH   LINE      CODE     ---       #59
      00FF8BCBH   LINE      CODE     ---       #61
      00FF8BCEH   LINE      CODE     ---       #62
      00FF8BD1H   LINE      CODE     ---       #63
      00FF8BD4H   LINE      CODE     ---       #64
      00FF8BD7H   LINE      CODE     ---       #65
      00FF8BDAH   LINE      CODE     ---       #66
      00FF8BDDH   LINE      CODE     ---       #67
      ---         BLOCKEND  ---      ---       LVL=0

      00FF8BA1H   BLOCK     CODE     ---       LVL=0
      00FF8BA1H   LINE      CODE     ---       #70
      00FF8BA1H   LINE      CODE     ---       #72
      00FF8BA4H   LINE      CODE     ---       #73
      00FF8BA7H   LINE      CODE     ---       #74
      00FF8BAAH   LINE      CODE     ---       #75
      00FF8BADH   LINE      CODE     ---       #76
      00FF8BB0H   LINE      CODE     ---       #77
      00FF8BB3H   LINE      CODE     ---       #78
      00FF8BB6H   LINE      CODE     ---       #79
      ---         BLOCKEND  ---      ---       LVL=0

      00FF8A15H   BLOCK     CODE     ---       LVL=0
      00000E81H   SYMBOL    EDATA    BYTE      ack_dat
      00FF8A15H   LINE      CODE     ---       #83
      00FF8A19H   LINE      CODE     ---       #85
      00FF8A1CH   LINE      CODE     ---       #86
      00FF8A1FH   LINE      CODE     ---       #87
      00FF8A2DH   LINE      CODE     ---       #88
      00FF8A30H   LINE      CODE     ---       #90
      00FF8A33H   LINE      CODE     ---       #91
      00FF8A36H   LINE      CODE     ---       #92
      00FF8A39H   LINE      CODE     ---       #93
      00FF8A3CH   LINE      CODE     ---       #94
      ---         BLOCKEND  ---      ---       LVL=0

      00FF8B1BH   BLOCK     CODE     ---       LVL=0
      00FF8B1BH   LINE      CODE     ---       #97
      00FF8B1BH   LINE      CODE     ---       #99
      00FF8B1EH   LINE      CODE     ---       #101
      00FF8B21H   LINE      CODE     ---       #103
      00FF8B24H   LINE      CODE     ---       #104
L251 LINKER/LOCATER V4.66.93.0                                                        04/10/2024  19:22:09  PAGE 78


      00FF8B27H   LINE      CODE     ---       #106
      00FF8B2AH   LINE      CODE     ---       #109
      00FF8B2DH   LINE      CODE     ---       #110
      00FF8B31H   LINE      CODE     ---       #111
      00FF8B31H   LINE      CODE     ---       #113
      00FF8B34H   LINE      CODE     ---       #114
      00FF8B37H   LINE      CODE     ---       #115
      00FF8B3BH   LINE      CODE     ---       #116
      ---         BLOCKEND  ---      ---       LVL=0

      00FF86FDH   BLOCK     CODE     ---       LVL=0
      00000E51H   SYMBOL    EDATA    BYTE      c
      00FF8701H   BLOCK     CODE     NEAR LAB  LVL=1
      00000E52H   SYMBOL    EDATA    BYTE      i
      ---         BLOCKEND  ---      ---       LVL=1
      00FF86FDH   LINE      CODE     ---       #122
      00FF8701H   LINE      CODE     ---       #123
      00FF8701H   LINE      CODE     ---       #124
      00FF8707H   LINE      CODE     ---       #125
      00FF8709H   LINE      CODE     ---       #127
      00FF8715H   LINE      CODE     ---       #128
      00FF8718H   LINE      CODE     ---       #129
      00FF8722H   LINE      CODE     ---       #130
      00FF8725H   LINE      CODE     ---       #131
      00FF8728H   LINE      CODE     ---       #132
      00FF872BH   LINE      CODE     ---       #133
      00FF872EH   LINE      CODE     ---       #134
      00FF8742H   LINE      CODE     ---       #135
      00FF8745H   LINE      CODE     ---       #136
      ---         BLOCKEND  ---      ---       LVL=0

      00FF81B4H   BLOCK     CODE     ---       LVL=0
      00000DF6H   SYMBOL    EDATA    BYTE      ack_x
      00FF81B8H   BLOCK     CODE     NEAR LAB  LVL=1
      00000DF7H   SYMBOL    EDATA    BYTE      i
      00000DF8H   SYMBOL    EDATA    BYTE      c
      ---         BLOCKEND  ---      ---       LVL=1
      00FF81B4H   LINE      CODE     ---       #142
      00FF81B8H   LINE      CODE     ---       #143
      00FF81B8H   LINE      CODE     ---       #146
      00FF81BDH   LINE      CODE     ---       #147
      00FF81C0H   LINE      CODE     ---       #148
      00FF81C3H   LINE      CODE     ---       #149
      00FF81C6H   LINE      CODE     ---       #151
      00FF81CDH   LINE      CODE     ---       #153
      00FF81D0H   LINE      CODE     ---       #154
      00FF81D3H   LINE      CODE     ---       #155
      00FF81D6H   LINE      CODE     ---       #156
      00FF81D9H   LINE      CODE     ---       #157
      00FF81DCH   LINE      CODE     ---       #158
      00FF81E6H   LINE      CODE     ---       #159
      00FF81E9H   LINE      CODE     ---       #161
      00FF81F5H   LINE      CODE     ---       #162
      00FF820CH   LINE      CODE     ---       #165
      00FF820FH   LINE      CODE     ---       #166
      00FF8212H   LINE      CODE     ---       #167
      00FF8219H   LINE      CODE     ---       #169
      00FF821DH   LINE      CODE     ---       #170
      ---         BLOCKEND  ---      ---       LVL=0

      00FF89EBH   BLOCK     CODE     ---       LVL=0
      00000DF9H   SYMBOL    EDATA    BYTE      dev_add
      00000DFAH   SYMBOL    EDATA    BYTE      reg
      00000DFBH   SYMBOL    EDATA    BYTE      dat
      00FF89EBH   LINE      CODE     ---       #182
L251 LINKER/LOCATER V4.66.93.0                                                        04/10/2024  19:22:09  PAGE 79


      00FF89F7H   LINE      CODE     ---       #184
      00FF89FAH   LINE      CODE     ---       #185
      00FF8A03H   LINE      CODE     ---       #186
      00FF8A0AH   LINE      CODE     ---       #187
      00FF8A11H   LINE      CODE     ---       #188
      00FF8A14H   LINE      CODE     ---       #189
      ---         BLOCKEND  ---      ---       LVL=0

      00FF8841H   BLOCK     CODE     ---       LVL=0
      00000DFCH   SYMBOL    EDATA    BYTE      dev_add
      00000DFDH   SYMBOL    EDATA    BYTE      reg
      00FF8849H   BLOCK     CODE     NEAR LAB  LVL=1
      00000DFEH   SYMBOL    EDATA    BYTE      dat
      ---         BLOCKEND  ---      ---       LVL=1
      00FF8841H   LINE      CODE     ---       #200
      00FF8849H   LINE      CODE     ---       #201
      00FF8849H   LINE      CODE     ---       #203
      00FF884CH   LINE      CODE     ---       #204
      00FF8855H   LINE      CODE     ---       #205
      00FF885CH   LINE      CODE     ---       #208
      00FF885FH   LINE      CODE     ---       #209
      00FF886CH   LINE      CODE     ---       #210
      00FF8874H   LINE      CODE     ---       #211
      00FF8877H   LINE      CODE     ---       #213
      00FF887BH   LINE      CODE     ---       #214
      ---         BLOCKEND  ---      ---       LVL=0

      00FF80DEH   BLOCK     CODE     ---       LVL=0
      00000C7CH   SYMBOL    EDATA    BYTE      dev_add
      00000C7DH   SYMBOL    EDATA    BYTE      reg
      00000C7EH   SYMBOL    EDATA    ---       dat_add
      00000C82H   SYMBOL    EDATA    BYTE      num
      00FF80DEH   LINE      CODE     ---       #227
      00FF80EEH   LINE      CODE     ---       #229
      00FF80F1H   LINE      CODE     ---       #230
      00FF80FAH   LINE      CODE     ---       #231
      00FF8101H   LINE      CODE     ---       #234
      00FF8104H   LINE      CODE     ---       #235
      00FF8111H   LINE      CODE     ---       #236
      00FF8113H   LINE      CODE     ---       #238
      00FF811FH   LINE      CODE     ---       #239
      00FF8129H   LINE      CODE     ---       #240
      00FF813BH   LINE      CODE     ---       #241
      00FF8146H   LINE      CODE     ---       #242
      00FF8149H   LINE      CODE     ---       #243
      ---         BLOCKEND  ---      ---       LVL=0

      00FF895AH   BLOCK     CODE     ---       LVL=0
      00FF895AH   LINE      CODE     ---       #252
      00FF895AH   LINE      CODE     ---       #254
      00FF8964H   LINE      CODE     ---       #255
      00FF896FH   LINE      CODE     ---       #256
      00FF897CH   LINE      CODE     ---       #258
      00FF8987H   LINE      CODE     ---       #259
      00FF898BH   LINE      CODE     ---       #265
      00FF898BH   LINE      CODE     ---       #267
      00FF898CH   LINE      CODE     ---       #269
      ---         BLOCKEND  ---      ---       LVL=0

      00FF8350H   BLOCK     CODE     ---       LVL=0
      00FF8350H   LINE      CODE     ---       #279
      00FF8350H   LINE      CODE     ---       #281
      00FF8357H   LINE      CODE     ---       #283
      00FF835FH   LINE      CODE     ---       #285
      00FF8363H   LINE      CODE     ---       #286
L251 LINKER/LOCATER V4.66.93.0                                                        04/10/2024  19:22:09  PAGE 80


      00FF8363H   LINE      CODE     ---       #287
      00FF836DH   LINE      CODE     ---       #288
      00FF8378H   LINE      CODE     ---       #289
      00FF8383H   LINE      CODE     ---       #290
      00FF838EH   LINE      CODE     ---       #291
      00FF8399H   LINE      CODE     ---       #292
      00FF83A3H   LINE      CODE     ---       #293
      00FF83AEH   LINE      CODE     ---       #294
      00FF83AFH   LINE      CODE     ---       #295
      ---         BLOCKEND  ---      ---       LVL=0
      00000D1AH   SYMBOL    EDATA    ---       dat

      00FF85C8H   BLOCK     CODE     ---       LVL=0
      00000D20H   SYMBOL    EDATA    ---       dat
      00FF85C8H   LINE      CODE     ---       #323
      00FF85C8H   LINE      CODE     ---       #324
      00FF85C8H   LINE      CODE     ---       #326
      00FF85D7H   LINE      CODE     ---       #327
      00FF85EDH   LINE      CODE     ---       #328
      00FF8603H   LINE      CODE     ---       #329
      00FF8619H   LINE      CODE     ---       #330
      ---         BLOCKEND  ---      ---       LVL=0

      ---         MODULE    ---      ---       SEEKFREE_OLED
      00FF8925H   PUBLIC    CODE     ---       oled_set_pos
      00FF6CC9H   PUBLIC    CODE     ---       oled_printf_float
      00FF6E0EH   PUBLIC    CODE     ---       oled_printf_float_px8
      00FF861AH   PUBLIC    CODE     ---       oled_wrcmd
      00FF8666H   PUBLIC    CODE     ---       oled_wrdat
      00FF840DH   PUBLIC    CODE     ---       oled_fill
      00FF8A3DH   PUBLIC    CODE     ---       oled_uint16
      00FF8A64H   PUBLIC    CODE     ---       oled_uint16_px8
      00FF797CH   PUBLIC    CODE     ---       oled_p6x8str
      00FF7F1CH   PUBLIC    CODE     ---       oled_int16
      00FF7C6CH   PUBLIC    CODE     ---       oled_init
      00FF8002H   PUBLIC    CODE     ---       oled_hexascii
      00FF71B9H   PUBLIC    CODE     ---       oled_p8x16str
      000004E0H   PUBLIC    EDATA    BYTE      ?oled_printf_float_px8?BYTE
      00000510H   PUBLIC    EDATA    BYTE      ?oled_printf_float?BYTE
      00000540H   PUBLIC    EDATA    BYTE      ?oled_printf_float_spi?BYTE
      000000D0H   SFRSYM    DATA     BYTE      PSW
      0000009DH   SFRSYM    DATA     BYTE      IRCBAND
      00000097H   SFRSYM    DATA     BYTE      AUXR2
      000000EFH   SFRSYM    DATA     BYTE      AUXINTIF
      000000FDH   SFRSYM    DATA     BYTE      S4CON
      000000ACH   SFRSYM    DATA     BYTE      S3CON
      0000009AH   SFRSYM    DATA     BYTE      S2CON
      000000B7H   SFRSYM    DATA     BYTE      IPH
      000000CDH   SFRSYM    DATA     BYTE      SPSTAT
      000000DDH   SFRSYM    DATA     BYTE      T4T3M
      000000C1H   SFRSYM    DATA     BYTE      WDT_CONTR
      000000DFH   SFRSYM    DATA     BYTE      IP3
      000000F4H   SFRSYM    DATA     BYTE      USBCON
      000000B5H   SFRSYM    DATA     BYTE      IP2
      000000FFH   SFRSYM    DATA     BYTE      RSTCFG
      000000C7H   SFRSYM    DATA     BYTE      IAP_CONTR
      000000F9H   SFRSYM    DATA     BYTE      LINICR
      0000008EH   SFRSYM    DATA     BYTE      AUXR
      000000AFH   SFRSYM    DATA     BYTE      IE2
      000000A0H.7 SFRSYM    DATA     BIT       P27
      000000A0H.5 SFRSYM    DATA     BIT       P25
      00000088H   SFRSYM    DATA     BYTE      TCON
      00000089H   SFRSYM    DATA     BYTE      TMOD
      000000A0H.3 SFRSYM    DATA     BIT       P23
      00000098H   SFRSYM    DATA     BYTE      SCON
L251 LINKER/LOCATER V4.66.93.0                                                        04/10/2024  19:22:09  PAGE 81


      000000A0H.2 SFRSYM    DATA     BIT       P22
      000000A0H.1 SFRSYM    DATA     BIT       P21
      000000A0H.0 SFRSYM    DATA     BIT       P20
      000000F1H   SFRSYM    DATA     BYTE      CANICR
      00000087H   SFRSYM    DATA     BYTE      PCON
      000000BCH   SFRSYM    DATA     BYTE      ADC_CONTR
      000000E7H   SFRSYM    DATA     BYTE      CMPCR2
      000000E6H   SFRSYM    DATA     BYTE      CMPCR1
      000000DEH   SFRSYM    DATA     BYTE      ADCCFG
      000000B8H   SFRSYM    DATA     BYTE      IP
      0000008FH   SFRSYM    DATA     BYTE      INTCLKO
      000000EEH   SFRSYM    DATA     BYTE      IP3H
      000000B6H   SFRSYM    DATA     BYTE      IP2H
      000000A8H   SFRSYM    DATA     BYTE      IE
      000000BBH   SFRSYM    DATA     BYTE      P_SW3
      000000BAH   SFRSYM    DATA     BYTE      P_SW2
      000000A2H   SFRSYM    DATA     BYTE      P_SW1
      000000CEH   SFRSYM    DATA     BYTE      SPCTL
      000000F8H   SFRSYM    DATA     BYTE      P7
      000000E8H   SFRSYM    DATA     BYTE      P6
      000000C8H   SFRSYM    DATA     BYTE      P5
      000000C0H   SFRSYM    DATA     BYTE      P4
      000000B0H   SFRSYM    DATA     BYTE      P3
      000000A0H   SFRSYM    DATA     BYTE      P2
      00000090H   SFRSYM    DATA     BYTE      P1
      00000080H   SFRSYM    DATA     BYTE      P0

      00FF8666H   BLOCK     CODE     ---       LVL=0
      00000E53H   SYMBOL    EDATA    BYTE      dat
      00FF866AH   BLOCK     CODE     NEAR LAB  LVL=1
      00000E54H   SYMBOL    EDATA    BYTE      i
      ---         BLOCKEND  ---      ---       LVL=1
      00FF8666H   LINE      CODE     ---       #47
      00FF866AH   LINE      CODE     ---       #48
      00FF866AH   LINE      CODE     ---       #49
      00FF8670H   LINE      CODE     ---       #51
      00FF8673H   LINE      CODE     ---       #52
      00FF8676H   LINE      CODE     ---       #53
      00FF8679H   LINE      CODE     ---       #54
      00FF867BH   LINE      CODE     ---       #56
      00FF8687H   LINE      CODE     ---       #57
      00FF868AH   LINE      CODE     ---       #58
      00FF868DH   LINE      CODE     ---       #60
      00FF8690H   LINE      CODE     ---       #61
      00FF869AH   LINE      CODE     ---       #62
      00FF86AEH   LINE      CODE     ---       #63
      00FF86B1H   LINE      CODE     ---       #64
      ---         BLOCKEND  ---      ---       LVL=0

      00FF861AH   BLOCK     CODE     ---       LVL=0
      00000E55H   SYMBOL    EDATA    BYTE      cmd
      00FF861EH   BLOCK     CODE     NEAR LAB  LVL=1
      00000E56H   SYMBOL    EDATA    BYTE      i
      ---         BLOCKEND  ---      ---       LVL=1
      00FF861AH   LINE      CODE     ---       #98
      00FF861EH   LINE      CODE     ---       #99
      00FF861EH   LINE      CODE     ---       #100
      00FF8624H   LINE      CODE     ---       #102
      00FF8627H   LINE      CODE     ---       #103
      00FF862AH   LINE      CODE     ---       #104
      00FF862DH   LINE      CODE     ---       #106
      00FF862FH   LINE      CODE     ---       #108
      00FF863BH   LINE      CODE     ---       #109
      00FF863EH   LINE      CODE     ---       #110
      00FF8641H   LINE      CODE     ---       #112
L251 LINKER/LOCATER V4.66.93.0                                                        04/10/2024  19:22:09  PAGE 82


      00FF8644H   LINE      CODE     ---       #113
      00FF864EH   LINE      CODE     ---       #114
      00FF8662H   LINE      CODE     ---       #115
      00FF8665H   LINE      CODE     ---       #116
      ---         BLOCKEND  ---      ---       LVL=0

      00FF8002H   BLOCK     CODE     ---       LVL=0
      00000C3AH   SYMBOL    EDATA    WORD      hex
      00000C3CH   SYMBOL    EDATA    ---       Print
      00FF800AH   BLOCK     CODE     NEAR LAB  LVL=1
      00000C40H   SYMBOL    EDATA    BYTE      hexcheck
      00000C41H   SYMBOL    EDATA    BYTE      TEMP
      ---         BLOCKEND  ---      ---       LVL=1
      00FF8002H   LINE      CODE     ---       #125
      00FF800AH   LINE      CODE     ---       #126
      00FF800AH   LINE      CODE     ---       #129
      00FF8010H   LINE      CODE     ---       #130
      00FF8020H   LINE      CODE     ---       #131
      00FF8022H   LINE      CODE     ---       #133
      00FF802EH   LINE      CODE     ---       #134
      00FF803EH   LINE      CODE     ---       #135
      00FF804CH   LINE      CODE     ---       #136
      00FF8067H   LINE      CODE     ---       #137
      00FF8070H   LINE      CODE     ---       #139
      ---         BLOCKEND  ---      ---       LVL=0

      00FF7C6CH   BLOCK     CODE     ---       LVL=0
      00FF7C6CH   LINE      CODE     ---       #148
      00FF7C6CH   LINE      CODE     ---       #151
      00FF7C6FH   LINE      CODE     ---       #152
      00FF7C72H   LINE      CODE     ---       #154
      00FF7C75H   LINE      CODE     ---       #155
      00FF7C7CH   LINE      CODE     ---       #156
      00FF7C7FH   LINE      CODE     ---       #158
      00FF7C84H   LINE      CODE     ---       #159
      00FF7C88H   LINE      CODE     ---       #160
      00FF7C8DH   LINE      CODE     ---       #161
      00FF7C92H   LINE      CODE     ---       #162
      00FF7C97H   LINE      CODE     ---       #163
      00FF7C9CH   LINE      CODE     ---       #166
      00FF7CA1H   LINE      CODE     ---       #167
      00FF7CA6H   LINE      CODE     ---       #173
      00FF7CABH   LINE      CODE     ---       #174
      00FF7CB0H   LINE      CODE     ---       #175
      00FF7CB5H   LINE      CODE     ---       #176
      00FF7CBAH   LINE      CODE     ---       #177
      00FF7CBEH   LINE      CODE     ---       #178
      00FF7CC3H   LINE      CODE     ---       #179
      00FF7CC8H   LINE      CODE     ---       #180
      00FF7CCDH   LINE      CODE     ---       #181
      00FF7CD2H   LINE      CODE     ---       #182
      00FF7CD7H   LINE      CODE     ---       #183
      00FF7CDCH   LINE      CODE     ---       #184
      00FF7CE1H   LINE      CODE     ---       #185
      00FF7CE6H   LINE      CODE     ---       #186
      00FF7CEBH   LINE      CODE     ---       #187
      00FF7CF0H   LINE      CODE     ---       #188
      00FF7CF5H   LINE      CODE     ---       #189
      00FF7CFAH   LINE      CODE     ---       #190
      00FF7CFFH   LINE      CODE     ---       #191
      00FF7D04H   LINE      CODE     ---       #192
      00FF7D09H   LINE      CODE     ---       #193
      00FF7D0DH   LINE      CODE     ---       #194
      00FF7D13H   LINE      CODE     ---       #195
      ---         BLOCKEND  ---      ---       LVL=0
L251 LINKER/LOCATER V4.66.93.0                                                        04/10/2024  19:22:09  PAGE 83



      00FF8925H   BLOCK     CODE     ---       LVL=0
      00000E57H   SYMBOL    EDATA    BYTE      x
      00000E58H   SYMBOL    EDATA    BYTE      y
      00FF8925H   LINE      CODE     ---       #205
      00FF892DH   LINE      CODE     ---       #207
      00FF8938H   LINE      CODE     ---       #208
      00FF894EH   LINE      CODE     ---       #209
      00FF8959H   LINE      CODE     ---       #210
      ---         BLOCKEND  ---      ---       LVL=0

      00FF840DH   BLOCK     CODE     ---       LVL=0
      00000DFFH   SYMBOL    EDATA    BYTE      bmp_data
      00FF8411H   BLOCK     CODE     NEAR LAB  LVL=1
      00000E00H   SYMBOL    EDATA    BYTE      y
      00000E01H   SYMBOL    EDATA    BYTE      x
      ---         BLOCKEND  ---      ---       LVL=1
      00FF840DH   LINE      CODE     ---       #219
      00FF8411H   LINE      CODE     ---       #220
      00FF8411H   LINE      CODE     ---       #223
      00FF8418H   LINE      CODE     ---       #225
      00FF8423H   LINE      CODE     ---       #226
      00FF8428H   LINE      CODE     ---       #227
      00FF842DH   LINE      CODE     ---       #228
      00FF8452H   LINE      CODE     ---       #229
      00FF8469H   LINE      CODE     ---       #230
      ---         BLOCKEND  ---      ---       LVL=0
      00000E02H   SYMBOL    EDATA    BYTE      x
      00000E03H   SYMBOL    EDATA    BYTE      y
      00000E04H   SYMBOL    EDATA    BYTE      data1
      00000E59H   SYMBOL    EDATA    BYTE      x
      00000E5AH   SYMBOL    EDATA    BYTE      y

      00FF797CH   BLOCK     CODE     ---       LVL=0
      00000BADH   SYMBOL    EDATA    BYTE      x
      00000BAEH   SYMBOL    EDATA    BYTE      y
      00000BAFH   SYMBOL    EDATA    ---       ch
      00FF7988H   BLOCK     CODE     NEAR LAB  LVL=1
      00000BB3H   SYMBOL    EDATA    BYTE      c
      00000BB4H   SYMBOL    EDATA    BYTE      i
      00000BB5H   SYMBOL    EDATA    BYTE      j
      ---         BLOCKEND  ---      ---       LVL=1
      00FF797CH   LINE      CODE     ---       #279
      00FF7988H   LINE      CODE     ---       #280
      00FF7988H   LINE      CODE     ---       #281
      00FF7997H   LINE      CODE     ---       #282
      00FF799AH   LINE      CODE     ---       #284
      00FF79B5H   LINE      CODE     ---       #285
      00FF79D1H   LINE      CODE     ---       #286
      00FF79DCH   LINE      CODE     ---       #287
      00FF7A1CH   LINE      CODE     ---       #288
      00FF7A28H   LINE      CODE     ---       #289
      00FF7A35H   LINE      CODE     ---       #290
      00FF7A4CH   LINE      CODE     ---       #291
      ---         BLOCKEND  ---      ---       LVL=0

      00FF71B9H   BLOCK     CODE     ---       LVL=0
      00000BB6H   SYMBOL    EDATA    BYTE      x
      00000BB7H   SYMBOL    EDATA    BYTE      y
      00000BB8H   SYMBOL    EDATA    ---       ch
      00FF71C5H   BLOCK     CODE     NEAR LAB  LVL=1
      00000BBCH   SYMBOL    EDATA    BYTE      c
      00000BBDH   SYMBOL    EDATA    BYTE      i
      00000BBEH   SYMBOL    EDATA    BYTE      j
      ---         BLOCKEND  ---      ---       LVL=1
L251 LINKER/LOCATER V4.66.93.0                                                        04/10/2024  19:22:09  PAGE 84


      00FF71B9H   LINE      CODE     ---       #302
      00FF71C5H   LINE      CODE     ---       #303
      00FF71C5H   LINE      CODE     ---       #304
      00FF71D4H   LINE      CODE     ---       #306
      00FF71D7H   LINE      CODE     ---       #308
      00FF71F2H   LINE      CODE     ---       #309
      00FF720EH   LINE      CODE     ---       #311
      00FF7219H   LINE      CODE     ---       #312
      00FF7259H   LINE      CODE     ---       #314
      00FF7269H   LINE      CODE     ---       #315
      00FF72A9H   LINE      CODE     ---       #317
      00FF72B5H   LINE      CODE     ---       #318
      00FF72C2H   LINE      CODE     ---       #319
      00FF72D9H   LINE      CODE     ---       #320
      ---         BLOCKEND  ---      ---       LVL=0

      00FF8A64H   BLOCK     CODE     ---       LVL=0
      00000A5CH   SYMBOL    EDATA    BYTE      x
      00000A5DH   SYMBOL    EDATA    BYTE      y
      00000A5EH   SYMBOL    EDATA    WORD      num
      00FF8A70H   BLOCK     CODE     NEAR LAB  LVL=1
      00000A60H   SYMBOL    EDATA    ---       ch
      ---         BLOCKEND  ---      ---       LVL=1
      00FF8A64H   LINE      CODE     ---       #331
      00FF8A70H   LINE      CODE     ---       #332
      00FF8A70H   LINE      CODE     ---       #335
      00FF8A7BH   LINE      CODE     ---       #338
      00FF8A8AH   LINE      CODE     ---       #339
      ---         BLOCKEND  ---      ---       LVL=0

      00FF8A3DH   BLOCK     CODE     ---       LVL=0
      00000A67H   SYMBOL    EDATA    BYTE      x
      00000A68H   SYMBOL    EDATA    BYTE      y
      00000A69H   SYMBOL    EDATA    WORD      num
      00FF8A49H   BLOCK     CODE     NEAR LAB  LVL=1
      00000A6BH   SYMBOL    EDATA    ---       ch
      ---         BLOCKEND  ---      ---       LVL=1
      00FF8A3DH   LINE      CODE     ---       #350
      00FF8A49H   LINE      CODE     ---       #351
      00FF8A49H   LINE      CODE     ---       #354
      00FF8A54H   LINE      CODE     ---       #356
      00FF8A63H   LINE      CODE     ---       #358
      ---         BLOCKEND  ---      ---       LVL=0

      00FF7F1CH   BLOCK     CODE     ---       LVL=0
      00000A72H   SYMBOL    EDATA    BYTE      x
      00000A73H   SYMBOL    EDATA    BYTE      y
      00000A74H   SYMBOL    EDATA    INT       num
      00FF7F28H   BLOCK     CODE     NEAR LAB  LVL=1
      00000A76H   SYMBOL    EDATA    ---       ch
      ---         BLOCKEND  ---      ---       LVL=1
      00FF7F1CH   LINE      CODE     ---       #369
      00FF7F28H   LINE      CODE     ---       #370
      00FF7F28H   LINE      CODE     ---       #372
      00FF7F55H   LINE      CODE     ---       #373
      00FF7F68H   LINE      CODE     ---       #374
      00FF7F74H   LINE      CODE     ---       #376
      00FF7F7FH   LINE      CODE     ---       #377
      00FF7F8EH   LINE      CODE     ---       #378
      ---         BLOCKEND  ---      ---       LVL=0
      0000067FH   SYMBOL    EDATA    WORD      x
      00000681H   SYMBOL    EDATA    WORD      y
      00000683H   SYMBOL    EDATA    LONG      dat
      00000687H   SYMBOL    EDATA    BYTE      num
      00000688H   SYMBOL    EDATA    ---       buff
L251 LINKER/LOCATER V4.66.93.0                                                        04/10/2024  19:22:09  PAGE 85


      000006AAH   SYMBOL    EDATA    BYTE      length

      00FF6E0EH   BLOCK     CODE     ---       LVL=0
      000004E0H   SYMBOL    EDATA    WORD      x
      000004E2H   SYMBOL    EDATA    WORD      y
      000004E4H   SYMBOL    EDATA    FLOAT     dat
      000004E8H   SYMBOL    EDATA    BYTE      num
      000004E9H   SYMBOL    EDATA    BYTE      pointnum
      00FF6E1EH   BLOCK     CODE     NEAR LAB  LVL=1
      000004EAH   SYMBOL    EDATA    BYTE      length
      000004EBH   SYMBOL    EDATA    ---       buff
      0000050DH   SYMBOL    EDATA    CHAR      start
      0000050EH   SYMBOL    EDATA    CHAR      end
      0000050FH   SYMBOL    EDATA    CHAR      point
      ---         BLOCKEND  ---      ---       LVL=1
      00FF6E0EH   LINE      CODE     ---       #431
      00FF6E1EH   LINE      CODE     ---       #432
      00FF6E1EH   LINE      CODE     ---       #437
      00FF6E2EH   LINE      CODE     ---       #438
      00FF6E3EH   LINE      CODE     ---       #440
      00FF6E66H   LINE      CODE     ---       #443
      00FF6E81H   LINE      CODE     ---       #444
      00FF6E8EH   LINE      CODE     ---       #445
      00FF6E8EH   LINE      CODE     ---       #446
      00FF6E9EH   LINE      CODE     ---       #447
      00FF6EB6H   LINE      CODE     ---       #448
      00FF6ECEH   LINE      CODE     ---       #449
      00FF6ED0H   LINE      CODE     ---       #451
      00FF6EE1H   LINE      CODE     ---       #452
      00FF6EEEH   LINE      CODE     ---       #453
      00FF6EFBH   LINE      CODE     ---       #454
      00FF6F04H   LINE      CODE     ---       #456
      00FF6F22H   LINE      CODE     ---       #457
      00FF6F33H   LINE      CODE     ---       #459
      00FF6F43H   LINE      CODE     ---       #461
      00FF6F52H   LINE      CODE     ---       #462
      ---         BLOCKEND  ---      ---       LVL=0

      00FF6CC9H   BLOCK     CODE     ---       LVL=0
      00000510H   SYMBOL    EDATA    WORD      x
      00000512H   SYMBOL    EDATA    WORD      y
      00000514H   SYMBOL    EDATA    FLOAT     dat
      00000518H   SYMBOL    EDATA    BYTE      num
      00000519H   SYMBOL    EDATA    BYTE      pointnum
      00FF6CD9H   BLOCK     CODE     NEAR LAB  LVL=1
      0000051AH   SYMBOL    EDATA    BYTE      length
      0000051BH   SYMBOL    EDATA    ---       buff
      0000053DH   SYMBOL    EDATA    CHAR      start
      0000053EH   SYMBOL    EDATA    CHAR      end
      0000053FH   SYMBOL    EDATA    CHAR      point
      ---         BLOCKEND  ---      ---       LVL=1
      00FF6CC9H   LINE      CODE     ---       #480
      00FF6CD9H   LINE      CODE     ---       #481
      00FF6CD9H   LINE      CODE     ---       #486
      00FF6CE9H   LINE      CODE     ---       #487
      00FF6CF9H   LINE      CODE     ---       #489
      00FF6D21H   LINE      CODE     ---       #492
      00FF6D3CH   LINE      CODE     ---       #493
      00FF6D49H   LINE      CODE     ---       #494
      00FF6D49H   LINE      CODE     ---       #495
      00FF6D59H   LINE      CODE     ---       #496
      00FF6D71H   LINE      CODE     ---       #497
      00FF6D89H   LINE      CODE     ---       #498
      00FF6D8BH   LINE      CODE     ---       #500
      00FF6D9CH   LINE      CODE     ---       #501
L251 LINKER/LOCATER V4.66.93.0                                                        04/10/2024  19:22:09  PAGE 86


      00FF6DA9H   LINE      CODE     ---       #502
      00FF6DB6H   LINE      CODE     ---       #503
      00FF6DBFH   LINE      CODE     ---       #505
      00FF6DDDH   LINE      CODE     ---       #506
      00FF6DEEH   LINE      CODE     ---       #508
      00FF6DFEH   LINE      CODE     ---       #510
      00FF6E0DH   LINE      CODE     ---       #511
      ---         BLOCKEND  ---      ---       LVL=0
      000008B8H   SYMBOL    EDATA    WORD      high
      000008BAH   SYMBOL    EDATA    WORD      width
      000008BCH   SYMBOL    EDATA    ---       p
      000008C0H   SYMBOL    EDATA    BYTE      value
      000008C1H   SYMBOL    EDATA    WORD      i
      000008C3H   SYMBOL    EDATA    WORD      j
      000008C5H   SYMBOL    EDATA    WORD      temp
      000008C7H   SYMBOL    EDATA    WORD      temp1
      000008C9H   SYMBOL    EDATA    BYTE      dat
      00000928H   SYMBOL    EDATA    BYTE      x
      00000929H   SYMBOL    EDATA    BYTE      y
      0000092AH   SYMBOL    EDATA    BYTE      size
      0000092BH   SYMBOL    EDATA    ---       p
      0000092FH   SYMBOL    EDATA    BYTE      len
      00000930H   SYMBOL    EDATA    WORD      i
      00000932H   SYMBOL    EDATA    WORD      j
      00000934H   SYMBOL    EDATA    WORD      k
      00000E82H   SYMBOL    EDATA    BYTE      dat
      00000E83H   SYMBOL    EDATA    BYTE      cmd
      00000C42H   SYMBOL    EDATA    WORD      hex
      00000C44H   SYMBOL    EDATA    ---       Print
      00000C48H   SYMBOL    EDATA    BYTE      hexcheck
      00000C49H   SYMBOL    EDATA    BYTE      TEMP
      00000E5BH   SYMBOL    EDATA    BYTE      x
      00000E5CH   SYMBOL    EDATA    BYTE      y
      00000E05H   SYMBOL    EDATA    BYTE      bmp_data
      00000E06H   SYMBOL    EDATA    BYTE      y
      00000E07H   SYMBOL    EDATA    BYTE      x
      00000E08H   SYMBOL    EDATA    BYTE      x
      00000E09H   SYMBOL    EDATA    BYTE      y
      00000E0AH   SYMBOL    EDATA    BYTE      data1
      00000E5DH   SYMBOL    EDATA    BYTE      x
      00000E5EH   SYMBOL    EDATA    BYTE      y
      00000BBFH   SYMBOL    EDATA    BYTE      x
      00000BC0H   SYMBOL    EDATA    BYTE      y
      00000BC1H   SYMBOL    EDATA    ---       ch
      00000BC5H   SYMBOL    EDATA    BYTE      c
      00000BC6H   SYMBOL    EDATA    BYTE      i
      00000BC7H   SYMBOL    EDATA    BYTE      j
      00000BC8H   SYMBOL    EDATA    BYTE      x
      00000BC9H   SYMBOL    EDATA    BYTE      y
      00000BCAH   SYMBOL    EDATA    ---       ch
      00000BCEH   SYMBOL    EDATA    BYTE      c
      00000BCFH   SYMBOL    EDATA    BYTE      i
      00000BD0H   SYMBOL    EDATA    BYTE      j
      00000A7DH   SYMBOL    EDATA    BYTE      x
      00000A7EH   SYMBOL    EDATA    BYTE      y
      00000A7FH   SYMBOL    EDATA    WORD      num
      00000A81H   SYMBOL    EDATA    ---       ch
      00000A88H   SYMBOL    EDATA    BYTE      x
      00000A89H   SYMBOL    EDATA    BYTE      y
      00000A8AH   SYMBOL    EDATA    INT       num
      00000A8CH   SYMBOL    EDATA    ---       ch
      000006ABH   SYMBOL    EDATA    WORD      x
      000006ADH   SYMBOL    EDATA    WORD      y
      000006AFH   SYMBOL    EDATA    LONG      dat
      000006B3H   SYMBOL    EDATA    BYTE      num
L251 LINKER/LOCATER V4.66.93.0                                                        04/10/2024  19:22:09  PAGE 87


      000006B4H   SYMBOL    EDATA    ---       buff
      000006D6H   SYMBOL    EDATA    BYTE      length
      00000540H   SYMBOL    EDATA    WORD      x
      00000542H   SYMBOL    EDATA    WORD      y
      00000544H   SYMBOL    EDATA    FLOAT     dat
      00000548H   SYMBOL    EDATA    BYTE      num
      00000549H   SYMBOL    EDATA    BYTE      pointnum
      0000054AH   SYMBOL    EDATA    BYTE      length
      0000054BH   SYMBOL    EDATA    ---       buff
      0000056DH   SYMBOL    EDATA    CHAR      start
      0000056EH   SYMBOL    EDATA    CHAR      end
      0000056FH   SYMBOL    EDATA    CHAR      point
      000008CAH   SYMBOL    EDATA    WORD      high
      000008CCH   SYMBOL    EDATA    WORD      width
      000008CEH   SYMBOL    EDATA    ---       p
      000008D2H   SYMBOL    EDATA    BYTE      value
      000008D3H   SYMBOL    EDATA    WORD      i
      000008D5H   SYMBOL    EDATA    WORD      j
      000008D7H   SYMBOL    EDATA    WORD      temp
      000008D9H   SYMBOL    EDATA    WORD      temp1
      000008DBH   SYMBOL    EDATA    BYTE      dat
      00000936H   SYMBOL    EDATA    BYTE      x
      00000937H   SYMBOL    EDATA    BYTE      y
      00000938H   SYMBOL    EDATA    BYTE      size
      00000939H   SYMBOL    EDATA    ---       p
      0000093DH   SYMBOL    EDATA    BYTE      len
      0000093EH   SYMBOL    EDATA    WORD      i
      00000940H   SYMBOL    EDATA    WORD      j
      00000942H   SYMBOL    EDATA    WORD      k

      ---         MODULE    ---      ---       SEEKFREE_PRINTF
      00FF73F2H   PUBLIC    CODE     ---       number_conversion_ascii
      00FF45EDH   PUBLIC    CODE     ---       zf_sprintf
      00FF7D14H   PUBLIC    CODE     ---       printf_reverse_order
      0000087FH   PUBLIC    EDATA    BYTE      ?number_conversion_ascii?BYTE
      000002B9H   PUBLIC    EDATA    BYTE      ?zf_sprintf?BYTE
      000000D0H   SFRSYM    DATA     BYTE      PSW
      0000009DH   SFRSYM    DATA     BYTE      IRCBAND
      00000097H   SFRSYM    DATA     BYTE      AUXR2
      000000EFH   SFRSYM    DATA     BYTE      AUXINTIF
      000000FDH   SFRSYM    DATA     BYTE      S4CON
      000000ACH   SFRSYM    DATA     BYTE      S3CON
      0000009AH   SFRSYM    DATA     BYTE      S2CON
      000000B7H   SFRSYM    DATA     BYTE      IPH
      000000CDH   SFRSYM    DATA     BYTE      SPSTAT
      000000DDH   SFRSYM    DATA     BYTE      T4T3M
      000000C1H   SFRSYM    DATA     BYTE      WDT_CONTR
      000000DFH   SFRSYM    DATA     BYTE      IP3
      000000F4H   SFRSYM    DATA     BYTE      USBCON
      000000B5H   SFRSYM    DATA     BYTE      IP2
      000000FFH   SFRSYM    DATA     BYTE      RSTCFG
      000000C7H   SFRSYM    DATA     BYTE      IAP_CONTR
      000000F9H   SFRSYM    DATA     BYTE      LINICR
      0000008EH   SFRSYM    DATA     BYTE      AUXR
      000000AFH   SFRSYM    DATA     BYTE      IE2
      00000088H   SFRSYM    DATA     BYTE      TCON
      00000089H   SFRSYM    DATA     BYTE      TMOD
      00000098H   SFRSYM    DATA     BYTE      SCON
      000000F1H   SFRSYM    DATA     BYTE      CANICR
      00000087H   SFRSYM    DATA     BYTE      PCON
      000000BCH   SFRSYM    DATA     BYTE      ADC_CONTR
      000000E7H   SFRSYM    DATA     BYTE      CMPCR2
      000000E6H   SFRSYM    DATA     BYTE      CMPCR1
      000000DEH   SFRSYM    DATA     BYTE      ADCCFG
      000000B8H   SFRSYM    DATA     BYTE      IP
L251 LINKER/LOCATER V4.66.93.0                                                        04/10/2024  19:22:09  PAGE 88


      0000008FH   SFRSYM    DATA     BYTE      INTCLKO
      000000EEH   SFRSYM    DATA     BYTE      IP3H
      000000B6H   SFRSYM    DATA     BYTE      IP2H
      000000A8H   SFRSYM    DATA     BYTE      IE
      000000BBH   SFRSYM    DATA     BYTE      P_SW3
      000000BAH   SFRSYM    DATA     BYTE      P_SW2
      000000A2H   SFRSYM    DATA     BYTE      P_SW1
      000000CEH   SFRSYM    DATA     BYTE      SPCTL
      000000F8H   SFRSYM    DATA     BYTE      P7
      000000E8H   SFRSYM    DATA     BYTE      P6
      000000C8H   SFRSYM    DATA     BYTE      P5
      000000C0H   SFRSYM    DATA     BYTE      P4
      000000B0H   SFRSYM    DATA     BYTE      P3
      000000A0H   SFRSYM    DATA     BYTE      P2
      00000090H   SFRSYM    DATA     BYTE      P1
      00000080H   SFRSYM    DATA     BYTE      P0

      00FF73F2H   BLOCK     CODE     ---       LVL=0
      0000087FH   SYMBOL    EDATA    DWORD     dat
      00000883H   SYMBOL    EDATA    ---       p
      00000887H   SYMBOL    EDATA    BYTE      neg_type
      00000888H   SYMBOL    EDATA    BYTE      radix
      00FF73FEH   BLOCK     CODE     NEAR LAB  LVL=1
      00000889H   SYMBOL    EDATA    LONG      neg_dat
      0000088DH   SYMBOL    EDATA    DWORD     pos_dat
      00000891H   SYMBOL    EDATA    BYTE      temp_data
      00000892H   SYMBOL    EDATA    BYTE      valid_num
      ---         BLOCKEND  ---      ---       LVL=1
      00FF73F2H   LINE      CODE     ---       #25
      00FF73FEH   LINE      CODE     ---       #26
      00FF73FEH   LINE      CODE     ---       #29
      00FF7403H   LINE      CODE     ---       #30
      00FF7408H   LINE      CODE     ---       #32
      00FF7411H   LINE      CODE     ---       #34
      00FF7419H   LINE      CODE     ---       #35
      00FF7431H   LINE      CODE     ---       #36
      00FF7431H   LINE      CODE     ---       #38
      00FF744DH   LINE      CODE     ---       #39
      00FF7460H   LINE      CODE     ---       #40
      00FF746DH   LINE      CODE     ---       #42
      00FF7475H   LINE      CODE     ---       #43
      00FF747FH   LINE      CODE     ---       #44
      00FF7481H   LINE      CODE     ---       #45
      00FF7484H   LINE      CODE     ---       #48
      00FF748CH   LINE      CODE     ---       #49
      00FF748CH   LINE      CODE     ---       #51
      00FF74A1H   LINE      CODE     ---       #52
      00FF74B9H   LINE      CODE     ---       #53
      00FF74C5H   LINE      CODE     ---       #55
      00FF74D0H   LINE      CODE     ---       #57
      00FF74E3H   LINE      CODE     ---       #58
      00FF74F0H   LINE      CODE     ---       #60
      00FF74F8H   LINE      CODE     ---       #61
      00FF7502H   LINE      CODE     ---       #62
      00FF7504H   LINE      CODE     ---       #63
      00FF7504H   LINE      CODE     ---       #64
      00FF7508H   LINE      CODE     ---       #65
      ---         BLOCKEND  ---      ---       LVL=0

      00FF7D14H   BLOCK     CODE     ---       LVL=0
      0000095FH   SYMBOL    EDATA    ---       d_buff
      00000963H   SYMBOL    EDATA    DWORD     len
      00FF7D1CH   BLOCK     CODE     NEAR LAB  LVL=1
      00000967H   SYMBOL    EDATA    DWORD     i
      0000096BH   SYMBOL    EDATA    CHAR      temp_data
L251 LINKER/LOCATER V4.66.93.0                                                        04/10/2024  19:22:09  PAGE 89


      ---         BLOCKEND  ---      ---       LVL=1
      00FF7D14H   LINE      CODE     ---       #67
      00FF7D1CH   LINE      CODE     ---       #68
      00FF7D1CH   LINE      CODE     ---       #71
      00FF7D24H   LINE      CODE     ---       #73
      00FF7D43H   LINE      CODE     ---       #74
      00FF7D6DH   LINE      CODE     ---       #75
      00FF7D80H   LINE      CODE     ---       #76
      00FF7DA8H   LINE      CODE     ---       #77
      ---         BLOCKEND  ---      ---       LVL=0

      00FF45EDH   BLOCK     CODE     ---       LVL=0
      000002B9H   SYMBOL    EDATA    ---       buff
      000002BDH   SYMBOL    EDATA    ---       format
      00FF45F5H   BLOCK     CODE     NEAR LAB  LVL=1
      000002C1H   SYMBOL    EDATA    DWORD     buff_len
      000002C5H   SYMBOL    EDATA    ---       arg
      00FF460AH   BLOCK     CODE     NEAR LAB  LVL=2
      000002C9H   SYMBOL    EDATA    CHAR      ret
      00FF473FH   BLOCK     CODE     NEAR LAB  LVL=3
      000002CAH   SYMBOL    EDATA    CHAR      ch
      ---         BLOCKEND  ---      ---       LVL=3
      00FF477EH   BLOCK     CODE     NEAR LAB  LVL=3
      000002CAH   SYMBOL    EDATA    ---       vstr
      000002EBH   SYMBOL    EDATA    LONG      ival
      000002EFH   SYMBOL    EDATA    BYTE      vlen
      ---         BLOCKEND  ---      ---       LVL=3
      00FF481FH   BLOCK     CODE     NEAR LAB  LVL=3
      000002CAH   SYMBOL    EDATA    ---       vstr
      000002EBH   SYMBOL    EDATA    FLOAT     ival
      000002EFH   SYMBOL    EDATA    BYTE      vlen
      ---         BLOCKEND  ---      ---       LVL=3
      00FF49C0H   BLOCK     CODE     NEAR LAB  LVL=3
      000002CAH   SYMBOL    EDATA    ---       vstr
      000002EBH   SYMBOL    EDATA    DWORD     ival
      000002EFH   SYMBOL    EDATA    BYTE      vlen
      ---         BLOCKEND  ---      ---       LVL=3
      00FF4A38H   BLOCK     CODE     NEAR LAB  LVL=3
      000002CAH   SYMBOL    EDATA    ---       vstr
      000002EBH   SYMBOL    EDATA    DWORD     ival
      000002EFH   SYMBOL    EDATA    BYTE      vlen
      ---         BLOCKEND  ---      ---       LVL=3
      00FF4AB0H   BLOCK     CODE     NEAR LAB  LVL=3
      000002CAH   SYMBOL    EDATA    ---       vstr
      000002EBH   SYMBOL    EDATA    DWORD     ival
      000002EFH   SYMBOL    EDATA    BYTE      vlen
      ---         BLOCKEND  ---      ---       LVL=3
      00FF4B28H   BLOCK     CODE     NEAR LAB  LVL=3
      000002CAH   SYMBOL    EDATA    ---       pc
      ---         BLOCKEND  ---      ---       LVL=3
      00FF4B82H   BLOCK     CODE     NEAR LAB  LVL=3
      000002CAH   SYMBOL    EDATA    ---       vstr
      000002EBH   SYMBOL    EDATA    DWORD     ival
      ---         BLOCKEND  ---      ---       LVL=3
      ---         BLOCKEND  ---      ---       LVL=2
      ---         BLOCKEND  ---      ---       LVL=1
      00FF45EDH   LINE      CODE     ---       #212
      00FF45F5H   LINE      CODE     ---       #213
      00FF45F5H   LINE      CODE     ---       #214
      00FF45FBH   LINE      CODE     ---       #216
      00FF4607H   LINE      CODE     ---       #218
      00FF460AH   LINE      CODE     ---       #219
      00FF460AH   LINE      CODE     ---       #220
      00FF4615H   LINE      CODE     ---       #221
      00FF4621H   LINE      CODE     ---       #223
L251 LINKER/LOCATER V4.66.93.0                                                        04/10/2024  19:22:09  PAGE 90


      00FF473CH   LINE      CODE     ---       #225
      00FF473CH   LINE      CODE     ---       #229
      00FF473FH   LINE      CODE     ---       #232
      00FF473FH   LINE      CODE     ---       #233
      00FF473FH   LINE      CODE     ---       #234
      00FF4758H   LINE      CODE     ---       #235
      00FF4763H   LINE      CODE     ---       #236
      00FF476DH   LINE      CODE     ---       #237
      00FF477BH   LINE      CODE     ---       #239
      00FF477EH   LINE      CODE     ---       #242
      00FF477EH   LINE      CODE     ---       #243
      00FF477EH   LINE      CODE     ---       #244
      00FF477EH   LINE      CODE     ---       #246
      00FF4797H   LINE      CODE     ---       #247
      00FF47AEH   LINE      CODE     ---       #249
      00FF47B8H   LINE      CODE     ---       #251
      00FF47C9H   LINE      CODE     ---       #252
      00FF47D6H   LINE      CODE     ---       #253
      00FF47D6H   LINE      CODE     ---       #254
      00FF47E5H   LINE      CODE     ---       #255
      00FF47FAH   LINE      CODE     ---       #256
      00FF480AH   LINE      CODE     ---       #257
      00FF481CH   LINE      CODE     ---       #260
      00FF481FH   LINE      CODE     ---       #262
      00FF481FH   LINE      CODE     ---       #263
      00FF481FH   LINE      CODE     ---       #264
      00FF481FH   LINE      CODE     ---       #266
      00FF4838H   LINE      CODE     ---       #267
      00FF4852H   LINE      CODE     ---       #269
      00FF485DH   LINE      CODE     ---       #271
      00FF486EH   LINE      CODE     ---       #272
      00FF487BH   LINE      CODE     ---       #273
      00FF487BH   LINE      CODE     ---       #274
      00FF488AH   LINE      CODE     ---       #275
      00FF489FH   LINE      CODE     ---       #276
      00FF48AFH   LINE      CODE     ---       #277
      00FF48C1H   LINE      CODE     ---       #279
      00FF48E5H   LINE      CODE     ---       #280
      00FF48E9H   LINE      CODE     ---       #282
      00FF4903H   LINE      CODE     ---       #283
      00FF4905H   LINE      CODE     ---       #286
      00FF4929H   LINE      CODE     ---       #287
      00FF492FH   LINE      CODE     ---       #288
      00FF492FH   LINE      CODE     ---       #290
      00FF4931H   LINE      CODE     ---       #292
      00FF4942H   LINE      CODE     ---       #293
      00FF494FH   LINE      CODE     ---       #294
      00FF4959H   LINE      CODE     ---       #296
      00FF496AH   LINE      CODE     ---       #297
      00FF4977H   LINE      CODE     ---       #299
      00FF4986H   LINE      CODE     ---       #300
      00FF499BH   LINE      CODE     ---       #301
      00FF49ABH   LINE      CODE     ---       #302
      00FF49BDH   LINE      CODE     ---       #304
      00FF49C0H   LINE      CODE     ---       #307
      00FF49C0H   LINE      CODE     ---       #308
      00FF49C0H   LINE      CODE     ---       #310
      00FF49D9H   LINE      CODE     ---       #311
      00FF49EFH   LINE      CODE     ---       #313
      00FF49FEH   LINE      CODE     ---       #314
      00FF4A13H   LINE      CODE     ---       #315
      00FF4A23H   LINE      CODE     ---       #316
      00FF4A35H   LINE      CODE     ---       #317
      00FF4A38H   LINE      CODE     ---       #319
      00FF4A38H   LINE      CODE     ---       #320
L251 LINKER/LOCATER V4.66.93.0                                                        04/10/2024  19:22:09  PAGE 91


      00FF4A38H   LINE      CODE     ---       #322
      00FF4A51H   LINE      CODE     ---       #323
      00FF4A67H   LINE      CODE     ---       #325
      00FF4A76H   LINE      CODE     ---       #326
      00FF4A8BH   LINE      CODE     ---       #327
      00FF4A9BH   LINE      CODE     ---       #328
      00FF4AADH   LINE      CODE     ---       #330
      00FF4AB0H   LINE      CODE     ---       #332
      00FF4AB0H   LINE      CODE     ---       #333
      00FF4AB0H   LINE      CODE     ---       #334
      00FF4AB0H   LINE      CODE     ---       #336
      00FF4AC9H   LINE      CODE     ---       #337
      00FF4ADFH   LINE      CODE     ---       #339
      00FF4AEEH   LINE      CODE     ---       #340
      00FF4B03H   LINE      CODE     ---       #341
      00FF4B13H   LINE      CODE     ---       #342
      00FF4B25H   LINE      CODE     ---       #343
      00FF4B28H   LINE      CODE     ---       #346
      00FF4B28H   LINE      CODE     ---       #347
      00FF4B28H   LINE      CODE     ---       #348
      00FF4B41H   LINE      CODE     ---       #349
      00FF4B43H   LINE      CODE     ---       #351
      00FF4B51H   LINE      CODE     ---       #352
      00FF4B5BH   LINE      CODE     ---       #353
      00FF4B69H   LINE      CODE     ---       #354
      00FF4B73H   LINE      CODE     ---       #355
      00FF4B7FH   LINE      CODE     ---       #356
      00FF4B82H   LINE      CODE     ---       #358
      00FF4B82H   LINE      CODE     ---       #359
      00FF4B82H   LINE      CODE     ---       #361
      00FF4B9BH   LINE      CODE     ---       #363
      00FF4BADH   LINE      CODE     ---       #365
      00FF4BB8H   LINE      CODE     ---       #366
      00FF4BCBH   LINE      CODE     ---       #367
      00FF4BD7H   LINE      CODE     ---       #368
      00FF4BE5H   LINE      CODE     ---       #370
      00FF4BE7H   LINE      CODE     ---       #373
      00FF4BE7H   LINE      CODE     ---       #375
      00FF4BF0H   LINE      CODE     ---       #376
      00FF4BFAH   LINE      CODE     ---       #377
      00FF4C08H   LINE      CODE     ---       #378
      00FF4C0AH   LINE      CODE     ---       #380
      00FF4C0AH   LINE      CODE     ---       #381
      00FF4C0AH   LINE      CODE     ---       #382
      00FF4C0AH   LINE      CODE     ---       #385
      00FF4C18H   LINE      CODE     ---       #386
      00FF4C22H   LINE      CODE     ---       #387
      00FF4C30H   LINE      CODE     ---       #388
      00FF4C30H   LINE      CODE     ---       #389
      00FF4C3AH   LINE      CODE     ---       #390
      00FF4C49H   LINE      CODE     ---       #393
      00FF4C4DH   LINE      CODE     ---       #394
      ---         BLOCKEND  ---      ---       LVL=0

      ---         MODULE    ---      ---       SEEKFREE_TSL1401
      00000110H   PUBLIC    EDATA    BYTE      tsl1401_finish_flag
      00000111H   PUBLIC    EDATA    ---       ccd_data
      000000D0H   SFRSYM    DATA     BYTE      PSW
      0000009DH   SFRSYM    DATA     BYTE      IRCBAND
      00000097H   SFRSYM    DATA     BYTE      AUXR2
      000000EFH   SFRSYM    DATA     BYTE      AUXINTIF
      000000FDH   SFRSYM    DATA     BYTE      S4CON
      000000ACH   SFRSYM    DATA     BYTE      S3CON
      0000009AH   SFRSYM    DATA     BYTE      S2CON
      000000B7H   SFRSYM    DATA     BYTE      IPH
L251 LINKER/LOCATER V4.66.93.0                                                        04/10/2024  19:22:09  PAGE 92


      000000CDH   SFRSYM    DATA     BYTE      SPSTAT
      000000DDH   SFRSYM    DATA     BYTE      T4T3M
      000000C1H   SFRSYM    DATA     BYTE      WDT_CONTR
      000000DFH   SFRSYM    DATA     BYTE      IP3
      000000F4H   SFRSYM    DATA     BYTE      USBCON
      000000B5H   SFRSYM    DATA     BYTE      IP2
      000000FFH   SFRSYM    DATA     BYTE      RSTCFG
      000000C7H   SFRSYM    DATA     BYTE      IAP_CONTR
      000000F9H   SFRSYM    DATA     BYTE      LINICR
      0000008EH   SFRSYM    DATA     BYTE      AUXR
      000000AFH   SFRSYM    DATA     BYTE      IE2
      000000B0H.3 SFRSYM    DATA     BIT       P33
      00000088H   SFRSYM    DATA     BYTE      TCON
      00000089H   SFRSYM    DATA     BYTE      TMOD
      000000B0H.2 SFRSYM    DATA     BIT       P32
      00000098H   SFRSYM    DATA     BYTE      SCON
      000000F1H   SFRSYM    DATA     BYTE      CANICR
      00000087H   SFRSYM    DATA     BYTE      PCON
      000000BCH   SFRSYM    DATA     BYTE      ADC_CONTR
      000000E7H   SFRSYM    DATA     BYTE      CMPCR2
      000000E6H   SFRSYM    DATA     BYTE      CMPCR1
      000000DEH   SFRSYM    DATA     BYTE      ADCCFG
      000000B8H   SFRSYM    DATA     BYTE      IP
      0000008FH   SFRSYM    DATA     BYTE      INTCLKO
      000000EEH   SFRSYM    DATA     BYTE      IP3H
      000000B6H   SFRSYM    DATA     BYTE      IP2H
      000000A8H   SFRSYM    DATA     BYTE      IE
      000000BBH   SFRSYM    DATA     BYTE      P_SW3
      000000BAH   SFRSYM    DATA     BYTE      P_SW2
      000000A2H   SFRSYM    DATA     BYTE      P_SW1
      000000CEH   SFRSYM    DATA     BYTE      SPCTL
      000000F8H   SFRSYM    DATA     BYTE      P7
      000000E8H   SFRSYM    DATA     BYTE      P6
      000000C8H   SFRSYM    DATA     BYTE      P5
      000000C0H   SFRSYM    DATA     BYTE      P4
      000000B0H   SFRSYM    DATA     BYTE      P3
      000000A0H   SFRSYM    DATA     BYTE      P2
      00000090H   SFRSYM    DATA     BYTE      P1
      00000080H   SFRSYM    DATA     BYTE      P0
      00000C83H   SYMBOL    EDATA    INT       uart_n
      00000C85H   SYMBOL    EDATA    ---       dat
      00000C89H   SYMBOL    EDATA    BYTE      i
      00000E84H   SYMBOL    EDATA    BYTE      i

      ---         MODULE    ---      ---       SEEKFREE_VIRSCO
      00000AF7H   PUBLIC    EDATA    ---       virtual_scope_data
      00000944H   PUBLIC    EDATA    BYTE      ?data_conversion?BYTE
      000000D0H   SFRSYM    DATA     BYTE      PSW
      0000009DH   SFRSYM    DATA     BYTE      IRCBAND
      00000097H   SFRSYM    DATA     BYTE      AUXR2
      000000EFH   SFRSYM    DATA     BYTE      AUXINTIF
      000000FDH   SFRSYM    DATA     BYTE      S4CON
      000000ACH   SFRSYM    DATA     BYTE      S3CON
      0000009AH   SFRSYM    DATA     BYTE      S2CON
      000000B7H   SFRSYM    DATA     BYTE      IPH
      000000CDH   SFRSYM    DATA     BYTE      SPSTAT
      000000DDH   SFRSYM    DATA     BYTE      T4T3M
      000000C1H   SFRSYM    DATA     BYTE      WDT_CONTR
      000000DFH   SFRSYM    DATA     BYTE      IP3
      000000F4H   SFRSYM    DATA     BYTE      USBCON
      000000B5H   SFRSYM    DATA     BYTE      IP2
      000000FFH   SFRSYM    DATA     BYTE      RSTCFG
      000000C7H   SFRSYM    DATA     BYTE      IAP_CONTR
      000000F9H   SFRSYM    DATA     BYTE      LINICR
      0000008EH   SFRSYM    DATA     BYTE      AUXR
L251 LINKER/LOCATER V4.66.93.0                                                        04/10/2024  19:22:09  PAGE 93


      000000AFH   SFRSYM    DATA     BYTE      IE2
      00000088H   SFRSYM    DATA     BYTE      TCON
      00000089H   SFRSYM    DATA     BYTE      TMOD
      00000098H   SFRSYM    DATA     BYTE      SCON
      000000F1H   SFRSYM    DATA     BYTE      CANICR
      00000087H   SFRSYM    DATA     BYTE      PCON
      000000BCH   SFRSYM    DATA     BYTE      ADC_CONTR
      000000E7H   SFRSYM    DATA     BYTE      CMPCR2
      000000E6H   SFRSYM    DATA     BYTE      CMPCR1
      000000DEH   SFRSYM    DATA     BYTE      ADCCFG
      000000B8H   SFRSYM    DATA     BYTE      IP
      0000008FH   SFRSYM    DATA     BYTE      INTCLKO
      000000EEH   SFRSYM    DATA     BYTE      IP3H
      000000B6H   SFRSYM    DATA     BYTE      IP2H
      000000A8H   SFRSYM    DATA     BYTE      IE
      000000BBH   SFRSYM    DATA     BYTE      P_SW3
      000000BAH   SFRSYM    DATA     BYTE      P_SW2
      000000A2H   SFRSYM    DATA     BYTE      P_SW1
      000000CEH   SFRSYM    DATA     BYTE      SPCTL
      000000F8H   SFRSYM    DATA     BYTE      P7
      000000E8H   SFRSYM    DATA     BYTE      P6
      000000C8H   SFRSYM    DATA     BYTE      P5
      000000C0H   SFRSYM    DATA     BYTE      P4
      000000B0H   SFRSYM    DATA     BYTE      P3
      000000A0H   SFRSYM    DATA     BYTE      P2
      00000090H   SFRSYM    DATA     BYTE      P1
      00000080H   SFRSYM    DATA     BYTE      P0
      00000BD1H   SYMBOL    EDATA    ---       Buf
      00000BD5H   SYMBOL    EDATA    BYTE      CRC_CNT
      00000BD6H   SYMBOL    EDATA    WORD      CRC_Temp
      00000BD8H   SYMBOL    EDATA    BYTE      i
      00000BD9H   SYMBOL    EDATA    BYTE      j
      00000944H   SYMBOL    EDATA    INT       data1
      00000946H   SYMBOL    EDATA    INT       data2
      00000948H   SYMBOL    EDATA    INT       data3
      0000094AH   SYMBOL    EDATA    INT       data4
      0000094CH   SYMBOL    EDATA    ---       dat
      00000950H   SYMBOL    EDATA    WORD      CRC16

      ---         MODULE    ---      ---       SEEKFREE_WIRELESS
      00FF8B3CH   PUBLIC    CODE     ---       wireless_uart_callback
      000000D0H   SFRSYM    DATA     BYTE      PSW
      0000009DH   SFRSYM    DATA     BYTE      IRCBAND
      00000097H   SFRSYM    DATA     BYTE      AUXR2
      000000EFH   SFRSYM    DATA     BYTE      AUXINTIF
      000000FDH   SFRSYM    DATA     BYTE      S4CON
      000000ACH   SFRSYM    DATA     BYTE      S3CON
      0000009AH   SFRSYM    DATA     BYTE      S2CON
      000000FEH   SFRSYM    DATA     BYTE      S4BUF
      000000B7H   SFRSYM    DATA     BYTE      IPH
      000000CDH   SFRSYM    DATA     BYTE      SPSTAT
      000000DDH   SFRSYM    DATA     BYTE      T4T3M
      000000C1H   SFRSYM    DATA     BYTE      WDT_CONTR
      000000DFH   SFRSYM    DATA     BYTE      IP3
      000000F4H   SFRSYM    DATA     BYTE      USBCON
      000000B5H   SFRSYM    DATA     BYTE      IP2
      000000FFH   SFRSYM    DATA     BYTE      RSTCFG
      000000C7H   SFRSYM    DATA     BYTE      IAP_CONTR
      000000F9H   SFRSYM    DATA     BYTE      LINICR
      0000008EH   SFRSYM    DATA     BYTE      AUXR
      000000AFH   SFRSYM    DATA     BYTE      IE2
      00000080H.7 SFRSYM    DATA     BIT       P07
      00000088H   SFRSYM    DATA     BYTE      TCON
      00000089H   SFRSYM    DATA     BYTE      TMOD
      00000098H   SFRSYM    DATA     BYTE      SCON
L251 LINKER/LOCATER V4.66.93.0                                                        04/10/2024  19:22:09  PAGE 94


      000000F1H   SFRSYM    DATA     BYTE      CANICR
      00000087H   SFRSYM    DATA     BYTE      PCON
      000000BCH   SFRSYM    DATA     BYTE      ADC_CONTR
      000000E7H   SFRSYM    DATA     BYTE      CMPCR2
      000000E6H   SFRSYM    DATA     BYTE      CMPCR1
      000000DEH   SFRSYM    DATA     BYTE      ADCCFG
      000000B8H   SFRSYM    DATA     BYTE      IP
      0000008FH   SFRSYM    DATA     BYTE      INTCLKO
      000000EEH   SFRSYM    DATA     BYTE      IP3H
      000000B6H   SFRSYM    DATA     BYTE      IP2H
      000000A8H   SFRSYM    DATA     BYTE      IE
      000000BBH   SFRSYM    DATA     BYTE      P_SW3
      000000BAH   SFRSYM    DATA     BYTE      P_SW2
      000000A2H   SFRSYM    DATA     BYTE      P_SW1
      000000CEH   SFRSYM    DATA     BYTE      SPCTL
      000000F8H   SFRSYM    DATA     BYTE      P7
      000000E8H   SFRSYM    DATA     BYTE      P6
      000000C8H   SFRSYM    DATA     BYTE      P5
      000000C0H   SFRSYM    DATA     BYTE      P4
      000000B0H   SFRSYM    DATA     BYTE      P3
      000000A0H   SFRSYM    DATA     BYTE      P2
      00000090H   SFRSYM    DATA     BYTE      P1
      00000080H   SFRSYM    DATA     BYTE      P0
      00000345H   SYMBOL    EDATA    BYTE      wireless_uart_data
      00000346H   SYMBOL    EDATA    ---       wireless_uart_fifo
      0000035AH   SYMBOL    EDATA    ---       wireless_uart_buffer

      00FF8B3CH   BLOCK     CODE     ---       LVL=0
      00FF8B3CH   LINE      CODE     ---       #48
      00FF8B3CH   LINE      CODE     ---       #51
      00FF8B42H   LINE      CODE     ---       #52
      00FF8B55H   LINE      CODE     ---       #53
      ---         BLOCKEND  ---      ---       LVL=0
      00000E85H   SYMBOL    EDATA    BYTE      dat
      00000D26H   SYMBOL    EDATA    ---       buff
      00000D2AH   SYMBOL    EDATA    WORD      len
      00000A2CH   SYMBOL    EDATA    ---       buff
      00000A30H   SYMBOL    EDATA    DWORD     len
      00000A34H   SYMBOL    EDATA    DWORD     data_len

      ---         MODULE    ---      ---       isr
      00FF8746H   PUBLIC    CODE     ---       UART1_Isr
      00FF8B56H   PUBLIC    CODE     ---       UART2_Isr
      00FF8B70H   PUBLIC    CODE     ---       UART3_Isr
      00FF82EFH   PUBLIC    CODE     ---       UART4_Isr
      00FF008EH   PUBLIC    CODE     ---       INT0_Isr
      00FF000AH   PUBLIC    CODE     ---       INT1_Isr
      00FF0096H   PUBLIC    CODE     ---       INT2_Isr
      00FF009EH   PUBLIC    CODE     ---       INT3_Isr
      00FF8C27H   PUBLIC    CODE     ---       INT4_Isr
      00FF8B8AH   PUBLIC    CODE     ---       TM0_Isr
      00FF8C11H   PUBLIC    CODE     ---       TM1_Isr
      00FF8C2BH   PUBLIC    CODE     ---       TM2_Isr
      00FF8C2FH   PUBLIC    CODE     ---       TM3_Isr
      00000D59H   PUBLIC    EDATA    DWORD     SysTickFlag
      000000D0H   SFRSYM    DATA     BYTE      PSW
      0000009DH   SFRSYM    DATA     BYTE      IRCBAND
      00000097H   SFRSYM    DATA     BYTE      AUXR2
      000000EFH   SFRSYM    DATA     BYTE      AUXINTIF
      000000FDH   SFRSYM    DATA     BYTE      S4CON
      000000ACH   SFRSYM    DATA     BYTE      S3CON
      0000009AH   SFRSYM    DATA     BYTE      S2CON
      000000B7H   SFRSYM    DATA     BYTE      IPH
      000000CDH   SFRSYM    DATA     BYTE      SPSTAT
      000000DDH   SFRSYM    DATA     BYTE      T4T3M
L251 LINKER/LOCATER V4.66.93.0                                                        04/10/2024  19:22:09  PAGE 95


      000000C1H   SFRSYM    DATA     BYTE      WDT_CONTR
      000000DFH   SFRSYM    DATA     BYTE      IP3
      000000F4H   SFRSYM    DATA     BYTE      USBCON
      000000B5H   SFRSYM    DATA     BYTE      IP2
      000000FFH   SFRSYM    DATA     BYTE      RSTCFG
      000000C7H   SFRSYM    DATA     BYTE      IAP_CONTR
      000000F9H   SFRSYM    DATA     BYTE      LINICR
      0000008EH   SFRSYM    DATA     BYTE      AUXR
      000000AFH   SFRSYM    DATA     BYTE      IE2
      000000C8H.2 SFRSYM    DATA     BIT       P52
      00000088H   SFRSYM    DATA     BYTE      TCON
      00000089H   SFRSYM    DATA     BYTE      TMOD
      00000080H.4 SFRSYM    DATA     BIT       P04
      00000098H   SFRSYM    DATA     BYTE      SCON
      000000F1H   SFRSYM    DATA     BYTE      CANICR
      00000087H   SFRSYM    DATA     BYTE      PCON
      00000099H   SFRSYM    DATA     BYTE      SBUF
      000000BCH   SFRSYM    DATA     BYTE      ADC_CONTR
      000000E7H   SFRSYM    DATA     BYTE      CMPCR2
      000000E6H   SFRSYM    DATA     BYTE      CMPCR1
      000000DEH   SFRSYM    DATA     BYTE      ADCCFG
      000000B8H   SFRSYM    DATA     BYTE      IP
      0000008FH   SFRSYM    DATA     BYTE      INTCLKO
      000000EEH   SFRSYM    DATA     BYTE      IP3H
      000000B6H   SFRSYM    DATA     BYTE      IP2H
      000000A8H   SFRSYM    DATA     BYTE      IE
      000000BBH   SFRSYM    DATA     BYTE      P_SW3
      000000BAH   SFRSYM    DATA     BYTE      P_SW2
      000000A2H   SFRSYM    DATA     BYTE      P_SW1
      000000CEH   SFRSYM    DATA     BYTE      SPCTL
      000000F8H   SFRSYM    DATA     BYTE      P7
      000000E8H   SFRSYM    DATA     BYTE      P6
      000000C8H   SFRSYM    DATA     BYTE      P5
      000000C0H   SFRSYM    DATA     BYTE      P4
      000000B0H   SFRSYM    DATA     BYTE      P3
      000000A0H   SFRSYM    DATA     BYTE      P2
      00000090H   SFRSYM    DATA     BYTE      P1
      00000080H   SFRSYM    DATA     BYTE      P0

      00FF8746H   BLOCK     CODE     ---       LVL=0
      00FF8748H   BLOCK     CODE     NEAR LAB  LVL=1
      00000E86H   SYMBOL    EDATA    BYTE      res
      00000D5DH   SYMBOL    EDATA    BYTE      dwon_count
      ---         BLOCKEND  ---      ---       LVL=1
      00FF8746H   LINE      CODE     ---       #22
      00FF8748H   LINE      CODE     ---       #23
      00FF8748H   LINE      CODE     ---       #26
      00FF874DH   LINE      CODE     ---       #28
      00FF8750H   LINE      CODE     ---       #29
      00FF8755H   LINE      CODE     ---       #30
      00FF8755H   LINE      CODE     ---       #31
      00FF875AH   LINE      CODE     ---       #33
      00FF875DH   LINE      CODE     ---       #34
      00FF8763H   LINE      CODE     ---       #36
      00FF8768H   LINE      CODE     ---       #38
      00FF877AH   LINE      CODE     ---       #39
      00FF877EH   LINE      CODE     ---       #40
      00FF8780H   LINE      CODE     ---       #43
      00FF8785H   LINE      CODE     ---       #44
      00FF8785H   LINE      CODE     ---       #45
      ---         BLOCKEND  ---      ---       LVL=0

      00FF8B56H   BLOCK     CODE     ---       LVL=0
      00FF8B56H   LINE      CODE     ---       #49
      00FF8B58H   LINE      CODE     ---       #51
L251 LINKER/LOCATER V4.66.93.0                                                        04/10/2024  19:22:09  PAGE 96


      00FF8B5DH   LINE      CODE     ---       #53
      00FF8B60H   LINE      CODE     ---       #54
      00FF8B65H   LINE      CODE     ---       #55
      00FF8B65H   LINE      CODE     ---       #56
      00FF8B6AH   LINE      CODE     ---       #58
      00FF8B6DH   LINE      CODE     ---       #61
      ---         BLOCKEND  ---      ---       LVL=0

      00FF8B70H   BLOCK     CODE     ---       LVL=0
      00FF8B70H   LINE      CODE     ---       #66
      00FF8B72H   LINE      CODE     ---       #68
      00FF8B77H   LINE      CODE     ---       #70
      00FF8B7AH   LINE      CODE     ---       #71
      00FF8B7FH   LINE      CODE     ---       #72
      00FF8B7FH   LINE      CODE     ---       #73
      00FF8B84H   LINE      CODE     ---       #75
      00FF8B87H   LINE      CODE     ---       #78
      ---         BLOCKEND  ---      ---       LVL=0

      00FF82EFH   BLOCK     CODE     ---       LVL=0
      00FF82EFH   LINE      CODE     ---       #83
      00FF8303H   LINE      CODE     ---       #85
      00FF8306H   LINE      CODE     ---       #86
      00FF830BH   LINE      CODE     ---       #88
      00FF830EH   LINE      CODE     ---       #89
      00FF8313H   LINE      CODE     ---       #90
      00FF8313H   LINE      CODE     ---       #91
      00FF8318H   LINE      CODE     ---       #93
      00FF831BH   LINE      CODE     ---       #95
      00FF8327H   LINE      CODE     ---       #97
      00FF832AH   LINE      CODE     ---       #98
      00FF832CH   LINE      CODE     ---       #99
      00FF8338H   LINE      CODE     ---       #101
      00FF833BH   LINE      CODE     ---       #102
      00FF833BH   LINE      CODE     ---       #105
      ---         BLOCKEND  ---      ---       LVL=0

      00FF008EH   BLOCK     CODE     ---       LVL=0
      00FF008EH   LINE      CODE     ---       #108
      00FF008EH   LINE      CODE     ---       #110
      00FF0091H   LINE      CODE     ---       #111
      ---         BLOCKEND  ---      ---       LVL=0

      00FF000AH   BLOCK     CODE     ---       LVL=0
      00FF000AH   LINE      CODE     ---       #112
      00FF000AH   LINE      CODE     ---       #115
      ---         BLOCKEND  ---      ---       LVL=0

      00FF0096H   BLOCK     CODE     ---       LVL=0
      00FF0096H   LINE      CODE     ---       #116
      00FF0096H   LINE      CODE     ---       #118
      00FF0099H   LINE      CODE     ---       #119
      ---         BLOCKEND  ---      ---       LVL=0

      00FF009EH   BLOCK     CODE     ---       LVL=0
      00FF009EH   LINE      CODE     ---       #120
      00FF009EH   LINE      CODE     ---       #122
      00FF00A1H   LINE      CODE     ---       #123
      ---         BLOCKEND  ---      ---       LVL=0

      00FF8C27H   BLOCK     CODE     ---       LVL=0
      00FF8C27H   LINE      CODE     ---       #125
      00FF8C27H   LINE      CODE     ---       #127
      00FF8C2AH   LINE      CODE     ---       #128
      ---         BLOCKEND  ---      ---       LVL=0
L251 LINKER/LOCATER V4.66.93.0                                                        04/10/2024  19:22:09  PAGE 97



      00FF8B8AH   BLOCK     CODE     ---       LVL=0
      00FF8B8AH   LINE      CODE     ---       #130
      00FF8B8EH   LINE      CODE     ---       #132
      00FF8B9CH   LINE      CODE     ---       #133
      ---         BLOCKEND  ---      ---       LVL=0

      00FF8C11H   BLOCK     CODE     ---       LVL=0
      00FF8C11H   LINE      CODE     ---       #134
      00FF8C11H   LINE      CODE     ---       #136
      00FF8C1AH   LINE      CODE     ---       #137
      ---         BLOCKEND  ---      ---       LVL=0

      00FF8C2BH   BLOCK     CODE     ---       LVL=0
      00FF8C2BH   LINE      CODE     ---       #138
      00FF8C2BH   LINE      CODE     ---       #140
      00FF8C2EH   LINE      CODE     ---       #142
      ---         BLOCKEND  ---      ---       LVL=0

      00FF8C2FH   BLOCK     CODE     ---       LVL=0
      00FF8C2FH   LINE      CODE     ---       #143
      00FF8C2FH   LINE      CODE     ---       #145
      00FF8C32H   LINE      CODE     ---       #147
      ---         BLOCKEND  ---      ---       LVL=0

      ---         MODULE    ---      ---       main
      00FF7509H   PUBLIC    CODE     ---       main
      00000DB6H   PUBLIC    EDATA    INT       flag
      00000DB8H   PUBLIC    EDATA    INT       menu
      000000D0H   SFRSYM    DATA     BYTE      PSW
      0000009DH   SFRSYM    DATA     BYTE      IRCBAND
      00000097H   SFRSYM    DATA     BYTE      AUXR2
      000000EFH   SFRSYM    DATA     BYTE      AUXINTIF
      000000FDH   SFRSYM    DATA     BYTE      S4CON
      000000ACH   SFRSYM    DATA     BYTE      S3CON
      0000009AH   SFRSYM    DATA     BYTE      S2CON
      000000B7H   SFRSYM    DATA     BYTE      IPH
      000000CDH   SFRSYM    DATA     BYTE      SPSTAT
      000000DDH   SFRSYM    DATA     BYTE      T4T3M
      000000C1H   SFRSYM    DATA     BYTE      WDT_CONTR
      000000DFH   SFRSYM    DATA     BYTE      IP3
      000000F4H   SFRSYM    DATA     BYTE      USBCON
      000000B5H   SFRSYM    DATA     BYTE      IP2
      000000FFH   SFRSYM    DATA     BYTE      RSTCFG
      000000C7H   SFRSYM    DATA     BYTE      IAP_CONTR
      000000F9H   SFRSYM    DATA     BYTE      LINICR
      0000008EH   SFRSYM    DATA     BYTE      AUXR
      000000AFH   SFRSYM    DATA     BYTE      IE2
      00000088H   SFRSYM    DATA     BYTE      TCON
      00000089H   SFRSYM    DATA     BYTE      TMOD
      00000098H   SFRSYM    DATA     BYTE      SCON
      000000F1H   SFRSYM    DATA     BYTE      CANICR
      00000087H   SFRSYM    DATA     BYTE      PCON
      000000BCH   SFRSYM    DATA     BYTE      ADC_CONTR
      000000E7H   SFRSYM    DATA     BYTE      CMPCR2
      000000E6H   SFRSYM    DATA     BYTE      CMPCR1
      000000DEH   SFRSYM    DATA     BYTE      ADCCFG
      000000B8H   SFRSYM    DATA     BYTE      IP
      0000008FH   SFRSYM    DATA     BYTE      INTCLKO
      000000EEH   SFRSYM    DATA     BYTE      IP3H
      000000B6H   SFRSYM    DATA     BYTE      IP2H
      000000A8H   SFRSYM    DATA     BYTE      IE
      000000BBH   SFRSYM    DATA     BYTE      P_SW3
      000000BAH   SFRSYM    DATA     BYTE      P_SW2
      000000A2H   SFRSYM    DATA     BYTE      P_SW1
L251 LINKER/LOCATER V4.66.93.0                                                        04/10/2024  19:22:09  PAGE 98


      000000CEH   SFRSYM    DATA     BYTE      SPCTL
      000000F8H   SFRSYM    DATA     BYTE      P7
      000000E8H   SFRSYM    DATA     BYTE      P6
      000000C8H   SFRSYM    DATA     BYTE      P5
      000000C0H   SFRSYM    DATA     BYTE      P4
      000000B0H   SFRSYM    DATA     BYTE      P3
      000000A0H   SFRSYM    DATA     BYTE      P2
      00000090H   SFRSYM    DATA     BYTE      P1
      00000080H   SFRSYM    DATA     BYTE      P0

      00FF7509H   BLOCK     CODE     ---       LVL=0
      00000E5FH   SYMBOL    EDATA    INT       i
      00FF7509H   LINE      CODE     ---       #33
      00FF7509H   LINE      CODE     ---       #34
      00FF7509H   LINE      CODE     ---       #35
      00FF750FH   LINE      CODE     ---       #36
      00FF751AH   LINE      CODE     ---       #37
      00FF751DH   LINE      CODE     ---       #39
      00FF7520H   LINE      CODE     ---       #40
      00FF753BH   LINE      CODE     ---       #42
      00FF753EH   LINE      CODE     ---       #43
      00FF7542H   LINE      CODE     ---       #44
      00FF7545H   LINE      CODE     ---       #45
      00FF7548H   LINE      CODE     ---       #46
      00FF754BH   LINE      CODE     ---       #47
      00FF755CH   LINE      CODE     ---       #49
      00FF755CH   LINE      CODE     ---       #51
      00FF755FH   LINE      CODE     ---       #52
      00FF7566H   LINE      CODE     ---       #53
      00FF7575H   LINE      CODE     ---       #54
      00FF7584H   LINE      CODE     ---       #55
      00FF7593H   LINE      CODE     ---       #56
      00FF75A2H   LINE      CODE     ---       #57
      00FF75B1H   LINE      CODE     ---       #58
      00FF75BDH   LINE      CODE     ---       #59
      00FF75C5H   LINE      CODE     ---       #60
      00FF75DCH   LINE      CODE     ---       #61
      00FF75E8H   LINE      CODE     ---       #63
      00FF75EBH   LINE      CODE     ---       #64
      00FF75F1H   LINE      CODE     ---       #65
      00FF75F1H   LINE      CODE     ---       #66
      00FF75F7H   LINE      CODE     ---       #67
      00FF75FAH   LINE      CODE     ---       #69
      ---         BLOCKEND  ---      ---       LVL=0

      ---         MODULE    ---      ---       Inductance
      00FF4C4EH   PUBLIC    CODE     ---       NORMALIZATION_TRACKING_ADC
      00FF708BH   PUBLIC    CODE     ---       show_val
      00FF87C7H   PUBLIC    CODE     ---       Inductance_Init
      00000008H   PUBLIC    EDATA    WORD      R3_NOR_ADC
      0000000AH   PUBLIC    EDATA    WORD      L3
      0000000CH   PUBLIC    EDATA    WORD      R1
      0000000EH   PUBLIC    EDATA    WORD      R2
      00000010H   PUBLIC    EDATA    WORD      R3
      00000012H   PUBLIC    EDATA    WORD      Right_Val
      00000014H   PUBLIC    EDATA    ---       ADC_MIN
      00000022H   PUBLIC    EDATA    ---       ADC_MAX
      00000030H   PUBLIC    EDATA    WORD      Left_Val
      00000032H   PUBLIC    EDATA    ---       AD_NOR_VAL
      0000004EH   PUBLIC    EDATA    ---       NOR_VAL
      0000006AH   PUBLIC    EDATA    INT       bug
      0000006CH   PUBLIC    EDATA    INT       ad_diff
      0000006EH   PUBLIC    EDATA    ---       ad_value
      000000FAH   PUBLIC    EDATA    INT       Inductance_Error
      000000FCH   PUBLIC    EDATA    WORD      L1_NOR_ADC
L251 LINKER/LOCATER V4.66.93.0                                                        04/10/2024  19:22:09  PAGE 99


      000000FEH   PUBLIC    EDATA    WORD      M1_NOR_ADC
      00000100H   PUBLIC    EDATA    WORD      L2_NOR_ADC
      00000102H   PUBLIC    EDATA    WORD      L3_NOR_ADC
      00000104H   PUBLIC    EDATA    INT       ad_sum
      00000106H   PUBLIC    EDATA    WORD      R1_NOR_ADC
      00000108H   PUBLIC    EDATA    WORD      L1
      0000010AH   PUBLIC    EDATA    WORD      R2_NOR_ADC
      0000010CH   PUBLIC    EDATA    WORD      M1
      0000010EH   PUBLIC    EDATA    WORD      L2
      000000D0H   SFRSYM    DATA     BYTE      PSW
      0000009DH   SFRSYM    DATA     BYTE      IRCBAND
      00000097H   SFRSYM    DATA     BYTE      AUXR2
      000000EFH   SFRSYM    DATA     BYTE      AUXINTIF
      000000FDH   SFRSYM    DATA     BYTE      S4CON
      000000ACH   SFRSYM    DATA     BYTE      S3CON
      0000009AH   SFRSYM    DATA     BYTE      S2CON
      000000B7H   SFRSYM    DATA     BYTE      IPH
      000000CDH   SFRSYM    DATA     BYTE      SPSTAT
      000000DDH   SFRSYM    DATA     BYTE      T4T3M
      000000C1H   SFRSYM    DATA     BYTE      WDT_CONTR
      000000DFH   SFRSYM    DATA     BYTE      IP3
      000000F4H   SFRSYM    DATA     BYTE      USBCON
      000000B5H   SFRSYM    DATA     BYTE      IP2
      000000FFH   SFRSYM    DATA     BYTE      RSTCFG
      000000C7H   SFRSYM    DATA     BYTE      IAP_CONTR
      000000F9H   SFRSYM    DATA     BYTE      LINICR
      0000008EH   SFRSYM    DATA     BYTE      AUXR
      000000AFH   SFRSYM    DATA     BYTE      IE2
      00000088H   SFRSYM    DATA     BYTE      TCON
      00000089H   SFRSYM    DATA     BYTE      TMOD
      00000098H   SFRSYM    DATA     BYTE      SCON
      000000F1H   SFRSYM    DATA     BYTE      CANICR
      00000087H   SFRSYM    DATA     BYTE      PCON
      000000BCH   SFRSYM    DATA     BYTE      ADC_CONTR
      000000E7H   SFRSYM    DATA     BYTE      CMPCR2
      000000E6H   SFRSYM    DATA     BYTE      CMPCR1
      000000DEH   SFRSYM    DATA     BYTE      ADCCFG
      000000B8H   SFRSYM    DATA     BYTE      IP
      0000008FH   SFRSYM    DATA     BYTE      INTCLKO
      000000EEH   SFRSYM    DATA     BYTE      IP3H
      000000B6H   SFRSYM    DATA     BYTE      IP2H
      000000A8H   SFRSYM    DATA     BYTE      IE
      000000BBH   SFRSYM    DATA     BYTE      P_SW3
      000000BAH   SFRSYM    DATA     BYTE      P_SW2
      000000A2H   SFRSYM    DATA     BYTE      P_SW1
      000000CEH   SFRSYM    DATA     BYTE      SPCTL
      000000F8H   SFRSYM    DATA     BYTE      P7
      000000E8H   SFRSYM    DATA     BYTE      P6
      000000C8H   SFRSYM    DATA     BYTE      P5
      000000C0H   SFRSYM    DATA     BYTE      P4
      000000B0H   SFRSYM    DATA     BYTE      P3
      000000A0H   SFRSYM    DATA     BYTE      P2
      00000090H   SFRSYM    DATA     BYTE      P1
      00000080H   SFRSYM    DATA     BYTE      P0
      00FF9144H   SYMBOL    HCONST   ---       ?tpl?0001
      00FF9152H   SYMBOL    HCONST   ---       ?tpl?0002

      00FF87C7H   BLOCK     CODE     ---       LVL=0
      00FF87C7H   LINE      CODE     ---       #32
      00FF87C7H   LINE      CODE     ---       #34
      00FF87D0H   LINE      CODE     ---       #35
      00FF87D7H   LINE      CODE     ---       #36
      00FF87E0H   LINE      CODE     ---       #37
      00FF87E9H   LINE      CODE     ---       #38
      00FF87F2H   LINE      CODE     ---       #39
L251 LINKER/LOCATER V4.66.93.0                                                        04/10/2024  19:22:09  PAGE 100


      00FF87FBH   LINE      CODE     ---       #40
      00FF8804H   LINE      CODE     ---       #41
      ---         BLOCKEND  ---      ---       LVL=0

      00FF4C4EH   BLOCK     CODE     ---       LVL=0
      000006D7H   SYMBOL    EDATA    FLOAT     I1
      000006DBH   SYMBOL    EDATA    FLOAT     I2
      00FF4C56H   BLOCK     CODE     NEAR LAB  LVL=1
      000006DFH   SYMBOL    EDATA    INT       i
      000006E1H   SYMBOL    EDATA    INT       j
      000006E3H   SYMBOL    EDATA    INT       k
      000006E5H   SYMBOL    EDATA    INT       temp
      000006E7H   SYMBOL    EDATA    ---       ad_sum1
      000006F5H   SYMBOL    EDATA    ---       ad_valu1
      ---         BLOCKEND  ---      ---       LVL=1
      00FF4C4EH   LINE      CODE     ---       #50
      00FF4C56H   LINE      CODE     ---       #51
      00FF4C56H   LINE      CODE     ---       #52
      00FF4C6EH   LINE      CODE     ---       #53
      00FF4C7FH   LINE      CODE     ---       #54
      00FF4C90H   LINE      CODE     ---       #55
      00FF4C99H   LINE      CODE     ---       #57
      00FF4CB3H   LINE      CODE     ---       #58
      00FF4CCBH   LINE      CODE     ---       #59
      00FF4CE5H   LINE      CODE     ---       #60
      00FF4CFFH   LINE      CODE     ---       #61
      00FF4D19H   LINE      CODE     ---       #62
      00FF4D33H   LINE      CODE     ---       #63
      00FF4D4DH   LINE      CODE     ---       #64
      00FF4D5AH   LINE      CODE     ---       #65
      00FF4D77H   LINE      CODE     ---       #68
      00FF4D80H   LINE      CODE     ---       #70
      00FF4D89H   LINE      CODE     ---       #72
      00FF4D92H   LINE      CODE     ---       #74
      00FF4DCEH   LINE      CODE     ---       #76
      00FF4DEFH   LINE      CODE     ---       #77
      00FF4E27H   LINE      CODE     ---       #78
      00FF4E46H   LINE      CODE     ---       #79
      00FF4E69H   LINE      CODE     ---       #81
      00FF4E86H   LINE      CODE     ---       #82
      00FF4EA3H   LINE      CODE     ---       #85
      00FF4EACH   LINE      CODE     ---       #87
      00FF4EB4H   LINE      CODE     ---       #89
      00FF4EE5H   LINE      CODE     ---       #90
      00FF4EFFH   LINE      CODE     ---       #91
      00FF4F26H   LINE      CODE     ---       #92
      00FF4F43H   LINE      CODE     ---       #95
      00FF4F4BH   LINE      CODE     ---       #96
      00FF4F53H   LINE      CODE     ---       #97
      00FF4F5BH   LINE      CODE     ---       #98
      00FF4F63H   LINE      CODE     ---       #99
      00FF4F6BH   LINE      CODE     ---       #100
      00FF4F73H   LINE      CODE     ---       #101
      00FF4F7BH   LINE      CODE     ---       #107
      00FF4FA0H   LINE      CODE     ---       #108
      00FF4FC5H   LINE      CODE     ---       #109
      00FF4FEAH   LINE      CODE     ---       #110
      00FF500FH   LINE      CODE     ---       #111
      00FF5034H   LINE      CODE     ---       #112
      00FF5059H   LINE      CODE     ---       #113
      00FF507EH   LINE      CODE     ---       #115
      00FF5087H   LINE      CODE     ---       #117
      00FF50A3H   LINE      CODE     ---       #119
      00FF50C0H   LINE      CODE     ---       #120
      00FF50C0H   LINE      CODE     ---       #121
L251 LINKER/LOCATER V4.66.93.0                                                        04/10/2024  19:22:09  PAGE 101


      00FF50E0H   LINE      CODE     ---       #123
      00FF50FBH   LINE      CODE     ---       #124
      00FF50FBH   LINE      CODE     ---       #125
      00FF5130H   LINE      CODE     ---       #126
      00FF514DH   LINE      CODE     ---       #129
      00FF5158H   LINE      CODE     ---       #130
      00FF5163H   LINE      CODE     ---       #131
      00FF516EH   LINE      CODE     ---       #132
      00FF5179H   LINE      CODE     ---       #133
      00FF5184H   LINE      CODE     ---       #134
      00FF518FH   LINE      CODE     ---       #135
      00FF519AH   LINE      CODE     ---       #137
      00FF51B2H   LINE      CODE     ---       #138
      00FF51CAH   LINE      CODE     ---       #139
      00FF51E2H   LINE      CODE     ---       #140
      00FF51FAH   LINE      CODE     ---       #141
      00FF5220H   LINE      CODE     ---       #142
      00FF5246H   LINE      CODE     ---       #143
      00FF5254H   LINE      CODE     ---       #144
      00FF5262H   LINE      CODE     ---       #145
      00FF526EH   LINE      CODE     ---       #147
      00FF5291H   LINE      CODE     ---       #148
      00FF5291H   LINE      CODE     ---       #150
      00FF5295H   LINE      CODE     ---       #151
      ---         BLOCKEND  ---      ---       LVL=0

      00FF708BH   BLOCK     CODE     ---       LVL=0
      00FF708BH   LINE      CODE     ---       #159
      00FF708BH   LINE      CODE     ---       #162
      00FF7099H   LINE      CODE     ---       #163
      00FF70A4H   LINE      CODE     ---       #165
      00FF70B3H   LINE      CODE     ---       #166
      00FF70BEH   LINE      CODE     ---       #168
      00FF70CDH   LINE      CODE     ---       #169
      00FF70D9H   LINE      CODE     ---       #171
      00FF70E9H   LINE      CODE     ---       #172
      00FF70F5H   LINE      CODE     ---       #174
      00FF7104H   LINE      CODE     ---       #175
      00FF7110H   LINE      CODE     ---       #177
      00FF7120H   LINE      CODE     ---       #178
      00FF712CH   LINE      CODE     ---       #180
      00FF713BH   LINE      CODE     ---       #181
      00FF7147H   LINE      CODE     ---       #183
      00FF7157H   LINE      CODE     ---       #184
      00FF7163H   LINE      CODE     ---       #187
      00FF7172H   LINE      CODE     ---       #188
      00FF718AH   LINE      CODE     ---       #189
      00FF7195H   LINE      CODE     ---       #190
      00FF71A1H   LINE      CODE     ---       #191
      00FF71ACH   LINE      CODE     ---       #192
      00FF71B8H   LINE      CODE     ---       #200
      ---         BLOCKEND  ---      ---       LVL=0

      ---         MODULE    ---      ---       Motor
      00FF88B7H   PUBLIC    CODE     ---       Motor_Init
      00FF86B2H   PUBLIC    CODE     ---       Motor_SET_PID
      00FF887CH   PUBLIC    CODE     ---       limit
      00FF77C2H   PUBLIC    CODE     ---       Speed_pid_Out
      00FF7F8FH   PUBLIC    CODE     ---       Motor_PWM
      000003E8H   PUBLIC    EDATA    ---       Motor_pid
      00000410H   PUBLIC    EDATA    FLOAT     Motor_I
      00000414H   PUBLIC    EDATA    FLOAT     Motor_P
      00000A38H   PUBLIC    EDATA    BYTE      ?Motor_SET_PID?BYTE
      000000D0H   SFRSYM    DATA     BYTE      PSW
      0000009DH   SFRSYM    DATA     BYTE      IRCBAND
L251 LINKER/LOCATER V4.66.93.0                                                        04/10/2024  19:22:09  PAGE 102


      00000097H   SFRSYM    DATA     BYTE      AUXR2
      000000EFH   SFRSYM    DATA     BYTE      AUXINTIF
      000000FDH   SFRSYM    DATA     BYTE      S4CON
      000000ACH   SFRSYM    DATA     BYTE      S3CON
      0000009AH   SFRSYM    DATA     BYTE      S2CON
      000000B7H   SFRSYM    DATA     BYTE      IPH
      000000CDH   SFRSYM    DATA     BYTE      SPSTAT
      000000DDH   SFRSYM    DATA     BYTE      T4T3M
      000000C1H   SFRSYM    DATA     BYTE      WDT_CONTR
      000000DFH   SFRSYM    DATA     BYTE      IP3
      000000F4H   SFRSYM    DATA     BYTE      USBCON
      000000B5H   SFRSYM    DATA     BYTE      IP2
      000000FFH   SFRSYM    DATA     BYTE      RSTCFG
      000000C7H   SFRSYM    DATA     BYTE      IAP_CONTR
      000000F9H   SFRSYM    DATA     BYTE      LINICR
      0000008EH   SFRSYM    DATA     BYTE      AUXR
      000000AFH   SFRSYM    DATA     BYTE      IE2
      000000C8H.2 SFRSYM    DATA     BIT       P52
      000000C0H.2 SFRSYM    DATA     BIT       P42
      00000088H   SFRSYM    DATA     BYTE      TCON
      00000089H   SFRSYM    DATA     BYTE      TMOD
      00000098H   SFRSYM    DATA     BYTE      SCON
      000000F1H   SFRSYM    DATA     BYTE      CANICR
      00000087H   SFRSYM    DATA     BYTE      PCON
      000000BCH   SFRSYM    DATA     BYTE      ADC_CONTR
      00000080H.0 SFRSYM    DATA     BIT       P00
      000000E7H   SFRSYM    DATA     BYTE      CMPCR2
      000000E6H   SFRSYM    DATA     BYTE      CMPCR1
      000000DEH   SFRSYM    DATA     BYTE      ADCCFG
      000000B8H   SFRSYM    DATA     BYTE      IP
      0000008FH   SFRSYM    DATA     BYTE      INTCLKO
      000000EEH   SFRSYM    DATA     BYTE      IP3H
      000000B6H   SFRSYM    DATA     BYTE      IP2H
      000000A8H   SFRSYM    DATA     BYTE      IE
      000000BBH   SFRSYM    DATA     BYTE      P_SW3
      000000BAH   SFRSYM    DATA     BYTE      P_SW2
      000000A2H   SFRSYM    DATA     BYTE      P_SW1
      000000CEH   SFRSYM    DATA     BYTE      SPCTL
      000000F8H   SFRSYM    DATA     BYTE      P7
      000000E8H   SFRSYM    DATA     BYTE      P6
      000000C8H   SFRSYM    DATA     BYTE      P5
      000000C0H   SFRSYM    DATA     BYTE      P4
      000000B0H   SFRSYM    DATA     BYTE      P3
      000000A0H   SFRSYM    DATA     BYTE      P2
      00000090H   SFRSYM    DATA     BYTE      P1
      00000080H   SFRSYM    DATA     BYTE      P0

      00FF887CH   BLOCK     CODE     ---       LVL=0
      00000DBAH   SYMBOL    EDATA    INT       In
      00000DBCH   SYMBOL    EDATA    INT       limit
      00FF887CH   LINE      CODE     ---       #20
      00FF8884H   LINE      CODE     ---       #22
      00FF88B6H   LINE      CODE     ---       #23
      ---         BLOCKEND  ---      ---       LVL=0

      00FF88B7H   BLOCK     CODE     ---       LVL=0
      00FF88B7H   LINE      CODE     ---       #31
      00FF88B7H   LINE      CODE     ---       #33
      00FF88C2H   LINE      CODE     ---       #34
      00FF88CDH   LINE      CODE     ---       #37
      00FF88DEH   LINE      CODE     ---       #38
      00FF88EFH   LINE      CODE     ---       #39
      ---         BLOCKEND  ---      ---       LVL=0

      00FF7F8FH   BLOCK     CODE     ---       LVL=0
L251 LINKER/LOCATER V4.66.93.0                                                        04/10/2024  19:22:09  PAGE 103


      00000DBEH   SYMBOL    EDATA    INT       L_PWM
      00000DC0H   SYMBOL    EDATA    INT       R_PWM
      00FF7F8FH   LINE      CODE     ---       #48
      00FF7F97H   LINE      CODE     ---       #51
      00FF7FA1H   LINE      CODE     ---       #53
      00FF7FA4H   LINE      CODE     ---       #54
      00FF7FB8H   LINE      CODE     ---       #55
      00FF7FBAH   LINE      CODE     ---       #57
      00FF7FBDH   LINE      CODE     ---       #58
      00FF7FCCH   LINE      CODE     ---       #59
      00FF7FCCH   LINE      CODE     ---       #60
      00FF7FD6H   LINE      CODE     ---       #62
      00FF7FD9H   LINE      CODE     ---       #63
      00FF7FEDH   LINE      CODE     ---       #64
      00FF7FEFH   LINE      CODE     ---       #66
      00FF7FF2H   LINE      CODE     ---       #67
      00FF8001H   LINE      CODE     ---       #68
      00FF8001H   LINE      CODE     ---       #69
      ---         BLOCKEND  ---      ---       LVL=0

      00FF86B2H   BLOCK     CODE     ---       LVL=0
      00000A38H   SYMBOL    EDATA    FLOAT     Kp
      00000A3CH   SYMBOL    EDATA    FLOAT     Ki
      00000A40H   SYMBOL    EDATA    FLOAT     Kd
      00FF86B2H   LINE      CODE     ---       #77
      00FF86BAH   LINE      CODE     ---       #79
      00FF86C0H   LINE      CODE     ---       #80
      00FF86C6H   LINE      CODE     ---       #81
      00FF86CCH   LINE      CODE     ---       #82
      00FF86D2H   LINE      CODE     ---       #83
      00FF86D8H   LINE      CODE     ---       #84
      00FF86E0H   LINE      CODE     ---       #85
      00FF86E8H   LINE      CODE     ---       #86
      00FF86F0H   LINE      CODE     ---       #87
      00FF86F6H   LINE      CODE     ---       #88
      00FF86FCH   LINE      CODE     ---       #89
      ---         BLOCKEND  ---      ---       LVL=0

      00FF77C2H   BLOCK     CODE     ---       LVL=0
      00000A44H   SYMBOL    EDATA    INT       Target_Value
      00000A46H   SYMBOL    EDATA    INT       Actual_Value
      00FF77CAH   BLOCK     CODE     NEAR LAB  LVL=1
      00000A48H   SYMBOL    EDATA    FLOAT     Kp_Value
      00000418H   SYMBOL    EDATA    FLOAT     Ki_Value
      0000041CH   SYMBOL    EDATA    FLOAT     Kd_Value
      00000A4CH   SYMBOL    EDATA    FLOAT     MOTOR_PWM
      ---         BLOCKEND  ---      ---       LVL=1
      00FF77C2H   LINE      CODE     ---       #97
      00FF77CAH   LINE      CODE     ---       #98
      00FF77CAH   LINE      CODE     ---       #99
      00FF77D0H   LINE      CODE     ---       #102
      00FF77D6H   LINE      CODE     ---       #104
      00FF77E9H   LINE      CODE     ---       #105
      00FF77F7H   LINE      CODE     ---       #107
      00FF77FDH   LINE      CODE     ---       #108
      00FF7803H   LINE      CODE     ---       #109
      00FF7803H   LINE      CODE     ---       #111
      00FF7812H   LINE      CODE     ---       #113
      00FF7821H   LINE      CODE     ---       #114
      00FF783AH   LINE      CODE     ---       #115
      00FF7853H   LINE      CODE     ---       #117
      00FF785BH   LINE      CODE     ---       #118
      00FF7863H   LINE      CODE     ---       #120
      00FF787BH   LINE      CODE     ---       #121
      00FF788AH   LINE      CODE     ---       #122
L251 LINKER/LOCATER V4.66.93.0                                                        04/10/2024  19:22:09  PAGE 104


      00FF789FH   LINE      CODE     ---       #123
      00FF78A2H   LINE      CODE     ---       #124
      ---         BLOCKEND  ---      ---       LVL=0
      00000E61H   SYMBOL    EDATA    INT       time

      ---         MODULE    ---      ---       encoder
      00FF898DH   PUBLIC    CODE     ---       Encoder_Time_Init
      00FF8AF9H   PUBLIC    CODE     ---       L_Encoder_Pulse
      00FF8A8BH   PUBLIC    CODE     ---       R_Encoder_Pulse
      00FF846AH   PUBLIC    CODE     ---       TM4_Isr
      000007AEH   PUBLIC    EDATA    INT       nh_out
      000007B0H   PUBLIC    EDATA    INT       speed
      000007B2H   PUBLIC    EDATA    INT       Sum_Pulse
      000007B4H   PUBLIC    EDATA    INT       L_Pulse
      000007B6H   PUBLIC    EDATA    FLOAT     angle1
      000007BAH   PUBLIC    EDATA    INT       R_Pulse
      000007BCH   PUBLIC    EDATA    INT       dir_out
      000000D0H   SFRSYM    DATA     BYTE      PSW
      0000009DH   SFRSYM    DATA     BYTE      IRCBAND
      00000097H   SFRSYM    DATA     BYTE      AUXR2
      000000EFH   SFRSYM    DATA     BYTE      AUXINTIF
      000000FDH   SFRSYM    DATA     BYTE      S4CON
      000000ACH   SFRSYM    DATA     BYTE      S3CON
      0000009AH   SFRSYM    DATA     BYTE      S2CON
      000000B7H   SFRSYM    DATA     BYTE      IPH
      000000CDH   SFRSYM    DATA     BYTE      SPSTAT
      000000DDH   SFRSYM    DATA     BYTE      T4T3M
      000000C1H   SFRSYM    DATA     BYTE      WDT_CONTR
      000000DFH   SFRSYM    DATA     BYTE      IP3
      000000F4H   SFRSYM    DATA     BYTE      USBCON
      000000B5H   SFRSYM    DATA     BYTE      IP2
      000000FFH   SFRSYM    DATA     BYTE      RSTCFG
      000000C7H   SFRSYM    DATA     BYTE      IAP_CONTR
      000000F9H   SFRSYM    DATA     BYTE      LINICR
      0000008EH   SFRSYM    DATA     BYTE      AUXR
      000000AFH   SFRSYM    DATA     BYTE      IE2
      00000090H.6 SFRSYM    DATA     BIT       P16
      00000088H   SFRSYM    DATA     BYTE      TCON
      00000089H   SFRSYM    DATA     BYTE      TMOD
      000000C8H.0 SFRSYM    DATA     BIT       P50
      00000098H   SFRSYM    DATA     BYTE      SCON
      000000F1H   SFRSYM    DATA     BYTE      CANICR
      00000087H   SFRSYM    DATA     BYTE      PCON
      000000BCH   SFRSYM    DATA     BYTE      ADC_CONTR
      000000E7H   SFRSYM    DATA     BYTE      CMPCR2
      000000E6H   SFRSYM    DATA     BYTE      CMPCR1
      000000DEH   SFRSYM    DATA     BYTE      ADCCFG
      000000B8H   SFRSYM    DATA     BYTE      IP
      0000008FH   SFRSYM    DATA     BYTE      INTCLKO
      000000EEH   SFRSYM    DATA     BYTE      IP3H
      000000B6H   SFRSYM    DATA     BYTE      IP2H
      000000A8H   SFRSYM    DATA     BYTE      IE
      000000BBH   SFRSYM    DATA     BYTE      P_SW3
      000000BAH   SFRSYM    DATA     BYTE      P_SW2
      000000A2H   SFRSYM    DATA     BYTE      P_SW1
      000000CEH   SFRSYM    DATA     BYTE      SPCTL
      000000F8H   SFRSYM    DATA     BYTE      P7
      000000E8H   SFRSYM    DATA     BYTE      P6
      000000C8H   SFRSYM    DATA     BYTE      P5
      000000C0H   SFRSYM    DATA     BYTE      P4
      000000B0H   SFRSYM    DATA     BYTE      P3
      000000A0H   SFRSYM    DATA     BYTE      P2
      00000090H   SFRSYM    DATA     BYTE      P1
      00000080H   SFRSYM    DATA     BYTE      P0

L251 LINKER/LOCATER V4.66.93.0                                                        04/10/2024  19:22:09  PAGE 105


      00FF898DH   BLOCK     CODE     ---       LVL=0
      00FF898DH   LINE      CODE     ---       #15
      00FF898DH   LINE      CODE     ---       #17
      00FF8998H   LINE      CODE     ---       #18
      00FF89A1H   LINE      CODE     ---       #19
      00FF89ACH   LINE      CODE     ---       #20
      00FF89B1H   LINE      CODE     ---       #21
      00FF89B8H   LINE      CODE     ---       #22
      00FF89BBH   LINE      CODE     ---       #23
      ---         BLOCKEND  ---      ---       LVL=0

      00FF8AF9H   BLOCK     CODE     ---       LVL=0
      00FF8AF9H   LINE      CODE     ---       #31
      00FF8AF9H   LINE      CODE     ---       #33
      00FF8B02H   LINE      CODE     ---       #35
      00FF8B0BH   LINE      CODE     ---       #36
      00FF8B0DH   LINE      CODE     ---       #39
      00FF8B16H   LINE      CODE     ---       #40
      00FF8B16H   LINE      CODE     ---       #41
      00FF8B1AH   LINE      CODE     ---       #42
      ---         BLOCKEND  ---      ---       LVL=0

      00FF8A8BH   BLOCK     CODE     ---       LVL=0
      00FF8A8BH   LINE      CODE     ---       #49
      00FF8A8BH   LINE      CODE     ---       #51
      00FF8A94H   LINE      CODE     ---       #53
      00FF8A9FH   LINE      CODE     ---       #55
      00FF8AA1H   LINE      CODE     ---       #58
      00FF8AACH   LINE      CODE     ---       #59
      00FF8AACH   LINE      CODE     ---       #60
      00FF8AB0H   LINE      CODE     ---       #61
      ---         BLOCKEND  ---      ---       LVL=0
      00000E63H   SYMBOL    EDATA    INT       L_target
      000007BEH   SYMBOL    EDATA    INT       L
      000007C0H   SYMBOL    EDATA    INT       L_flag
      00000E65H   SYMBOL    EDATA    INT       R_target
      000007C2H   SYMBOL    EDATA    INT       R
      000007C4H   SYMBOL    EDATA    INT       R_flag

      00FF846AH   BLOCK     CODE     ---       LVL=0
      00FF847EH   BLOCK     CODE     NEAR LAB  LVL=1
      000007C6H   SYMBOL    EDATA    INT       count
      ---         BLOCKEND  ---      ---       LVL=1
      00FF846AH   LINE      CODE     ---       #113
      00FF847EH   LINE      CODE     ---       #114
      00FF847EH   LINE      CODE     ---       #116
      00FF8485H   LINE      CODE     ---       #117
      00FF848CH   LINE      CODE     ---       #118
      00FF849BH   LINE      CODE     ---       #122
      00FF84A2H   LINE      CODE     ---       #123
      00FF84A7H   LINE      CODE     ---       #124
      00FF84AEH   LINE      CODE     ---       #125
      00FF84B1H   LINE      CODE     ---       #126
      ---         BLOCKEND  ---      ---       LVL=0

      ---         MODULE    ---      ---       direction
      00FF821EH   PUBLIC    CODE     ---       wh_Turn_Out
      00FF84C6H   PUBLIC    CODE     ---       DirControl
      00FF7DA9H   PUBLIC    CODE     ---       nh_Turn_Out
      00000703H   PUBLIC    EDATA    FLOAT     Nh_D
      00000707H   PUBLIC    EDATA    FLOAT     Wh_D
      0000070BH   PUBLIC    EDATA    FLOAT     Nh_P
      0000070FH   PUBLIC    EDATA    FLOAT     Wh_P
      00000816H   PUBLIC    EDATA    BYTE      ?wh_Turn_Out?BYTE
      0000082CH   PUBLIC    EDATA    BYTE      ?nh_Turn_Out?BYTE
L251 LINKER/LOCATER V4.66.93.0                                                        04/10/2024  19:22:09  PAGE 106


      00000772H   PUBLIC    EDATA    BYTE      ?Angle_Ring?BYTE
      000007C8H   PUBLIC    EDATA    BYTE      ?DirControl_2?BYTE
      000000D0H   SFRSYM    DATA     BYTE      PSW
      0000009DH   SFRSYM    DATA     BYTE      IRCBAND
      00000097H   SFRSYM    DATA     BYTE      AUXR2
      000000EFH   SFRSYM    DATA     BYTE      AUXINTIF
      000000FDH   SFRSYM    DATA     BYTE      S4CON
      000000ACH   SFRSYM    DATA     BYTE      S3CON
      0000009AH   SFRSYM    DATA     BYTE      S2CON
      000000B7H   SFRSYM    DATA     BYTE      IPH
      000000CDH   SFRSYM    DATA     BYTE      SPSTAT
      000000DDH   SFRSYM    DATA     BYTE      T4T3M
      000000C1H   SFRSYM    DATA     BYTE      WDT_CONTR
      000000DFH   SFRSYM    DATA     BYTE      IP3
      000000F4H   SFRSYM    DATA     BYTE      USBCON
      000000B5H   SFRSYM    DATA     BYTE      IP2
      000000FFH   SFRSYM    DATA     BYTE      RSTCFG
      000000C7H   SFRSYM    DATA     BYTE      IAP_CONTR
      000000F9H   SFRSYM    DATA     BYTE      LINICR
      0000008EH   SFRSYM    DATA     BYTE      AUXR
      000000AFH   SFRSYM    DATA     BYTE      IE2
      00000088H   SFRSYM    DATA     BYTE      TCON
      00000089H   SFRSYM    DATA     BYTE      TMOD
      00000098H   SFRSYM    DATA     BYTE      SCON
      000000F1H   SFRSYM    DATA     BYTE      CANICR
      00000087H   SFRSYM    DATA     BYTE      PCON
      000000BCH   SFRSYM    DATA     BYTE      ADC_CONTR
      000000E7H   SFRSYM    DATA     BYTE      CMPCR2
      000000E6H   SFRSYM    DATA     BYTE      CMPCR1
      000000DEH   SFRSYM    DATA     BYTE      ADCCFG
      000000B8H   SFRSYM    DATA     BYTE      IP
      0000008FH   SFRSYM    DATA     BYTE      INTCLKO
      000000EEH   SFRSYM    DATA     BYTE      IP3H
      000000B6H   SFRSYM    DATA     BYTE      IP2H
      000000A8H   SFRSYM    DATA     BYTE      IE
      000000BBH   SFRSYM    DATA     BYTE      P_SW3
      000000BAH   SFRSYM    DATA     BYTE      P_SW2
      000000A2H   SFRSYM    DATA     BYTE      P_SW1
      000000CEH   SFRSYM    DATA     BYTE      SPCTL
      000000F8H   SFRSYM    DATA     BYTE      P7
      000000E8H   SFRSYM    DATA     BYTE      P6
      000000C8H   SFRSYM    DATA     BYTE      P5
      000000C0H   SFRSYM    DATA     BYTE      P4
      000000B0H   SFRSYM    DATA     BYTE      P3
      000000A0H   SFRSYM    DATA     BYTE      P2
      00000090H   SFRSYM    DATA     BYTE      P1
      00000080H   SFRSYM    DATA     BYTE      P0

      00FF821EH   BLOCK     CODE     ---       LVL=0
      00000816H   SYMBOL    EDATA    INT       chazhi
      00000818H   SYMBOL    EDATA    FLOAT     dir_p
      0000081CH   SYMBOL    EDATA    FLOAT     dir_d
      00FF8226H   BLOCK     CODE     NEAR LAB  LVL=1
      00000820H   SYMBOL    EDATA    FLOAT     error
      00000713H   SYMBOL    EDATA    FLOAT     last_error
      00000824H   SYMBOL    EDATA    FLOAT     Output
      00000828H   SYMBOL    EDATA    FLOAT     error_derivative
      ---         BLOCKEND  ---      ---       LVL=1
      00FF821EH   LINE      CODE     ---       #24
      00FF8226H   LINE      CODE     ---       #25
      00FF8226H   LINE      CODE     ---       #31
      00FF8233H   LINE      CODE     ---       #33
      00FF8242H   LINE      CODE     ---       #35
      00FF8263H   LINE      CODE     ---       #37
      00FF826BH   LINE      CODE     ---       #39
L251 LINKER/LOCATER V4.66.93.0                                                        04/10/2024  19:22:09  PAGE 107


      00FF8284H   LINE      CODE     ---       #40
      00FF8287H   LINE      CODE     ---       #41
      ---         BLOCKEND  ---      ---       LVL=0

      00FF7DA9H   BLOCK     CODE     ---       LVL=0
      0000082CH   SYMBOL    EDATA    INT       err
      0000082EH   SYMBOL    EDATA    FLOAT     dir_p
      00000832H   SYMBOL    EDATA    FLOAT     dir_d
      00FF7DB1H   BLOCK     CODE     NEAR LAB  LVL=1
      00000836H   SYMBOL    EDATA    FLOAT     error
      00000717H   SYMBOL    EDATA    FLOAT     last_error
      0000083AH   SYMBOL    EDATA    FLOAT     Output
      0000083EH   SYMBOL    EDATA    FLOAT     error_derivative
      ---         BLOCKEND  ---      ---       LVL=1
      00FF7DA9H   LINE      CODE     ---       #49
      00FF7DB1H   LINE      CODE     ---       #50
      00FF7DB1H   LINE      CODE     ---       #56
      00FF7DD1H   LINE      CODE     ---       #58
      00FF7DE0H   LINE      CODE     ---       #60
      00FF7E0BH   LINE      CODE     ---       #62
      00FF7E13H   LINE      CODE     ---       #64
      00FF7E2CH   LINE      CODE     ---       #65
      00FF7E2FH   LINE      CODE     ---       #66
      ---         BLOCKEND  ---      ---       LVL=0

      00FF84C6H   BLOCK     CODE     ---       LVL=0
      0000071BH   SYMBOL    EDATA    INT       count
      0000071DH   SYMBOL    EDATA    INT       wh_out
      00FF84C6H   LINE      CODE     ---       #73
      00FF84C6H   LINE      CODE     ---       #74
      00FF84C6H   LINE      CODE     ---       #77
      00FF84D2H   LINE      CODE     ---       #79
      00FF84E9H   LINE      CODE     ---       #80
      00FF84EFH   LINE      CODE     ---       #81
      00FF84EFH   LINE      CODE     ---       #82
      00FF84FDH   LINE      CODE     ---       #83
      00FF851DH   LINE      CODE     ---       #84
      ---         BLOCKEND  ---      ---       LVL=0
      00000772H   SYMBOL    EDATA    FLOAT     target
      00000776H   SYMBOL    EDATA    FLOAT     actual
      0000077AH   SYMBOL    EDATA    FLOAT     p
      0000077EH   SYMBOL    EDATA    FLOAT     i
      00000782H   SYMBOL    EDATA    FLOAT     d
      00000786H   SYMBOL    EDATA    FLOAT     error
      0000071FH   SYMBOL    EDATA    FLOAT     last_error
      00000723H   SYMBOL    EDATA    FLOAT     Ki_val
      0000078AH   SYMBOL    EDATA    INT       Output
      0000078CH   SYMBOL    EDATA    FLOAT     error_derivative
      000007C8H   SYMBOL    EDATA    INT       chazhi
      000007CAH   SYMBOL    EDATA    FLOAT     dir_p
      000007CEH   SYMBOL    EDATA    FLOAT     dir_d
      000007D2H   SYMBOL    EDATA    FLOAT     dir_d2
      000007D6H   SYMBOL    EDATA    FLOAT     error
      00000727H   SYMBOL    EDATA    FLOAT     last_error
      000007DAH   SYMBOL    EDATA    FLOAT     Output
      000007DEH   SYMBOL    EDATA    FLOAT     error_derivative

      ---         MODULE    ---      ---       vofa
      00000211H   PUBLIC    EDATA    ---       DataToSend
      000007E2H   PUBLIC    EDATA    BYTE      ?Send4DataToVofa?BYTE
      000000D0H   SFRSYM    DATA     BYTE      PSW
      0000009DH   SFRSYM    DATA     BYTE      IRCBAND
      00000097H   SFRSYM    DATA     BYTE      AUXR2
      000000EFH   SFRSYM    DATA     BYTE      AUXINTIF
      000000FDH   SFRSYM    DATA     BYTE      S4CON
L251 LINKER/LOCATER V4.66.93.0                                                        04/10/2024  19:22:09  PAGE 108


      000000ACH   SFRSYM    DATA     BYTE      S3CON
      0000009AH   SFRSYM    DATA     BYTE      S2CON
      000000B7H   SFRSYM    DATA     BYTE      IPH
      000000CDH   SFRSYM    DATA     BYTE      SPSTAT
      000000DDH   SFRSYM    DATA     BYTE      T4T3M
      000000C1H   SFRSYM    DATA     BYTE      WDT_CONTR
      000000DFH   SFRSYM    DATA     BYTE      IP3
      000000F4H   SFRSYM    DATA     BYTE      USBCON
      000000B5H   SFRSYM    DATA     BYTE      IP2
      000000FFH   SFRSYM    DATA     BYTE      RSTCFG
      000000C7H   SFRSYM    DATA     BYTE      IAP_CONTR
      000000F9H   SFRSYM    DATA     BYTE      LINICR
      0000008EH   SFRSYM    DATA     BYTE      AUXR
      000000AFH   SFRSYM    DATA     BYTE      IE2
      00000088H   SFRSYM    DATA     BYTE      TCON
      00000089H   SFRSYM    DATA     BYTE      TMOD
      00000098H   SFRSYM    DATA     BYTE      SCON
      000000F1H   SFRSYM    DATA     BYTE      CANICR
      00000087H   SFRSYM    DATA     BYTE      PCON
      000000BCH   SFRSYM    DATA     BYTE      ADC_CONTR
      000000E7H   SFRSYM    DATA     BYTE      CMPCR2
      000000E6H   SFRSYM    DATA     BYTE      CMPCR1
      000000DEH   SFRSYM    DATA     BYTE      ADCCFG
      000000B8H   SFRSYM    DATA     BYTE      IP
      0000008FH   SFRSYM    DATA     BYTE      INTCLKO
      000000EEH   SFRSYM    DATA     BYTE      IP3H
      000000B6H   SFRSYM    DATA     BYTE      IP2H
      000000A8H   SFRSYM    DATA     BYTE      IE
      000000BBH   SFRSYM    DATA     BYTE      P_SW3
      000000BAH   SFRSYM    DATA     BYTE      P_SW2
      000000A2H   SFRSYM    DATA     BYTE      P_SW1
      000000CEH   SFRSYM    DATA     BYTE      SPCTL
      000000F8H   SFRSYM    DATA     BYTE      P7
      000000E8H   SFRSYM    DATA     BYTE      P6
      000000C8H   SFRSYM    DATA     BYTE      P5
      000000C0H   SFRSYM    DATA     BYTE      P4
      000000B0H   SFRSYM    DATA     BYTE      P3
      000000A0H   SFRSYM    DATA     BYTE      P2
      00000090H   SFRSYM    DATA     BYTE      P1
      00000080H   SFRSYM    DATA     BYTE      P0
      000007E2H   SYMBOL    EDATA    FLOAT     _a
      000007E6H   SYMBOL    EDATA    FLOAT     _b
      000007EAH   SYMBOL    EDATA    FLOAT     _c
      000007EEH   SYMBOL    EDATA    FLOAT     _d
      000007F2H   SYMBOL    EDATA    FLOAT     _e
      000007F6H   SYMBOL    EDATA    FLOAT     _f
      000007FAH   SYMBOL    EDATA    BYTE      i
      000007FBH   SYMBOL    EDATA    BYTE      _cnt

      ---         MODULE    ---      ---       mpu6050
      00FF78A3H   PUBLIC    CODE     ---       medianFilter1
      00FF8071H   PUBLIC    CODE     ---       gyro_zero_wander
      00FF89BCH   PUBLIC    CODE     ---       lowPassFilter
      00FF76E0H   PUBLIC    CODE     ---       Get_Angle
      00000A50H   PUBLIC    EDATA    BYTE      ?lowPassFilter?BYTE
      000000D0H   SFRSYM    DATA     BYTE      PSW
      0000009DH   SFRSYM    DATA     BYTE      IRCBAND
      00000097H   SFRSYM    DATA     BYTE      AUXR2
      000000EFH   SFRSYM    DATA     BYTE      AUXINTIF
      000000FDH   SFRSYM    DATA     BYTE      S4CON
      000000ACH   SFRSYM    DATA     BYTE      S3CON
      0000009AH   SFRSYM    DATA     BYTE      S2CON
      000000B7H   SFRSYM    DATA     BYTE      IPH
      000000CDH   SFRSYM    DATA     BYTE      SPSTAT
      000000DDH   SFRSYM    DATA     BYTE      T4T3M
L251 LINKER/LOCATER V4.66.93.0                                                        04/10/2024  19:22:09  PAGE 109


      000000C1H   SFRSYM    DATA     BYTE      WDT_CONTR
      000000DFH   SFRSYM    DATA     BYTE      IP3
      000000F4H   SFRSYM    DATA     BYTE      USBCON
      000000B5H   SFRSYM    DATA     BYTE      IP2
      000000FFH   SFRSYM    DATA     BYTE      RSTCFG
      000000C7H   SFRSYM    DATA     BYTE      IAP_CONTR
      000000F9H   SFRSYM    DATA     BYTE      LINICR
      0000008EH   SFRSYM    DATA     BYTE      AUXR
      000000AFH   SFRSYM    DATA     BYTE      IE2
      00000088H   SFRSYM    DATA     BYTE      TCON
      00000089H   SFRSYM    DATA     BYTE      TMOD
      00000098H   SFRSYM    DATA     BYTE      SCON
      000000F1H   SFRSYM    DATA     BYTE      CANICR
      00000087H   SFRSYM    DATA     BYTE      PCON
      000000BCH   SFRSYM    DATA     BYTE      ADC_CONTR
      000000E7H   SFRSYM    DATA     BYTE      CMPCR2
      000000E6H   SFRSYM    DATA     BYTE      CMPCR1
      000000DEH   SFRSYM    DATA     BYTE      ADCCFG
      000000B8H   SFRSYM    DATA     BYTE      IP
      0000008FH   SFRSYM    DATA     BYTE      INTCLKO
      000000EEH   SFRSYM    DATA     BYTE      IP3H
      000000B6H   SFRSYM    DATA     BYTE      IP2H
      000000A8H   SFRSYM    DATA     BYTE      IE
      000000BBH   SFRSYM    DATA     BYTE      P_SW3
      000000BAH   SFRSYM    DATA     BYTE      P_SW2
      000000A2H   SFRSYM    DATA     BYTE      P_SW1
      000000CEH   SFRSYM    DATA     BYTE      SPCTL
      000000F8H   SFRSYM    DATA     BYTE      P7
      000000E8H   SFRSYM    DATA     BYTE      P6
      000000C8H   SFRSYM    DATA     BYTE      P5
      000000C0H   SFRSYM    DATA     BYTE      P4
      000000B0H   SFRSYM    DATA     BYTE      P3
      000000A0H   SFRSYM    DATA     BYTE      P2
      00000090H   SFRSYM    DATA     BYTE      P1
      00000080H   SFRSYM    DATA     BYTE      P0

      00FF8071H   BLOCK     CODE     ---       LVL=0
      00000570H   SYMBOL    EDATA    FLOAT     sum
      00000574H   SYMBOL    EDATA    INT       flag
      00000E67H   SYMBOL    EDATA    INT       i
      00FF8071H   LINE      CODE     ---       #14
      00FF8071H   LINE      CODE     ---       #17
      00FF8077H   LINE      CODE     ---       #18
      00FF8083H   LINE      CODE     ---       #19
      00FF808BH   LINE      CODE     ---       #20
      00FF80A1H   LINE      CODE     ---       #21
      00FF80BBH   LINE      CODE     ---       #22
      00FF80C1H   LINE      CODE     ---       #23
      00FF80D0H   LINE      CODE     ---       #24
      00FF80D0H   LINE      CODE     ---       #25
      00FF80DDH   LINE      CODE     ---       #26
      ---         BLOCKEND  ---      ---       LVL=0

      00FF78A3H   BLOCK     CODE     ---       LVL=0
      00000B01H   SYMBOL    EDATA    ---       window
      00FF78A7H   BLOCK     CODE     NEAR LAB  LVL=1
      00000B05H   SYMBOL    EDATA    INT       temp
      00000B07H   SYMBOL    EDATA    INT       i
      00000B09H   SYMBOL    EDATA    INT       j
      ---         BLOCKEND  ---      ---       LVL=1
      00FF78A3H   LINE      CODE     ---       #28
      00FF78A7H   LINE      CODE     ---       #29
      00FF78B3H   LINE      CODE     ---       #31
      00FF78BCH   LINE      CODE     ---       #32
      00FF78C4H   LINE      CODE     ---       #33
L251 LINKER/LOCATER V4.66.93.0                                                        04/10/2024  19:22:09  PAGE 110


      00FF78E8H   LINE      CODE     ---       #35
      00FF78FBH   LINE      CODE     ---       #36
      00FF791BH   LINE      CODE     ---       #37
      00FF7930H   LINE      CODE     ---       #38
      00FF7953H   LINE      CODE     ---       #40
      00FF7970H   LINE      CODE     ---       #43
      00FF797BH   LINE      CODE     ---       #44
      ---         BLOCKEND  ---      ---       LVL=0

      00FF89BCH   BLOCK     CODE     ---       LVL=0
      00000A50H   SYMBOL    EDATA    FLOAT     current
      00000A54H   SYMBOL    EDATA    FLOAT     previous
      00000A58H   SYMBOL    EDATA    FLOAT     alpha
      00FF89BCH   LINE      CODE     ---       #46
      00FF89C4H   LINE      CODE     ---       #48
      00FF89EAH   LINE      CODE     ---       #49
      ---         BLOCKEND  ---      ---       LVL=0

      00FF76E0H   BLOCK     CODE     ---       LVL=0
      00000576H   SYMBOL    EDATA    ---       gyro_z_values
      0000059EH   SYMBOL    EDATA    INT       index
      00000790H   SYMBOL    EDATA    FLOAT     filtered_angle
      00000794H   SYMBOL    EDATA    INT       i
      00000796H   SYMBOL    EDATA    ---       window
      000007AAH   SYMBOL    EDATA    FLOAT     gyro_z
      00FF76E0H   LINE      CODE     ---       #51
      00FF76E0H   LINE      CODE     ---       #56
      00FF76E6H   LINE      CODE     ---       #58
      00FF76FBH   LINE      CODE     ---       #61
      00FF7727H   LINE      CODE     ---       #63
      00FF7740H   LINE      CODE     ---       #64
      00FF7755H   LINE      CODE     ---       #65
      00FF775DH   LINE      CODE     ---       #66
      00FF7795H   LINE      CODE     ---       #67
      00FF77AFH   LINE      CODE     ---       #69
      00FF77C1H   LINE      CODE     ---       #72
      00FF77C1H   LINE      CODE     ---       #73
      ---         BLOCKEND  ---      ---       LVL=0

      ---         MODULE    ---      ---       TrackElement
      00FF8288H   PUBLIC    CODE     ---       Tracking
      0000039AH   PUBLIC    EDATA    FLOAT     Sub_motor_i
      0000039EH   PUBLIC    EDATA    FLOAT     Sub_motor_p
      000003A2H   PUBLIC    EDATA    FLOAT     Angle4
      000003A6H   PUBLIC    EDATA    INT       Sub_speed
      000003A8H   PUBLIC    EDATA    INT       shizi_flag
      000003AAH   PUBLIC    EDATA    ---       Element_Order
      000003B2H   PUBLIC    EDATA    INT       ring_flag
      000003B4H   PUBLIC    EDATA    FLOAT     Sub_wh_d
      000003B8H   PUBLIC    EDATA    LONG      Distance
      000003BCH   PUBLIC    EDATA    LONG      bmq_jifen
      000003C0H   PUBLIC    EDATA    FLOAT     Sub_wh_p
      000003C4H   PUBLIC    EDATA    INT       set_speed
      000003C6H   PUBLIC    EDATA    INT       DISTANCE_FLAG
      000003C8H   PUBLIC    EDATA    INT       RING_FLAG1
      000003CAH   PUBLIC    EDATA    INT       RING_FLAG2
      000003CCH   PUBLIC    EDATA    INT       RING_FLAG3
      000003CEH   PUBLIC    EDATA    INT       RING_FLAG4
      000003D0H   PUBLIC    EDATA    INT       ANGLE_FLAG
      000003D2H   PUBLIC    EDATA    INT       Track_flag
      000003D4H   PUBLIC    EDATA    FLOAT     angle_jifen
      000000D0H   SFRSYM    DATA     BYTE      PSW
      0000009DH   SFRSYM    DATA     BYTE      IRCBAND
      00000097H   SFRSYM    DATA     BYTE      AUXR2
      000000EFH   SFRSYM    DATA     BYTE      AUXINTIF
L251 LINKER/LOCATER V4.66.93.0                                                        04/10/2024  19:22:09  PAGE 111


      000000FDH   SFRSYM    DATA     BYTE      S4CON
      000000ACH   SFRSYM    DATA     BYTE      S3CON
      0000009AH   SFRSYM    DATA     BYTE      S2CON
      000000B7H   SFRSYM    DATA     BYTE      IPH
      000000CDH   SFRSYM    DATA     BYTE      SPSTAT
      000000DDH   SFRSYM    DATA     BYTE      T4T3M
      000000C1H   SFRSYM    DATA     BYTE      WDT_CONTR
      000000DFH   SFRSYM    DATA     BYTE      IP3
      000000F4H   SFRSYM    DATA     BYTE      USBCON
      000000B5H   SFRSYM    DATA     BYTE      IP2
      000000FFH   SFRSYM    DATA     BYTE      RSTCFG
      000000C7H   SFRSYM    DATA     BYTE      IAP_CONTR
      000000F9H   SFRSYM    DATA     BYTE      LINICR
      0000008EH   SFRSYM    DATA     BYTE      AUXR
      000000AFH   SFRSYM    DATA     BYTE      IE2
      00000088H   SFRSYM    DATA     BYTE      TCON
      00000089H   SFRSYM    DATA     BYTE      TMOD
      00000098H   SFRSYM    DATA     BYTE      SCON
      000000F1H   SFRSYM    DATA     BYTE      CANICR
      00000087H   SFRSYM    DATA     BYTE      PCON
      000000BCH   SFRSYM    DATA     BYTE      ADC_CONTR
      000000E7H   SFRSYM    DATA     BYTE      CMPCR2
      000000E6H   SFRSYM    DATA     BYTE      CMPCR1
      000000DEH   SFRSYM    DATA     BYTE      ADCCFG
      000000B8H   SFRSYM    DATA     BYTE      IP
      0000008FH   SFRSYM    DATA     BYTE      INTCLKO
      000000EEH   SFRSYM    DATA     BYTE      IP3H
      000000B6H   SFRSYM    DATA     BYTE      IP2H
      000000A8H   SFRSYM    DATA     BYTE      IE
      000000BBH   SFRSYM    DATA     BYTE      P_SW3
      000000BAH   SFRSYM    DATA     BYTE      P_SW2
      000000A2H   SFRSYM    DATA     BYTE      P_SW1
      000000CEH   SFRSYM    DATA     BYTE      SPCTL
      000000F8H   SFRSYM    DATA     BYTE      P7
      000000E8H   SFRSYM    DATA     BYTE      P6
      000000C8H   SFRSYM    DATA     BYTE      P5
      000000C0H   SFRSYM    DATA     BYTE      P4
      000000B0H   SFRSYM    DATA     BYTE      P3
      000000A0H   SFRSYM    DATA     BYTE      P2
      00000090H   SFRSYM    DATA     BYTE      P1
      00000080H   SFRSYM    DATA     BYTE      P0
      00000E69H   SYMBOL    EDATA    INT       flag
      000003D8H   SYMBOL    EDATA    INT       bmq_flag
      000003DAH   SYMBOL    EDATA    INT       angle_flag
      000003DCH   SYMBOL    EDATA    INT       angle2
      000003DEH   SYMBOL    EDATA    INT       yu_flag
      000003E0H   SYMBOL    EDATA    INT       angle_flag2
      000003E2H   SYMBOL    EDATA    INT       status
      00000C4AH   SYMBOL    EDATA    FLOAT     error
      00000C4EH   SYMBOL    EDATA    FLOAT     err

      00FF8288H   BLOCK     CODE     ---       LVL=0
      00000E6BH   SYMBOL    EDATA    INT       Set_speed
      00FF828CH   BLOCK     CODE     NEAR LAB  LVL=1
      000003E4H   SYMBOL    EDATA    INT       count
      000003E6H   SYMBOL    EDATA    INT       pwm
      ---         BLOCKEND  ---      ---       LVL=1
      00FF8288H   LINE      CODE     ---       #164
      00FF828CH   LINE      CODE     ---       #165
      00FF828CH   LINE      CODE     ---       #167
      00FF82A1H   LINE      CODE     ---       #168
      00FF82AFH   LINE      CODE     ---       #169
      00FF82B6H   LINE      CODE     ---       #170
      00FF82C2H   LINE      CODE     ---       #172
      00FF82D1H   LINE      CODE     ---       #173
L251 LINKER/LOCATER V4.66.93.0                                                        04/10/2024  19:22:09  PAGE 112


      00FF82D7H   LINE      CODE     ---       #174
      00FF82D7H   LINE      CODE     ---       #175
      00FF82EEH   LINE      CODE     ---       #176
      ---         BLOCKEND  ---      ---       LVL=0

      ---         MODULE    ---      ---       menu
      00FF8805H   PUBLIC    CODE     ---       Show_Val_Menu
      00FF645BH   PUBLIC    CODE     ---       First_menu
      00FF6AA4H   PUBLIC    CODE     ---       Second_Element_menu
      00FF7A4DH   PUBLIC    CODE     ---       Second__Speed_menu
      00FF58C2H   PUBLIC    CODE     ---       Second_Motor_menu
      00FF3842H   PUBLIC    CODE     ---       Second__NWHuan_menu
      000000D0H   SFRSYM    DATA     BYTE      PSW
      0000009DH   SFRSYM    DATA     BYTE      IRCBAND
      00000097H   SFRSYM    DATA     BYTE      AUXR2
      000000EFH   SFRSYM    DATA     BYTE      AUXINTIF
      000000FDH   SFRSYM    DATA     BYTE      S4CON
      000000ACH   SFRSYM    DATA     BYTE      S3CON
      0000009AH   SFRSYM    DATA     BYTE      S2CON
      000000B7H   SFRSYM    DATA     BYTE      IPH
      000000CDH   SFRSYM    DATA     BYTE      SPSTAT
      000000DDH   SFRSYM    DATA     BYTE      T4T3M
      000000C1H   SFRSYM    DATA     BYTE      WDT_CONTR
      000000DFH   SFRSYM    DATA     BYTE      IP3
      000000F4H   SFRSYM    DATA     BYTE      USBCON
      000000B5H   SFRSYM    DATA     BYTE      IP2
      000000FFH   SFRSYM    DATA     BYTE      RSTCFG
      000000C7H   SFRSYM    DATA     BYTE      IAP_CONTR
      000000F9H   SFRSYM    DATA     BYTE      LINICR
      0000008EH   SFRSYM    DATA     BYTE      AUXR
      000000AFH   SFRSYM    DATA     BYTE      IE2
      000000B0H.7 SFRSYM    DATA     BIT       P37
      000000B0H.6 SFRSYM    DATA     BIT       P36
      000000C0H.4 SFRSYM    DATA     BIT       P44
      000000C0H.3 SFRSYM    DATA     BIT       P43
      00000088H   SFRSYM    DATA     BYTE      TCON
      00000089H   SFRSYM    DATA     BYTE      TMOD
      00000098H   SFRSYM    DATA     BYTE      SCON
      000000F1H   SFRSYM    DATA     BYTE      CANICR
      00000087H   SFRSYM    DATA     BYTE      PCON
      000000BCH   SFRSYM    DATA     BYTE      ADC_CONTR
      000000E7H   SFRSYM    DATA     BYTE      CMPCR2
      000000E6H   SFRSYM    DATA     BYTE      CMPCR1
      000000DEH   SFRSYM    DATA     BYTE      ADCCFG
      000000B8H   SFRSYM    DATA     BYTE      IP
      0000008FH   SFRSYM    DATA     BYTE      INTCLKO
      000000EEH   SFRSYM    DATA     BYTE      IP3H
      000000B6H   SFRSYM    DATA     BYTE      IP2H
      000000A8H   SFRSYM    DATA     BYTE      IE
      000000BBH   SFRSYM    DATA     BYTE      P_SW3
      000000BAH   SFRSYM    DATA     BYTE      P_SW2
      000000A2H   SFRSYM    DATA     BYTE      P_SW1
      000000CEH   SFRSYM    DATA     BYTE      SPCTL
      000000F8H   SFRSYM    DATA     BYTE      P7
      000000E8H   SFRSYM    DATA     BYTE      P6
      000000C8H   SFRSYM    DATA     BYTE      P5
      000000C0H   SFRSYM    DATA     BYTE      P4
      000000B0H   SFRSYM    DATA     BYTE      P3
      000000A0H   SFRSYM    DATA     BYTE      P2
      00000090H   SFRSYM    DATA     BYTE      P1
      00000080H   SFRSYM    DATA     BYTE      P0
      00FF9070H   SYMBOL    HCONST   ---       ?tpl?0001
      00000DC2H   SYMBOL    EDATA    INT       flag1
      00000DC4H   SYMBOL    EDATA    INT       flag

L251 LINKER/LOCATER V4.66.93.0                                                        04/10/2024  19:22:09  PAGE 113


      00FF645BH   BLOCK     CODE     ---       LVL=0
      00000E6DH   SYMBOL    EDATA    INT       flag
      00FF645BH   LINE      CODE     ---       #44
      00FF645BH   LINE      CODE     ---       #45
      00FF645BH   LINE      CODE     ---       #46
      00FF6463H   LINE      CODE     ---       #47
      00FF6472H   LINE      CODE     ---       #48
      00FF6482H   LINE      CODE     ---       #49
      00FF6492H   LINE      CODE     ---       #50
      00FF64A2H   LINE      CODE     ---       #51
      00FF64B2H   LINE      CODE     ---       #52
      00FF64C2H   LINE      CODE     ---       #53
      00FF64C2H   LINE      CODE     ---       #55
      00FF64CBH   LINE      CODE     ---       #57
      00FF64D2H   LINE      CODE     ---       #58
      00FF64DBH   LINE      CODE     ---       #59
      00FF64E2H   LINE      CODE     ---       #60
      00FF64F0H   LINE      CODE     ---       #61
      00FF6504H   LINE      CODE     ---       #62
      00FF6504H   LINE      CODE     ---       #63
      00FF650DH   LINE      CODE     ---       #65
      00FF6514H   LINE      CODE     ---       #66
      00FF651DH   LINE      CODE     ---       #67
      00FF6524H   LINE      CODE     ---       #68
      00FF6532H   LINE      CODE     ---       #69
      00FF6544H   LINE      CODE     ---       #70
      00FF6544H   LINE      CODE     ---       #71
      00FF654DH   LINE      CODE     ---       #73
      00FF6554H   LINE      CODE     ---       #74
      00FF655DH   LINE      CODE     ---       #75
      00FF6564H   LINE      CODE     ---       #76
      00FF6568H   LINE      CODE     ---       #77
      00FF656FH   LINE      CODE     ---       #78
      00FF656FH   LINE      CODE     ---       #79
      00FF6578H   LINE      CODE     ---       #81
      00FF657FH   LINE      CODE     ---       #82
      00FF6588H   LINE      CODE     ---       #83
      00FF658FH   LINE      CODE     ---       #84
      00FF6593H   LINE      CODE     ---       #85
      00FF6598H   LINE      CODE     ---       #86
      00FF6598H   LINE      CODE     ---       #87
      00FF65C8H   LINE      CODE     ---       #89
      00FF65C8H   LINE      CODE     ---       #91
      00FF65D6H   LINE      CODE     ---       #92
      00FF65E5H   LINE      CODE     ---       #93
      00FF65F4H   LINE      CODE     ---       #94
      00FF6603H   LINE      CODE     ---       #95
      00FF6612H   LINE      CODE     ---       #96
      00FF6621H   LINE      CODE     ---       #97
      00FF6624H   LINE      CODE     ---       #98
      00FF6624H   LINE      CODE     ---       #100
      00FF6632H   LINE      CODE     ---       #101
      00FF6641H   LINE      CODE     ---       #102
      00FF6650H   LINE      CODE     ---       #103
      00FF665FH   LINE      CODE     ---       #104
      00FF666EH   LINE      CODE     ---       #105
      00FF667DH   LINE      CODE     ---       #106
      00FF6680H   LINE      CODE     ---       #107
      00FF6680H   LINE      CODE     ---       #109
      00FF668EH   LINE      CODE     ---       #110
      00FF669DH   LINE      CODE     ---       #111
      00FF66ACH   LINE      CODE     ---       #112
      00FF66BBH   LINE      CODE     ---       #113
      00FF66CAH   LINE      CODE     ---       #114
      00FF66D9H   LINE      CODE     ---       #115
L251 LINKER/LOCATER V4.66.93.0                                                        04/10/2024  19:22:09  PAGE 114


      00FF66DCH   LINE      CODE     ---       #116
      00FF66DCH   LINE      CODE     ---       #118
      00FF66EAH   LINE      CODE     ---       #119
      00FF66F9H   LINE      CODE     ---       #120
      00FF6708H   LINE      CODE     ---       #121
      00FF6717H   LINE      CODE     ---       #122
      00FF6726H   LINE      CODE     ---       #123
      00FF6735H   LINE      CODE     ---       #124
      00FF6738H   LINE      CODE     ---       #125
      00FF6738H   LINE      CODE     ---       #127
      00FF6746H   LINE      CODE     ---       #128
      00FF6755H   LINE      CODE     ---       #129
      00FF6764H   LINE      CODE     ---       #130
      00FF6773H   LINE      CODE     ---       #131
      00FF6782H   LINE      CODE     ---       #132
      00FF6791H   LINE      CODE     ---       #133
      00FF6794H   LINE      CODE     ---       #134
      00FF6794H   LINE      CODE     ---       #136
      00FF67A2H   LINE      CODE     ---       #137
      00FF67B1H   LINE      CODE     ---       #138
      00FF67C0H   LINE      CODE     ---       #139
      00FF67CFH   LINE      CODE     ---       #140
      00FF67DEH   LINE      CODE     ---       #141
      00FF67EDH   LINE      CODE     ---       #142
      00FF67F0H   LINE      CODE     ---       #143
      00FF67F0H   LINE      CODE     ---       #144
      00FF67F0H   LINE      CODE     ---       #145
      ---         BLOCKEND  ---      ---       LVL=0

      00FF6AA4H   BLOCK     CODE     ---       LVL=0
      000008ECH   SYMBOL    EDATA    INT       flag
      000008EEH   SYMBOL    EDATA    INT       i
      000008F0H   SYMBOL    EDATA    INT       Order
      000008F2H   SYMBOL    EDATA    INT       k
      000008F4H   SYMBOL    EDATA    ---       menu_order
      00FF6AA4H   LINE      CODE     ---       #155
      00FF6AA4H   LINE      CODE     ---       #156
      00FF6AA4H   LINE      CODE     ---       #157
      00FF6ABEH   LINE      CODE     ---       #158
      00FF6ACFH   LINE      CODE     ---       #160
      00FF6ADEH   LINE      CODE     ---       #161
      00FF6AEEH   LINE      CODE     ---       #162
      00FF6AFEH   LINE      CODE     ---       #163
      00FF6B0EH   LINE      CODE     ---       #165
      00FF6B0EH   LINE      CODE     ---       #167
      00FF6B17H   LINE      CODE     ---       #169
      00FF6B1EH   LINE      CODE     ---       #170
      00FF6B27H   LINE      CODE     ---       #171
      00FF6B2EH   LINE      CODE     ---       #172
      00FF6B3CH   LINE      CODE     ---       #173
      00FF6B50H   LINE      CODE     ---       #174
      00FF6B50H   LINE      CODE     ---       #175
      00FF6B59H   LINE      CODE     ---       #177
      00FF6B60H   LINE      CODE     ---       #178
      00FF6B69H   LINE      CODE     ---       #179
      00FF6B70H   LINE      CODE     ---       #180
      00FF6B7EH   LINE      CODE     ---       #181
      00FF6B90H   LINE      CODE     ---       #182
      00FF6B90H   LINE      CODE     ---       #183
      00FF6B9CH   LINE      CODE     ---       #185
      00FF6BA3H   LINE      CODE     ---       #186
      00FF6BACH   LINE      CODE     ---       #187
      00FF6BB3H   LINE      CODE     ---       #188
      00FF6BC1H   LINE      CODE     ---       #189
      00FF6BCDH   LINE      CODE     ---       #190
L251 LINKER/LOCATER V4.66.93.0                                                        04/10/2024  19:22:09  PAGE 115


      00FF6BD5H   LINE      CODE     ---       #192
      00FF6BF3H   LINE      CODE     ---       #193
      00FF6C0DH   LINE      CODE     ---       #194
      00FF6C11H   LINE      CODE     ---       #195
      00FF6C16H   LINE      CODE     ---       #196
      00FF6C16H   LINE      CODE     ---       #197
      00FF6C29H   LINE      CODE     ---       #198
      00FF6C29H   LINE      CODE     ---       #199
      00FF6C32H   LINE      CODE     ---       #201
      00FF6C39H   LINE      CODE     ---       #202
      00FF6C42H   LINE      CODE     ---       #203
      00FF6C49H   LINE      CODE     ---       #204
      00FF6C4DH   LINE      CODE     ---       #205
      00FF6C51H   LINE      CODE     ---       #206
      00FF6C51H   LINE      CODE     ---       #208
      00FF6C59H   LINE      CODE     ---       #210
      00FF6C6BH   LINE      CODE     ---       #211
      00FF6C7FH   LINE      CODE     ---       #213
      00FF6C91H   LINE      CODE     ---       #216
      00FF6CABH   LINE      CODE     ---       #217
      00FF6CC5H   LINE      CODE     ---       #218
      00FF6CC8H   LINE      CODE     ---       #219
      ---         BLOCKEND  ---      ---       LVL=0

      00FF58C2H   BLOCK     CODE     ---       LVL=0
      000008FCH   SYMBOL    EDATA    INT       flag
      000008FEH   SYMBOL    EDATA    INT       Val_add_lose
      00000900H   SYMBOL    EDATA    INT       i
      00000902H   SYMBOL    EDATA    INT       count
      00000904H   SYMBOL    EDATA    INT       long_press_delay
      00000906H   SYMBOL    EDATA    INT       pree_delay
      00000908H   SYMBOL    EDATA    FLOAT     x
      00FF58C2H   LINE      CODE     ---       #227
      00FF58C2H   LINE      CODE     ---       #228
      00FF58C2H   LINE      CODE     ---       #229
      00FF58DCH   LINE      CODE     ---       #230
      00FF58E2H   LINE      CODE     ---       #231
      00FF58E8H   LINE      CODE     ---       #232
      00FF58F4H   LINE      CODE     ---       #234
      00FF5903H   LINE      CODE     ---       #235
      00FF5918H   LINE      CODE     ---       #236
      00FF5928H   LINE      CODE     ---       #237
      00FF593FH   LINE      CODE     ---       #238
      00FF594FH   LINE      CODE     ---       #239
      00FF595FH   LINE      CODE     ---       #241
      00FF595FH   LINE      CODE     ---       #243
      00FF5968H   LINE      CODE     ---       #245
      00FF596FH   LINE      CODE     ---       #246
      00FF5978H   LINE      CODE     ---       #247
      00FF597FH   LINE      CODE     ---       #248
      00FF598DH   LINE      CODE     ---       #249
      00FF59A1H   LINE      CODE     ---       #250
      00FF59A1H   LINE      CODE     ---       #251
      00FF59AAH   LINE      CODE     ---       #253
      00FF59B1H   LINE      CODE     ---       #254
      00FF59BAH   LINE      CODE     ---       #255
      00FF59C1H   LINE      CODE     ---       #256
      00FF59CFH   LINE      CODE     ---       #257
      00FF59E1H   LINE      CODE     ---       #258
      00FF59E1H   LINE      CODE     ---       #259
      00FF59EDH   LINE      CODE     ---       #261
      00FF59F4H   LINE      CODE     ---       #262
      00FF59FAH   LINE      CODE     ---       #264
      00FF59FDH   LINE      CODE     ---       #266
      00FF5A04H   LINE      CODE     ---       #267
L251 LINKER/LOCATER V4.66.93.0                                                        04/10/2024  19:22:09  PAGE 116


      00FF5A12H   LINE      CODE     ---       #269
      00FF5A27H   LINE      CODE     ---       #271
      00FF5A33H   LINE      CODE     ---       #273
      00FF5A48H   LINE      CODE     ---       #274
      00FF5A67H   LINE      CODE     ---       #275
      00FF5A67H   LINE      CODE     ---       #276
      00FF5A73H   LINE      CODE     ---       #278
      00FF5A92H   LINE      CODE     ---       #279
      00FF5AA9H   LINE      CODE     ---       #280
      00FF5AA9H   LINE      CODE     ---       #281
      00FF5AB7H   LINE      CODE     ---       #282
      00FF5ACBH   LINE      CODE     ---       #283
      00FF5AD1H   LINE      CODE     ---       #284
      00FF5ADDH   LINE      CODE     ---       #286
      00FF5AE4H   LINE      CODE     ---       #287
      00FF5AF3H   LINE      CODE     ---       #289
      00FF5AF9H   LINE      CODE     ---       #290
      00FF5B05H   LINE      CODE     ---       #292
      00FF5B1AH   LINE      CODE     ---       #293
      00FF5B39H   LINE      CODE     ---       #294
      00FF5B39H   LINE      CODE     ---       #295
      00FF5B45H   LINE      CODE     ---       #297
      00FF5B64H   LINE      CODE     ---       #298
      00FF5B7BH   LINE      CODE     ---       #299
      00FF5B7BH   LINE      CODE     ---       #300
      00FF5B87H   LINE      CODE     ---       #302
      00FF5B91H   LINE      CODE     ---       #304
      00FF5BA1H   LINE      CODE     ---       #305
      00FF5BB1H   LINE      CODE     ---       #306
      00FF5BB9H   LINE      CODE     ---       #307
      00FF5BC1H   LINE      CODE     ---       #308
      00FF5BC3H   LINE      CODE     ---       #309
      00FF5BCFH   LINE      CODE     ---       #311
      00FF5BDFH   LINE      CODE     ---       #312
      00FF5BEFH   LINE      CODE     ---       #313
      00FF5BF7H   LINE      CODE     ---       #314
      00FF5BFDH   LINE      CODE     ---       #315
      00FF5BFDH   LINE      CODE     ---       #317
      00FF5C09H   LINE      CODE     ---       #319
      00FF5C2CH   LINE      CODE     ---       #320
      00FF5C43H   LINE      CODE     ---       #321
      00FF5C43H   LINE      CODE     ---       #323
      00FF5C43H   LINE      CODE     ---       #324
      00FF5C4CH   LINE      CODE     ---       #326
      00FF5C53H   LINE      CODE     ---       #327
      00FF5C5CH   LINE      CODE     ---       #328
      00FF5C63H   LINE      CODE     ---       #329
      00FF5C67H   LINE      CODE     ---       #330
      00FF5C6BH   LINE      CODE     ---       #331
      00FF5C6BH   LINE      CODE     ---       #332
      00FF5C73H   LINE      CODE     ---       #334
      00FF5C85H   LINE      CODE     ---       #335
      00FF5C99H   LINE      CODE     ---       #337
      00FF5CABH   LINE      CODE     ---       #338
      00FF5CC5H   LINE      CODE     ---       #339
      00FF5CC8H   LINE      CODE     ---       #340
      ---         BLOCKEND  ---      ---       LVL=0

      00FF3842H   BLOCK     CODE     ---       LVL=0
      000007FCH   SYMBOL    EDATA    INT       flag
      000007FEH   SYMBOL    EDATA    INT       i
      00000800H   SYMBOL    EDATA    INT       Val_add_lose
      00000802H   SYMBOL    EDATA    INT       count
      00000804H   SYMBOL    EDATA    INT       flag1
      00000806H   SYMBOL    EDATA    FLOAT     x
L251 LINKER/LOCATER V4.66.93.0                                                        04/10/2024  19:22:09  PAGE 117


      0000080AH   SYMBOL    EDATA    FLOAT     x1
      0000080EH   SYMBOL    EDATA    WORD      long_press_delay
      00000810H   SYMBOL    EDATA    WORD      pree_delay
      00000812H   SYMBOL    EDATA    INT       page
      00000814H   SYMBOL    EDATA    INT       page1
      00FF3842H   LINE      CODE     ---       #353
      00FF3842H   LINE      CODE     ---       #354
      00FF3842H   LINE      CODE     ---       #355
      00FF3868H   LINE      CODE     ---       #356
      00FF387EH   LINE      CODE     ---       #357
      00FF388AH   LINE      CODE     ---       #358
      00FF3892H   LINE      CODE     ---       #359
      00FF389AH   LINE      CODE     ---       #360
      00FF38A6H   LINE      CODE     ---       #362
      00FF38AAH   LINE      CODE     ---       #363
      00FF38AAH   LINE      CODE     ---       #364
      00FF38AAH   LINE      CODE     ---       #367
      00FF38B3H   LINE      CODE     ---       #369
      00FF38BAH   LINE      CODE     ---       #370
      00FF38C3H   LINE      CODE     ---       #371
      00FF38CAH   LINE      CODE     ---       #372
      00FF38D8H   LINE      CODE     ---       #374
      00FF38E4H   LINE      CODE     ---       #375
      00FF38ECH   LINE      CODE     ---       #376
      00FF3906H   LINE      CODE     ---       #377
      00FF3906H   LINE      CODE     ---       #379
      00FF390FH   LINE      CODE     ---       #381
      00FF3916H   LINE      CODE     ---       #382
      00FF391FH   LINE      CODE     ---       #383
      00FF3926H   LINE      CODE     ---       #384
      00FF3934H   LINE      CODE     ---       #386
      00FF394AH   LINE      CODE     ---       #387
      00FF3952H   LINE      CODE     ---       #388
      00FF395AH   LINE      CODE     ---       #389
      00FF395CH   LINE      CODE     ---       #391
      00FF3972H   LINE      CODE     ---       #392
      00FF397AH   LINE      CODE     ---       #393
      00FF3982H   LINE      CODE     ---       #394
      00FF3982H   LINE      CODE     ---       #397
      00FF3991H   LINE      CODE     ---       #399
      00FF39A0H   LINE      CODE     ---       #401
      00FF39A4H   LINE      CODE     ---       #402
      00FF39ACH   LINE      CODE     ---       #403
      00FF39BBH   LINE      CODE     ---       #404
      00FF39D0H   LINE      CODE     ---       #405
      00FF39E0H   LINE      CODE     ---       #406
      00FF39F7H   LINE      CODE     ---       #407
      00FF3A07H   LINE      CODE     ---       #408
      00FF3A1EH   LINE      CODE     ---       #409
      00FF3A2EH   LINE      CODE     ---       #410
      00FF3A45H   LINE      CODE     ---       #411
      00FF3A47H   LINE      CODE     ---       #413
      00FF3A53H   LINE      CODE     ---       #415
      00FF3A5FH   LINE      CODE     ---       #417
      00FF3A63H   LINE      CODE     ---       #418
      00FF3A6BH   LINE      CODE     ---       #420
      00FF3A7BH   LINE      CODE     ---       #421
      00FF3A8BH   LINE      CODE     ---       #422
      00FF3A8BH   LINE      CODE     ---       #425
      00FF3AA6H   LINE      CODE     ---       #427
      00FF3AADH   LINE      CODE     ---       #428
      00FF3AB3H   LINE      CODE     ---       #429
      00FF3AB6H   LINE      CODE     ---       #431
      00FF3ABDH   LINE      CODE     ---       #432
      00FF3ACBH   LINE      CODE     ---       #433
L251 LINKER/LOCATER V4.66.93.0                                                        04/10/2024  19:22:09  PAGE 118


      00FF3AE0H   LINE      CODE     ---       #435
      00FF3AECH   LINE      CODE     ---       #436
      00FF3B01H   LINE      CODE     ---       #437
      00FF3B20H   LINE      CODE     ---       #438
      00FF3B2FH   LINE      CODE     ---       #439
      00FF3B46H   LINE      CODE     ---       #440
      00FF3B65H   LINE      CODE     ---       #441
      00FF3B74H   LINE      CODE     ---       #442
      00FF3B93H   LINE      CODE     ---       #443
      00FF3BAAH   LINE      CODE     ---       #444
      00FF3BB8H   LINE      CODE     ---       #445
      00FF3BD7H   LINE      CODE     ---       #446
      00FF3BEEH   LINE      CODE     ---       #447
      00FF3BEEH   LINE      CODE     ---       #448
      00FF3BFCH   LINE      CODE     ---       #449
      00FF3C10H   LINE      CODE     ---       #450
      00FF3C16H   LINE      CODE     ---       #451
      00FF3C22H   LINE      CODE     ---       #453
      00FF3C29H   LINE      CODE     ---       #454
      00FF3C38H   LINE      CODE     ---       #456
      00FF3C3EH   LINE      CODE     ---       #457
      00FF3C5DH   LINE      CODE     ---       #459
      00FF3C5DH   LINE      CODE     ---       #461
      00FF3C72H   LINE      CODE     ---       #462
      00FF3C91H   LINE      CODE     ---       #463
      00FF3C94H   LINE      CODE     ---       #464
      00FF3C94H   LINE      CODE     ---       #466
      00FF3CABH   LINE      CODE     ---       #467
      00FF3CCAH   LINE      CODE     ---       #468
      00FF3CCCH   LINE      CODE     ---       #469
      00FF3CCCH   LINE      CODE     ---       #471
      00FF3CEBH   LINE      CODE     ---       #472
      00FF3D02H   LINE      CODE     ---       #473
      00FF3D04H   LINE      CODE     ---       #474
      00FF3D04H   LINE      CODE     ---       #476
      00FF3D23H   LINE      CODE     ---       #477
      00FF3D3AH   LINE      CODE     ---       #478
      00FF3D3AH   LINE      CODE     ---       #479
      00FF3D3AH   LINE      CODE     ---       #481
      00FF3D3AH   LINE      CODE     ---       #483
      00FF3D55H   LINE      CODE     ---       #485
      00FF3D5CH   LINE      CODE     ---       #486
      00FF3D65H   LINE      CODE     ---       #487
      00FF3D6CH   LINE      CODE     ---       #488
      00FF3D7BH   LINE      CODE     ---       #490
      00FF3D89H   LINE      CODE     ---       #491
      00FF3D9BH   LINE      CODE     ---       #492
      00FF3DA5H   LINE      CODE     ---       #494
      00FF3DB4H   LINE      CODE     ---       #495
      00FF3DC3H   LINE      CODE     ---       #496
      00FF3DCBH   LINE      CODE     ---       #497
      00FF3DD9H   LINE      CODE     ---       #498
      00FF3DDBH   LINE      CODE     ---       #499
      00FF3DE7H   LINE      CODE     ---       #501
      00FF3DF6H   LINE      CODE     ---       #502
      00FF3E05H   LINE      CODE     ---       #503
      00FF3E0DH   LINE      CODE     ---       #504
      00FF3E0DH   LINE      CODE     ---       #507
      00FF3E19H   LINE      CODE     ---       #509
      00FF3E3AH   LINE      CODE     ---       #510
      00FF3E51H   LINE      CODE     ---       #511
      00FF3E51H   LINE      CODE     ---       #512
      00FF3E5DH   LINE      CODE     ---       #514
      00FF3E80H   LINE      CODE     ---       #515
      00FF3E97H   LINE      CODE     ---       #516
L251 LINKER/LOCATER V4.66.93.0                                                        04/10/2024  19:22:09  PAGE 119


      00FF3E97H   LINE      CODE     ---       #518
      00FF3EA0H   LINE      CODE     ---       #520
      00FF3EA7H   LINE      CODE     ---       #521
      00FF3EB0H   LINE      CODE     ---       #522
      00FF3EB7H   LINE      CODE     ---       #523
      00FF3EBBH   LINE      CODE     ---       #524
      00FF3EBFH   LINE      CODE     ---       #525
      00FF3EBFH   LINE      CODE     ---       #527
      00FF3EC7H   LINE      CODE     ---       #529
      00FF3ED9H   LINE      CODE     ---       #530
      00FF3EEDH   LINE      CODE     ---       #532
      00FF3EFFH   LINE      CODE     ---       #533
      00FF3F19H   LINE      CODE     ---       #534
      00FF3F1CH   LINE      CODE     ---       #535
      ---         BLOCKEND  ---      ---       LVL=0

      00FF7A4DH   BLOCK     CODE     ---       LVL=0
      00FF7A4DH   LINE      CODE     ---       #544
      00FF7A4DH   LINE      CODE     ---       #546
      00FF7A51H   LINE      CODE     ---       #547
      00FF7A5FH   LINE      CODE     ---       #548
      00FF7A6AH   LINE      CODE     ---       #549
      00FF7A6AH   LINE      CODE     ---       #551
      00FF7A73H   LINE      CODE     ---       #553
      00FF7A7AH   LINE      CODE     ---       #554
      00FF7A83H   LINE      CODE     ---       #555
      00FF7A8AH   LINE      CODE     ---       #556
      00FF7A98H   LINE      CODE     ---       #557
      00FF7AA3H   LINE      CODE     ---       #558
      00FF7AA3H   LINE      CODE     ---       #559
      00FF7AACH   LINE      CODE     ---       #561
      00FF7AB3H   LINE      CODE     ---       #562
      00FF7ABCH   LINE      CODE     ---       #563
      00FF7AC3H   LINE      CODE     ---       #564
      00FF7AD1H   LINE      CODE     ---       #565
      00FF7ADCH   LINE      CODE     ---       #566
      00FF7ADCH   LINE      CODE     ---       #567
      00FF7AE5H   LINE      CODE     ---       #569
      00FF7AECH   LINE      CODE     ---       #570
      00FF7AF5H   LINE      CODE     ---       #571
      00FF7AFCH   LINE      CODE     ---       #572
      00FF7B00H   LINE      CODE     ---       #573
      00FF7B02H   LINE      CODE     ---       #574
      00FF7B02H   LINE      CODE     ---       #576
      ---         BLOCKEND  ---      ---       LVL=0

      00FF8805H   BLOCK     CODE     ---       LVL=0
      00FF8805H   LINE      CODE     ---       #585
      00FF8805H   LINE      CODE     ---       #587
      00FF8805H   LINE      CODE     ---       #589
      00FF8814H   LINE      CODE     ---       #590
      00FF8817H   LINE      CODE     ---       #591
      00FF881AH   LINE      CODE     ---       #592
      00FF8823H   LINE      CODE     ---       #594
      00FF882AH   LINE      CODE     ---       #595
      00FF8833H   LINE      CODE     ---       #596
      00FF883AH   LINE      CODE     ---       #597
      00FF883EH   LINE      CODE     ---       #598
      00FF8840H   LINE      CODE     ---       #599
      00FF8840H   LINE      CODE     ---       #601
      ---         BLOCKEND  ---      ---       LVL=0

      ---         MODULE    ---      ---       SEEKFREE_CONFIG
      00FF00A6H   PUBLIC    CODE     ---       dl1b_default_configuration
      00FF012DH   PUBLIC    CODE     ---       imu660ra_config_file
L251 LINKER/LOCATER V4.66.93.0                                                        04/10/2024  19:22:09  PAGE 120



      ---         MODULE    ---      ---       PRINTF
      00000753H   PUBLIC    EDATA    ---       ?PRINTF?BYTE
      00FF3F1DH   PUBLIC    CODE     NEAR LAB  PRINTF

      ---         MODULE    ---      ---       ?C?PRNFMT
      00FF3F76H   PUBLIC    CODE     ---       ?C?PRNFMT

      ---         MODULE    ---      ---       ?C?FPCONVERT
      00FF4393H   PUBLIC    CODE     ---       ?C?FPCONVERT
      00FF444BH   PUBLIC    CODE     ---       ?C?FPROUND

      ---         MODULE    ---      ---       ?C?FTNPWR
      00FF44BEH   PUBLIC    CODE     ---       ?C?FTNPWR

      ---         MODULE    ---      ---       ?C_START
      00FF0000H   PUBLIC    CODE     ---       ?C?STARTUP
      00FF0000H   PUBLIC    CODE     ---       ?C_STARTUP

      ---         MODULE    ---      ---       ?C?INITEDATA
      00FF879BH   PUBLIC    CODE     ---       ?C?INITEDATA

      ---         MODULE    ---      ---       ?C?SIDIV
      00FF44F5H   PUBLIC    CODE     ---       ?C?SIDIV

      ---         MODULE    ---      ---       ?C?LMUL
      00FF4527H   PUBLIC    CODE     ---       ?C?LMUL

      ---         MODULE    ---      ---       ?C?LIMUL
      00FF4538H   PUBLIC    CODE     ---       ?C?LIMUL

      ---         MODULE    ---      ---       ?C?ULDIV
      00FF4543H   PUBLIC    CODE     NEAR LAB  ?C?ULDIV
      00FF4541H   PUBLIC    CODE     NEAR LAB  ?C?ULIDIV

      ---         MODULE    ---      ---       ?C?SLDIV
      00FF4594H   PUBLIC    CODE     NEAR LAB  ?C?SLDIV

      ---         MODULE    ---      ---       ?C?BMOVENP
      00FF45CAH   PUBLIC    CODE     ---       ?C?BMOVENP
      00FF45C8H   PUBLIC    CODE     ---       ?C?BMOVENP8

      ---         MODULE    ---      ---       ABS
      00FF8C01H   PUBLIC    CODE     ---       abs?_

      ---         MODULE    ---      ---       memcpy
      00FF8AB1H   PUBLIC    CODE     ---       memcpy?_

      ---         MODULE    ---      ---       memset

      ---         MODULE    ---      ---       ?C?INITEDATA_END
      00FF8FBAH   PUBLIC    HCONST   WORD      ?C?INITEDATA_END

Program Size: data=8.0 edata+hdata=3967 xdata=0 const=1493 code=35878
L251 RUN COMPLETE.  0 WARNING(S),  0 ERROR(S)
