L251 LINKER/LOCATER V4.66.93.0                                                          04/24/2024  17:02:24  PAGE 1


L251 LINKER/LOCATER V4.66.93.0, INVOKED BY:
F:\KEIL_C251\C251\BIN\L251.EXE .\Out_File\board.obj, .\Out_File\common.obj, ..\..\Libraries\libraries\STC32_FPMU_LARGE_V
>> 1.0.LIB (STC32F_FPMU), .\Out_File\zf_adc.obj, .\Out_File\zf_delay.obj, .\Out_File\zf_eeprom.obj, .\Out_File\zf_exti.o
>> bj, .\Out_File\zf_gpio.obj, .\Out_File\zf_iic.obj, .\Out_File\zf_nvic.obj, .\Out_File\zf_pwm.obj, .\Out_File\zf_spi.o
>> bj, .\Out_File\zf_tim.obj, .\Out_File\zf_uart.obj, .\Out_File\zf_fifo.obj, .\Out_File\SEEKFREE_18TFT.obj, .\Out_File\
>> SEEKFREE_ABSOLUTE_ENCODER.obj, .\Out_File\SEEKFREE_BLUETOOTH_CH9141.obj, ..\..\Libraries\seekfree_peripheral\SEEKFREE
>> _CONFIG.LIB, .\Out_File\SEEKFREE_DL1A.obj, .\Out_File\SEEKFREE_FONT.obj, .\Out_File\SEEKFREE_ICM20602.obj, .\Out_File
>> \SEEKFREE_IMU660RA.obj, .\Out_File\SEEKFREE_IMU963RA.obj, .\Out_File\SEEKFREE_IPS114_SPI.obj, .\Out_File\SEEKFREE_MPU
>> 6050.obj, .\Out_File\SEEKFREE_OLED.obj, .\Out_File\SEEKFREE_PRINTF.obj, .\Out_File\SEEKFREE_TSL1401.obj, .\Out_File\S
>> EEKFREE_VIRSCO.obj, .\Out_File\SEEKFREE_WIRELESS.obj, .\Out_File\isr.obj, .\Out_File\main.obj, .\Out_File\Inductance.
>> obj, .\Out_File\Motor.obj, .\Out_File\encoder.obj, .\Out_File\direction.obj, .\Out_File\vofa.obj, .\Out_File\mpu6050.
>> obj, .\Out_File\TrackElement.obj, .\Out_File\menu.obj TO .\Out_File\SEEKFREE PRINT (.\Out_File\SEEKFREE.map) CASE DIS
>> ABLEWARNING (16, 57) REMOVEUNUSED CLASSES (EDATA (0X0-0X1FFF), HDATA (0X0-0X1FFF, 0XFE0000-0XFFFFFF))


CPU MODE:     251 SOURCE MODE
INTR FRAME:   4 BYTES SAVED ON INTERRUPT
MEMORY MODEL: XSMALL WITH FLOATING POINT ARITHMETIC


INPUT MODULES INCLUDED:
  .\Out_File\board.obj (board)
         COMMENT TYPE 0: C251 V5.60.0
  .\Out_File\common.obj (common)
         COMMENT TYPE 0: C251 V5.60.0
  ..\..\Libraries\libraries\STC32_FPMU_LARGE_V1.0.LIB (STC32F_FPMU)
         COMMENT TYPE 0: A251 V4.69.13.0
  .\Out_File\zf_adc.obj (zf_adc)
         COMMENT TYPE 0: C251 V5.60.0
  .\Out_File\zf_delay.obj (zf_delay)
         COMMENT TYPE 0: C251 V5.60.0
  .\Out_File\zf_eeprom.obj (zf_eeprom)
         COMMENT TYPE 0: C251 V5.60.0
  .\Out_File\zf_exti.obj (zf_exti)
         COMMENT TYPE 0: C251 V5.60.0
  .\Out_File\zf_gpio.obj (zf_gpio)
         COMMENT TYPE 0: C251 V5.60.0
  .\Out_File\zf_iic.obj (zf_iic)
         COMMENT TYPE 0: C251 V5.60.0
  .\Out_File\zf_nvic.obj (zf_nvic)
         COMMENT TYPE 0: C251 V5.60.0
  .\Out_File\zf_pwm.obj (zf_pwm)
         COMMENT TYPE 0: C251 V5.60.0
  .\Out_File\zf_spi.obj (zf_spi)
         COMMENT TYPE 0: C251 V5.60.0
  .\Out_File\zf_tim.obj (zf_tim)
         COMMENT TYPE 0: C251 V5.60.0
  .\Out_File\zf_uart.obj (zf_uart)
         COMMENT TYPE 0: C251 V5.60.0
  .\Out_File\zf_fifo.obj (zf_fifo)
         COMMENT TYPE 0: C251 V5.60.0
  .\Out_File\SEEKFREE_18TFT.obj (SEEKFREE_18TFT)
         COMMENT TYPE 0: C251 V5.60.0
  .\Out_File\SEEKFREE_ABSOLUTE_ENCODER.obj (SEEKFREE_ABSOLUTE_ENCODER)
         COMMENT TYPE 0: C251 V5.60.0
  .\Out_File\SEEKFREE_BLUETOOTH_CH9141.obj (SEEKFREE_BLUETOOTH_CH9141)
         COMMENT TYPE 0: C251 V5.60.0
  .\Out_File\SEEKFREE_DL1A.obj (SEEKFREE_DL1A)
         COMMENT TYPE 0: C251 V5.60.0
  .\Out_File\SEEKFREE_FONT.obj (SEEKFREE_FONT)
         COMMENT TYPE 0: C251 V5.60.0
  .\Out_File\SEEKFREE_ICM20602.obj (SEEKFREE_ICM20602)
         COMMENT TYPE 0: C251 V5.60.0
  .\Out_File\SEEKFREE_IMU660RA.obj (SEEKFREE_IMU660RA)
         COMMENT TYPE 0: C251 V5.60.0
  .\Out_File\SEEKFREE_IMU963RA.obj (SEEKFREE_IMU963RA)
L251 LINKER/LOCATER V4.66.93.0                                                        04/24/2024  17:02:24  PAGE 2


         COMMENT TYPE 0: C251 V5.60.0
  .\Out_File\SEEKFREE_IPS114_SPI.obj (SEEKFREE_IPS114_SPI)
         COMMENT TYPE 0: C251 V5.60.0
  .\Out_File\SEEKFREE_MPU6050.obj (SEEKFREE_MPU6050)
         COMMENT TYPE 0: C251 V5.60.0
  .\Out_File\SEEKFREE_OLED.obj (SEEKFREE_OLED)
         COMMENT TYPE 0: C251 V5.60.0
  .\Out_File\SEEKFREE_PRINTF.obj (SEEKFREE_PRINTF)
         COMMENT TYPE 0: C251 V5.60.0
  .\Out_File\SEEKFREE_TSL1401.obj (SEEKFREE_TSL1401)
         COMMENT TYPE 0: C251 V5.60.0
  .\Out_File\SEEKFREE_VIRSCO.obj (SEEKFREE_VIRSCO)
         COMMENT TYPE 0: C251 V5.60.0
  .\Out_File\SEEKFREE_WIRELESS.obj (SEEKFREE_WIRELESS)
         COMMENT TYPE 0: C251 V5.60.0
  .\Out_File\isr.obj (isr)
         COMMENT TYPE 0: C251 V5.60.0
  .\Out_File\main.obj (main)
         COMMENT TYPE 0: C251 V5.60.0
  .\Out_File\Inductance.obj (Inductance)
         COMMENT TYPE 0: C251 V5.60.0
  .\Out_File\Motor.obj (Motor)
         COMMENT TYPE 0: C251 V5.60.0
  .\Out_File\encoder.obj (encoder)
         COMMENT TYPE 0: C251 V5.60.0
  .\Out_File\direction.obj (direction)
         COMMENT TYPE 0: C251 V5.60.0
  .\Out_File\vofa.obj (vofa)
         COMMENT TYPE 0: C251 V5.60.0
  .\Out_File\mpu6050.obj (mpu6050)
         COMMENT TYPE 0: C251 V5.60.0
  .\Out_File\TrackElement.obj (TrackElement)
         COMMENT TYPE 0: C251 V5.60.0
  .\Out_File\menu.obj (menu)
         COMMENT TYPE 0: C251 V5.60.0
  ..\..\Libraries\seekfree_peripheral\SEEKFREE_CONFIG.LIB (SEEKFREE_CONFIG)
         COMMENT TYPE 0: C251 V5.60.0
  F:\KEIL_C251\C251\LIB\C2SFPXS.LIB (PRINTF)
         COMMENT TYPE 0: A251 V4.69.6.0
  F:\KEIL_C251\C251\LIB\C2SFPXS.LIB (?C?PRNFMT)
         COMMENT TYPE 0: A251 V4.69.6.0
  F:\KEIL_C251\C251\LIB\C2SFPXS.LIB (?C?FPCONVERT)
         COMMENT TYPE 0: A251 V4.69.6.0
  F:\KEIL_C251\C251\LIB\C2SFPXS.LIB (?C?FTNPWR)
         COMMENT TYPE 0: A251 V4.69.6.0
  F:\KEIL_C251\C251\LIB\C2SXS.LIB (?C_START)
         COMMENT TYPE 0: A251 V4.69.6.0
  F:\KEIL_C251\C251\LIB\C2SXS.LIB (?C?INITEDATA)
         COMMENT TYPE 0: A251 V4.69.6.0
  F:\KEIL_C251\C251\LIB\C2SXS.LIB (?C?SIDIV)
         COMMENT TYPE 0: A251 V4.69.6.0
  F:\KEIL_C251\C251\LIB\C2SXS.LIB (?C?LMUL)
         COMMENT TYPE 0: A251 V4.69.6.0
  F:\KEIL_C251\C251\LIB\C2SXS.LIB (?C?LIMUL)
         COMMENT TYPE 0: A251 V4.69.6.0
  F:\KEIL_C251\C251\LIB\C2SXS.LIB (?C?ULDIV)
         COMMENT TYPE 0: A251 V4.69.6.0
  F:\KEIL_C251\C251\LIB\C2SXS.LIB (?C?SLDIV)
         COMMENT TYPE 0: A251 V4.69.6.0
  F:\KEIL_C251\C251\LIB\C2SXS.LIB (?C?BMOVENP)
         COMMENT TYPE 0: A251 V4.69.6.0
  F:\KEIL_C251\C251\LIB\C2SXS.LIB (ABS)
         COMMENT TYPE 0: C251 V5.58.7
  F:\KEIL_C251\C251\LIB\C2SXS.LIB (memcpy)
         COMMENT TYPE 0: C251 V5.58.7
L251 LINKER/LOCATER V4.66.93.0                                                        04/24/2024  17:02:24  PAGE 3


  F:\KEIL_C251\C251\LIB\C2SXS.LIB (memset)
         COMMENT TYPE 0: C251 V5.58.7
  F:\KEIL_C251\C251\LIB\C2SXS.LIB (?C?INITEDATA_END)
         COMMENT TYPE 0: A251 V4.69.6.0


ACTIVE MEMORY CLASSES OF MODULE:  .\Out_File\SEEKFREE (board)

BASE        START       END         USED      MEMORY CLASS
==========================================================
000000H     000000H     001FFFH     000FA1H   EDATA
000000H     000000H     001FFFH               HDATA
            FE0000H     FFFFFFH                 
FF0000H     FF0000H     FFFFFFH     008ACFH   CODE
000000H     FF0000H     FFFFFFH     0005FBH   HCONST
FF0000H     FF0000H     FFFFFFH     000004H   CONST
000000H     000000H     00007FH     000008H   DATA


MEMORY MAP OF MODULE:  .\Out_File\SEEKFREE (board)


START     STOP      LENGTH    ALIGN  RELOC    MEMORY CLASS   SEGMENT NAME
=========================================================================
000000H   000007H   000008H   ---    AT..     DATA           "REG BANK 0"
000008H   00010FH   000108H   BYTE   UNIT     EDATA          ?ED?INDUCTANCE
000110H   000210H   000101H   BYTE   UNIT     EDATA          ?ED?SEEKFREE_TSL1401
000211H   000290H   000080H   BYTE   UNIT     EDATA          ?ED?VOFA
000291H   0002F0H   000060H   BYTE   UNIT     EDATA          ?ED?TRACKELEMENT
0002F1H   00034FH   00005FH   BYTE   UNIT     EDATA          ?ED?ZF_SPRINTF?SEEKFREE_PRINTF
000350H   0003A4H   000055H   BYTE   UNIT     EDATA          ?ED?SEEKFREE_BLUETOOTH_CH9141
0003A5H   0003F9H   000055H   BYTE   UNIT     EDATA          ?ED?SEEKFREE_WIRELESS
0003FAH   000431H   000038H   BYTE   UNIT     EDATA          ?ED?MOTOR
000432H   000461H   000030H   BYTE   UNIT     EDATA          ?ED?LCD_SHOWFLOAT_SIMSPI?SEEKFREE_18TFT
000462H   000491H   000030H   BYTE   UNIT     EDATA          ?ED?LCD_SHOWFLOAT?SEEKFREE_18TFT
000492H   0004C1H   000030H   BYTE   UNIT     EDATA          ?ED?IPS114_SHOWFLOAT_SIMSPI?SEEKFREE_IPS114_SPI
0004C2H   0004F1H   000030H   BYTE   UNIT     EDATA          ?ED?IPS114_SHOWFLOAT?SEEKFREE_IPS114_SPI
0004F2H   000521H   000030H   BYTE   UNIT     EDATA          ?ED?OLED_PRINTF_FLOAT_PX8?SEEKFREE_OLED
000522H   000551H   000030H   BYTE   UNIT     EDATA          ?ED?OLED_PRINTF_FLOAT?SEEKFREE_OLED
000552H   000581H   000030H   BYTE   UNIT     EDATA          ?ED?OLED_PRINTF_FLOAT_SPI?SEEKFREE_OLED
000582H   0005B1H   000030H   BYTE   UNIT     EDATA          ?ED?MPU6050
0005B2H   0005E0H   00002FH   BYTE   UNIT     EDATA          ?ED?DL1A_SET_MEASUREMENT_TIMING_BUDGET?SEEKFREE_DL1A
0005E1H   00060CH   00002CH   BYTE   UNIT     EDATA          ?ED?LCD_SHOWINT32_SIMSPI?SEEKFREE_18TFT
00060DH   000638H   00002CH   BYTE   UNIT     EDATA          ?ED?LCD_SHOWINT32?SEEKFREE_18TFT
000639H   000664H   00002CH   BYTE   UNIT     EDATA          ?ED?IPS114_SHOWINT32_SIMSPI?SEEKFREE_IPS114_SPI
000665H   000690H   00002CH   BYTE   UNIT     EDATA          ?ED?IPS114_SHOWINT32?SEEKFREE_IPS114_SPI
000691H   0006BCH   00002CH   BYTE   UNIT     EDATA          ?ED?OLED_PRINTF_INT32?SEEKFREE_OLED
0006BDH   0006E8H   00002CH   BYTE   UNIT     EDATA          ?ED?OLED_PRINTF_INT32_SPI?SEEKFREE_OLED
0006E9H   000714H   00002CH   BYTE   UNIT     EDATA          ?ED?DIRECTION
000715H   00073CH   000028H   BYTE   UNIT     EDATA          ?ED?NORMALIZATION_TRACKING_ADC?INDUCTANCE
00073DH   000764H   000028H   BYTE   UNIT     EDATA          _EDATA_GROUP_
000765H   000783H   00001FH   BYTE   UNIT     EDATA          ?ED?DL1A_GET_MEASUREMENT_TIMING_BUDGET?SEEKFREE_DL1A
000784H   0007A1H   00001EH   BYTE   UNIT     EDATA          ?ED?ANGLE_RING?DIRECTION
0007A2H   0007BFH   00001EH   BYTE   UNIT     EDATA          ?ED?GET_ANGLE?MPU6050
0007C0H   0007D9H   00001AH   BYTE   UNIT     EDATA          ?ED?ENCODER
0007DAH   0007F3H   00001AH   BYTE   UNIT     EDATA          ?ED?DIRCONTROL_2?DIRECTION
0007F4H   00080DH   00001AH   BYTE   UNIT     EDATA          ?ED?SECOND__NWHUAN_MENU?MENU
00080EH   000823H   000016H   BYTE   UNIT     EDATA          ?ED?WH_TURN_OUT?DIRECTION
000824H   000839H   000016H   BYTE   UNIT     EDATA          ?ED?NH_TURN_OUT?DIRECTION
00083AH   00084FH   000016H   BYTE   UNIT     EDATA          ?ED?SEND4DATATOVOFA?VOFA
000850H   000864H   000015H   BYTE   UNIT     EDATA          ?ED?DL1A_INIT?SEEKFREE_DL1A
000865H   000878H   000014H   BYTE   UNIT     EDATA          ?ED?PWM_INIT?ZF_PWM
000879H   00088CH   000014H   BYTE   UNIT     EDATA          ?ED?PWM_FREQ?ZF_PWM
00088DH   0008A0H   000014H   BYTE   UNIT     EDATA          ?ED?NUMBER_CONVERSION_ASCII?SEEKFREE_PRINTF
0008A1H   0008B4H   000014H   BYTE   UNIT     EDATA          ?ED?SQ?INDUCTANCE
L251 LINKER/LOCATER V4.66.93.0                                                        04/24/2024  17:02:24  PAGE 4


0008B5H   0008C7H   000013H   BYTE   UNIT     EDATA          ?ED?FIFO_READ_BUFFER?ZF_FIFO
0008C8H   0008D9H   000012H   BYTE   UNIT     EDATA          ?ED?SEEKFREE_IMU963RA
0008DAH   0008EBH   000012H   BYTE   UNIT     EDATA          ?ED?OLED_DIS_BMP?SEEKFREE_OLED
0008ECH   0008FDH   000012H   BYTE   UNIT     EDATA          ?ED?OLED_DIS_BMP_SPI?SEEKFREE_OLED
0008FEH   00090DH   000010H   BYTE   UNIT     EDATA          ?ED?FIFO_WRITE_BUFFER?ZF_FIFO
00090EH   00091DH   000010H   BYTE   UNIT     EDATA          ?ED?SECOND_ELEMENT_MENU?MENU
00091EH   00092DH   000010H   BYTE   UNIT     EDATA          ?ED?SECOND_MOTOR_MENU?MENU
00092EH   00093BH   00000EH   BYTE   UNIT     EDATA          ?ED?PWM_DUTY?ZF_PWM
00093CH   000949H   00000EH   BYTE   UNIT     EDATA          ?ED?UART_INIT?ZF_UART
00094AH   000957H   00000EH   BYTE   UNIT     EDATA          ?ED?OLED_PRINT_CHINESE?SEEKFREE_OLED
000958H   000965H   00000EH   BYTE   UNIT     EDATA          ?ED?OLED_PRINT_CHINESE_SPI?SEEKFREE_OLED
000966H   000973H   00000EH   BYTE   UNIT     EDATA          ?ED?DATA_CONVERSION?SEEKFREE_VIRSCO
000974H   000981H   00000EH   BYTE   UNIT     EDATA          ?ED?SPEED_PID_OUT?MOTOR
000982H   00098EH   00000DH   BYTE   UNIT     EDATA          ?ED?ICM20602_SIMSPI_R_REG_BYTES?SEEKFREE_ICM20602
00098FH   00099BH   00000DH   BYTE   UNIT     EDATA          ?ED?PRINTF_REVERSE_ORDER?SEEKFREE_PRINTF
00099CH   0009A7H   00000CH   BYTE   UNIT     EDATA          ?ED?FIFO_INIT?ZF_FIFO
0009A8H   0009B3H   00000CH   BYTE   UNIT     EDATA          ?ED?LCD_SHOWINT16_SIMSPI?SEEKFREE_18TFT
0009B4H   0009BFH   00000CH   BYTE   UNIT     EDATA          ?ED?LCD_SHOWUINT16_SIMSPI?SEEKFREE_18TFT
0009C0H   0009CBH   00000CH   BYTE   UNIT     EDATA          ?ED?LCD_SHOWINT16?SEEKFREE_18TFT
0009CCH   0009D7H   00000CH   BYTE   UNIT     EDATA          ?ED?LCD_SHOWUINT16?SEEKFREE_18TFT
0009D8H   0009E3H   00000CH   BYTE   UNIT     EDATA          ?ED?SHOWIMAGE?SEEKFREE_18TFT
0009E4H   0009EFH   00000CH   BYTE   UNIT     EDATA          ?ED?BLUETOOTH_CH9141_READ_BUFF?SEEKFREE_BLUETOOTH_CH9141
0009F0H   0009FBH   00000CH   BYTE   UNIT     EDATA          ?ED?DL1A_GET_SPAD_INFO?SEEKFREE_DL1A
0009FCH   000A07H   00000CH   BYTE   UNIT     EDATA          ?ED?DL1A_GET_SEQUENCE_STEP_TIMEOUTS?SEEKFREE_DL1A
000A08H   000A13H   00000CH   BYTE   UNIT     EDATA          ?ED?SEEKFREE_ICM20602
000A14H   000A1FH   00000CH   BYTE   UNIT     EDATA          ?ED?SEEKFREE_IMU660RA
000A20H   000A2BH   00000CH   BYTE   UNIT     EDATA          ?ED?IMU660RA_SIMIIC_WRITE_REGS?SEEKFREE_IMU660RA
000A2CH   000A37H   00000CH   BYTE   UNIT     EDATA          ?ED?IPS114_SHOWINT16_SIMSPI?SEEKFREE_IPS114_SPI
000A38H   000A43H   00000CH   BYTE   UNIT     EDATA          ?ED?IPS114_SHOWUINT16_SIMSPI?SEEKFREE_IPS114_SPI
000A44H   000A4FH   00000CH   BYTE   UNIT     EDATA          ?ED?IPS114_SHOWINT16?SEEKFREE_IPS114_SPI
000A50H   000A5BH   00000CH   BYTE   UNIT     EDATA          ?ED?IPS114_SHOWUINT16?SEEKFREE_IPS114_SPI
000A5CH   000A67H   00000CH   BYTE   UNIT     EDATA          ?ED?SEEKFREE_MPU6050
000A68H   000A73H   00000CH   BYTE   UNIT     EDATA          ?ED?WIRELESS_UART_READ_BUFF?SEEKFREE_WIRELESS
000A74H   000A7FH   00000CH   BYTE   UNIT     EDATA          ?ED?MOTOR_SET_PID?MOTOR
000A80H   000A8BH   00000CH   BYTE   UNIT     EDATA          ?ED?LOWPASSFILTER?MPU6050
000A8CH   000A96H   00000BH   BYTE   UNIT     EDATA          ?ED?OLED_UINT16_PX8?SEEKFREE_OLED
000A97H   000AA1H   00000BH   BYTE   UNIT     EDATA          ?ED?OLED_UINT16?SEEKFREE_OLED
000AA2H   000AACH   00000BH   BYTE   UNIT     EDATA          ?ED?OLED_INT16?SEEKFREE_OLED
000AADH   000AB7H   00000BH   BYTE   UNIT     EDATA          ?ED?OLED_UINT16_SPI?SEEKFREE_OLED
000AB8H   000AC2H   00000BH   BYTE   UNIT     EDATA          ?ED?OLED_INT16_SPI?SEEKFREE_OLED
000AC3H   000ACCH   00000AH   BYTE   UNIT     EDATA          ?ED?IAP_READ_BYTES?ZF_EEPROM
000ACDH   000AD6H   00000AH   BYTE   UNIT     EDATA          ?ED?IAP_WRITE_BYTES?ZF_EEPROM
000AD7H   000AE0H   00000AH   BYTE   UNIT     EDATA          ?ED?LCD_SHOWSTR_SIMSPI?SEEKFREE_18TFT
000AE1H   000AEAH   00000AH   BYTE   UNIT     EDATA          ?ED?LCD_SHOWSTR?SEEKFREE_18TFT
000AEBH   000AF4H   00000AH   BYTE   UNIT     EDATA          ?ED?BLUETOOTH_CH9141_SEND_BUFF?SEEKFREE_BLUETOOTH_CH9141
000AF5H   000AFEH   00000AH   BYTE   UNIT     EDATA          ?ED?DL1A_SIMIIC_READ_REGS?SEEKFREE_DL1A
000AFFH   000B08H   00000AH   BYTE   UNIT     EDATA          ?ED?DL1A_SIMIIC_READ_REGS_1?SEEKFREE_DL1A
000B09H   000B12H   00000AH   BYTE   UNIT     EDATA          ?ED?DL1A_ENCODE_TIMEOUT?SEEKFREE_DL1A
000B13H   000B1CH   00000AH   BYTE   UNIT     EDATA          ?ED?IMU660RA_SIMIIC_READ_REGS?SEEKFREE_IMU660RA
000B1DH   000B26H   00000AH   BYTE   UNIT     EDATA          ?ED?IPS114_SHOWSTR_SIMSPI?SEEKFREE_IPS114_SPI
000B27H   000B30H   00000AH   BYTE   UNIT     EDATA          ?ED?IPS114_SHOWSTR?SEEKFREE_IPS114_SPI
000B31H   000B3AH   00000AH   BYTE   UNIT     EDATA          ?ED?SEEKFREE_VIRSCO
000B3BH   000B44H   00000AH   BYTE   UNIT     EDATA          ?ED?MEDIANFILTER1?MPU6050
000B45H   000B4DH   000009H   BYTE   UNIT     EDATA          ?ED?LCD_SHOWINT8_SIMSPI?SEEKFREE_18TFT
000B4EH   000B56H   000009H   BYTE   UNIT     EDATA          ?ED?LCD_SHOWUINT8_SIMSPI?SEEKFREE_18TFT
000B57H   000B5FH   000009H   BYTE   UNIT     EDATA          ?ED?LCD_SHOWINT8?SEEKFREE_18TFT
000B60H   000B68H   000009H   BYTE   UNIT     EDATA          ?ED?LCD_SHOWUINT8?SEEKFREE_18TFT
000B69H   000B71H   000009H   BYTE   UNIT     EDATA          ?ED?DL1A_SIMIIC_WRITE_DATS?SEEKFREE_DL1A
000B72H   000B7AH   000009H   BYTE   UNIT     EDATA          ?ED?DL1A_TIMEOUT_MICROSECONDS_TO_MCLKS?SEEKFREE_DL1A
000B7BH   000B83H   000009H   BYTE   UNIT     EDATA          ?ED?DL1A_SET_SIGNAL_RATE_LIMIT?SEEKFREE_DL1A
000B84H   000B8CH   000009H   BYTE   UNIT     EDATA          ?ED?ICM20602_READ_REGISTERS?SEEKFREE_ICM20602
000B8DH   000B95H   000009H   BYTE   UNIT     EDATA          ?ED?IMU963RA_SIMSPI_R_REG_BYTES?SEEKFREE_IMU963RA
000B96H   000B9EH   000009H   BYTE   UNIT     EDATA          ?ED?IMU963RA_READ_ACC_GYRO_REGISTERS?SEEKFREE_IMU963RA
000B9FH   000BA7H   000009H   BYTE   UNIT     EDATA          ?ED?IPS114_SHOWINT8_SIMSPI?SEEKFREE_IPS114_SPI
000BA8H   000BB0H   000009H   BYTE   UNIT     EDATA          ?ED?IPS114_SHOWUINT8_SIMSPI?SEEKFREE_IPS114_SPI
L251 LINKER/LOCATER V4.66.93.0                                                        04/24/2024  17:02:24  PAGE 5


000BB1H   000BB9H   000009H   BYTE   UNIT     EDATA          ?ED?IPS114_SHOWINT8?SEEKFREE_IPS114_SPI
000BBAH   000BC2H   000009H   BYTE   UNIT     EDATA          ?ED?IPS114_SHOWUINT8?SEEKFREE_IPS114_SPI
000BC3H   000BCBH   000009H   BYTE   UNIT     EDATA          ?ED?OLED_P6X8STR?SEEKFREE_OLED
000BCCH   000BD4H   000009H   BYTE   UNIT     EDATA          ?ED?OLED_P8X16STR?SEEKFREE_OLED
000BD5H   000BDDH   000009H   BYTE   UNIT     EDATA          ?ED?OLED_P6X8STR_SPI?SEEKFREE_OLED
000BDEH   000BE6H   000009H   BYTE   UNIT     EDATA          ?ED?OLED_P8X16STR_SPI?SEEKFREE_OLED
000BE7H   000BEFH   000009H   BYTE   UNIT     EDATA          ?ED?CRC_CHECK?SEEKFREE_VIRSCO
000BF0H   000BF7H   000008H   BYTE   UNIT     EDATA          ?ED?SET_CLK?BOARD
000BF8H   000BFFH   000008H   BYTE   UNIT     EDATA          ?ED?UART_PUTBUFF?ZF_UART
000C00H   000C07H   000008H   BYTE   UNIT     EDATA          ?ED?FIFO_HEAD_OFFSET?ZF_FIFO
000C08H   000C0FH   000008H   BYTE   UNIT     EDATA          ?ED?FIFO_END_OFFSET?ZF_FIFO
000C10H   000C17H   000008H   BYTE   UNIT     EDATA          ?ED?LCD_SET_REGION_SIMSPI?SEEKFREE_18TFT
000C18H   000C1FH   000008H   BYTE   UNIT     EDATA          ?ED?LCD_SHOWCHAR_SIMSPI?SEEKFREE_18TFT
000C20H   000C27H   000008H   BYTE   UNIT     EDATA          ?ED?LCD_SET_REGION?SEEKFREE_18TFT
000C28H   000C2FH   000008H   BYTE   UNIT     EDATA          ?ED?LCD_SHOWCHAR?SEEKFREE_18TFT
000C30H   000C37H   000008H   BYTE   UNIT     EDATA          ?ED?IPS114_SET_REGION_SIMSPI?SEEKFREE_IPS114_SPI
000C38H   000C3FH   000008H   BYTE   UNIT     EDATA          ?ED?IPS114_SHOWCHAR_SIMSPI?SEEKFREE_IPS114_SPI
000C40H   000C47H   000008H   BYTE   UNIT     EDATA          ?ED?IPS114_SET_REGION?SEEKFREE_IPS114_SPI
000C48H   000C4FH   000008H   BYTE   UNIT     EDATA          ?ED?IPS114_SHOWCHAR?SEEKFREE_IPS114_SPI
000C50H   000C57H   000008H   BYTE   UNIT     EDATA          ?ED?OLED_HEXASCII?SEEKFREE_OLED
000C58H   000C5FH   000008H   BYTE   UNIT     EDATA          ?ED?OLED_HEXASCII_SPI?SEEKFREE_OLED
000C60H   000C67H   000008H   BYTE   UNIT     EDATA          ?ED?SUB_PID?TRACKELEMENT
000C68H   000C6EH   000007H   BYTE   UNIT     EDATA          ?ED?IIC_READ_REG_BYTES?ZF_IIC
000C6FH   000C75H   000007H   BYTE   UNIT     EDATA          ?ED?SPI_INIT?ZF_SPI
000C76H   000C7CH   000007H   BYTE   UNIT     EDATA          ?ED?DL1A_TIMEOUT_MCLKS_TO_MICROSECONDS?SEEKFREE_DL1A
000C7DH   000C83H   000007H   BYTE   UNIT     EDATA          ?ED?IMU963RA_GET_MAG?SEEKFREE_IMU963RA
000C84H   000C8AH   000007H   BYTE   UNIT     EDATA          ?ED?MPU6050_SIMIIC_READ_REGS?SEEKFREE_MPU6050
000C8BH   000C91H   000007H   BYTE   UNIT     EDATA          ?ED?CCD_SEND_DATA?SEEKFREE_TSL1401
000C92H   000C97H   000006H   BYTE   UNIT     EDATA          ?ED?ADC_ONCE?ZF_ADC
000C98H   000C9DH   000006H   BYTE   UNIT     EDATA          ?ED?DELAY_US?ZF_DELAY
000C9EH   000CA3H   000006H   BYTE   UNIT     EDATA          ?ED?IIC_INIT?ZF_IIC
000CA4H   000CA9H   000006H   BYTE   UNIT     EDATA          ?ED?IIC_READ_REG?ZF_IIC
000CAAH   000CAFH   000006H   BYTE   UNIT     EDATA          ?ED?PIT_TIMER_MS?ZF_TIM
000CB0H   000CB5H   000006H   BYTE   UNIT     EDATA          ?ED?UART_PUTSTR?ZF_UART
000CB6H   000CBBH   000006H   BYTE   UNIT     EDATA          ?ED?LCD_DRAWPOINT_SIMSPI?SEEKFREE_18TFT
000CBCH   000CC1H   000006H   BYTE   UNIT     EDATA          ?ED?LCD_DRAWPOINT?SEEKFREE_18TFT
000CC2H   000CC7H   000006H   BYTE   UNIT     EDATA          ?ED?ICM20602_GET_ACC?SEEKFREE_ICM20602
000CC8H   000CCDH   000006H   BYTE   UNIT     EDATA          ?ED?ICM20602_GET_GYRO?SEEKFREE_ICM20602
000CCEH   000CD3H   000006H   BYTE   UNIT     EDATA          ?ED?ICM20602_ACC_TRANSITION?SEEKFREE_ICM20602
000CD4H   000CD9H   000006H   BYTE   UNIT     EDATA          ?ED?ICM20602_GYRO_TRANSITION?SEEKFREE_ICM20602
000CDAH   000CDFH   000006H   BYTE   UNIT     EDATA          ?ED?IMU660RA_GET_ACC?SEEKFREE_IMU660RA
000CE0H   000CE5H   000006H   BYTE   UNIT     EDATA          ?ED?IMU660RA_GET_GYRO?SEEKFREE_IMU660RA
000CE6H   000CEBH   000006H   BYTE   UNIT     EDATA          ?ED?IMU660RA_ACC_TRANSITION?SEEKFREE_IMU660RA
000CECH   000CF1H   000006H   BYTE   UNIT     EDATA          ?ED?IMU660RA_GYRO_TRANSITION?SEEKFREE_IMU660RA
000CF2H   000CF7H   000006H   BYTE   UNIT     EDATA          ?ED?IMU963RA_WRITE_MAG_REGISTER?SEEKFREE_IMU963RA
000CF8H   000CFDH   000006H   BYTE   UNIT     EDATA          ?ED?IMU963RA_GET_ACC?SEEKFREE_IMU963RA
000CFEH   000D03H   000006H   BYTE   UNIT     EDATA          ?ED?IMU963RA_GET_GYRO?SEEKFREE_IMU963RA
000D04H   000D09H   000006H   BYTE   UNIT     EDATA          ?ED?IMU963RA_ACC_TRANSITION?SEEKFREE_IMU963RA
000D0AH   000D0FH   000006H   BYTE   UNIT     EDATA          ?ED?IMU963RA_GYRO_TRANSITION?SEEKFREE_IMU963RA
000D10H   000D15H   000006H   BYTE   UNIT     EDATA          ?ED?IMU963RA_MAG_TRANSITION?SEEKFREE_IMU963RA
000D16H   000D1BH   000006H   BYTE   UNIT     EDATA          ?ED?IPS114_CLEAR_SIMSPI?SEEKFREE_IPS114_SPI
000D1CH   000D21H   000006H   BYTE   UNIT     EDATA          ?ED?IPS114_DRAWPOINT_SIMSPI?SEEKFREE_IPS114_SPI
000D22H   000D27H   000006H   BYTE   UNIT     EDATA          ?ED?IPS114_CLEAR?SEEKFREE_IPS114_SPI
000D28H   000D2DH   000006H   BYTE   UNIT     EDATA          ?ED?IPS114_DRAWPOINT?SEEKFREE_IPS114_SPI
000D2EH   000D33H   000006H   BYTE   UNIT     EDATA          ?ED?MPU6050_GET_ACCDATA?SEEKFREE_MPU6050
000D34H   000D39H   000006H   BYTE   UNIT     EDATA          ?ED?MPU6050_GET_GYRO?SEEKFREE_MPU6050
000D3AH   000D3FH   000006H   BYTE   UNIT     EDATA          ?ED?WIRELESS_UART_SEND_BUFF?SEEKFREE_WIRELESS
000D40H   000D44H   000005H   BYTE   UNIT     EDATA          ?ED?ZF_UART
000D45H   000D49H   000005H   BYTE   UNIT     EDATA          ?ED?SIMSPI_R_REG_BYTE?SEEKFREE_ABSOLUTE_ENCODER
000D4AH   000D4EH   000005H   BYTE   UNIT     EDATA          ?ED?ENCODER_SIMSPI_R_REG_BYTE?SEEKFREE_ABSOLUTE_ENCODER
000D4FH   000D53H   000005H   BYTE   UNIT     EDATA          ?ED?SPI_R_REG_BYTE?SEEKFREE_ABSOLUTE_ENCODER
000D54H   000D58H   000005H   BYTE   UNIT     EDATA          ?ED?ENCODER_SPI_R_REG_BYTE?SEEKFREE_ABSOLUTE_ENCODER
000D59H   000D5DH   000005H   BYTE   UNIT     EDATA          ?ED?DL1A_GET_SEQUENCE_STEP_ENABLES?SEEKFREE_DL1A
000D5EH   000D62H   000005H   BYTE   UNIT     EDATA          ?ED?DL1A_PERFORM_SINGLE_REF_CALIBRATION?SEEKFREE_DL1A
000D63H   000D67H   000005H   BYTE   UNIT     EDATA          ?ED?ICM20602_SIMSPI_R_REG_BYTE?SEEKFREE_ICM20602
L251 LINKER/LOCATER V4.66.93.0                                                        04/24/2024  17:02:24  PAGE 6


000D68H   000D6CH   000005H   BYTE   UNIT     EDATA          ?ED?IMU963RA_SIMSPI_R_REG_BYTE?SEEKFREE_IMU963RA
000D6DH   000D71H   000005H   BYTE   UNIT     EDATA          ?ED?ISR
000D72H   000D76H   000005H   BYTE   UNIT     EDATA          ?ED?FILTER_1?MOTOR
000D77H   000D7AH   000004H   BYTE   UNIT     EDATA          ?ED?BOARD
000D7BH   000D7EH   000004H   BYTE   UNIT     EDATA          ?ED?CLOCK_INIT?BOARD
000D7FH   000D82H   000004H   BYTE   UNIT     EDATA          ?ED?ADC_INIT?ZF_ADC
000D83H   000D86H   000004H   BYTE   UNIT     EDATA          ?ED?ZF_DELAY
000D87H   000D8AH   000004H   BYTE   UNIT     EDATA          ?ED?DELAY_MS?ZF_DELAY
000D8BH   000D8EH   000004H   BYTE   UNIT     EDATA          ?ED?IAP_ERASE_PAGE?ZF_EEPROM
000D8FH   000D92H   000004H   BYTE   UNIT     EDATA          ?ED?EXIT_INIT?ZF_EXTI
000D93H   000D96H   000004H   BYTE   UNIT     EDATA          ?ED?GPIO_PULL_SET?ZF_GPIO
000D97H   000D9AH   000004H   BYTE   UNIT     EDATA          ?ED?GPIO_MODE?ZF_GPIO
000D9BH   000D9EH   000004H   BYTE   UNIT     EDATA          ?ED?CTIMER_COUNT_READ?ZF_TIM
000D9FH   000DA2H   000004H   BYTE   UNIT     EDATA          ?ED?FIFO_CLEAR?ZF_FIFO
000DA3H   000DA6H   000004H   BYTE   UNIT     EDATA          ?ED?FIFO_USED?ZF_FIFO
000DA7H   000DAAH   000004H   BYTE   UNIT     EDATA          ?ED?LCD_CLEAR_SIMSPI?SEEKFREE_18TFT
000DABH   000DAEH   000004H   BYTE   UNIT     EDATA          ?ED?LCD_WRITEDATA_16BIT?SEEKFREE_18TFT
000DAFH   000DB2H   000004H   BYTE   UNIT     EDATA          ?ED?LCD_CLEAR?SEEKFREE_18TFT
000DB3H   000DB6H   000004H   BYTE   UNIT     EDATA          ?ED?ICM20602_SELF_CHECK?SEEKFREE_ICM20602
000DB7H   000DBAH   000004H   BYTE   UNIT     EDATA          ?ED?ICM20602_INIT?SEEKFREE_ICM20602
000DBBH   000DBEH   000004H   BYTE   UNIT     EDATA          ?ED?IMU660RA_SELF_CHECK?SEEKFREE_IMU660RA
000DBFH   000DC2H   000004H   BYTE   UNIT     EDATA          ?ED?IMU963RA_READ_MAG_REGISTER?SEEKFREE_IMU963RA
000DC3H   000DC6H   000004H   BYTE   UNIT     EDATA          ?ED?IMU963RA_ACC_GYRO_SELF_CHECK?SEEKFREE_IMU963RA
000DC7H   000DCAH   000004H   BYTE   UNIT     EDATA          ?ED?IMU963RA_MAG_SELF_CHECK?SEEKFREE_IMU963RA
000DCBH   000DCEH   000004H   BYTE   UNIT     EDATA          ?ED?IPS114_WRITEDATA_16BIT?SEEKFREE_IPS114_SPI
000DCFH   000DD2H   000004H   BYTE   UNIT     EDATA          ?ED?MAIN
000DD3H   000DD6H   000004H   BYTE   UNIT     EDATA          ?ED?LIMIT?MOTOR
000DD7H   000DDAH   000004H   BYTE   UNIT     EDATA          ?ED?MOTOR_PWM?MOTOR
000DDBH   000DDEH   000004H   BYTE   UNIT     EDATA          ?ED?SHOW_ALLVAL?MENU
000DDFH   000DE2H   000004H   BYTE   UNIT     EDATA          ?ED?FIRST_MENU?MENU
000DE3H   000DE5H   000003H   BYTE   UNIT     EDATA          ?ED?IIC_DELAY_US?ZF_IIC
000DE6H   000DE8H   000003H   BYTE   UNIT     EDATA          ?ED?WAIT?ZF_IIC
000DE9H   000DEBH   000003H   BYTE   UNIT     EDATA          ?ED?IIC_WRITE_REG?ZF_IIC
000DECH   000DEEH   000003H   BYTE   UNIT     EDATA          ?ED?NVIC_SETPRIORITY?ZF_NVIC
000DEFH   000DF1H   000003H   BYTE   UNIT     EDATA          ?ED?UART_PUTCHAR?ZF_UART
000DF2H   000DF4H   000003H   BYTE   UNIT     EDATA          ?ED?LCD_WRITEDATA_16BIT_SIMSPI?SEEKFREE_18TFT
000DF5H   000DF7H   000003H   BYTE   UNIT     EDATA          ?ED?ENCODER_SIMSPI_W_REG_BYTE?SEEKFREE_ABSOLUTE_ENCODER
000DF8H   000DFAH   000003H   BYTE   UNIT     EDATA          ?ED?ENCODER_SPI_W_REG_BYTE?SEEKFREE_ABSOLUTE_ENCODER
000DFBH   000DFDH   000003H   BYTE   UNIT     EDATA          ?ED?SEEKFREE_DL1A
000DFEH   000E00H   000003H   BYTE   UNIT     EDATA          ?ED?DL1A_READ_CH?SEEKFREE_DL1A
000E01H   000E03H   000003H   BYTE   UNIT     EDATA          ?ED?DL1A_SIMIIC_WRITE_REG?SEEKFREE_DL1A
000E04H   000E06H   000003H   BYTE   UNIT     EDATA          ?ED?DL1A_SIMIIC_READ_REG?SEEKFREE_DL1A
000E07H   000E09H   000003H   BYTE   UNIT     EDATA          ?ED?DL1A_GET_VCSEL_PULSE_PERIOD?SEEKFREE_DL1A
000E0AH   000E0CH   000003H   BYTE   UNIT     EDATA          ?ED?DL1A_GET_DISTANCE?SEEKFREE_DL1A
000E0DH   000E0FH   000003H   BYTE   UNIT     EDATA          ?ED?IMU660RA_READ_CH?SEEKFREE_IMU660RA
000E10H   000E12H   000003H   BYTE   UNIT     EDATA          ?ED?IMU660RA_SIMIIC_WRITE_REG?SEEKFREE_IMU660RA
000E13H   000E15H   000003H   BYTE   UNIT     EDATA          ?ED?IMU660RA_SIMIIC_READ_REG?SEEKFREE_IMU660RA
000E16H   000E18H   000003H   BYTE   UNIT     EDATA          ?ED?IPS114_WRITEDATAI_16BIT_SIMSPI?SEEKFREE_IPS114_SPI
000E19H   000E1BH   000003H   BYTE   UNIT     EDATA          ?ED?MPU6050_READ_CH?SEEKFREE_MPU6050
000E1CH   000E1EH   000003H   BYTE   UNIT     EDATA          ?ED?MPU6050_SIMIIC_WRITE_REG?SEEKFREE_MPU6050
000E1FH   000E21H   000003H   BYTE   UNIT     EDATA          ?ED?MPU6050_SIMIIC_READ_REG?SEEKFREE_MPU6050
000E22H   000E24H   000003H   BYTE   UNIT     EDATA          ?ED?OLED_FILL?SEEKFREE_OLED
000E25H   000E27H   000003H   BYTE   UNIT     EDATA          ?ED?OLED_PUTPIXEL?SEEKFREE_OLED
000E28H   000E2AH   000003H   BYTE   UNIT     EDATA          ?ED?OLED_FILL_SPI?SEEKFREE_OLED
000E2BH   000E2DH   000003H   BYTE   UNIT     EDATA          ?ED?OLED_PUTPIXEL_SPI?SEEKFREE_OLED
000E2EH   000E2FH   000002H   BYTE   UNIT     EDATA          ?ED?COMMON
000E30H   000E31H   000002H   BYTE   UNIT     EDATA          ?ED?SEND_DATA?ZF_IIC
000E32H   000E33H   000002H   BYTE   UNIT     EDATA          ?ED?IIC_CHANGE_PIN?ZF_IIC
000E34H   000E35H   000002H   BYTE   UNIT     EDATA          ?ED?PWM_SET_GPIO?ZF_PWM
000E36H   000E37H   000002H   BYTE   UNIT     EDATA          ?ED?SPI_CHANGE_PIN?ZF_SPI
000E38H   000E39H   000002H   BYTE   UNIT     EDATA          ?ED?CTIMER_COUNT_INIT?ZF_TIM
000E3AH   000E3BH   000002H   BYTE   UNIT     EDATA          ?ED?CTIMER_COUNT_CLEAN?ZF_TIM
000E3CH   000E3DH   000002H   BYTE   UNIT     EDATA          ?ED?LCD_WRITEINDEX_SIMSPI?SEEKFREE_18TFT
000E3EH   000E3FH   000002H   BYTE   UNIT     EDATA          ?ED?LCD_WRITEDATA_SIMSPI?SEEKFREE_18TFT
000E40H   000E41H   000002H   BYTE   UNIT     EDATA          ?ED?ENCODER_DELAY_US?SEEKFREE_ABSOLUTE_ENCODER
L251 LINKER/LOCATER V4.66.93.0                                                        04/24/2024  17:02:24  PAGE 7


000E42H   000E43H   000002H   BYTE   UNIT     EDATA          ?ED?SIMSPI_WR_BYTE?SEEKFREE_ABSOLUTE_ENCODER
000E44H   000E45H   000002H   BYTE   UNIT     EDATA          ?ED?SIMSPI_W_REG_BYTE?SEEKFREE_ABSOLUTE_ENCODER
000E46H   000E47H   000002H   BYTE   UNIT     EDATA          ?ED?SET_ZERO_POSITION_SIMSPI?SEEKFREE_ABSOLUTE_ENCODER
000E48H   000E49H   000002H   BYTE   UNIT     EDATA          ?ED?ENCODER_ANGLE_SIMSPI?SEEKFREE_ABSOLUTE_ENCODER
000E4AH   000E4BH   000002H   BYTE   UNIT     EDATA          ?ED?SPI_W_REG_BYTE?SEEKFREE_ABSOLUTE_ENCODER
000E4CH   000E4DH   000002H   BYTE   UNIT     EDATA          ?ED?SET_ZERO_POSITION_SPI?SEEKFREE_ABSOLUTE_ENCODER
000E4EH   000E4FH   000002H   BYTE   UNIT     EDATA          ?ED?ENCODER_ANGLE_SPI?SEEKFREE_ABSOLUTE_ENCODER
000E50H   000E51H   000002H   BYTE   UNIT     EDATA          ?ED?DL1A_SIMIIC_DELAY?SEEKFREE_DL1A
000E52H   000E53H   000002H   BYTE   UNIT     EDATA          ?ED?DL1A_SEND_CH?SEEKFREE_DL1A
000E54H   000E55H   000002H   BYTE   UNIT     EDATA          ?ED?DL1A_DECODE_TIMEOUT?SEEKFREE_DL1A
000E56H   000E57H   000002H   BYTE   UNIT     EDATA          ?ED?ICM20602_SIMSPI_WR_BYTE?SEEKFREE_ICM20602
000E58H   000E59H   000002H   BYTE   UNIT     EDATA          ?ED?ICM20602_SIMSPI_W_REG_BYTE?SEEKFREE_ICM20602
000E5AH   000E5BH   000002H   BYTE   UNIT     EDATA          ?ED?ICM20602_WRITE_REGISTER?SEEKFREE_ICM20602
000E5CH   000E5DH   000002H   BYTE   UNIT     EDATA          ?ED?ICM20602_READ_REGISTER?SEEKFREE_ICM20602
000E5EH   000E5FH   000002H   BYTE   UNIT     EDATA          ?ED?IMU660RA_SIMIIC_DELAY?SEEKFREE_IMU660RA
000E60H   000E61H   000002H   BYTE   UNIT     EDATA          ?ED?IMU660RA_SEND_CH?SEEKFREE_IMU660RA
000E62H   000E63H   000002H   BYTE   UNIT     EDATA          ?ED?IMU963RA_SIMSPI_WR_BYTE?SEEKFREE_IMU963RA
000E64H   000E65H   000002H   BYTE   UNIT     EDATA          ?ED?IMU963RA_SIMSPI_W_REG_BYTE?SEEKFREE_IMU963RA
000E66H   000E67H   000002H   BYTE   UNIT     EDATA          ?ED?IMU963RA_WRITE_ACC_GYRO_REGISTER?SEEKFREE_IMU963RA
000E68H   000E69H   000002H   BYTE   UNIT     EDATA          ?ED?IMU963RA_READ_ACC_GYRO_REGISTER?SEEKFREE_IMU963RA
000E6AH   000E6BH   000002H   BYTE   UNIT     EDATA          ?ED?IMU963RA_CONNECT_MAG?SEEKFREE_IMU963RA
000E6CH   000E6DH   000002H   BYTE   UNIT     EDATA          ?ED?IPS114_WRITEINDEX_SIMSPI?SEEKFREE_IPS114_SPI
000E6EH   000E6FH   000002H   BYTE   UNIT     EDATA          ?ED?IPS114_WRITEDATA_SIMSPI?SEEKFREE_IPS114_SPI
000E70H   000E71H   000002H   BYTE   UNIT     EDATA          ?ED?MPU6050_SIMIIC_DELAY?SEEKFREE_MPU6050
000E72H   000E73H   000002H   BYTE   UNIT     EDATA          ?ED?MPU6050_SEND_CH?SEEKFREE_MPU6050
000E74H   000E75H   000002H   BYTE   UNIT     EDATA          ?ED?OLED_WRDAT?SEEKFREE_OLED
000E76H   000E77H   000002H   BYTE   UNIT     EDATA          ?ED?OLED_WRCMD?SEEKFREE_OLED
000E78H   000E79H   000002H   BYTE   UNIT     EDATA          ?ED?OLED_SET_POS?SEEKFREE_OLED
000E7AH   000E7BH   000002H   BYTE   UNIT     EDATA          ?ED?OLED_CLRPIXEL?SEEKFREE_OLED
000E7CH   000E7DH   000002H   BYTE   UNIT     EDATA          ?ED?OLED_SET_POS_SPI?SEEKFREE_OLED
000E7EH   000E7FH   000002H   BYTE   UNIT     EDATA          ?ED?OLED_CLRPIXEL_SPI?SEEKFREE_OLED
000E80H   000E81H   000002H   BYTE   UNIT     EDATA          ?ED?MAIN?MAIN
000E82H   000E83H   000002H   BYTE   UNIT     EDATA          ?ED?BUZZER?MOTOR
000E84H   000E85H   000002H   BYTE   UNIT     EDATA          ?ED?L_ENC_INTEGRAL?ENCODER
000E86H   000E87H   000002H   BYTE   UNIT     EDATA          ?ED?R_ENC_INTEGRAL?ENCODER
000E88H   000E89H   000002H   BYTE   UNIT     EDATA          ?ED?GYRO_ZERO_WANDER?MPU6050
000E8AH   000E8BH   000002H   BYTE   UNIT     EDATA          ?ED?DISTACE?TRACKELEMENT
000E8CH   000E8DH   000002H   BYTE   UNIT     EDATA          ?ED?SPEED_PLAN?TRACKELEMENT
000E8EH   000E8FH   000002H   BYTE   UNIT     EDATA          ?ED?TRACKING?TRACKELEMENT
000E90H   000E90H   000001H   BYTE   UNIT     EDATA          ?ED?PUTCHAR?BOARD
000E91H   000E91H   000001H   BYTE   UNIT     EDATA          ?ED?IAP_SET_TPS?ZF_EEPROM
000E92H   000E92H   000001H   BYTE   UNIT     EDATA          ?ED?START?ZF_IIC
000E93H   000E93H   000001H   BYTE   UNIT     EDATA          ?ED?RECV_ACK?ZF_IIC
000E94H   000E94H   000001H   BYTE   UNIT     EDATA          ?ED?SEND_ACK?ZF_IIC
000E95H   000E95H   000001H   BYTE   UNIT     EDATA          ?ED?STOP?ZF_IIC
000E96H   000E96H   000001H   BYTE   UNIT     EDATA          ?ED?SPI_MOSI?ZF_SPI
000E97H   000E97H   000001H   BYTE   UNIT     EDATA          ?ED?SPI_CHANGE_MODE?ZF_SPI
000E98H   000E98H   000001H   BYTE   UNIT     EDATA          ?ED?LCD_WRITEINDEX?SEEKFREE_18TFT
000E99H   000E99H   000001H   BYTE   UNIT     EDATA          ?ED?LCD_WRITEDATA?SEEKFREE_18TFT
000E9AH   000E9AH   000001H   BYTE   UNIT     EDATA          ?ED?ENCODER_SELF4_CHECK?SEEKFREE_ABSOLUTE_ENCODER
000E9BH   000E9BH   000001H   BYTE   UNIT     EDATA          ?ED?SPI_WR_BYTE?SEEKFREE_ABSOLUTE_ENCODER
000E9CH   000E9CH   000001H   BYTE   UNIT     EDATA          ?ED?ENCODER_SELF5_CHECK?SEEKFREE_ABSOLUTE_ENCODER
000E9DH   000E9DH   000001H   BYTE   UNIT     EDATA          ?ED?DL1A_SIMIIC_SENDACK?SEEKFREE_DL1A
000E9EH   000E9EH   000001H   BYTE   UNIT     EDATA          ?ED?IMU660RA_SIMIIC_SENDACK?SEEKFREE_IMU660RA
000E9FH   000E9FH   000001H   BYTE   UNIT     EDATA          ?ED?IMU660RA_INIT?SEEKFREE_IMU660RA
000EA0H   000EA0H   000001H   BYTE   UNIT     EDATA          ?ED?IMU963RA_INIT?SEEKFREE_IMU963RA
000EA1H   000EA1H   000001H   BYTE   UNIT     EDATA          ?ED?IPS114_WRITEINDEX?SEEKFREE_IPS114_SPI
000EA2H   000EA2H   000001H   BYTE   UNIT     EDATA          ?ED?IPS114_WRITEDATA?SEEKFREE_IPS114_SPI
000EA3H   000EA3H   000001H   BYTE   UNIT     EDATA          ?ED?MPU6050_SIMIIC_SENDACK?SEEKFREE_MPU6050
000EA4H   000EA4H   000001H   BYTE   UNIT     EDATA          ?ED?OLED_WRDAT_SPI?SEEKFREE_OLED
000EA5H   000EA5H   000001H   BYTE   UNIT     EDATA          ?ED?OLED_WRCMD_SPI?SEEKFREE_OLED
000EA6H   000EA6H   000001H   BYTE   UNIT     EDATA          ?ED?CCD_COLLECT?SEEKFREE_TSL1401
000EA7H   000EA7H   000001H   BYTE   UNIT     EDATA          ?ED?WIRELESS_UART_SEND_BYTE?SEEKFREE_WIRELESS
000EA8H   000EA8H   000001H   BYTE   UNIT     EDATA          ?ED?UART1_ISR?ISR
000EA9H   000FA8H   000100H   BYTE   UNIT     EDATA          ?STACK
L251 LINKER/LOCATER V4.66.93.0                                                        04/24/2024  17:02:24  PAGE 8


000FA9H   FEFFFFH   FEF057H   ---    ---      **GAP**
FF0000H   FF0002H   000003H   ---    OFFS..   CODE           ?CO?start251?4
FF0003H   FF0005H   000003H   ---    OFFS..   CODE           ?PR?IV?0
FF0006H   FF0009H   000004H   BYTE   INSEG    CODE           ?PR?ENABLEGLOBALIRQ?BOARD
FF000AH   FF000AH   000001H   BYTE   INSEG    CODE           ?PR?INT1_ISR?ISR
FF000BH   FF000DH   000003H   ---    OFFS..   CODE           ?PR?IV?1
FF000EH   FF0011H   000004H   BYTE   UNIT     CODE           ?PR?FPADD?STC32F_FPMU
FF0012H   FF0012H   000001H   ---    ---      **GAP**
FF0013H   FF0015H   000003H   ---    OFFS..   CODE           ?PR?IV?2
FF0016H   FF0019H   000004H   BYTE   UNIT     CODE           ?PR?FPSUB?STC32F_FPMU
FF001AH   FF001AH   000001H   ---    ---      **GAP**
FF001BH   FF001DH   000003H   ---    OFFS..   CODE           ?PR?IV?3
FF001EH   FF0021H   000004H   BYTE   UNIT     CODE           ?PR?FPMUL?STC32F_FPMU
FF0022H   FF0022H   000001H   ---    ---      **GAP**
FF0023H   FF0025H   000003H   ---    OFFS..   CODE           ?PR?IV?4
FF0026H   FF0042H   00001DH   BYTE   INSEG    CODE           ?PR?IMU660RA_SIMIIC_DELAY?SEEKFREE_IMU660RA
FF0043H   FF0045H   000003H   ---    OFFS..   CODE           ?PR?IV?8
FF0046H   FF0051H   00000CH   BYTE   UNIT     CODE           ?PR?FPCMP?STC32F_FPMU
FF0052H   FF0052H   000001H   ---    ---      **GAP**
FF0053H   FF0055H   000003H   ---    OFFS..   CODE           ?PR?IV?10
FF0056H   FF0059H   000004H   BYTE   UNIT     CODE           ?PR?FPDIV?STC32F_FPMU
FF005AH   FF005AH   000001H   ---    ---      **GAP**
FF005BH   FF005DH   000003H   ---    OFFS..   CODE           ?PR?IV?11
FF005EH   FF0061H   000004H   BYTE   UNIT     CODE           ?PR?FCASTL?STC32F_FPMU
FF0062H   FF0062H   000001H   ---    ---      **GAP**
FF0063H   FF0065H   000003H   ---    OFFS..   CODE           ?PR?IV?12
FF0066H   FF007FH   00001AH   BYTE   INSEG    CODE           ?PR?BLUETOOTH_CH9141_UART_CALLBACK?SEEKFREE_BLUETOOTH_CH91
                                                             -41
FF0080H   FF0082H   000003H   ---    ---      **GAP**
FF0083H   FF0085H   000003H   ---    OFFS..   CODE           ?PR?IV?16
FF0086H   FF0089H   000004H   BYTE   INSEG    CODE           ?PR?INT0_ISR?ISR
FF008AH   FF008AH   000001H   ---    ---      **GAP**
FF008BH   FF008DH   000003H   ---    OFFS..   CODE           ?PR?IV?17
FF008EH   FF0091H   000004H   BYTE   INSEG    CODE           ?PR?INT2_ISR?ISR
FF0092H   FF0092H   000001H   ---    ---      **GAP**
FF0093H   FF0095H   000003H   ---    OFFS..   CODE           ?PR?IV?18
FF0096H   FF0099H   000004H   BYTE   INSEG    CODE           ?PR?INT3_ISR?ISR
FF009AH   FF009AH   000001H   ---    ---      **GAP**
FF009BH   FF009DH   000003H   ---    OFFS..   CODE           ?PR?IV?19
FF009EH   FF00A1H   000004H   BYTE   INSEG    CODE           ?PR?INT4_ISR?ISR
FF00A2H   FF00A2H   000001H   ---    ---      **GAP**
FF00A3H   FF00A5H   000003H   ---    OFFS..   CODE           ?PR?IV?20
FF00A6H   FF212CH   002087H   BYTE   UNIT     CODE           ?CO?SEEKFREE_CONFIG
FF212DH   FF2F34H   000E08H   BYTE   UNIT     CODE           ?CO?SEEKFREE_FONT
FF2F35H   FF3841H   00090DH   BYTE   INSEG    CODE           ?PR?GPIO_MODE?ZF_GPIO
FF3842H   FF3F1CH   0006DBH   BYTE   INSEG    CODE           ?PR?SECOND__NWHUAN_MENU?MENU
FF3F1DH   FF45ECH   0006D0H   BYTE   UNIT     CODE           ?C?LIB_CODE
FF45EDH   FF4C4DH   000661H   BYTE   INSEG    CODE           ?PR?ZF_SPRINTF?SEEKFREE_PRINTF
FF4C4EH   FF527DH   000630H   BYTE   INSEG    CODE           ?PR?NORMALIZATION_TRACKING_ADC?INDUCTANCE
FF527EH   FF58A9H   00062CH   BYTE   INSEG    CODE           ?PR?SET_CLK?BOARD
FF58AAH   FF5CB0H   000407H   BYTE   INSEG    CODE           ?PR?SECOND_MOTOR_MENU?MENU
FF5CB1H   FF608AH   0003DAH   BYTE   INSEG    CODE           ?PR?PWM_INIT?ZF_PWM
FF608BH   FF6442H   0003B8H   BYTE   INSEG    CODE           ?PR?PWM_SET_GPIO?ZF_PWM
FF6443H   FF67DEH   00039CH   BYTE   INSEG    CODE           ?PR?FIRST_MENU?MENU
FF67DFH   FF6A91H   0002B3H   BYTE   INSEG    CODE           ?PR?UART_INIT?ZF_UART
FF6A92H   FF6CB6H   000225H   BYTE   INSEG    CODE           ?PR?SECOND_ELEMENT_MENU?MENU
FF6CB7H   FF6DFBH   000145H   BYTE   INSEG    CODE           ?PR?OLED_PRINTF_FLOAT_PX8?SEEKFREE_OLED
FF6DFCH   FF6F33H   000138H   BYTE   INSEG    CODE           ?PR?FIFO_WRITE_BUFFER?ZF_FIFO
FF6F34H   FF7055H   000122H   BYTE   INSEG    CODE           ?PR?SHOW_VAL?INDUCTANCE
FF7056H   FF7176H   000121H   BYTE   INSEG    CODE           ?PR?OLED_P8X16STR?SEEKFREE_OLED
FF7177H   FF728EH   000118H   BYTE   INSEG    CODE           ?PR?PWM_DUTY?ZF_PWM
FF728FH   FF73A5H   000117H   BYTE   INSEG    CODE           ?PR?NUMBER_CONVERSION_ASCII?SEEKFREE_PRINTF
FF73A6H   FF748AH   0000E5H   BYTE   INSEG    CODE           ?PR?PIT_TIMER_MS?ZF_TIM
FF748BH   FF7566H   0000DCH   BYTE   INSEG    CODE           ?PR?SPEED_PID_OUT?MOTOR
FF7567H   FF7641H   0000DBH   BYTE   INSEG    CODE           ?PR?MAIN?MAIN
L251 LINKER/LOCATER V4.66.93.0                                                        04/24/2024  17:02:24  PAGE 9


FF7642H   FF7712H   0000D1H   BYTE   INSEG    CODE           ?PR?OLED_P6X8STR?SEEKFREE_OLED
FF7713H   FF77DEH   0000CCH   BYTE   INSEG    CODE           ?PR?IMU660RA_INIT?SEEKFREE_IMU660RA
FF77DFH   FF7898H   0000BAH   BYTE   INSEG    CODE           ?PR?SQ?INDUCTANCE
FF7899H   FF794EH   0000B6H   BYTE   INSEG    CODE           ?PR?SECOND__SPEED_MENU?MENU
FF794FH   FF7A03H   0000B5H   BYTE   INSEG    CODE           ?PR?ADC_INIT?ZF_ADC
FF7A04H   FF7AB8H   0000B5H   BYTE   INSEG    CODE           ?PR?ERROR_SPEED?TRACKELEMENT
FF7AB9H   FF7B6CH   0000B4H   BYTE   INSEG    CODE           ?PR?CTIMER_COUNT_READ?ZF_TIM
FF7B6DH   FF7C14H   0000A8H   BYTE   INSEG    CODE           ?PR?OLED_INIT?SEEKFREE_OLED
FF7C15H   FF7CB0H   00009CH   BYTE   INSEG    CODE           ?PR?NH_TURN_OUT?DIRECTION
FF7CB1H   FF7D45H   000095H   BYTE   INSEG    CODE           ?PR?PRINTF_REVERSE_ORDER?SEEKFREE_PRINTF
FF7D46H   FF7DBCH   000077H   BYTE   INSEG    CODE           ?PR?BOARD_INIT?BOARD
FF7DBDH   FF7E31H   000075H   BYTE   INSEG    CODE           ?PR?UART_PUTCHAR?ZF_UART
FF7E32H   FF7EA4H   000073H   BYTE   INSEG    CODE           ?PR?OLED_INT16?SEEKFREE_OLED
FF7EA5H   FF7F17H   000073H   BYTE   INSEG    CODE           ?PR?MOTOR_PWM?MOTOR
FF7F18H   FF7F86H   00006FH   BYTE   INSEG    CODE           ?PR?OLED_HEXASCII?SEEKFREE_OLED
FF7F87H   FF7FF0H   00006AH   BYTE   INSEG    CODE           ?PR?FIFO_HEAD_OFFSET?ZF_FIFO
FF7FF1H   FF805AH   00006AH   BYTE   INSEG    CODE           ?PR?IMU660RA_READ_CH?SEEKFREE_IMU660RA
FF805BH   FF80C4H   00006AH   BYTE   INSEG    CODE           ?PR?WH_TURN_OUT?DIRECTION
FF80C5H   FF812CH   000068H   BYTE   INSEG    CODE           ?PR?IMU660RA_SIMIIC_READ_REGS?SEEKFREE_IMU660RA
FF812DH   FF8193H   000067H   BYTE   INSEG    CODE           ?PR?TRACKING?TRACKELEMENT
FF8194H   FF81F8H   000065H   BYTE   INSEG    CODE           ?PR?TM4_ISR?ENCODER
FF81F9H   FF8259H   000061H   BYTE   INSEG    CODE           ?PR?UART4_ISR?ISR
FF825AH   FF82B6H   00005DH   BYTE   INSEG    CODE           ?PR?CTIMER_COUNT_CLEAN?ZF_TIM
FF82B7H   FF8313H   00005DH   BYTE   INSEG    CODE           ?PR?OLED_FILL?SEEKFREE_OLED
FF8314H   FF836BH   000058H   BYTE   INSEG    CODE           ?PR?DIRCONTROL?DIRECTION
FF836CH   FF83C2H   000057H   BYTE   INSEG    CODE           ?PR?IMU660RA_GET_GYRO?SEEKFREE_IMU660RA
FF83C3H   FF8418H   000056H   BYTE   INSEG    CODE           ?PR?ADC_ONCE?ZF_ADC
FF8419H   FF846CH   000054H   BYTE   INSEG    CODE           ?PR?CTIMER_COUNT_INIT?ZF_TIM
FF846DH   FF84BEH   000052H   BYTE   INSEG    CODE           ?PR?MOTOR_INIT?MOTOR
FF84BFH   FF850DH   00004FH   BYTE   INSEG    CODE           ?PR?IMU660RA_SIMIIC_WRITE_REGS?SEEKFREE_IMU660RA
FF850EH   FF855BH   00004EH   BYTE   INSEG    CODE           ?PR?IMU660RA_SELF_CHECK?SEEKFREE_IMU660RA
FF855CH   FF85A7H   00004CH   BYTE   INSEG    CODE           ?PR?OLED_WRCMD?SEEKFREE_OLED
FF85A8H   FF85F3H   00004CH   BYTE   INSEG    CODE           ?PR?OLED_WRDAT?SEEKFREE_OLED
FF85F4H   FF863EH   00004BH   BYTE   INSEG    CODE           ?PR?MOTOR_SET_PID?MOTOR
FF863FH   FF8687H   000049H   BYTE   INSEG    CODE           ?PR?IMU660RA_SEND_CH?SEEKFREE_IMU660RA
FF8688H   FF86CEH   000047H   BYTE   INSEG    CODE           ?PR?INDUCTANCE_INIT?INDUCTANCE
FF86CFH   FF8710H   000042H   BYTE   INSEG    CODE           ?PR?UART1_ISR?ISR
FF8711H   FF8723H   000013H   BYTE   UNIT     CODE           ?C_C51STARTUP
FF8724H   FF874CH   000029H   BYTE   UNIT     CODE           ?C_C51STARTUP?2
FF874DH   FF874FH   000003H   BYTE   UNIT     CODE           ?C_C51STARTUP?3
FF8750H   FF878AH   00003BH   BYTE   INSEG    CODE           ?PR?IMU660RA_SIMIIC_READ_REG?SEEKFREE_IMU660RA
FF878BH   FF87C5H   00003BH   BYTE   INSEG    CODE           ?PR?LIMIT?MOTOR
FF87C6H   FF87FEH   000039H   BYTE   INSEG    CODE           ?PR?SHOW_VAL_MENU?MENU
FF87FFH   FF8833H   000035H   BYTE   INSEG    CODE           ?PR?DELAY_MS?ZF_DELAY
FF8834H   FF8868H   000035H   BYTE   INSEG    CODE           ?PR?OLED_SET_POS?SEEKFREE_OLED
FF8869H   FF8897H   00002FH   BYTE   INSEG    CODE           ?PR?ENCODER_TIME_INIT?ENCODER
FF8898H   FF88C1H   00002AH   BYTE   INSEG    CODE           ?PR?IMU660RA_SIMIIC_WRITE_REG?SEEKFREE_IMU660RA
FF88C2H   FF88E9H   000028H   BYTE   INSEG    CODE           ?PR?IMU660RA_SIMIIC_SENDACK?SEEKFREE_IMU660RA
FF88EAH   FF8910H   000027H   BYTE   INSEG    CODE           ?PR?OLED_UINT16?SEEKFREE_OLED
FF8911H   FF8937H   000027H   BYTE   INSEG    CODE           ?PR?OLED_UINT16_PX8?SEEKFREE_OLED
FF8938H   FF895DH   000026H   BYTE   INSEG    CODE           ?PR?R_ENCODER_PULSE?ENCODER
FF895EH   FF8982H   000025H   BYTE   INSEG    CODE           ?PR?MEMCPY?_?MEMCPY
FF8983H   FF89A5H   000023H   BYTE   INSEG    CODE           ?PR?DELAY_INIT?ZF_DELAY
FF89A6H   FF89C7H   000022H   BYTE   INSEG    CODE           ?PR?L_ENCODER_PULSE?ENCODER
FF89C8H   FF89E8H   000021H   BYTE   INSEG    CODE           ?PR?IMU660RA_SCCB_WAITACK?SEEKFREE_IMU660RA
FF89E9H   FF8A02H   00001AH   BYTE   INSEG    CODE           ?PR?WIRELESS_UART_CALLBACK?SEEKFREE_WIRELESS
FF8A03H   FF8A1CH   00001AH   BYTE   INSEG    CODE           ?PR?UART2_ISR?ISR
FF8A1DH   FF8A36H   00001AH   BYTE   INSEG    CODE           ?PR?UART3_ISR?ISR
FF8A37H   FF8A4DH   000017H   BYTE   INSEG    CODE           ?PR?TM0_ISR?ISR
FF8A4EH   FF8A63H   000016H   BYTE   INSEG    CODE           ?PR?IMU660RA_SIMIIC_STOP?SEEKFREE_IMU660RA
FF8A64H   FF8A77H   000014H   BYTE   INSEG    CODE           ?PR?CLOCK_INIT?BOARD
FF8A78H   FF8A8AH   000013H   BYTE   INSEG    CODE           ?PR?IMU660RA_SIMIIC_START?SEEKFREE_IMU660RA
FF8A8BH   FF8A9CH   000012H   BYTE   INSEG    CODE           ?PR?PUTCHAR?BOARD
FF8A9DH   FF8AADH   000011H   BYTE   INSEG    CODE           ?PR?ICACHEON?BOARD
FF8AAEH   FF8ABDH   000010H   BYTE   INSEG    CODE           ?PR?ABS?_?ABS
L251 LINKER/LOCATER V4.66.93.0                                                        04/24/2024  17:02:24  PAGE 10


FF8ABEH   FF8AC7H   00000AH   BYTE   INSEG    CODE           ?PR?TM1_ISR?ISR
FF8AC8H   FF8ACDH   000006H   BYTE   UNIT     CODE           ?PR?CASTF?STC32F_FPMU
FF8ACEH   FF8AD3H   000006H   BYTE   UNIT     CODE           ?PR?FCASTI?STC32F_FPMU
FF8AD4H   FF8AD7H   000004H   BYTE   INSEG    CODE           ?PR?TM2_ISR?ISR
FF8AD8H   FF8ADBH   000004H   BYTE   INSEG    CODE           ?PR?TM3_ISR?ISR
FF8ADCH   FF8ADFH   000004H   BYTE   UNIT     CONST          ?CO?PRINTF
FF8AE0H   FF8E8EH   0003AFH   BYTE   UNIT     HCONST         ?C_INITEDATA
FF8E8FH   FF8F4AH   0000BCH   BYTE   UNIT     HCONST         ?HC?MENU
FF8F4BH   FF8FA2H   000058H   BYTE   UNIT     HCONST         ?HC?ZF_PWM
FF8FA3H   FF8FEDH   00004BH   BYTE   UNIT     HCONST         ?HC?SEEKFREE_IMU963RA
FF8FEEH   FF9032H   000045H   BYTE   UNIT     HCONST         ?HC?INDUCTANCE
FF9033H   FF9067H   000035H   BYTE   UNIT     HCONST         ?HC?SEEKFREE_ICM20602
FF9068H   FF909BH   000034H   BYTE   UNIT     HCONST         ?HC?SEEKFREE_IMU660RA
FF909CH   FF90B1H   000016H   BYTE   UNIT     HCONST         ?HC?SEEKFREE_MPU6050
FF90B2H   FF90C4H   000013H   BYTE   UNIT     HCONST         ?HC?SEEKFREE_DL1A
FF90C5H   FF90CEH   00000AH   BYTE   UNIT     HCONST         ?HC?SEEKFREE_OLED
FF90CFH   FF90D4H   000006H   BYTE   UNIT     HCONST         ?HC?SEEKFREE_18TFT
FF90D5H   FF90DAH   000006H   BYTE   UNIT     HCONST         ?HC?SEEKFREE_IPS114_SPI

* * * * * * * * *   R E M O V E D     S E G M E N T S   * * * * * * * *
   *DEL*:           000016H   BYTE   INSEG    CODE           ?PR?DISALBE_ICACHE?BOARD
   *DEL*:           000017H   BYTE   INSEG    CODE           ?PR?ENALBE_ICACHE?BOARD
   *DEL*:           000004H   BYTE   INSEG    CODE           ?PR?DISABLEGLOBALIRQ?BOARD
   *DEL*:           000004H   BYTE   UNIT     CODE           ?PR?SQRT?STC32F_FPMU
   *DEL*:           000006H   BYTE   UNIT     CODE           ?PR?FXAM?STC32F_FPMU
   *DEL*:           000007H   BYTE   UNIT     CODE           ?PR?FCHS?STC32F_FPMU
   *DEL*:           000007H   BYTE   UNIT     CODE           ?PR?FABS?STC32F_FPMU
   *DEL*:           000004H   BYTE   UNIT     CODE           ?PR?SIN?STC32F_FPMU
   *DEL*:           000004H   BYTE   UNIT     CODE           ?PR?COS?STC32F_FPMU
   *DEL*:           000004H   BYTE   UNIT     CODE           ?PR?TAN?STC32F_FPMU
   *DEL*:           00000AH   BYTE   UNIT     CODE           ?PR?ATAN?STC32F_FPMU
   *DEL*:           000006H   BYTE   UNIT     CODE           ?PR?FCASTC?STC32F_FPMU
   *DEL*:           000004H   BYTE   UNIT     CODE           ?PR?FCLEX?STC32F_FPMU
   *DEL*:           000004H   BYTE   UNIT     CODE           ?PR?FINIT?STC32F_FPMU
   *DEL*:           000006H   BYTE   UNIT     CODE           ?PR?FPSRR?STC32F_FPMU
   *DEL*:           000006H   BYTE   UNIT     CODE           ?PR?FPSRW?STC32F_FPMU
   *DEL*:           000006H   BYTE   UNIT     CODE           ?PR?FPCRR?STC32F_FPMU
   *DEL*:           000006H   BYTE   UNIT     CODE           ?PR?FPCRW?STC32F_FPMU
   *DEL*:           000033H   BYTE   INSEG    CODE           ?PR?DELAY_US?ZF_DELAY
   *DEL*:           00001AH   BYTE   INSEG    CODE           ?PR?IAP_SET_TPS?ZF_EEPROM
   *DEL*:           000015H   BYTE   INSEG    CODE           ?PR?EEPROM_TRIG?ZF_EEPROM
   *DEL*:           000029H   BYTE   INSEG    CODE           ?PR?IAP_ERASE_PAGE?ZF_EEPROM
   *DEL*:           000004H   BYTE   INSEG    CODE           ?PR?IAP_IDLE?ZF_EEPROM
   *DEL*:           00005FH   BYTE   INSEG    CODE           ?PR?IAP_READ_BYTES?ZF_EEPROM
   *DEL*:           000008H   BYTE   INSEG    CODE           ?PR?IAP_INIT?ZF_EEPROM
   *DEL*:           00005BH   BYTE   INSEG    CODE           ?PR?IAP_WRITE_BYTES?ZF_EEPROM
   *DEL*:           000012H   BYTE   INSEG    CODE           ?PR?IAP_GET_CMD_STATE?ZF_EEPROM
   *DEL*:           000066H   BYTE   INSEG    CODE           ?PR?EXIT_INIT?ZF_EXTI
   *DEL*:           000095H   BYTE   INSEG    CODE           ?PR?GPIO_PULL_SET?ZF_GPIO
   *DEL*:           000028H   BYTE   INSEG    CODE           ?PR?SEND_DATA?ZF_IIC
   *DEL*:           000037H   BYTE   INSEG    CODE           ?PR?IIC_CHANGE_PIN?ZF_IIC
   *DEL*:           00001CH   BYTE   INSEG    CODE           ?PR?RECV_DATA?ZF_IIC
   *DEL*:           000015H   BYTE   INSEG    CODE           ?PR?START?ZF_IIC
   *DEL*:           000057H   BYTE   INSEG    CODE           ?PR?WAIT?ZF_IIC
   *DEL*:           000021H   BYTE   INSEG    CODE           ?PR?SEND_ACK?ZF_IIC
   *DEL*:           000015H   BYTE   INSEG    CODE           ?PR?RECV_ACK?ZF_IIC
   *DEL*:           000015H   BYTE   INSEG    CODE           ?PR?STOP?ZF_IIC
   *DEL*:           00001EH   BYTE   INSEG    CODE           ?PR?SEND_NAK?ZF_IIC
   *DEL*:           00007AH   BYTE   INSEG    CODE           ?PR?IIC_INIT?ZF_IIC
   *DEL*:           000099H   BYTE   INSEG    CODE           ?PR?IIC_READ_REG?ZF_IIC
   *DEL*:           0000D4H   BYTE   INSEG    CODE           ?PR?IIC_READ_REG_BYTES?ZF_IIC
   *DEL*:           00007CH   BYTE   INSEG    CODE           ?PR?IIC_WRITE_REG?ZF_IIC
   *DEL*:           000035H   BYTE   INSEG    CODE           ?PR?IIC_DELAY_US?ZF_IIC
   *DEL*:           0000B9H   BYTE   INSEG    CODE           ?PR?NVIC_SETPRIORITY?ZF_NVIC
   *DEL*:           0001ABH   BYTE   INSEG    CODE           ?PR?PWM_FREQ?ZF_PWM
L251 LINKER/LOCATER V4.66.93.0                                                        04/24/2024  17:02:24  PAGE 11


   *DEL*:           000026H   BYTE   INSEG    CODE           ?PR?SPI_CHANGE_MODE?ZF_SPI
   *DEL*:           0000CCH   BYTE   INSEG    CODE           ?PR?SPI_CHANGE_PIN?ZF_SPI
   *DEL*:           0000F5H   BYTE   INSEG    CODE           ?PR?SPI_INIT?ZF_SPI
   *DEL*:           000012H   BYTE   INSEG    CODE           ?PR?SPI_MOSI?ZF_SPI
   *DEL*:           000039H   BYTE   INSEG    CODE           ?PR?UART_PUTBUFF?ZF_UART
   *DEL*:           00002BH   BYTE   INSEG    CODE           ?PR?UART_PUTSTR?ZF_UART
   *DEL*:           000183H   BYTE   INSEG    CODE           ?PR?FIFO_READ_BUFFER?ZF_FIFO
   *DEL*:           000043H   BYTE   INSEG    CODE           ?PR?FIFO_CLEAR?ZF_FIFO
   *DEL*:           000070H   BYTE   INSEG    CODE           ?PR?FIFO_END_OFFSET?ZF_FIFO
   *DEL*:           000025H   BYTE   INSEG    CODE           ?PR?FIFO_USED?ZF_FIFO
   *DEL*:           00006EH   BYTE   INSEG    CODE           ?PR?FIFO_INIT?ZF_FIFO
   *DEL*:           0000CDH   BYTE   INSEG    CODE           ?PR?LCD_SHOWUINT16?SEEKFREE_18TFT
   *DEL*:           0000CEH   BYTE   INSEG    CODE           ?PR?LCD_SHOWINT32_SIMSPI?SEEKFREE_18TFT
   *DEL*:           000119H   BYTE   INSEG    CODE           ?PR?LCD_SHOWINT16_SIMSPI?SEEKFREE_18TFT
   *DEL*:           0000CEH   BYTE   INSEG    CODE           ?PR?LCD_SHOWINT32?SEEKFREE_18TFT
   *DEL*:           000119H   BYTE   INSEG    CODE           ?PR?LCD_SHOWINT16?SEEKFREE_18TFT
   *DEL*:           000057H   BYTE   INSEG    CODE           ?PR?LCD_CLEAR_SIMSPI?SEEKFREE_18TFT
   *DEL*:           000057H   BYTE   INSEG    CODE           ?PR?LCD_CLEAR?SEEKFREE_18TFT
   *DEL*:           00005DH   BYTE   INSEG    CODE           ?PR?LCD_SHOWSTR_SIMSPI?SEEKFREE_18TFT
   *DEL*:           00005DH   BYTE   INSEG    CODE           ?PR?LCD_SHOWSTR?SEEKFREE_18TFT
   *DEL*:           00004CH   BYTE   INSEG    CODE           ?PR?LCD_WRITEINDEX_SIMSPI?SEEKFREE_18TFT
   *DEL*:           00004CH   BYTE   INSEG    CODE           ?PR?LCD_WRITEDATA_SIMSPI?SEEKFREE_18TFT
   *DEL*:           000015H   BYTE   INSEG    CODE           ?PR?LCD_WRITEINDEX?SEEKFREE_18TFT
   *DEL*:           000015H   BYTE   INSEG    CODE           ?PR?LCD_WRITEDATA?SEEKFREE_18TFT
   *DEL*:           000055H   BYTE   INSEG    CODE           ?PR?LCD_WRITEDATA_16BIT_SIMSPI?SEEKFREE_18TFT
   *DEL*:           000064H   BYTE   INSEG    CODE           ?PR?LCD_SET_REGION_SIMSPI?SEEKFREE_18TFT
   *DEL*:           0001FDH   BYTE   INSEG    CODE           ?PR?LCD_INIT_SIMSPI?SEEKFREE_18TFT
   *DEL*:           0000ECH   BYTE   INSEG    CODE           ?PR?SHOWIMAGE?SEEKFREE_18TFT
   *DEL*:           000064H   BYTE   INSEG    CODE           ?PR?LCD_SET_REGION?SEEKFREE_18TFT
   *DEL*:           0001F3H   BYTE   INSEG    CODE           ?PR?LCD_INIT?SEEKFREE_18TFT
   *DEL*:           0000A9H   BYTE   INSEG    CODE           ?PR?LCD_SHOWUINT8_SIMSPI?SEEKFREE_18TFT
   *DEL*:           0000A9H   BYTE   INSEG    CODE           ?PR?LCD_SHOWUINT8?SEEKFREE_18TFT
   *DEL*:           0000EBH   BYTE   INSEG    CODE           ?PR?LCD_SHOWINT8_SIMSPI?SEEKFREE_18TFT
   *DEL*:           0000EBH   BYTE   INSEG    CODE           ?PR?LCD_SHOWINT8?SEEKFREE_18TFT
   *DEL*:           00002AH   BYTE   INSEG    CODE           ?PR?LCD_WRITEDATA_16BIT?SEEKFREE_18TFT
   *DEL*:           000145H   BYTE   INSEG    CODE           ?PR?LCD_SHOWFLOAT_SIMSPI?SEEKFREE_18TFT
   *DEL*:           000023H   BYTE   INSEG    CODE           ?PR?LCD_DRAWPOINT_SIMSPI?SEEKFREE_18TFT
   *DEL*:           000145H   BYTE   INSEG    CODE           ?PR?LCD_SHOWFLOAT?SEEKFREE_18TFT
   *DEL*:           000023H   BYTE   INSEG    CODE           ?PR?LCD_DRAWPOINT?SEEKFREE_18TFT
   *DEL*:           0000BFH   BYTE   INSEG    CODE           ?PR?LCD_SHOWCHAR_SIMSPI?SEEKFREE_18TFT
   *DEL*:           0000BFH   BYTE   INSEG    CODE           ?PR?LCD_SHOWCHAR?SEEKFREE_18TFT
   *DEL*:           0000CDH   BYTE   INSEG    CODE           ?PR?LCD_SHOWUINT16_SIMSPI?SEEKFREE_18TFT
   *DEL*:           000013H   BYTE   INSEG    CODE           ?PR?ENCODER_SELF4_CHECK?SEEKFREE_ABSOLUTE_ENCODER
   *DEL*:           000013H   BYTE   INSEG    CODE           ?PR?ENCODER_SELF5_CHECK?SEEKFREE_ABSOLUTE_ENCODER
   *DEL*:           000042H   BYTE   INSEG    CODE           ?PR?ENCODER_SPI_R_REG_BYTE?SEEKFREE_ABSOLUTE_ENCODER
   *DEL*:           00000AH   BYTE   INSEG    CODE           ?PR?ENCODER_DELAY_US?SEEKFREE_ABSOLUTE_ENCODER
   *DEL*:           000053H   BYTE   INSEG    CODE           ?PR?ENCODER_SPI_W_REG_BYTE?SEEKFREE_ABSOLUTE_ENCODER
   *DEL*:           00002DH   BYTE   INSEG    CODE           ?PR?SIMSPI_R_REG_BYTE?SEEKFREE_ABSOLUTE_ENCODER
   *DEL*:           000029H   BYTE   INSEG    CODE           ?PR?SIMSPI_W_REG_BYTE?SEEKFREE_ABSOLUTE_ENCODER
   *DEL*:           000030H   BYTE   INSEG    CODE           ?PR?ENCODER_INIT_SPI?SEEKFREE_ABSOLUTE_ENCODER
   *DEL*:           00000CH   BYTE   INSEG    CODE           ?PR?SPI_WR_BYTE?SEEKFREE_ABSOLUTE_ENCODER
   *DEL*:           000032H   BYTE   INSEG    CODE           ?PR?SET_ZERO_POSITION_SIMSPI?SEEKFREE_ABSOLUTE_ENCODER
   *DEL*:           000035H   BYTE   INSEG    CODE           ?PR?ENCODER_ANGLE_SIMSPI?SEEKFREE_ABSOLUTE_ENCODER
   *DEL*:           00002DH   BYTE   INSEG    CODE           ?PR?SPI_R_REG_BYTE?SEEKFREE_ABSOLUTE_ENCODER
   *DEL*:           000029H   BYTE   INSEG    CODE           ?PR?SPI_W_REG_BYTE?SEEKFREE_ABSOLUTE_ENCODER
   *DEL*:           000042H   BYTE   INSEG    CODE           ?PR?ENCODER_SIMSPI_R_REG_BYTE?SEEKFREE_ABSOLUTE_ENCODER
   *DEL*:           000053H   BYTE   INSEG    CODE           ?PR?ENCODER_SIMSPI_W_REG_BYTE?SEEKFREE_ABSOLUTE_ENCODER
   *DEL*:           000010H   BYTE   INSEG    CODE           ?PR?ENCODER_INIT_SIMSPI?SEEKFREE_ABSOLUTE_ENCODER
   *DEL*:           000032H   BYTE   INSEG    CODE           ?PR?SET_ZERO_POSITION_SPI?SEEKFREE_ABSOLUTE_ENCODER
   *DEL*:           000053H   BYTE   INSEG    CODE           ?PR?SIMSPI_WR_BYTE?SEEKFREE_ABSOLUTE_ENCODER
   *DEL*:           000035H   BYTE   INSEG    CODE           ?PR?ENCODER_ANGLE_SPI?SEEKFREE_ABSOLUTE_ENCODER
   *DEL*:           00002EH   BYTE   INSEG    CODE           ?PR?BLUETOOTH_CH9141_READ_BUFF?SEEKFREE_BLUETOOTH_CH9141
   *DEL*:           0000CCH   BYTE   INSEG    CODE           ?PR?BLUETOOTH_CH9141_SEND_BUFF?SEEKFREE_BLUETOOTH_CH9141
   *DEL*:           00003FH   BYTE   INSEG    CODE           ?PR?BLUETOOTH_CH9141_INIT?SEEKFREE_BLUETOOTH_CH9141
   *DEL*:           000028H   BYTE   INSEG    CODE           ?PR?DL1A_SIMIIC_SENDACK?SEEKFREE_DL1A
L251 LINKER/LOCATER V4.66.93.0                                                        04/24/2024  17:02:24  PAGE 12


   *DEL*:           000051H   BYTE   INSEG    CODE           ?PR?DL1A_TIMEOUT_MICROSECONDS_TO_MCLKS?SEEKFREE_DL1A
   *DEL*:           000053H   BYTE   INSEG    CODE           ?PR?DL1A_TIMEOUT_MCLKS_TO_MICROSECONDS?SEEKFREE_DL1A
   *DEL*:           00003EH   BYTE   INSEG    CODE           ?PR?DL1A_SET_SIGNAL_RATE_LIMIT?SEEKFREE_DL1A
   *DEL*:           00006AH   BYTE   INSEG    CODE           ?PR?DL1A_READ_CH?SEEKFREE_DL1A
   *DEL*:           00002AH   BYTE   INSEG    CODE           ?PR?DL1A_DECODE_TIMEOUT?SEEKFREE_DL1A
   *DEL*:           000049H   BYTE   INSEG    CODE           ?PR?DL1A_SEND_CH?SEEKFREE_DL1A
   *DEL*:           000195H   BYTE   INSEG    CODE           ?PR?DL1A_GET_SPAD_INFO?SEEKFREE_DL1A
   *DEL*:           00007FH   BYTE   INSEG    CODE           ?PR?DL1A_ENCODE_TIMEOUT?SEEKFREE_DL1A
   *DEL*:           00008EH   BYTE   INSEG    CODE           ?PR?DL1A_GET_SEQUENCE_STEP_ENABLES?SEEKFREE_DL1A
   *DEL*:           000021H   BYTE   INSEG    CODE           ?PR?DL1A_SCCB_WAITACK?SEEKFREE_DL1A
   *DEL*:           00006CH   BYTE   INSEG    CODE           ?PR?DL1A_GET_DISTANCE?SEEKFREE_DL1A
   *DEL*:           00001FH   BYTE   INSEG    CODE           ?PR?DL1A_SIMIIC_DELAY?SEEKFREE_DL1A
   *DEL*:           0000ABH   BYTE   INSEG    CODE           ?PR?DL1A_PERFORM_SINGLE_REF_CALIBRATION?SEEKFREE_DL1A
   *DEL*:           000169H   BYTE   INSEG    CODE           ?PR?DL1A_GET_SEQUENCE_STEP_TIMEOUTS?SEEKFREE_DL1A
   *DEL*:           000013H   BYTE   INSEG    CODE           ?PR?DL1A_SIMIIC_START?SEEKFREE_DL1A
   *DEL*:           000068H   BYTE   INSEG    CODE           ?PR?DL1A_SIMIIC_READ_REGS?SEEKFREE_DL1A
   *DEL*:           0000B6H   BYTE   INSEG    CODE           ?PR?DL1A_GET_MEASUREMENT_TIMING_BUDGET?SEEKFREE_DL1A
   *DEL*:           000042H   BYTE   INSEG    CODE           ?PR?DL1A_SIMIIC_WRITE_DATS?SEEKFREE_DL1A
   *DEL*:           00003BH   BYTE   INSEG    CODE           ?PR?DL1A_SIMIIC_READ_REG?SEEKFREE_DL1A
   *DEL*:           000068H   BYTE   INSEG    CODE           ?PR?DL1A_SIMIIC_READ_REGS_1?SEEKFREE_DL1A
   *DEL*:           000149H   BYTE   INSEG    CODE           ?PR?DL1A_SET_MEASUREMENT_TIMING_BUDGET?SEEKFREE_DL1A
   *DEL*:           000016H   BYTE   INSEG    CODE           ?PR?DL1A_SIMIIC_STOP?SEEKFREE_DL1A
   *DEL*:           00002AH   BYTE   INSEG    CODE           ?PR?DL1A_SIMIIC_WRITE_REG?SEEKFREE_DL1A
   *DEL*:           0006AEH   BYTE   INSEG    CODE           ?PR?DL1A_INIT?SEEKFREE_DL1A
   *DEL*:           00007AH   BYTE   INSEG    CODE           ?PR?DL1A_GET_VCSEL_PULSE_PERIOD?SEEKFREE_DL1A
   *DEL*:           00001EH   BYTE   INSEG    CODE           ?PR?ICM20602_READ_REGISTER?SEEKFREE_ICM20602
   *DEL*:           00008DH   BYTE   INSEG    CODE           ?PR?ICM20602_GYRO_TRANSITION?SEEKFREE_ICM20602
   *DEL*:           00001AH   BYTE   INSEG    CODE           ?PR?ICM20602_WRITE_REGISTER?SEEKFREE_ICM20602
   *DEL*:           000059H   BYTE   INSEG    CODE           ?PR?ICM20602_SIMSPI_WR_BYTE?SEEKFREE_ICM20602
   *DEL*:           00004EH   BYTE   INSEG    CODE           ?PR?ICM20602_SELF_CHECK?SEEKFREE_ICM20602
   *DEL*:           000051H   BYTE   INSEG    CODE           ?PR?ICM20602_SIMSPI_R_REG_BYTES?SEEKFREE_ICM20602
   *DEL*:           000027H   BYTE   INSEG    CODE           ?PR?ICM20602_SIMSPI_R_REG_BYTE?SEEKFREE_ICM20602
   *DEL*:           00001BH   BYTE   INSEG    CODE           ?PR?ICM20602_SIMSPI_W_REG_BYTE?SEEKFREE_ICM20602
   *DEL*:           0000C2H   BYTE   INSEG    CODE           ?PR?ICM20602_INIT?SEEKFREE_ICM20602
   *DEL*:           000050H   BYTE   INSEG    CODE           ?PR?ICM20602_GET_ACC?SEEKFREE_ICM20602
   *DEL*:           000089H   BYTE   INSEG    CODE           ?PR?ICM20602_ACC_TRANSITION?SEEKFREE_ICM20602
   *DEL*:           000026H   BYTE   INSEG    CODE           ?PR?ICM20602_READ_REGISTERS?SEEKFREE_ICM20602
   *DEL*:           000050H   BYTE   INSEG    CODE           ?PR?ICM20602_GET_GYRO?SEEKFREE_ICM20602
   *DEL*:           0000A8H   BYTE   INSEG    CODE           ?PR?IMU660RA_GYRO_TRANSITION?SEEKFREE_IMU660RA
   *DEL*:           000057H   BYTE   INSEG    CODE           ?PR?IMU660RA_GET_ACC?SEEKFREE_IMU660RA
   *DEL*:           00007CH   BYTE   INSEG    CODE           ?PR?IMU660RA_ACC_TRANSITION?SEEKFREE_IMU660RA
   *DEL*:           00008DH   BYTE   INSEG    CODE           ?PR?IMU963RA_ACC_TRANSITION?SEEKFREE_IMU963RA
   *DEL*:           000050H   BYTE   INSEG    CODE           ?PR?IMU963RA_GET_GYRO?SEEKFREE_IMU963RA
   *DEL*:           000051H   BYTE   INSEG    CODE           ?PR?IMU963RA_MAG_TRANSITION?SEEKFREE_IMU963RA
   *DEL*:           0000D2H   BYTE   INSEG    CODE           ?PR?IMU963RA_GYRO_TRANSITION?SEEKFREE_IMU963RA
   *DEL*:           000059H   BYTE   INSEG    CODE           ?PR?IMU963RA_SIMSPI_WR_BYTE?SEEKFREE_IMU963RA
   *DEL*:           00006CH   BYTE   INSEG    CODE           ?PR?IMU963RA_READ_MAG_REGISTER?SEEKFREE_IMU963RA
   *DEL*:           00003AH   BYTE   INSEG    CODE           ?PR?IMU963RA_CONNECT_MAG?SEEKFREE_IMU963RA
   *DEL*:           000026H   BYTE   INSEG    CODE           ?PR?IMU963RA_READ_ACC_GYRO_REGISTERS?SEEKFREE_IMU963RA
   *DEL*:           00007FH   BYTE   INSEG    CODE           ?PR?IMU963RA_WRITE_MAG_REGISTER?SEEKFREE_IMU963RA
   *DEL*:           000023H   BYTE   INSEG    CODE           ?PR?IMU963RA_READ_ACC_GYRO_REGISTER?SEEKFREE_IMU963RA
   *DEL*:           00004BH   BYTE   INSEG    CODE           ?PR?IMU963RA_SIMSPI_R_REG_BYTES?SEEKFREE_IMU963RA
   *DEL*:           00002DH   BYTE   INSEG    CODE           ?PR?IMU963RA_SIMSPI_R_REG_BYTE?SEEKFREE_IMU963RA
   *DEL*:           000051H   BYTE   INSEG    CODE           ?PR?IMU963RA_MAG_SELF_CHECK?SEEKFREE_IMU963RA
   *DEL*:           00001AH   BYTE   INSEG    CODE           ?PR?IMU963RA_WRITE_ACC_GYRO_REGISTER?SEEKFREE_IMU963RA
   *DEL*:           000021H   BYTE   INSEG    CODE           ?PR?IMU963RA_SIMSPI_W_REG_BYTE?SEEKFREE_IMU963RA
   *DEL*:           00011DH   BYTE   INSEG    CODE           ?PR?IMU963RA_INIT?SEEKFREE_IMU963RA
   *DEL*:           00004EH   BYTE   INSEG    CODE           ?PR?IMU963RA_ACC_GYRO_SELF_CHECK?SEEKFREE_IMU963RA
   *DEL*:           000050H   BYTE   INSEG    CODE           ?PR?IMU963RA_GET_ACC?SEEKFREE_IMU963RA
   *DEL*:           00006BH   BYTE   INSEG    CODE           ?PR?IMU963RA_GET_MAG?SEEKFREE_IMU963RA
   *DEL*:           0000A9H   BYTE   INSEG    CODE           ?PR?IPS114_SHOWUINT8_SIMSPI?SEEKFREE_IPS114_SPI
   *DEL*:           0000A5H   BYTE   INSEG    CODE           ?PR?IPS114_SHOWUINT8?SEEKFREE_IPS114_SPI
   *DEL*:           0000EBH   BYTE   INSEG    CODE           ?PR?IPS114_SHOWINT8_SIMSPI?SEEKFREE_IPS114_SPI
   *DEL*:           0000E7H   BYTE   INSEG    CODE           ?PR?IPS114_SHOWINT8?SEEKFREE_IPS114_SPI
   *DEL*:           00002AH   BYTE   INSEG    CODE           ?PR?IPS114_WRITEDATA_16BIT?SEEKFREE_IPS114_SPI
L251 LINKER/LOCATER V4.66.93.0                                                        04/24/2024  17:02:24  PAGE 13


   *DEL*:           000145H   BYTE   INSEG    CODE           ?PR?IPS114_SHOWFLOAT_SIMSPI?SEEKFREE_IPS114_SPI
   *DEL*:           000023H   BYTE   INSEG    CODE           ?PR?IPS114_DRAWPOINT_SIMSPI?SEEKFREE_IPS114_SPI
   *DEL*:           000145H   BYTE   INSEG    CODE           ?PR?IPS114_SHOWFLOAT?SEEKFREE_IPS114_SPI
   *DEL*:           000023H   BYTE   INSEG    CODE           ?PR?IPS114_DRAWPOINT?SEEKFREE_IPS114_SPI
   *DEL*:           0000BFH   BYTE   INSEG    CODE           ?PR?IPS114_SHOWCHAR_SIMSPI?SEEKFREE_IPS114_SPI
   *DEL*:           0000BFH   BYTE   INSEG    CODE           ?PR?IPS114_SHOWCHAR?SEEKFREE_IPS114_SPI
   *DEL*:           0000CDH   BYTE   INSEG    CODE           ?PR?IPS114_SHOWUINT16_SIMSPI?SEEKFREE_IPS114_SPI
   *DEL*:           0000CDH   BYTE   INSEG    CODE           ?PR?IPS114_SHOWUINT16?SEEKFREE_IPS114_SPI
   *DEL*:           0000CEH   BYTE   INSEG    CODE           ?PR?IPS114_SHOWINT32_SIMSPI?SEEKFREE_IPS114_SPI
   *DEL*:           000119H   BYTE   INSEG    CODE           ?PR?IPS114_SHOWINT16_SIMSPI?SEEKFREE_IPS114_SPI
   *DEL*:           0000CEH   BYTE   INSEG    CODE           ?PR?IPS114_SHOWINT32?SEEKFREE_IPS114_SPI
   *DEL*:           000115H   BYTE   INSEG    CODE           ?PR?IPS114_SHOWINT16?SEEKFREE_IPS114_SPI
   *DEL*:           00005FH   BYTE   INSEG    CODE           ?PR?IPS114_CLEAR_SIMSPI?SEEKFREE_IPS114_SPI
   *DEL*:           00005FH   BYTE   INSEG    CODE           ?PR?IPS114_CLEAR?SEEKFREE_IPS114_SPI
   *DEL*:           000055H   BYTE   INSEG    CODE           ?PR?IPS114_WRITEDATAI_16BIT_SIMSPI?SEEKFREE_IPS114_SPI
   *DEL*:           00005DH   BYTE   INSEG    CODE           ?PR?IPS114_SHOWSTR_SIMSPI?SEEKFREE_IPS114_SPI
   *DEL*:           00005DH   BYTE   INSEG    CODE           ?PR?IPS114_SHOWSTR?SEEKFREE_IPS114_SPI
   *DEL*:           00004CH   BYTE   INSEG    CODE           ?PR?IPS114_WRITEINDEX_SIMSPI?SEEKFREE_IPS114_SPI
   *DEL*:           00004CH   BYTE   INSEG    CODE           ?PR?IPS114_WRITEDATA_SIMSPI?SEEKFREE_IPS114_SPI
   *DEL*:           000015H   BYTE   INSEG    CODE           ?PR?IPS114_WRITEINDEX?SEEKFREE_IPS114_SPI
   *DEL*:           000015H   BYTE   INSEG    CODE           ?PR?IPS114_WRITEDATA?SEEKFREE_IPS114_SPI
   *DEL*:           000054H   BYTE   INSEG    CODE           ?PR?IPS114_SET_REGION_SIMSPI?SEEKFREE_IPS114_SPI
   *DEL*:           000154H   BYTE   INSEG    CODE           ?PR?IPS114_INIT_SIMSPI?SEEKFREE_IPS114_SPI
   *DEL*:           000054H   BYTE   INSEG    CODE           ?PR?IPS114_SET_REGION?SEEKFREE_IPS114_SPI
   *DEL*:           000176H   BYTE   INSEG    CODE           ?PR?IPS114_INIT?SEEKFREE_IPS114_SPI
   *DEL*:           000013H   BYTE   INSEG    CODE           ?PR?MPU6050_SIMIIC_START?SEEKFREE_MPU6050
   *DEL*:           00006CH   BYTE   INSEG    CODE           ?PR?MPU6050_SIMIIC_READ_REGS?SEEKFREE_MPU6050
   *DEL*:           00003BH   BYTE   INSEG    CODE           ?PR?MPU6050_SIMIIC_READ_REG?SEEKFREE_MPU6050
   *DEL*:           000016H   BYTE   INSEG    CODE           ?PR?MPU6050_SIMIIC_STOP?SEEKFREE_MPU6050
   *DEL*:           00002AH   BYTE   INSEG    CODE           ?PR?MPU6050_SIMIIC_WRITE_REG?SEEKFREE_MPU6050
   *DEL*:           000060H   BYTE   INSEG    CODE           ?PR?MPU6050_INIT?SEEKFREE_MPU6050
   *DEL*:           000033H   BYTE   INSEG    CODE           ?PR?MPU6050_SELF1_CHECK?SEEKFREE_MPU6050
   *DEL*:           000028H   BYTE   INSEG    CODE           ?PR?MPU6050_SIMIIC_SENDACK?SEEKFREE_MPU6050
   *DEL*:           00006AH   BYTE   INSEG    CODE           ?PR?MPU6050_READ_CH?SEEKFREE_MPU6050
   *DEL*:           000049H   BYTE   INSEG    CODE           ?PR?MPU6050_SEND_CH?SEEKFREE_MPU6050
   *DEL*:           000052H   BYTE   INSEG    CODE           ?PR?MPU6050_GET_GYRO?SEEKFREE_MPU6050
   *DEL*:           000021H   BYTE   INSEG    CODE           ?PR?MPU6050_SCCB_WAITACK?SEEKFREE_MPU6050
   *DEL*:           000052H   BYTE   INSEG    CODE           ?PR?MPU6050_GET_ACCDATA?SEEKFREE_MPU6050
   *DEL*:           00001DH   BYTE   INSEG    CODE           ?PR?MPU6050_SIMIIC_DELAY?SEEKFREE_MPU6050
   *DEL*:           000047H   BYTE   INSEG    CODE           ?PR?OLED_PUTPIXEL?SEEKFREE_OLED
   *DEL*:           00006FH   BYTE   INSEG    CODE           ?PR?OLED_HEXASCII_SPI?SEEKFREE_OLED
   *DEL*:           00044DH   BYTE   INSEG    CODE           ?PR?OLED_DIS_BMP_SPI?SEEKFREE_OLED
   *DEL*:           000145H   BYTE   INSEG    CODE           ?PR?OLED_PRINTF_FLOAT?SEEKFREE_OLED
   *DEL*:           000121H   BYTE   INSEG    CODE           ?PR?OLED_P8X16STR_SPI?SEEKFREE_OLED
   *DEL*:           000041H   BYTE   INSEG    CODE           ?PR?OLED_CLRPIXEL_SPI?SEEKFREE_OLED
   *DEL*:           0000C0H   BYTE   INSEG    CODE           ?PR?OLED_PRINT_CHINESE_SPI?SEEKFREE_OLED
   *DEL*:           0000CEH   BYTE   INSEG    CODE           ?PR?OLED_PRINTF_INT32?SEEKFREE_OLED
   *DEL*:           000048H   BYTE   INSEG    CODE           ?PR?OLED_PUTPIXEL_SPI?SEEKFREE_OLED
   *DEL*:           000036H   BYTE   INSEG    CODE           ?PR?OLED_SET_POS_SPI?SEEKFREE_OLED
   *DEL*:           000145H   BYTE   INSEG    CODE           ?PR?OLED_PRINTF_FLOAT_SPI?SEEKFREE_OLED
   *DEL*:           000015H   BYTE   INSEG    CODE           ?PR?OLED_WRCMD_SPI?SEEKFREE_OLED
   *DEL*:           000015H   BYTE   INSEG    CODE           ?PR?OLED_WRDAT_SPI?SEEKFREE_OLED
   *DEL*:           00005DH   BYTE   INSEG    CODE           ?PR?OLED_FILL_SPI?SEEKFREE_OLED
   *DEL*:           0000CEH   BYTE   INSEG    CODE           ?PR?OLED_PRINTF_INT32_SPI?SEEKFREE_OLED
   *DEL*:           000027H   BYTE   INSEG    CODE           ?PR?OLED_UINT16_SPI?SEEKFREE_OLED
   *DEL*:           0000D1H   BYTE   INSEG    CODE           ?PR?OLED_P6X8STR_SPI?SEEKFREE_OLED
   *DEL*:           000073H   BYTE   INSEG    CODE           ?PR?OLED_INT16_SPI?SEEKFREE_OLED
   *DEL*:           00046AH   BYTE   INSEG    CODE           ?PR?OLED_DIS_BMP?SEEKFREE_OLED
   *DEL*:           0000C8H   BYTE   INSEG    CODE           ?PR?OLED_INIT_SPI?SEEKFREE_OLED
   *DEL*:           000040H   BYTE   INSEG    CODE           ?PR?OLED_CLRPIXEL?SEEKFREE_OLED
   *DEL*:           0000C0H   BYTE   INSEG    CODE           ?PR?OLED_PRINT_CHINESE?SEEKFREE_OLED
   *DEL*:           00008AH   BYTE   INSEG    CODE           ?PR?CCD_SEND_DATA?SEEKFREE_TSL1401
   *DEL*:           000017H   BYTE   INSEG    CODE           ?PR?CCD_INIT?SEEKFREE_TSL1401
   *DEL*:           00005FH   BYTE   INSEG    CODE           ?PR?CCD_COLLECT?SEEKFREE_TSL1401
   *DEL*:           00009AH   BYTE   INSEG    CODE           ?PR?CRC_CHECK?SEEKFREE_VIRSCO
L251 LINKER/LOCATER V4.66.93.0                                                        04/24/2024  17:02:24  PAGE 14


   *DEL*:           0000DCH   BYTE   INSEG    CODE           ?PR?DATA_CONVERSION?SEEKFREE_VIRSCO
   *DEL*:           00002EH   BYTE   INSEG    CODE           ?PR?WIRELESS_UART_READ_BUFF?SEEKFREE_WIRELESS
   *DEL*:           000073H   BYTE   INSEG    CODE           ?PR?WIRELESS_UART_SEND_BUFF?SEEKFREE_WIRELESS
   *DEL*:           00003EH   BYTE   INSEG    CODE           ?PR?WIRELESS_UART_INIT?SEEKFREE_WIRELESS
   *DEL*:           00001DH   BYTE   INSEG    CODE           ?PR?WIRELESS_UART_SEND_BYTE?SEEKFREE_WIRELESS
   *DEL*:           000012H   BYTE   INSEG    CODE           ?PR?BUZZER?MOTOR
   *DEL*:           0000D5H   BYTE   INSEG    CODE           ?PR?FILTER_1?MOTOR
   *DEL*:           000048H   BYTE   INSEG    CODE           ?PR?L_ENC_INTEGRAL?ENCODER
   *DEL*:           000048H   BYTE   INSEG    CODE           ?PR?R_ENC_INTEGRAL?ENCODER
   *DEL*:           000007H   BYTE   INSEG    CODE           ?PR?ENCODER_READ_PULSE?ENCODER
   *DEL*:           000083H   BYTE   INSEG    CODE           ?PR?DIRCONTROL_2?DIRECTION
   *DEL*:           0000EAH   BYTE   INSEG    CODE           ?PR?ANGLE_RING?DIRECTION
   *DEL*:           000135H   BYTE   INSEG    CODE           ?PR?SEND4DATATOVOFA?VOFA
   *DEL*:           0000D9H   BYTE   INSEG    CODE           ?PR?MEDIANFILTER1?MPU6050
   *DEL*:           00006DH   BYTE   INSEG    CODE           ?PR?GYRO_ZERO_WANDER?MPU6050
   *DEL*:           00002FH   BYTE   INSEG    CODE           ?PR?LOWPASSFILTER?MPU6050
   *DEL*:           0000E2H   BYTE   INSEG    CODE           ?PR?GET_ANGLE?MPU6050
   *DEL*:           000298H   BYTE   INSEG    CODE           ?PR?ROUNDABOUT?TRACKELEMENT
   *DEL*:           000040H   BYTE   INSEG    CODE           ?PR?SUB_PID?TRACKELEMENT
   *DEL*:           000099H   BYTE   INSEG    CODE           ?PR?CROSSROAD?TRACKELEMENT
   *DEL*:           000038H   BYTE   INSEG    CODE           ?PR?DISTACE?TRACKELEMENT
   *DEL*:           0000DAH   BYTE   INSEG    CODE           ?PR?RIGHT_ANGLE?TRACKELEMENT
   *DEL*:           00008CH   BYTE   INSEG    CODE           ?PR?SPEED_PLAN?TRACKELEMENT
   *DEL*:           00005DH   BYTE   INSEG    CODE           ?PR?CARSTART_MENU?MENU
   *DEL*:           00005DH   BYTE   INSEG    CODE           ?PR?SHOW_ALLVAL?MENU
   *DEL*:           00001AH   BYTE   INSEG    CODE           ?PR?MEMSET?_?MEMSET



OVERLAY MAP OF MODULE:   .\Out_File\SEEKFREE (board)


FUNCTION/MODULE                               EDATA_GROUP
--> CALLED FUNCTION/MODULE                    START  STOP
=========================================================
UART1_Isr/isr                                 ----- -----

*** NEW ROOT ********************************

UART2_Isr/isr                                 ----- -----

*** NEW ROOT ********************************

UART3_Isr/isr                                 ----- -----

*** NEW ROOT ********************************

UART4_Isr/isr                                 ----- -----
  +--> wireless_uart_callback/SEEKFREE_WIRELESS
  +--> bluetooth_ch9141_uart_callback/SEEKFREE_BLUETOOTH_CH9141

wireless_uart_callback/SEEKFREE_WIRELESS      ----- -----
  +--> fifo_write_buffer/zf_fifo

fifo_write_buffer/zf_fifo                     ----- -----
  +--> memcpy?_/memcpy
  +--> fifo_head_offset/zf_fifo

memcpy?_/memcpy                               ----- -----

fifo_head_offset/zf_fifo                      ----- -----

bluetooth_ch9141_uart_callback/SEEKFREE_+     ----- -----
... BLUETOOTH_CH9141
  +--> fifo_write_buffer/zf_fifo
L251 LINKER/LOCATER V4.66.93.0                                                        04/24/2024  17:02:24  PAGE 15



*** NEW ROOT ********************************

INT0_Isr/isr                                  ----- -----

*** NEW ROOT ********************************

INT1_Isr/isr                                  ----- -----

*** NEW ROOT ********************************

INT2_Isr/isr                                  ----- -----

*** NEW ROOT ********************************

INT3_Isr/isr                                  ----- -----

*** NEW ROOT ********************************

INT4_Isr/isr                                  ----- -----

*** NEW ROOT ********************************

TM0_Isr/isr                                   ----- -----

*** NEW ROOT ********************************

TM1_Isr/isr                                   ----- -----

*** NEW ROOT ********************************

TM2_Isr/isr                                   ----- -----

*** NEW ROOT ********************************

TM3_Isr/isr                                   ----- -----

*** NEW ROOT ********************************

TM4_Isr/encoder                               ----- -----
  +--> L_Encoder_Pulse/encoder
  +--> R_Encoder_Pulse/encoder
  +--> NORMALIZATION_TRACKING_ADC/Inductance
  +--> Error_Speed/TrackElement
  +--> Tracking/TrackElement
  +--> ctimer_count_clean/zf_tim

L_Encoder_Pulse/encoder                       ----- -----
  +--> ctimer_count_read/zf_tim

ctimer_count_read/zf_tim                      ----- -----

R_Encoder_Pulse/encoder                       ----- -----
  +--> ctimer_count_read/zf_tim

NORMALIZATION_TRACKING_ADC/Inductance         ----- -----
  +--> adc_once/zf_adc
  +--> FCASTI/STC32F_FPMU
  +--> FPDIV/STC32F_FPMU
  +--> FPCMP/STC32F_FPMU
  +--> FPMUL/STC32F_FPMU
  +--> CASTF/STC32F_FPMU
  +--> sq/Inductance

adc_once/zf_adc                               ----- -----
L251 LINKER/LOCATER V4.66.93.0                                                        04/24/2024  17:02:24  PAGE 16



FCASTI/STC32F_FPMU                            ----- -----

FPDIV/STC32F_FPMU                             ----- -----

FPCMP/STC32F_FPMU                             ----- -----

FPMUL/STC32F_FPMU                             ----- -----

CASTF/STC32F_FPMU                             ----- -----

sq/Inductance                                 ----- -----
  +--> FPMUL/STC32F_FPMU
  +--> FPSUB/STC32F_FPMU

FPSUB/STC32F_FPMU                             ----- -----

Error_Speed/TrackElement                      ----- -----
  +--> FCASTI/STC32F_FPMU
  +--> FPMUL/STC32F_FPMU
  +--> CASTF/STC32F_FPMU

Tracking/TrackElement                         ----- -----
  +--> DirControl/direction
  +--> Speed_pid_Out/Motor
  +--> Motor_PWM/Motor

DirControl/direction                          ----- -----
  +--> wh_Turn_Out/direction
  +--> nh_Turn_Out/direction

wh_Turn_Out/direction                         ----- -----
  +--> FCASTI/STC32F_FPMU
  +--> FPSUB/STC32F_FPMU
  +--> FPMUL/STC32F_FPMU
  +--> FPADD/STC32F_FPMU
  +--> CASTF/STC32F_FPMU
  +--> limit/Motor

FPADD/STC32F_FPMU                             ----- -----

limit/Motor                                   ----- -----

nh_Turn_Out/direction                         ----- -----
  +--> FCASTI/STC32F_FPMU
  +--> FPDIV/STC32F_FPMU
  +--> FPSUB/STC32F_FPMU
  +--> FPMUL/STC32F_FPMU
  +--> FPADD/STC32F_FPMU
  +--> CASTF/STC32F_FPMU
  +--> limit/Motor

Speed_pid_Out/Motor                           ----- -----
  +--> FCASTI/STC32F_FPMU
  +--> CASTF/STC32F_FPMU
  +--> abs?_/ABS
  +--> FPMUL/STC32F_FPMU
  +--> FPADD/STC32F_FPMU
  +--> FPCMP/STC32F_FPMU
  +--> limit/Motor

abs?_/ABS                                     ----- -----

Motor_PWM/Motor                               ----- -----
  +--> abs?_/ABS
L251 LINKER/LOCATER V4.66.93.0                                                        04/24/2024  17:02:24  PAGE 17


  +--> pwm_duty/zf_pwm

pwm_duty/zf_pwm                               ----- -----
  +--> FCASTL/STC32F_FPMU
  +--> FPDIV/STC32F_FPMU
  +--> FPMUL/STC32F_FPMU
  +--> CASTF/STC32F_FPMU

FCASTL/STC32F_FPMU                            ----- -----

ctimer_count_clean/zf_tim                     ----- -----

*** NEW ROOT ********************************

?C_C51STARTUP                                 ----- -----

*** NEW ROOT ********************************

?C_C51STARTUP?3                               ----- -----
  +--> main/main

main/main                                     ----- -----
  +--> clock_init/board
  +--> board_init/board
  +--> imu660ra_init/SEEKFREE_IMU660RA
  +--> uart_init/zf_uart
  +--> oled_init/SEEKFREE_OLED
  +--> oled_fill/SEEKFREE_OLED
  +--> delay_init/zf_delay
  +--> Inductance_Init/Inductance
  +--> Motor_Init/Motor
  +--> Motor_SET_PID/Motor
  +--> imu660ra_get_gyro/SEEKFREE_IMU660RA
  +--> First_menu/menu
  +--> Second_Element_menu/menu
  +--> Second_Motor_menu/menu
  +--> Second__NWHuan_menu/menu
  +--> Second__Speed_menu/menu
  +--> Show_Val_Menu/menu
  +--> Encoder_Time_Init/encoder

clock_init/board                              ----- -----
  +--> set_clk/board

set_clk/board                                 ----- -----

board_init/board                              ----- -----
  +--> delay_init/zf_delay
  +--> ICacheOn/board
  +--> uart_init/zf_uart
  +--> EnableGlobalIRQ/board

delay_init/zf_delay                           ----- -----
  +--> ?C?SLDIV/?C?SLDIV

?C?SLDIV/?C?SLDIV                             ----- -----
  +--> ?C?ULIDIV/?C?ULDIV

?C?ULIDIV/?C?ULDIV                            ----- -----

ICacheOn/board                                ----- -----

uart_init/zf_uart                             ----- -----
  +--> ?C?ULIDIV/?C?ULDIV

L251 LINKER/LOCATER V4.66.93.0                                                        04/24/2024  17:02:24  PAGE 18


EnableGlobalIRQ/board                         ----- -----

imu660ra_init/SEEKFREE_IMU660RA               ----- -----
  +--> delay_ms/zf_delay
  +--> imu660ra_self_check/SEEKFREE_IMU660RA
  +--> PRINTF/PRINTF
  +--> imu660ra_simiic_write_reg/SEEKFREE_IMU660RA
  +--> imu660ra_simiic_write_regs/SEEKFREE_IMU660RA
  +--> imu660ra_simiic_read_reg/SEEKFREE_IMU660RA

delay_ms/zf_delay                             ----- -----

imu660ra_self_check/SEEKFREE_IMU660RA         ----- -----
  +--> imu660ra_simiic_read_reg/SEEKFREE_IMU660RA
  +--> delay_ms/zf_delay

imu660ra_simiic_read_reg/SEEKFREE_IMU660+     ----- -----
... RA
  +--> imu660ra_simiic_start/SEEKFREE_IMU660RA
  +--> imu660ra_send_ch/SEEKFREE_IMU660RA
  +--> imu660ra_read_ch/SEEKFREE_IMU660RA
  +--> imu660ra_simiic_stop/SEEKFREE_IMU660RA

imu660ra_simiic_start/SEEKFREE_IMU660RA       ----- -----
  +--> imu660ra_simiic_delay/SEEKFREE_IMU660RA

imu660ra_simiic_delay/SEEKFREE_IMU660RA       ----- -----

imu660ra_send_ch/SEEKFREE_IMU660RA            ----- -----
  +--> imu660ra_simiic_delay/SEEKFREE_IMU660RA
  +--> imu660ra_sccb_waitack/SEEKFREE_IMU660RA

imu660ra_sccb_waitack/SEEKFREE_IMU660RA       ----- -----
  +--> imu660ra_simiic_delay/SEEKFREE_IMU660RA

imu660ra_read_ch/SEEKFREE_IMU660RA            ----- -----
  +--> imu660ra_simiic_delay/SEEKFREE_IMU660RA
  +--> imu660ra_simiic_sendack/SEEKFREE_IMU660RA

imu660ra_simiic_sendack/SEEKFREE_IMU660R+     ----- -----
... A
  +--> imu660ra_simiic_delay/SEEKFREE_IMU660RA

imu660ra_simiic_stop/SEEKFREE_IMU660RA        ----- -----
  +--> imu660ra_simiic_delay/SEEKFREE_IMU660RA

PRINTF/PRINTF                                 073DH 0764H
  +--> OUT/PRINTF

OUT/PRINTF                                    ----- -----
  +--> PUTCH/PRINTF

PUTCH/PRINTF                                  ----- -----
  +--> putchar/board
  +--> OUT/PRINTF

putchar/board                                 ----- -----
  +--> uart_putchar/zf_uart

uart_putchar/zf_uart                          ----- -----

imu660ra_simiic_write_reg/SEEKFREE_IMU66+     ----- -----
... 0RA
  +--> imu660ra_simiic_start/SEEKFREE_IMU660RA
  +--> imu660ra_send_ch/SEEKFREE_IMU660RA
L251 LINKER/LOCATER V4.66.93.0                                                        04/24/2024  17:02:24  PAGE 19


  +--> imu660ra_simiic_stop/SEEKFREE_IMU660RA

imu660ra_simiic_write_regs/SEEKFREE_IMU6+     ----- -----
... 60RA
  +--> imu660ra_simiic_start/SEEKFREE_IMU660RA
  +--> imu660ra_send_ch/SEEKFREE_IMU660RA
  +--> imu660ra_simiic_stop/SEEKFREE_IMU660RA

oled_init/SEEKFREE_OLED                       ----- -----
  +--> delay_ms/zf_delay
  +--> oled_wrcmd/SEEKFREE_OLED
  +--> oled_fill/SEEKFREE_OLED
  +--> oled_set_pos/SEEKFREE_OLED

oled_wrcmd/SEEKFREE_OLED                      ----- -----

oled_fill/SEEKFREE_OLED                       ----- -----
  +--> oled_wrcmd/SEEKFREE_OLED
  +--> oled_wrdat/SEEKFREE_OLED

oled_wrdat/SEEKFREE_OLED                      ----- -----

oled_set_pos/SEEKFREE_OLED                    ----- -----
  +--> oled_wrcmd/SEEKFREE_OLED

Inductance_Init/Inductance                    ----- -----
  +--> adc_init/zf_adc

adc_init/zf_adc                               ----- -----

Motor_Init/Motor                              ----- -----
  +--> gpio_mode/zf_gpio
  +--> pwm_init/zf_pwm

gpio_mode/zf_gpio                             ----- -----

pwm_init/zf_pwm                               ----- -----
  +--> pwm_set_gpio/zf_pwm
  +--> ?C?ULIDIV/?C?ULDIV
  +--> FCASTL/STC32F_FPMU
  +--> FPDIV/STC32F_FPMU
  +--> FPMUL/STC32F_FPMU
  +--> CASTF/STC32F_FPMU

pwm_set_gpio/zf_pwm                           ----- -----
  +--> gpio_mode/zf_gpio

Motor_SET_PID/Motor                           ----- -----

imu660ra_get_gyro/SEEKFREE_IMU660RA           ----- -----
  +--> imu660ra_simiic_read_regs/SEEKFREE_IMU660RA

imu660ra_simiic_read_regs/SEEKFREE_IMU66+     ----- -----
... 0RA
  +--> imu660ra_simiic_start/SEEKFREE_IMU660RA
  +--> imu660ra_send_ch/SEEKFREE_IMU660RA
  +--> imu660ra_read_ch/SEEKFREE_IMU660RA
  +--> imu660ra_simiic_stop/SEEKFREE_IMU660RA

First_menu/menu                               ----- -----
  +--> oled_p6x8str/SEEKFREE_OLED
  +--> delay_ms/zf_delay
  +--> oled_fill/SEEKFREE_OLED

oled_p6x8str/SEEKFREE_OLED                    ----- -----
L251 LINKER/LOCATER V4.66.93.0                                                        04/24/2024  17:02:24  PAGE 20


  +--> oled_set_pos/SEEKFREE_OLED
  +--> oled_wrdat/SEEKFREE_OLED

Second_Element_menu/menu                      ----- -----
  +--> oled_p8x16str/SEEKFREE_OLED
  +--> delay_ms/zf_delay
  +--> oled_fill/SEEKFREE_OLED
  +--> oled_uint16_px8/SEEKFREE_OLED

oled_p8x16str/SEEKFREE_OLED                   ----- -----
  +--> oled_set_pos/SEEKFREE_OLED
  +--> oled_wrdat/SEEKFREE_OLED

oled_uint16_px8/SEEKFREE_OLED                 ----- -----
  +--> oled_hexascii/SEEKFREE_OLED
  +--> oled_p8x16str/SEEKFREE_OLED

oled_hexascii/SEEKFREE_OLED                   ----- -----

Second_Motor_menu/menu                        ----- -----
  +--> oled_p8x16str/SEEKFREE_OLED
  +--> oled_printf_float_px8/SEEKFREE_OLED
  +--> delay_ms/zf_delay
  +--> FCASTI/STC32F_FPMU
  +--> FPMUL/STC32F_FPMU
  +--> FPADD/STC32F_FPMU
  +--> oled_fill/SEEKFREE_OLED

oled_printf_float_px8/SEEKFREE_OLED           ----- -----
  +--> FPCMP/STC32F_FPMU
  +--> zf_sprintf/SEEKFREE_PRINTF
  +--> oled_p8x16str/SEEKFREE_OLED

zf_sprintf/SEEKFREE_PRINTF                    ----- -----
  +--> number_conversion_ascii/SEEKFREE_PRINTF
  +--> printf_reverse_order/SEEKFREE_PRINTF
  +--> memcpy?_/memcpy
  +--> CASTF/STC32F_FPMU
  +--> FPCMP/STC32F_FPMU
  +--> FCASTL/STC32F_FPMU
  +--> FPSUB/STC32F_FPMU
  +--> FPMUL/STC32F_FPMU

number_conversion_ascii/SEEKFREE_PRINTF       ----- -----
  +--> ?C?SLDIV/?C?SLDIV
  +--> ?C?ULIDIV/?C?ULDIV

printf_reverse_order/SEEKFREE_PRINTF          ----- -----

Second__NWHuan_menu/menu                      ----- -----
  +--> oled_fill/SEEKFREE_OLED
  +--> delay_ms/zf_delay
  +--> oled_p8x16str/SEEKFREE_OLED
  +--> oled_printf_float_px8/SEEKFREE_OLED
  +--> FCASTI/STC32F_FPMU
  +--> FPMUL/STC32F_FPMU
  +--> FPADD/STC32F_FPMU

Second__Speed_menu/menu                       ----- -----
  +--> oled_fill/SEEKFREE_OLED
  +--> oled_p8x16str/SEEKFREE_OLED
  +--> oled_uint16_px8/SEEKFREE_OLED
  +--> delay_ms/zf_delay

Show_Val_Menu/menu                            ----- -----
L251 LINKER/LOCATER V4.66.93.0                                                        04/24/2024  17:02:24  PAGE 21


  +--> NORMALIZATION_TRACKING_ADC/Inductance
  +--> show_val/Inductance
  +--> delay_ms/zf_delay
  +--> oled_fill/SEEKFREE_OLED

show_val/Inductance                           ----- -----
  +--> oled_p6x8str/SEEKFREE_OLED
  +--> oled_uint16/SEEKFREE_OLED
  +--> oled_int16/SEEKFREE_OLED

oled_uint16/SEEKFREE_OLED                     ----- -----
  +--> oled_hexascii/SEEKFREE_OLED
  +--> oled_p6x8str/SEEKFREE_OLED

oled_int16/SEEKFREE_OLED                      ----- -----
  +--> oled_p6x8str/SEEKFREE_OLED
  +--> oled_hexascii/SEEKFREE_OLED

Encoder_Time_Init/encoder                     ----- -----
  +--> pit_timer_ms/zf_tim
  +--> gpio_mode/zf_gpio
  +--> ctimer_count_init/zf_tim
  +--> EnableGlobalIRQ/board

pit_timer_ms/zf_tim                           ----- -----
  +--> ?C?SLDIV/?C?SLDIV

ctimer_count_init/zf_tim                      ----- -----

*** NEW ROOT ********************************

?C_C51STARTUP?2                               ----- -----



PUBLIC SYMBOLS OF MODULE:  .\Out_File\SEEKFREE (board)


      VALUE       CLASS    TYPE      PUBLIC SYMBOL NAME
      =================================================
      00000784H   EDATA    BYTE      ?Angle_Ring?BYTE
      00FF45CAH   CODE     ---       ?C?BMOVENP
      00FF45C8H   CODE     ---       ?C?BMOVENP8
      00FF8AC8H   CODE     ---       ?C?CASTF
      000000FFH   NUMBER   ---       ?C?CODESEG
*DEL*:00000000H   CODE     ---       ?C?FCASTC
      00FF8ACEH   CODE     ---       ?C?FCASTI
      00FF005EH   CODE     ---       ?C?FCASTL
      00FF000EH   CODE     ---       ?C?FPADD
      00FF0046H   CODE     ---       ?C?FPCMP3
      00FF4393H   CODE     ---       ?C?FPCONVERT
      00FF0056H   CODE     ---       ?C?FPDIV
      00FF001EH   CODE     ---       ?C?FPMUL
*DEL*:00000000H   CODE     ---       ?C?FPNEG
      00FF444BH   CODE     ---       ?C?FPROUND
      00FF0016H   CODE     ---       ?C?FPSUB
      00FF44BEH   CODE     ---       ?C?FTNPWR
      00FF8724H   CODE     ---       ?C?INITEDATA
      00FF8E8DH   HCONST   WORD      ?C?INITEDATA_END
      00FF4538H   CODE     ---       ?C?LIMUL
      00FF4527H   CODE     ---       ?C?LMUL
      00FF3F76H   CODE     ---       ?C?PRNFMT
      00FF44F5H   CODE     ---       ?C?SIDIV
      00FF4594H   CODE     NEAR LAB  ?C?SLDIV
      00FF0000H   CODE     ---       ?C?STARTUP
L251 LINKER/LOCATER V4.66.93.0                                                        04/24/2024  17:02:24  PAGE 22


      00FF4543H   CODE     NEAR LAB  ?C?ULDIV
      00FF4541H   CODE     NEAR LAB  ?C?ULIDIV
      00000001H   NUMBER   ---       ?C?XDATASEG
      00FF0000H   CODE     ---       ?C_STARTUP
      00000966H   EDATA    BYTE      ?data_conversion?BYTE
      000007DAH   EDATA    BYTE      ?DirControl_2?BYTE
      0000099CH   EDATA    BYTE      ?fifo_init?BYTE
      000008B5H   EDATA    BYTE      ?fifo_read_buffer?BYTE
      000008FEH   EDATA    BYTE      ?fifo_write_buffer?BYTE
      00000AC3H   EDATA    BYTE      ?iap_read_bytes?BYTE
      00000ACDH   EDATA    BYTE      ?iap_write_bytes?BYTE
      00000C9AH   EDATA    BYTE      ?iic_init?BYTE
      000004C2H   EDATA    BYTE      ?ips114_showfloat?BYTE
      00000492H   EDATA    BYTE      ?ips114_showfloat_simspi?BYTE
      00000462H   EDATA    BYTE      ?lcd_showfloat?BYTE
      00000432H   EDATA    BYTE      ?lcd_showfloat_simspi?BYTE
      00000A80H   EDATA    BYTE      ?lowPassFilter?BYTE
      00000A74H   EDATA    BYTE      ?Motor_SET_PID?BYTE
      00000824H   EDATA    BYTE      ?nh_Turn_Out?BYTE
      0000088DH   EDATA    BYTE      ?number_conversion_ascii?BYTE
      00000522H   EDATA    BYTE      ?oled_printf_float?BYTE
      000004F2H   EDATA    BYTE      ?oled_printf_float_px8?BYTE
      00000552H   EDATA    BYTE      ?oled_printf_float_spi?BYTE
      00000765H   EDATA    ---       ?printf?BYTE
      00000879H   EDATA    BYTE      ?pwm_freq?BYTE
      00000865H   EDATA    BYTE      ?pwm_init?BYTE
      00000836H   EDATA    BYTE      ?Send4DataToVofa?BYTE
      00000C69H   EDATA    BYTE      ?spi_init?BYTE
      0000093CH   EDATA    BYTE      ?uart_init?BYTE
      0000080EH   EDATA    BYTE      ?wh_Turn_Out?BYTE
      00000319H   EDATA    BYTE      ?zf_sprintf?BYTE
      00FF8AAEH   CODE     ---       abs?_
*SFR* 000000E0H   DATA     BYTE      ACC
      0000006CH   EDATA    INT       ad_diff
      00000032H   EDATA    ---       AD_NOR_VAL
      00000104H   EDATA    INT       ad_sum
      0000006EH   EDATA    ---       ad_value
*SFR* 000000BCH   DATA     BYTE      ADC_CONTR
      00FF794FH   CODE     ---       adc_init
      00000022H   EDATA    ---       ADC_MAX
      00000014H   EDATA    ---       ADC_MIN
      00FF83C3H   CODE     ---       adc_once
*SFR* 000000BDH   DATA     BYTE      ADC_RES
*SFR* 000000BEH   DATA     BYTE      ADC_RESL
*SFR* 000000DEH   DATA     BYTE      ADCCFG
      000007C8H   EDATA    FLOAT     angle1
      000002A9H   EDATA    FLOAT     Angle4
      00000295H   EDATA    FLOAT     Angle_D
      000002D9H   EDATA    INT       ANGLE_FLAG
      0000029DH   EDATA    FLOAT     Angle_I
      000002DDH   EDATA    FLOAT     angle_jifen
      000002A5H   EDATA    FLOAT     Angle_P
*DEL*:00000000H   CODE     ---       Angle_Ring
*DEL*:00000000H   CODE     ---       ATAN?_
*SFR* 000000EFH   DATA     BYTE      AUXINTIF
*SFR* 0000008EH   DATA     BYTE      AUXR
*SFR* 00000097H   DATA     BYTE      AUXR2
*DEL*:00000000H   CODE     ---       bluetooth_ch9141_init
*DEL*:00000000H   CODE     ---       bluetooth_ch9141_read_buff
*DEL*:00000000H   CODE     ---       bluetooth_ch9141_send_buff
      00FF0066H   CODE     ---       bluetooth_ch9141_uart_callback
      000002C5H   EDATA    LONG      bmq_jifen
      00FF7D46H   CODE     ---       board_init
      0000006AH   EDATA    INT       bug
      00000D40H   EDATA    ---       busy
L251 LINKER/LOCATER V4.66.93.0                                                        04/24/2024  17:02:24  PAGE 23


*DEL*:00000000H   CODE     ---       Buzzer
*SFR* 000000F1H   DATA     BYTE      CANICR
*DEL*:00000000H   CODE     ---       CarStart_Menu
*DEL*:00000000H   CODE     ---       ccd_collect
      00000111H   EDATA    ---       ccd_data
*DEL*:00000000H   CODE     ---       ccd_init
*DEL*:00000000H   CODE     ---       ccd_send_data
      00FF8A64H   CODE     ---       clock_init
*SFR* 000000E6H   DATA     BYTE      CMPCR1
*SFR* 000000E7H   DATA     BYTE      CMPCR2
*DEL*:00000000H   CODE     ---       COS?_
*DEL*:00000000H   CODE     ---       CRC_CHECK
*DEL*:00000000H   CODE     ---       Crossroad
      00FF825AH   CODE     ---       ctimer_count_clean
      00FF8419H   CODE     ---       ctimer_count_init
      00FF7AB9H   CODE     ---       ctimer_count_read
*DEL*:00000000H   CODE     ---       data_conversion
      00000211H   EDATA    ---       DataToSend
      00FF8983H   CODE     ---       delay_init
      00FF87FFH   CODE     ---       delay_ms
*DEL*:00000000H   CODE     ---       delay_us
      000007CEH   EDATA    INT       dir_out
      00FF8314H   CODE     ---       DirControl
*DEL*:00000000H   CODE     ---       DirControl_2
*DEL*:00000000H   CODE     ---       DisableGlobalIRQ
*DEL*:00000000H   CODE     ---       disalbe_icache
*DEL*:00000000H   CODE     ---       Distace
      000002C1H   EDATA    LONG      Distance
      000002CFH   EDATA    INT       DISTANCE_FLAG
      00000DFBH   EDATA    WORD      dl1a_distance_mm
      00000DFDH   EDATA    BYTE      dl1a_finsh_flag
*DEL*:00000000H   CODE     ---       dl1a_get_distance
*DEL*:00000000H   CODE     ---       dl1a_init
      00FF00A6H   CODE     ---       dl1b_default_configuration
*SFR* 000000EDH   DATA     BYTE      DMAIR
*SFR* 00000083H   DATA     BYTE      DPH
*SFR* 00000082H   DATA     BYTE      DPL
*SFR* 000000A8H.7 DATA     BIT       EA
*DEL*:00000000H   CODE     ---       eeprom_trig
      000002B3H   EDATA    ---       Element_Order
      00FF0006H   CODE     ---       EnableGlobalIRQ
*DEL*:00000000H   CODE     ---       enalbe_icache
*DEL*:00000000H   CODE     ---       encoder_angle_simspi
*DEL*:00000000H   CODE     ---       encoder_angle_spi
*DEL*:00000000H   CODE     ---       encoder_delay_us
*DEL*:00000000H   CODE     ---       encoder_init_simspi
*DEL*:00000000H   CODE     ---       encoder_init_spi
*DEL*:00000000H   CODE     ---       Encoder_Read_Pulse
*DEL*:00000000H   CODE     ---       encoder_self4_check
*DEL*:00000000H   CODE     ---       encoder_self5_check
*DEL*:00000000H   CODE     ---       encoder_simspi_r_reg_byte
*DEL*:00000000H   CODE     ---       encoder_simspi_w_reg_byte
*DEL*:00000000H   CODE     ---       encoder_spi_r_reg_byte
*DEL*:00000000H   CODE     ---       encoder_spi_w_reg_byte
      00FF8869H   CODE     ---       Encoder_Time_Init
      000002ADH   EDATA    INT       Err_speed
      00FF7A04H   CODE     ---       Error_Speed
*SFR* 000000A8H.4 DATA     BIT       ES
*SFR* 000000A8H.1 DATA     BIT       ET0
*SFR* 000000A8H.3 DATA     BIT       ET1
*SFR* 000000A8H.0 DATA     BIT       EX0
*SFR* 000000A8H.2 DATA     BIT       EX1
*DEL*:00000000H   CODE     ---       exit_init
*SFR* 000000D0H.5 DATA     BIT       F0
*DEL*:00000000H   CODE     ---       FABS?_
L251 LINKER/LOCATER V4.66.93.0                                                        04/24/2024  17:02:24  PAGE 24


*DEL*:00000000H   CODE     ---       FCLEX
*DEL*:00000000H   CODE     ---       fifo_clear
*DEL*:00000000H   CODE     ---       fifo_end_offset
      00FF7F87H   CODE     ---       fifo_head_offset
*DEL*:00000000H   CODE     ---       fifo_init
*DEL*:00000000H   CODE     ---       fifo_read_buffer
*DEL*:00000000H   CODE     ---       fifo_used
      00FF6DFCH   CODE     ---       fifo_write_buffer
*DEL*:00000000H   CODE     ---       filter_1
*DEL*:00000000H   CODE     ---       FINIT
      00FF6443H   CODE     ---       First_menu
      00000DCFH   EDATA    INT       flag
*DEL*:00000000H   CODE     ---       FPCRR
*DEL*:00000000H   CODE     ---       FPCRW
*DEL*:00000000H   CODE     ---       FPSRR
*DEL*:00000000H   CODE     ---       FPSRW
*DEL*:00000000H   CODE     ---       FXAM
*DEL*:00000000H   CODE     ---       Get_Angle
      00FF2F35H   CODE     ---       gpio_mode
*DEL*:00000000H   CODE     ---       gpio_pull_set
*DEL*:00000000H   CODE     ---       gyro_zero_wander
*SFR* 000000F6H   DATA     BYTE      IAP_ADDRE
*SFR* 000000C3H   DATA     BYTE      IAP_ADDRH
*SFR* 000000C4H   DATA     BYTE      IAP_ADDRL
*SFR* 000000C5H   DATA     BYTE      IAP_CMD
*SFR* 000000C7H   DATA     BYTE      IAP_CONTR
*SFR* 000000C2H   DATA     BYTE      IAP_DATA
*DEL*:00000000H   CODE     ---       iap_erase_page
*DEL*:00000000H   CODE     ---       iap_get_cmd_state
*DEL*:00000000H   CODE     ---       iap_idle
*DEL*:00000000H   CODE     ---       iap_init
*DEL*:00000000H   CODE     ---       iap_read_bytes
*DEL*:00000000H   CODE     ---       iap_set_tps
*SFR* 000000F5H   DATA     BYTE      IAP_TPS
*SFR* 000000C6H   DATA     BYTE      IAP_TRIG
*DEL*:00000000H   CODE     ---       iap_write_bytes
      00FF8A9DH   CODE     ---       ICacheOn
*SFR* 000000F7H   DATA     BYTE      ICHECR
*DEL*:00000000H   CODE     ---       icm20602_acc_transition
      00000A08H   EDATA    INT       icm20602_acc_x
      00000A0AH   EDATA    INT       icm20602_acc_y
      00000A0CH   EDATA    INT       icm20602_acc_z
*DEL*:00000000H   CODE     ---       icm20602_get_acc
*DEL*:00000000H   CODE     ---       icm20602_get_gyro
*DEL*:00000000H   CODE     ---       icm20602_gyro_transition
      00000A0EH   EDATA    INT       icm20602_gyro_x
      00000A10H   EDATA    INT       icm20602_gyro_y
      00000A12H   EDATA    INT       icm20602_gyro_z
*DEL*:00000000H   CODE     ---       icm20602_init
*SFR* 000000A8H   DATA     BYTE      IE
*SFR* 000000AFH   DATA     BYTE      IE2
*DEL*:00000000H   CODE     ---       iic_change_pin
*DEL*:00000000H   CODE     ---       iic_delay_us
*DEL*:00000000H   CODE     ---       iic_init
*DEL*:00000000H   CODE     ---       iic_read_reg
*DEL*:00000000H   CODE     ---       iic_read_reg_bytes
*DEL*:00000000H   CODE     ---       iic_write_reg
*DEL*:00000000H   CODE     ---       imu660ra_acc_transition
      00000A14H   EDATA    INT       imu660ra_acc_x
      00000A16H   EDATA    INT       imu660ra_acc_y
      00000A18H   EDATA    INT       imu660ra_acc_z
      00FF012DH   CODE     ---       imu660ra_config_file
*DEL*:00000000H   CODE     ---       imu660ra_get_acc
      00FF836CH   CODE     ---       imu660ra_get_gyro
*DEL*:00000000H   CODE     ---       imu660ra_gyro_transition
L251 LINKER/LOCATER V4.66.93.0                                                        04/24/2024  17:02:24  PAGE 25


      00000A1AH   EDATA    INT       imu660ra_gyro_x
      00000A1CH   EDATA    INT       imu660ra_gyro_y
      00000A1EH   EDATA    INT       imu660ra_gyro_z
      00FF7713H   CODE     ---       imu660ra_init
*DEL*:00000000H   CODE     ---       imu963ra_acc_transition
      000008C8H   EDATA    INT       imu963ra_acc_x
      000008CAH   EDATA    INT       imu963ra_acc_y
      000008CCH   EDATA    INT       imu963ra_acc_z
*DEL*:00000000H   CODE     ---       imu963ra_get_acc
*DEL*:00000000H   CODE     ---       imu963ra_get_gyro
*DEL*:00000000H   CODE     ---       imu963ra_get_mag
*DEL*:00000000H   CODE     ---       imu963ra_gyro_transition
      000008D4H   EDATA    INT       imu963ra_gyro_x
      000008D6H   EDATA    INT       imu963ra_gyro_y
      000008D8H   EDATA    INT       imu963ra_gyro_z
*DEL*:00000000H   CODE     ---       imu963ra_init
*DEL*:00000000H   CODE     ---       imu963ra_mag_transition
      000008CEH   EDATA    INT       imu963ra_mag_x
      000008D0H   EDATA    INT       imu963ra_mag_y
      000008D2H   EDATA    INT       imu963ra_mag_z
      000000FAH   EDATA    INT       Inductance_Error
      00FF8688H   CODE     ---       Inductance_Init
      00FF0086H   CODE     ---       INT0_Isr
      00FF000AH   CODE     ---       INT1_Isr
      00FF008EH   CODE     ---       INT2_Isr
      00FF0096H   CODE     ---       INT3_Isr
      00FF009EH   CODE     ---       INT4_Isr
*SFR* 0000008FH   DATA     BYTE      INTCLKO
*SFR* 000000B8H   DATA     BYTE      IP
*SFR* 000000B5H   DATA     BYTE      IP2
*SFR* 000000B6H   DATA     BYTE      IP2H
*SFR* 000000DFH   DATA     BYTE      IP3
*SFR* 000000EEH   DATA     BYTE      IP3H
*SFR* 000000B7H   DATA     BYTE      IPH
*DEL*:00000000H   CODE     ---       ips114_clear
*DEL*:00000000H   CODE     ---       ips114_clear_simspi
*DEL*:00000000H   CODE     ---       ips114_drawpoint
*DEL*:00000000H   CODE     ---       ips114_drawpoint_simspi
*DEL*:00000000H   CODE     ---       ips114_init
*DEL*:00000000H   CODE     ---       ips114_init_simspi
*DEL*:00000000H   CODE     ---       ips114_set_region
*DEL*:00000000H   CODE     ---       ips114_set_region_simspi
*DEL*:00000000H   CODE     ---       ips114_showchar
*DEL*:00000000H   CODE     ---       ips114_showchar_simspi
*DEL*:00000000H   CODE     ---       ips114_showfloat
*DEL*:00000000H   CODE     ---       ips114_showfloat_simspi
*DEL*:00000000H   CODE     ---       ips114_showint16
*DEL*:00000000H   CODE     ---       ips114_showint16_simspi
*DEL*:00000000H   CODE     ---       ips114_showint32
*DEL*:00000000H   CODE     ---       ips114_showint32_simspi
*DEL*:00000000H   CODE     ---       ips114_showint8
*DEL*:00000000H   CODE     ---       ips114_showint8_simspi
*DEL*:00000000H   CODE     ---       ips114_showstr
*DEL*:00000000H   CODE     ---       ips114_showstr_simspi
*DEL*:00000000H   CODE     ---       ips114_showuint16
*DEL*:00000000H   CODE     ---       ips114_showuint16_simspi
*DEL*:00000000H   CODE     ---       ips114_showuint8
*DEL*:00000000H   CODE     ---       ips114_showuint8_simspi
*DEL*:00000000H   CODE     ---       ips114_writeData
*DEL*:00000000H   CODE     ---       ips114_writedata_16bit
*DEL*:00000000H   CODE     ---       ips114_writeData_simspi
*DEL*:00000000H   CODE     ---       ips114_writeDatai_16bit_simspi
*DEL*:00000000H   CODE     ---       ips114_writeIndex
*DEL*:00000000H   CODE     ---       ips114_writeIndex_simspi
*SFR* 0000009DH   DATA     BYTE      IRCBAND
L251 LINKER/LOCATER V4.66.93.0                                                        04/24/2024  17:02:24  PAGE 26


*SFR* 0000009FH   DATA     BYTE      IRTRIM
*SFR* 00000088H.0 DATA     BIT       IT0
*SFR* 00000088H.2 DATA     BIT       IT1
      00000108H   EDATA    WORD      L1
      000000FCH   EDATA    WORD      L1_NOR_ADC
      0000010EH   EDATA    WORD      L2
      00000100H   EDATA    WORD      L2_NOR_ADC
      0000000AH   EDATA    WORD      L3
      00000102H   EDATA    WORD      L3_NOR_ADC
*DEL*:00000000H   CODE     ---       L_Enc_integral
      00FF89A6H   CODE     ---       L_Encoder_Pulse
      000007C6H   EDATA    INT       L_Pulse
*DEL*:00000000H   CODE     ---       lcd_clear
*DEL*:00000000H   CODE     ---       lcd_clear_simspi
*DEL*:00000000H   CODE     ---       lcd_drawpoint
*DEL*:00000000H   CODE     ---       lcd_drawpoint_simspi
*DEL*:00000000H   CODE     ---       lcd_init
*DEL*:00000000H   CODE     ---       lcd_init_simspi
*DEL*:00000000H   CODE     ---       lcd_set_region
*DEL*:00000000H   CODE     ---       lcd_set_region_simspi
*DEL*:00000000H   CODE     ---       lcd_showchar
*DEL*:00000000H   CODE     ---       lcd_showchar_simspi
*DEL*:00000000H   CODE     ---       lcd_showfloat
*DEL*:00000000H   CODE     ---       lcd_showfloat_simspi
*DEL*:00000000H   CODE     ---       lcd_showint16
*DEL*:00000000H   CODE     ---       lcd_showint16_simspi
*DEL*:00000000H   CODE     ---       lcd_showint32
*DEL*:00000000H   CODE     ---       lcd_showint32_simspi
*DEL*:00000000H   CODE     ---       lcd_showint8
*DEL*:00000000H   CODE     ---       lcd_showint8_simspi
*DEL*:00000000H   CODE     ---       lcd_showstr
*DEL*:00000000H   CODE     ---       lcd_showstr_simspi
*DEL*:00000000H   CODE     ---       lcd_showuint16
*DEL*:00000000H   CODE     ---       lcd_showuint16_simspi
*DEL*:00000000H   CODE     ---       lcd_showuint8
*DEL*:00000000H   CODE     ---       lcd_showuint8_simspi
*DEL*:00000000H   CODE     ---       lcd_writeData
*DEL*:00000000H   CODE     ---       lcd_writedata_16bit
*DEL*:00000000H   CODE     ---       lcd_writeData_16bit_simspi
*DEL*:00000000H   CODE     ---       lcd_writeData_simspi
*DEL*:00000000H   CODE     ---       lcd_writeIndex
*DEL*:00000000H   CODE     ---       lcd_writeIndex_simspi
      00000030H   EDATA    WORD      Left_Val
      00FF878BH   CODE     ---       limit
*SFR* 000000F9H   DATA     BYTE      LINICR
*DEL*:00000000H   CODE     ---       lowPassFilter
      0000010CH   EDATA    WORD      M1
      000000FEH   EDATA    WORD      M1_NOR_ADC
      00FF7567H   CODE     ---       main
*DEL*:00000000H   CODE     ---       medianFilter1
      00FF895EH   CODE     ---       memcpy?_
*DEL*:00000000H   CODE     ---       memset?_
      00000DD1H   EDATA    INT       menu
      00000422H   EDATA    FLOAT     Motor_I
      00FF846DH   CODE     ---       Motor_Init
      00000426H   EDATA    FLOAT     Motor_P
      000003FAH   EDATA    ---       Motor_pid
      00FF7EA5H   CODE     ---       Motor_PWM
      00FF85F4H   CODE     ---       Motor_SET_PID
      00000A5CH   EDATA    INT       mpu6050_acc_x
      00000A5EH   EDATA    INT       mpu6050_acc_y
      00000A60H   EDATA    INT       mpu6050_acc_z
*DEL*:00000000H   CODE     ---       mpu6050_get_accdata
*DEL*:00000000H   CODE     ---       mpu6050_get_gyro
      00000A62H   EDATA    INT       mpu6050_gyro_x
L251 LINKER/LOCATER V4.66.93.0                                                        04/24/2024  17:02:24  PAGE 27


      00000A64H   EDATA    INT       mpu6050_gyro_y
      00000A66H   EDATA    INT       mpu6050_gyro_z
*DEL*:00000000H   CODE     ---       mpu6050_init
*DEL*:00000000H   CODE     ---       mpu6050_simiic_read_reg
*DEL*:00000000H   CODE     ---       mpu6050_simiic_read_regs
      000006E9H   EDATA    FLOAT     Nh_D
      000007C0H   EDATA    INT       nh_out
      000006F1H   EDATA    FLOAT     Nh_P
      00FF7C15H   CODE     ---       nh_Turn_Out
      0000004EH   EDATA    ---       NOR_VAL
      00FF4C4EH   CODE     ---       NORMALIZATION_TRACKING_ADC
      00FF728FH   CODE     ---       number_conversion_ascii
*DEL*:00000000H   CODE     ---       NVIC_SetPriority
      00FF2D0DH   CODE     ---       oled_6x8
      00FF212DH   CODE     ---       oled_8x16
*DEL*:00000000H   CODE     ---       oled_clrpixel
*DEL*:00000000H   CODE     ---       oled_clrpixel_spi
*DEL*:00000000H   CODE     ---       oled_dis_bmp
*DEL*:00000000H   CODE     ---       oled_dis_bmp_spi
      00FF82B7H   CODE     ---       oled_fill
*DEL*:00000000H   CODE     ---       oled_fill_spi
      00FF7F18H   CODE     ---       oled_hexascii
*DEL*:00000000H   CODE     ---       oled_hexascii_spi
      00FF7B6DH   CODE     ---       oled_init
*DEL*:00000000H   CODE     ---       oled_init_spi
      00FF7E32H   CODE     ---       oled_int16
*DEL*:00000000H   CODE     ---       oled_int16_spi
      00FF7642H   CODE     ---       oled_p6x8str
*DEL*:00000000H   CODE     ---       oled_p6x8str_spi
      00FF7056H   CODE     ---       oled_p8x16str
*DEL*:00000000H   CODE     ---       oled_p8x16str_spi
*DEL*:00000000H   CODE     ---       oled_print_chinese
*DEL*:00000000H   CODE     ---       oled_print_chinese_spi
*DEL*:00000000H   CODE     ---       oled_printf_float
      00FF6CB7H   CODE     ---       oled_printf_float_px8
*DEL*:00000000H   CODE     ---       oled_printf_float_spi
*DEL*:00000000H   CODE     ---       oled_printf_int32
*DEL*:00000000H   CODE     ---       oled_printf_int32_spi
*DEL*:00000000H   CODE     ---       oled_putpixel
*DEL*:00000000H   CODE     ---       oled_putpixel_spi
      00FF8834H   CODE     ---       oled_set_pos
*DEL*:00000000H   CODE     ---       oled_set_pos_spi
      00FF88EAH   CODE     ---       oled_uint16
      00FF8911H   CODE     ---       oled_uint16_px8
*DEL*:00000000H   CODE     ---       oled_uint16_spi
      00FF855CH   CODE     ---       oled_wrcmd
*DEL*:00000000H   CODE     ---       oled_wrcmd_spi
      00FF85A8H   CODE     ---       oled_wrdat
*DEL*:00000000H   CODE     ---       oled_wrdat_spi
*SFR* 00000080H   DATA     BYTE      P0
*SFR* 00000080H.0 DATA     BIT       P00
*SFR* 00000080H.4 DATA     BIT       P04
*SFR* 00000080H.7 DATA     BIT       P07
*SFR* 00000094H   DATA     BYTE      P0M0
*SFR* 00000093H   DATA     BYTE      P0M1
*SFR* 00000090H   DATA     BYTE      P1
*SFR* 00000090H.3 DATA     BIT       P13
*SFR* 00000090H.5 DATA     BIT       P15
*SFR* 00000090H.6 DATA     BIT       P16
*SFR* 00000092H   DATA     BYTE      P1M0
*SFR* 00000091H   DATA     BYTE      P1M1
*SFR* 000000A0H   DATA     BYTE      P2
*SFR* 000000A0H.0 DATA     BIT       P20
*SFR* 000000A0H.1 DATA     BIT       P21
*SFR* 000000A0H.2 DATA     BIT       P22
L251 LINKER/LOCATER V4.66.93.0                                                        04/24/2024  17:02:24  PAGE 28


*SFR* 000000A0H.3 DATA     BIT       P23
*SFR* 000000A0H.4 DATA     BIT       P24
*SFR* 000000A0H.5 DATA     BIT       P25
*SFR* 000000A0H.6 DATA     BIT       P26
*SFR* 000000A0H.7 DATA     BIT       P27
*SFR* 00000096H   DATA     BYTE      P2M0
*SFR* 00000095H   DATA     BYTE      P2M1
*SFR* 000000B0H   DATA     BYTE      P3
*SFR* 000000B0H.2 DATA     BIT       P32
*SFR* 000000B0H.3 DATA     BIT       P33
*SFR* 000000B0H.6 DATA     BIT       P36
*SFR* 000000B0H.7 DATA     BIT       P37
*SFR* 000000B2H   DATA     BYTE      P3M0
*SFR* 000000B1H   DATA     BYTE      P3M1
*SFR* 000000C0H   DATA     BYTE      P4
*SFR* 000000C0H.0 DATA     BIT       P40
*SFR* 000000C0H.1 DATA     BIT       P41
*SFR* 000000C0H.2 DATA     BIT       P42
*SFR* 000000C0H.3 DATA     BIT       P43
*SFR* 000000C0H.4 DATA     BIT       P44
*SFR* 000000B4H   DATA     BYTE      P4M0
*SFR* 000000B3H   DATA     BYTE      P4M1
*SFR* 000000C8H   DATA     BYTE      P5
*SFR* 000000C8H.0 DATA     BIT       P50
*SFR* 000000C8H.2 DATA     BIT       P52
*SFR* 000000CAH   DATA     BYTE      P5M0
*SFR* 000000C9H   DATA     BYTE      P5M1
*SFR* 000000E8H   DATA     BYTE      P6
*SFR* 000000CCH   DATA     BYTE      P6M0
*SFR* 000000CBH   DATA     BYTE      P6M1
*SFR* 000000F8H   DATA     BYTE      P7
*SFR* 000000E2H   DATA     BYTE      P7M0
*SFR* 000000E1H   DATA     BYTE      P7M1
*SFR* 000000A2H   DATA     BYTE      P_SW1
*SFR* 000000BAH   DATA     BYTE      P_SW2
*SFR* 000000BBH   DATA     BYTE      P_SW3
*SFR* 00000087H   DATA     BYTE      PCON
      00FF73A6H   CODE     ---       pit_timer_ms
      00FF3F1DH   CODE     NEAR LAB  printf
      00FF7CB1H   CODE     ---       printf_reverse_order
*SFR* 000000D0H   DATA     BYTE      PSW
      00FF8A8BH   CODE     ---       putchar
      00FF8F6BH   HCONST   ---       PWM_ARR_ADDR
      00FF8F73H   HCONST   ---       PWM_CCER_ADDR
      00FF8F83H   HCONST   ---       PWM_CCMR_ADDR
      00FF8F4BH   HCONST   ---       PWM_CCR_ADDR
      00FF7177H   CODE     ---       pwm_duty
*DEL*:00000000H   CODE     ---       pwm_freq
      00FF5CB1H   CODE     ---       pwm_init
      00FF608BH   CODE     ---       pwm_set_gpio
      0000000CH   EDATA    WORD      R1
      00000106H   EDATA    WORD      R1_NOR_ADC
      0000000EH   EDATA    WORD      R2
      0000010AH   EDATA    WORD      R2_NOR_ADC
      00000010H   EDATA    WORD      R3
      00000008H   EDATA    WORD      R3_NOR_ADC
*DEL*:00000000H   CODE     ---       R_Enc_integral
      00FF8938H   CODE     ---       R_Encoder_Pulse
      000007CCH   EDATA    INT       R_Pulse
      000002A3H   EDATA    INT       RAngle_Flag
*DEL*:00000000H   CODE     ---       recv_ack
*DEL*:00000000H   CODE     ---       recv_data
*DEL*:00000000H   CODE     ---       Right_Angle
      00000012H   EDATA    WORD      Right_Val
      000002BBH   EDATA    INT       ring_flag
L251 LINKER/LOCATER V4.66.93.0                                                        04/24/2024  17:02:24  PAGE 29


      000002D1H   EDATA    INT       RING_FLAG1
      000002D3H   EDATA    INT       RING_FLAG2
      000002D5H   EDATA    INT       RING_FLAG3
      000002D7H   EDATA    INT       RING_FLAG4
*DEL*:00000000H   CODE     ---       Roundabout
*SFR* 000000FFH   DATA     BYTE      RSTCFG
*SFR* 0000009BH   DATA     BYTE      S2BUF
*SFR* 0000009AH   DATA     BYTE      S2CON
*SFR* 000000ADH   DATA     BYTE      S3BUF
*SFR* 000000ACH   DATA     BYTE      S3CON
*SFR* 000000FEH   DATA     BYTE      S4BUF
*SFR* 000000FDH   DATA     BYTE      S4CON
*SFR* 00000099H   DATA     BYTE      SBUF
*SFR* 00000098H   DATA     BYTE      SCON
      00FF3842H   CODE     ---       Second__NWHuan_menu
      00FF7899H   CODE     ---       Second__Speed_menu
      00FF6A92H   CODE     ---       Second_Element_menu
      00FF58AAH   CODE     ---       Second_Motor_menu
*DEL*:00000000H   CODE     ---       Send4DataToVofa
*DEL*:00000000H   CODE     ---       send_ack
*DEL*:00000000H   CODE     ---       send_data
*DEL*:00000000H   CODE     ---       send_nak
      00FF527EH   CODE     ---       set_clk
      000002CDH   EDATA    INT       set_speed
*DEL*:00000000H   CODE     ---       set_zero_position_simspi
*DEL*:00000000H   CODE     ---       set_zero_position_spi
      000002B1H   EDATA    INT       shizi_flag
*DEL*:00000000H   CODE     ---       Show_AllVal
      00FF6F34H   CODE     ---       show_val
      00FF87C6H   CODE     ---       Show_Val_Menu
*DEL*:00000000H   CODE     ---       showimage
*DEL*:00000000H   CODE     ---       simspi_r_reg_byte
*DEL*:00000000H   CODE     ---       simspi_w_reg_byte
*DEL*:00000000H   CODE     ---       simspi_wr_byte
*DEL*:00000000H   CODE     ---       SIN?_
*SFR* 000000CEH   DATA     BYTE      SPCTL
*SFR* 000000CFH   DATA     BYTE      SPDAT
      000007C2H   EDATA    INT       speed
      00FF748BH   CODE     ---       Speed_pid_Out
*DEL*:00000000H   CODE     ---       Speed_Plan
      000002A1H   EDATA    INT       Speed_Plan1
*DEL*:00000000H   CODE     ---       spi_change_mode
*DEL*:00000000H   CODE     ---       spi_change_pin
*DEL*:00000000H   CODE     ---       spi_init
*DEL*:00000000H   CODE     ---       spi_mosi
*DEL*:00000000H   CODE     ---       spi_r_reg_byte
*DEL*:00000000H   CODE     ---       spi_w_reg_byte
*DEL*:00000000H   CODE     ---       spi_wr_byte
*SFR* 000000CDH   DATA     BYTE      SPSTAT
      00FF77DFH   CODE     ---       sq
*DEL*:00000000H   CODE     ---       SQRT?_
*DEL*:00000000H   CODE     ---       start
*DEL*:00000000H   CODE     ---       stop
      00000291H   EDATA    FLOAT     Sub_motor_i
      00000299H   EDATA    FLOAT     Sub_motor_p
*DEL*:00000000H   CODE     ---       Sub_Pid
      000002AFH   EDATA    INT       Sub_speed
      000002BDH   EDATA    FLOAT     Sub_wh_d
      000002C9H   EDATA    FLOAT     Sub_wh_p
      000007C4H   EDATA    INT       Sum_Pulse
      00000D77H   EDATA    LONG      sys_clk
      00000D6DH   EDATA    DWORD     SysTickFlag
*SFR* 000000D6H   DATA     BYTE      T2H
*SFR* 000000D7H   DATA     BYTE      T2L
*SFR* 000000D4H   DATA     BYTE      T3H
L251 LINKER/LOCATER V4.66.93.0                                                        04/24/2024  17:02:24  PAGE 30


*SFR* 000000D5H   DATA     BYTE      T3L
*SFR* 000000D2H   DATA     BYTE      T4H
*SFR* 000000D3H   DATA     BYTE      T4L
*SFR* 000000DDH   DATA     BYTE      T4T3M
*SFR* 000000AEH   DATA     BYTE      TA
*DEL*:00000000H   CODE     ---       TAN?_
*SFR* 00000088H   DATA     BYTE      TCON
      00FF271DH   CODE     ---       tft_ascii
*SFR* 0000008CH   DATA     BYTE      TH0
*SFR* 0000008DH   DATA     BYTE      TH1
*SFR* 0000008AH   DATA     BYTE      TL0
*SFR* 0000008BH   DATA     BYTE      TL1
      00FF8A37H   CODE     ---       TM0_Isr
      00FF8ABEH   CODE     ---       TM1_Isr
      00FF8AD4H   CODE     ---       TM2_Isr
      00FF8AD8H   CODE     ---       TM3_Isr
      00FF8194H   CODE     ---       TM4_Isr
*SFR* 00000089H   DATA     BYTE      TMOD
*SFR* 00000088H.4 DATA     BIT       TR0
*SFR* 00000088H.6 DATA     BIT       TR1
      000002DBH   EDATA    INT       Track_flag
      00FF812DH   CODE     ---       Tracking
      00000110H   EDATA    BYTE      tsl1401_finish_flag
      00FF86CFH   CODE     ---       UART1_Isr
      00FF8A03H   CODE     ---       UART2_Isr
      00FF8A1DH   CODE     ---       UART3_Isr
      00FF81F9H   CODE     ---       UART4_Isr
      00FF67DFH   CODE     ---       uart_init
*DEL*:00000000H   CODE     ---       uart_putbuff
      00FF7DBDH   CODE     ---       uart_putchar
*DEL*:00000000H   CODE     ---       uart_putstr
*SFR* 000000F4H   DATA     BYTE      USBCON
      00000B31H   EDATA    ---       virtual_scope_data
*SFR* 000000A6H   DATA     BYTE      VRTRIM
*DEL*:00000000H   CODE     ---       wait
*SFR* 000000C1H   DATA     BYTE      WDT_CONTR
      000006EDH   EDATA    FLOAT     Wh_D
      000006F5H   EDATA    FLOAT     Wh_P
      00FF805BH   CODE     ---       wh_Turn_Out
      00000E2EH   EDATA    INT       wireless_type
      00FF89E9H   CODE     ---       wireless_uart_callback
*DEL*:00000000H   CODE     ---       wireless_uart_init
*DEL*:00000000H   CODE     ---       wireless_uart_read_buff
*DEL*:00000000H   CODE     ---       wireless_uart_send_buff
*DEL*:00000000H   CODE     ---       wireless_uart_send_byte
*SFR* 000000E9H   DATA     BYTE      WTST
      00000D83H   EDATA    WORD      zf_delay_ms
      00000D85H   EDATA    WORD      zf_delay_us
      00FF45EDH   CODE     ---       zf_sprintf



SYMBOL TABLE OF MODULE:  .\Out_File\SEEKFREE (board)

      VALUE       REP       CLASS    TYPE      SYMBOL NAME
      ====================================================
      ---         MODULE    ---      ---       board
      00FF0006H   PUBLIC    CODE     ---       EnableGlobalIRQ
      00FF7D46H   PUBLIC    CODE     ---       board_init
      00FF8A64H   PUBLIC    CODE     ---       clock_init
      00FF8A9DH   PUBLIC    CODE     ---       ICacheOn
      00FF527EH   PUBLIC    CODE     ---       set_clk
      00FF8A8BH   PUBLIC    CODE     ---       putchar
      00000D77H   PUBLIC    EDATA    LONG      sys_clk
      00000094H   SFRSYM    DATA     BYTE      P0M0
L251 LINKER/LOCATER V4.66.93.0                                                        04/24/2024  17:02:24  PAGE 31


      000000D0H   SFRSYM    DATA     BYTE      PSW
      0000009DH   SFRSYM    DATA     BYTE      IRCBAND
      00000097H   SFRSYM    DATA     BYTE      AUXR2
      000000EFH   SFRSYM    DATA     BYTE      AUXINTIF
      000000FDH   SFRSYM    DATA     BYTE      S4CON
      000000ACH   SFRSYM    DATA     BYTE      S3CON
      0000009AH   SFRSYM    DATA     BYTE      S2CON
      000000A6H   SFRSYM    DATA     BYTE      VRTRIM
      000000B7H   SFRSYM    DATA     BYTE      IPH
      000000CDH   SFRSYM    DATA     BYTE      SPSTAT
      000000DDH   SFRSYM    DATA     BYTE      T4T3M
      0000009FH   SFRSYM    DATA     BYTE      IRTRIM
      000000C1H   SFRSYM    DATA     BYTE      WDT_CONTR
      000000E9H   SFRSYM    DATA     BYTE      WTST
      000000DFH   SFRSYM    DATA     BYTE      IP3
      000000F4H   SFRSYM    DATA     BYTE      USBCON
      000000B5H   SFRSYM    DATA     BYTE      IP2
      000000FFH   SFRSYM    DATA     BYTE      RSTCFG
      000000C7H   SFRSYM    DATA     BYTE      IAP_CONTR
      000000F9H   SFRSYM    DATA     BYTE      LINICR
      0000008EH   SFRSYM    DATA     BYTE      AUXR
      000000AFH   SFRSYM    DATA     BYTE      IE2
      00000088H   SFRSYM    DATA     BYTE      TCON
      00000089H   SFRSYM    DATA     BYTE      TMOD
      00000098H   SFRSYM    DATA     BYTE      SCON
      000000F1H   SFRSYM    DATA     BYTE      CANICR
      00000087H   SFRSYM    DATA     BYTE      PCON
      000000BCH   SFRSYM    DATA     BYTE      ADC_CONTR
      000000F7H   SFRSYM    DATA     BYTE      ICHECR
      000000E7H   SFRSYM    DATA     BYTE      CMPCR2
      000000E6H   SFRSYM    DATA     BYTE      CMPCR1
      000000DEH   SFRSYM    DATA     BYTE      ADCCFG
      000000B8H   SFRSYM    DATA     BYTE      IP
      0000008FH   SFRSYM    DATA     BYTE      INTCLKO
      000000AEH   SFRSYM    DATA     BYTE      TA
      000000EEH   SFRSYM    DATA     BYTE      IP3H
      000000B6H   SFRSYM    DATA     BYTE      IP2H
      000000A8H   SFRSYM    DATA     BYTE      IE
      000000BBH   SFRSYM    DATA     BYTE      P_SW3
      000000BAH   SFRSYM    DATA     BYTE      P_SW2
      000000A2H   SFRSYM    DATA     BYTE      P_SW1
      000000CEH   SFRSYM    DATA     BYTE      SPCTL
      000000F8H   SFRSYM    DATA     BYTE      P7
      000000A8H.7 SFRSYM    DATA     BIT       EA
      000000E8H   SFRSYM    DATA     BYTE      P6
      000000C8H   SFRSYM    DATA     BYTE      P5
      000000C0H   SFRSYM    DATA     BYTE      P4
      000000C9H   SFRSYM    DATA     BYTE      P5M1
      000000B0H   SFRSYM    DATA     BYTE      P3
      000000B3H   SFRSYM    DATA     BYTE      P4M1
      000000CAH   SFRSYM    DATA     BYTE      P5M0
      000000A0H   SFRSYM    DATA     BYTE      P2
      000000B1H   SFRSYM    DATA     BYTE      P3M1
      000000B4H   SFRSYM    DATA     BYTE      P4M0
      00000090H   SFRSYM    DATA     BYTE      P1
      00000095H   SFRSYM    DATA     BYTE      P2M1
      000000B2H   SFRSYM    DATA     BYTE      P3M0
      00000080H   SFRSYM    DATA     BYTE      P0
      00000091H   SFRSYM    DATA     BYTE      P1M1
      00000096H   SFRSYM    DATA     BYTE      P2M0
      00000092H   SFRSYM    DATA     BYTE      P1M0
      00000093H   SFRSYM    DATA     BYTE      P0M1

      00FF527EH   BLOCK     CODE     ---       LVL=0
      00000BF0H   SYMBOL    EDATA    DWORD     clock
L251 LINKER/LOCATER V4.66.93.0                                                        04/24/2024  17:02:24  PAGE 32


      00FF5282H   BLOCK     CODE     NEAR LAB  LVL=1
      00000BF4H   SYMBOL    EDATA    DWORD     temp_sys_clk
      ---         BLOCKEND  ---      ---       LVL=1
      00FF527EH   LINE      CODE     ---       #35
      00FF5282H   LINE      CODE     ---       #36
      00FF5282H   LINE      CODE     ---       #37
      00FF5288H   LINE      CODE     ---       #40
      00FF5369H   LINE      CODE     ---       #42
      00FF5369H   LINE      CODE     ---       #44
      00FF5376H   LINE      CODE     ---       #45
      00FF5383H   LINE      CODE     ---       #46
      00FF5390H   LINE      CODE     ---       #47
      00FF5394H   LINE      CODE     ---       #48
      00FF5397H   LINE      CODE     ---       #49
      00FF5398H   LINE      CODE     ---       #50
      00FF5399H   LINE      CODE     ---       #51
      00FF539AH   LINE      CODE     ---       #52
      00FF539BH   LINE      CODE     ---       #53
      00FF53A8H   LINE      CODE     ---       #54
      00FF53B0H   LINE      CODE     ---       #55
      00FF53B3H   LINE      CODE     ---       #57
      00FF53B3H   LINE      CODE     ---       #59
      00FF53C0H   LINE      CODE     ---       #60
      00FF53CDH   LINE      CODE     ---       #61
      00FF53DAH   LINE      CODE     ---       #62
      00FF53DEH   LINE      CODE     ---       #63
      00FF53E1H   LINE      CODE     ---       #64
      00FF53E2H   LINE      CODE     ---       #65
      00FF53E3H   LINE      CODE     ---       #66
      00FF53E4H   LINE      CODE     ---       #67
      00FF53E5H   LINE      CODE     ---       #68
      00FF53F2H   LINE      CODE     ---       #69
      00FF53FAH   LINE      CODE     ---       #70
      00FF53FDH   LINE      CODE     ---       #72
      00FF53FDH   LINE      CODE     ---       #74
      00FF540AH   LINE      CODE     ---       #75
      00FF5417H   LINE      CODE     ---       #76
      00FF5424H   LINE      CODE     ---       #77
      00FF5428H   LINE      CODE     ---       #78
      00FF542BH   LINE      CODE     ---       #79
      00FF542CH   LINE      CODE     ---       #80
      00FF542DH   LINE      CODE     ---       #81
      00FF542EH   LINE      CODE     ---       #82
      00FF542FH   LINE      CODE     ---       #83
      00FF543CH   LINE      CODE     ---       #84
      00FF5444H   LINE      CODE     ---       #85
      00FF5447H   LINE      CODE     ---       #87
      00FF5447H   LINE      CODE     ---       #89
      00FF5454H   LINE      CODE     ---       #90
      00FF5461H   LINE      CODE     ---       #91
      00FF546EH   LINE      CODE     ---       #92
      00FF5472H   LINE      CODE     ---       #93
      00FF5473H   LINE      CODE     ---       #94
      00FF5474H   LINE      CODE     ---       #95
      00FF5475H   LINE      CODE     ---       #96
      00FF5476H   LINE      CODE     ---       #97
      00FF5479H   LINE      CODE     ---       #98
      00FF5486H   LINE      CODE     ---       #99
      00FF548EH   LINE      CODE     ---       #100
      00FF5491H   LINE      CODE     ---       #102
      00FF5491H   LINE      CODE     ---       #104
      00FF549EH   LINE      CODE     ---       #105
      00FF54ABH   LINE      CODE     ---       #106
      00FF54B8H   LINE      CODE     ---       #107
      00FF54BCH   LINE      CODE     ---       #108
L251 LINKER/LOCATER V4.66.93.0                                                        04/24/2024  17:02:24  PAGE 33


      00FF54BFH   LINE      CODE     ---       #109
      00FF54C0H   LINE      CODE     ---       #110
      00FF54C1H   LINE      CODE     ---       #111
      00FF54C2H   LINE      CODE     ---       #112
      00FF54C3H   LINE      CODE     ---       #113
      00FF54D0H   LINE      CODE     ---       #114
      00FF54D8H   LINE      CODE     ---       #115
      00FF54DBH   LINE      CODE     ---       #117
      00FF54DBH   LINE      CODE     ---       #119
      00FF54E8H   LINE      CODE     ---       #120
      00FF54F5H   LINE      CODE     ---       #121
      00FF5502H   LINE      CODE     ---       #122
      00FF5506H   LINE      CODE     ---       #123
      00FF5509H   LINE      CODE     ---       #124
      00FF550AH   LINE      CODE     ---       #125
      00FF550BH   LINE      CODE     ---       #126
      00FF550CH   LINE      CODE     ---       #127
      00FF550DH   LINE      CODE     ---       #128
      00FF551AH   LINE      CODE     ---       #129
      00FF5522H   LINE      CODE     ---       #130
      00FF5525H   LINE      CODE     ---       #132
      00FF5525H   LINE      CODE     ---       #134
      00FF5532H   LINE      CODE     ---       #135
      00FF553FH   LINE      CODE     ---       #136
      00FF554CH   LINE      CODE     ---       #137
      00FF5550H   LINE      CODE     ---       #138
      00FF5553H   LINE      CODE     ---       #139
      00FF5554H   LINE      CODE     ---       #140
      00FF5555H   LINE      CODE     ---       #141
      00FF5556H   LINE      CODE     ---       #142
      00FF5557H   LINE      CODE     ---       #143
      00FF5564H   LINE      CODE     ---       #144
      00FF556CH   LINE      CODE     ---       #145
      00FF556FH   LINE      CODE     ---       #147
      00FF556FH   LINE      CODE     ---       #149
      00FF557CH   LINE      CODE     ---       #150
      00FF5589H   LINE      CODE     ---       #151
      00FF5596H   LINE      CODE     ---       #152
      00FF559AH   LINE      CODE     ---       #153
      00FF559DH   LINE      CODE     ---       #154
      00FF559EH   LINE      CODE     ---       #155
      00FF559FH   LINE      CODE     ---       #156
      00FF55A0H   LINE      CODE     ---       #157
      00FF55A1H   LINE      CODE     ---       #158
      00FF55AEH   LINE      CODE     ---       #159
      00FF55B6H   LINE      CODE     ---       #160
      00FF55B9H   LINE      CODE     ---       #162
      00FF55B9H   LINE      CODE     ---       #164
      00FF55C6H   LINE      CODE     ---       #165
      00FF55D3H   LINE      CODE     ---       #166
      00FF55E0H   LINE      CODE     ---       #167
      00FF55E4H   LINE      CODE     ---       #168
      00FF55E7H   LINE      CODE     ---       #169
      00FF55E8H   LINE      CODE     ---       #170
      00FF55E9H   LINE      CODE     ---       #171
      00FF55EAH   LINE      CODE     ---       #172
      00FF55EBH   LINE      CODE     ---       #173
      00FF55F8H   LINE      CODE     ---       #174
      00FF5600H   LINE      CODE     ---       #175
      00FF5603H   LINE      CODE     ---       #177
      00FF5603H   LINE      CODE     ---       #179
      00FF5610H   LINE      CODE     ---       #180
      00FF561DH   LINE      CODE     ---       #181
      00FF562AH   LINE      CODE     ---       #182
      00FF562EH   LINE      CODE     ---       #183
L251 LINKER/LOCATER V4.66.93.0                                                        04/24/2024  17:02:24  PAGE 34


      00FF5631H   LINE      CODE     ---       #184
      00FF5632H   LINE      CODE     ---       #185
      00FF5633H   LINE      CODE     ---       #186
      00FF5634H   LINE      CODE     ---       #187
      00FF5635H   LINE      CODE     ---       #188
      00FF5642H   LINE      CODE     ---       #189
      00FF564AH   LINE      CODE     ---       #190
      00FF564DH   LINE      CODE     ---       #192
      00FF564DH   LINE      CODE     ---       #194
      00FF565AH   LINE      CODE     ---       #195
      00FF5667H   LINE      CODE     ---       #196
      00FF5674H   LINE      CODE     ---       #197
      00FF5678H   LINE      CODE     ---       #198
      00FF567CH   LINE      CODE     ---       #199
      00FF567DH   LINE      CODE     ---       #200
      00FF567EH   LINE      CODE     ---       #201
      00FF567FH   LINE      CODE     ---       #202
      00FF5680H   LINE      CODE     ---       #203
      00FF568DH   LINE      CODE     ---       #204
      00FF5695H   LINE      CODE     ---       #205
      00FF5698H   LINE      CODE     ---       #207
      00FF5698H   LINE      CODE     ---       #209
      00FF56A5H   LINE      CODE     ---       #210
      00FF56B2H   LINE      CODE     ---       #211
      00FF56BFH   LINE      CODE     ---       #212
      00FF56C3H   LINE      CODE     ---       #213
      00FF56C7H   LINE      CODE     ---       #214
      00FF56C8H   LINE      CODE     ---       #215
      00FF56C9H   LINE      CODE     ---       #216
      00FF56CAH   LINE      CODE     ---       #217
      00FF56CBH   LINE      CODE     ---       #218
      00FF56D8H   LINE      CODE     ---       #219
      00FF56E0H   LINE      CODE     ---       #220
      00FF56E3H   LINE      CODE     ---       #222
      00FF56E3H   LINE      CODE     ---       #224
      00FF56F0H   LINE      CODE     ---       #225
      00FF56FDH   LINE      CODE     ---       #226
      00FF570AH   LINE      CODE     ---       #227
      00FF570EH   LINE      CODE     ---       #228
      00FF5712H   LINE      CODE     ---       #229
      00FF5713H   LINE      CODE     ---       #230
      00FF5714H   LINE      CODE     ---       #231
      00FF5715H   LINE      CODE     ---       #232
      00FF5716H   LINE      CODE     ---       #233
      00FF5723H   LINE      CODE     ---       #234
      00FF572BH   LINE      CODE     ---       #235
      00FF572EH   LINE      CODE     ---       #237
      00FF572EH   LINE      CODE     ---       #239
      00FF573BH   LINE      CODE     ---       #240
      00FF5748H   LINE      CODE     ---       #241
      00FF5755H   LINE      CODE     ---       #242
      00FF5759H   LINE      CODE     ---       #243
      00FF575DH   LINE      CODE     ---       #244
      00FF575EH   LINE      CODE     ---       #245
      00FF575FH   LINE      CODE     ---       #246
      00FF5760H   LINE      CODE     ---       #247
      00FF5761H   LINE      CODE     ---       #248
      00FF576EH   LINE      CODE     ---       #249
      00FF5776H   LINE      CODE     ---       #250
      00FF5779H   LINE      CODE     ---       #252
      00FF5779H   LINE      CODE     ---       #254
      00FF5786H   LINE      CODE     ---       #255
      00FF5793H   LINE      CODE     ---       #256
      00FF57A0H   LINE      CODE     ---       #257
      00FF57A4H   LINE      CODE     ---       #258
L251 LINKER/LOCATER V4.66.93.0                                                        04/24/2024  17:02:24  PAGE 35


      00FF57A8H   LINE      CODE     ---       #259
      00FF57A9H   LINE      CODE     ---       #260
      00FF57AAH   LINE      CODE     ---       #261
      00FF57ABH   LINE      CODE     ---       #262
      00FF57ACH   LINE      CODE     ---       #263
      00FF57B9H   LINE      CODE     ---       #264
      00FF57C1H   LINE      CODE     ---       #265
      00FF57C4H   LINE      CODE     ---       #267
      00FF57C4H   LINE      CODE     ---       #269
      00FF57D1H   LINE      CODE     ---       #270
      00FF57DEH   LINE      CODE     ---       #271
      00FF57EBH   LINE      CODE     ---       #272
      00FF57EFH   LINE      CODE     ---       #273
      00FF57F3H   LINE      CODE     ---       #274
      00FF57F4H   LINE      CODE     ---       #275
      00FF57F5H   LINE      CODE     ---       #276
      00FF57F6H   LINE      CODE     ---       #277
      00FF57F7H   LINE      CODE     ---       #278
      00FF5804H   LINE      CODE     ---       #279
      00FF580CH   LINE      CODE     ---       #280
      00FF580FH   LINE      CODE     ---       #282
      00FF580FH   LINE      CODE     ---       #284
      00FF581CH   LINE      CODE     ---       #285
      00FF5829H   LINE      CODE     ---       #286
      00FF5836H   LINE      CODE     ---       #287
      00FF583AH   LINE      CODE     ---       #288
      00FF583EH   LINE      CODE     ---       #289
      00FF583FH   LINE      CODE     ---       #290
      00FF5840H   LINE      CODE     ---       #291
      00FF5841H   LINE      CODE     ---       #292
      00FF5842H   LINE      CODE     ---       #293
      00FF584FH   LINE      CODE     ---       #294
      00FF5857H   LINE      CODE     ---       #295
      00FF5859H   LINE      CODE     ---       #307
      00FF5859H   LINE      CODE     ---       #309
      00FF5866H   LINE      CODE     ---       #310
      00FF5873H   LINE      CODE     ---       #311
      00FF5880H   LINE      CODE     ---       #312
      00FF5884H   LINE      CODE     ---       #313
      00FF5888H   LINE      CODE     ---       #314
      00FF5889H   LINE      CODE     ---       #315
      00FF588AH   LINE      CODE     ---       #316
      00FF588BH   LINE      CODE     ---       #317
      00FF588CH   LINE      CODE     ---       #318
      00FF5899H   LINE      CODE     ---       #319
      00FF58A5H   LINE      CODE     ---       #320
      00FF58A5H   LINE      CODE     ---       #321
      00FF58A5H   LINE      CODE     ---       #323
      00FF58A9H   LINE      CODE     ---       #324
      ---         BLOCKEND  ---      ---       LVL=0

      00FF8A8BH   BLOCK     CODE     ---       LVL=0
      00000E90H   SYMBOL    EDATA    CHAR      c
      00FF8A8BH   LINE      CODE     ---       #333
      00FF8A8FH   LINE      CODE     ---       #335
      00FF8A98H   LINE      CODE     ---       #337
      00FF8A9CH   LINE      CODE     ---       #338
      ---         BLOCKEND  ---      ---       LVL=0

      00FF0006H   BLOCK     CODE     ---       LVL=0
      00FF0006H   LINE      CODE     ---       #347
      00FF0006H   LINE      CODE     ---       #349
      00FF0009H   LINE      CODE     ---       #350
      ---         BLOCKEND  ---      ---       LVL=0

L251 LINKER/LOCATER V4.66.93.0                                                        04/24/2024  17:02:24  PAGE 36


      00FF8A9DH   BLOCK     CODE     ---       LVL=0
      00FF8A9DH   LINE      CODE     ---       #385
      00FF8A9DH   LINE      CODE     ---       #387
      00FF8A9EH   LINE      CODE     ---       #388
      00FF8A9FH   LINE      CODE     ---       #389
      00FF8AA3H   LINE      CODE     ---       #391
      00FF8AA7H   LINE      CODE     ---       #393
      00FF8AABH   LINE      CODE     ---       #395
      00FF8AACH   LINE      CODE     ---       #396
      00FF8AADH   LINE      CODE     ---       #397
      ---         BLOCKEND  ---      ---       LVL=0

      00FF8A64H   BLOCK     CODE     ---       LVL=0
      00000D7BH   SYMBOL    EDATA    DWORD     clock
      00FF8A64H   LINE      CODE     ---       #399
      00FF8A68H   LINE      CODE     ---       #401
      00FF8A6CH   LINE      CODE     ---       #409
      00FF8A77H   LINE      CODE     ---       #413
      ---         BLOCKEND  ---      ---       LVL=0

      00FF7D46H   BLOCK     CODE     ---       LVL=0
      00FF7D46H   LINE      CODE     ---       #416
      00FF7D46H   LINE      CODE     ---       #419
      00FF7D49H   LINE      CODE     ---       #422
      00FF7D4CH   LINE      CODE     ---       #423
      00FF7D4FH   LINE      CODE     ---       #424
      00FF7D52H   LINE      CODE     ---       #425
      00FF7D55H   LINE      CODE     ---       #426
      00FF7D58H   LINE      CODE     ---       #427
      00FF7D5BH   LINE      CODE     ---       #428
      00FF7D5EH   LINE      CODE     ---       #429
      00FF7D61H   LINE      CODE     ---       #430
      00FF7D64H   LINE      CODE     ---       #431
      00FF7D67H   LINE      CODE     ---       #432
      00FF7D6AH   LINE      CODE     ---       #433
      00FF7D6DH   LINE      CODE     ---       #452
      00FF7D70H   LINE      CODE     ---       #454
      00FF7D80H   LINE      CODE     ---       #459
      00FF7D83H   LINE      CODE     ---       #460
      00FF7D83H   LINE      CODE     ---       #464
      00FF7D86H   LINE      CODE     ---       #465
      00FF7D89H   LINE      CODE     ---       #466
      00FF7D8CH   LINE      CODE     ---       #467
      00FF7D8FH   LINE      CODE     ---       #468
      00FF7D92H   LINE      CODE     ---       #469
      00FF7D95H   LINE      CODE     ---       #470
      00FF7D98H   LINE      CODE     ---       #471
      00FF7D9BH   LINE      CODE     ---       #472
      00FF7D9EH   LINE      CODE     ---       #474
      00FF7DB9H   LINE      CODE     ---       #475
      00FF7DBCH   LINE      CODE     ---       #476
      ---         BLOCKEND  ---      ---       LVL=0

      ---         MODULE    ---      ---       common
      00000E2EH   PUBLIC    EDATA    INT       wireless_type
      000000D0H   SFRSYM    DATA     BYTE      PSW
      0000009DH   SFRSYM    DATA     BYTE      IRCBAND
      00000097H   SFRSYM    DATA     BYTE      AUXR2
      000000EFH   SFRSYM    DATA     BYTE      AUXINTIF
      000000FDH   SFRSYM    DATA     BYTE      S4CON
      000000ACH   SFRSYM    DATA     BYTE      S3CON
      0000009AH   SFRSYM    DATA     BYTE      S2CON
      000000B7H   SFRSYM    DATA     BYTE      IPH
      000000CDH   SFRSYM    DATA     BYTE      SPSTAT
      000000DDH   SFRSYM    DATA     BYTE      T4T3M
L251 LINKER/LOCATER V4.66.93.0                                                        04/24/2024  17:02:24  PAGE 37


      000000C1H   SFRSYM    DATA     BYTE      WDT_CONTR
      000000DFH   SFRSYM    DATA     BYTE      IP3
      000000F4H   SFRSYM    DATA     BYTE      USBCON
      000000B5H   SFRSYM    DATA     BYTE      IP2
      000000FFH   SFRSYM    DATA     BYTE      RSTCFG
      000000C7H   SFRSYM    DATA     BYTE      IAP_CONTR
      000000F9H   SFRSYM    DATA     BYTE      LINICR
      0000008EH   SFRSYM    DATA     BYTE      AUXR
      000000AFH   SFRSYM    DATA     BYTE      IE2
      00000088H   SFRSYM    DATA     BYTE      TCON
      00000089H   SFRSYM    DATA     BYTE      TMOD
      00000098H   SFRSYM    DATA     BYTE      SCON
      000000F1H   SFRSYM    DATA     BYTE      CANICR
      00000087H   SFRSYM    DATA     BYTE      PCON
      000000BCH   SFRSYM    DATA     BYTE      ADC_CONTR
      000000E7H   SFRSYM    DATA     BYTE      CMPCR2
      000000E6H   SFRSYM    DATA     BYTE      CMPCR1
      000000DEH   SFRSYM    DATA     BYTE      ADCCFG
      000000B8H   SFRSYM    DATA     BYTE      IP
      0000008FH   SFRSYM    DATA     BYTE      INTCLKO
      000000EEH   SFRSYM    DATA     BYTE      IP3H
      000000B6H   SFRSYM    DATA     BYTE      IP2H
      000000A8H   SFRSYM    DATA     BYTE      IE
      000000BBH   SFRSYM    DATA     BYTE      P_SW3
      000000BAH   SFRSYM    DATA     BYTE      P_SW2
      000000A2H   SFRSYM    DATA     BYTE      P_SW1
      000000CEH   SFRSYM    DATA     BYTE      SPCTL
      000000F8H   SFRSYM    DATA     BYTE      P7
      000000E8H   SFRSYM    DATA     BYTE      P6
      000000C8H   SFRSYM    DATA     BYTE      P5
      000000C0H   SFRSYM    DATA     BYTE      P4
      000000B0H   SFRSYM    DATA     BYTE      P3
      000000A0H   SFRSYM    DATA     BYTE      P2
      00000090H   SFRSYM    DATA     BYTE      P1
      00000080H   SFRSYM    DATA     BYTE      P0

      ---         MODULE    ---      ---       STC32F_FPMU
      00FF8AC8H   PUBLIC    CODE     ---       ?C?CASTF
      00FF8ACEH   PUBLIC    CODE     ---       ?C?FCASTI
      00FF005EH   PUBLIC    CODE     ---       ?C?FCASTL
      00FF000EH   PUBLIC    CODE     ---       ?C?FPADD
      00FF0046H   PUBLIC    CODE     ---       ?C?FPCMP3
      00FF0056H   PUBLIC    CODE     ---       ?C?FPDIV
      00FF001EH   PUBLIC    CODE     ---       ?C?FPMUL
      00FF0016H   PUBLIC    CODE     ---       ?C?FPSUB
      000000E0H   SFRSYM    DATA     BYTE      ACC
      000000EDH   SFRSYM    DATA     BYTE      DMAIR
      00000083H   SFRSYM    DATA     BYTE      DPH
      00000082H   SFRSYM    DATA     BYTE      DPL
      0000001CH   SYMBOL    NUMBER   ---       DMA_FPADD
      00000030H   SYMBOL    NUMBER   ---       DMA_FPATAN
      00000027H   SYMBOL    NUMBER   ---       DMA_FPCLD
      00000032H   SYMBOL    NUMBER   ---       DMA_FPCLEX
      00000021H   SYMBOL    NUMBER   ---       DMA_FPCMP
      0000002EH   SYMBOL    NUMBER   ---       DMA_FPCOS
      00000035H   SYMBOL    NUMBER   ---       DMA_FPCRR
      00000036H   SYMBOL    NUMBER   ---       DMA_FPCRW
      00000023H   SYMBOL    NUMBER   ---       DMA_FPCST
      0000001FH   SYMBOL    NUMBER   ---       DMA_FPDIV
      00000028H   SYMBOL    NUMBER   ---       DMA_FPILD
      00000031H   SYMBOL    NUMBER   ---       DMA_FPINIT
      00000024H   SYMBOL    NUMBER   ---       DMA_FPIST
      00000029H   SYMBOL    NUMBER   ---       DMA_FPLLD
      00000025H   SYMBOL    NUMBER   ---       DMA_FPLST
      0000001EH   SYMBOL    NUMBER   ---       DMA_FPMUL
L251 LINKER/LOCATER V4.66.93.0                                                        04/24/2024  17:02:24  PAGE 38


      0000002DH   SYMBOL    NUMBER   ---       DMA_FPSIN
      00000020H   SYMBOL    NUMBER   ---       DMA_FPSQRT
      00000033H   SYMBOL    NUMBER   ---       DMA_FPSRR
      00000034H   SYMBOL    NUMBER   ---       DMA_FPSRW
      0000001DH   SYMBOL    NUMBER   ---       DMA_FPSUB
      0000002FH   SYMBOL    NUMBER   ---       DMA_FPTAN
      00000022H   SYMBOL    NUMBER   ---       DMA_FPXAM
      00000001H   SYMBOL    NUMBER   ---       FP_CONV_EN
      00000001H   SYMBOL    NUMBER   ---       FP_REGS_EN
      00000001H   SYMBOL    NUMBER   ---       FP_TRIG_EN

      00FF000EH   BLOCK     CODE     NEAR LAB  LVL=0
      00FF000EH   LINE      CODE     ---       #62
      00FF0011H   LINE      CODE     ---       #63
      ---         BLOCKEND  ---      ---       LVL=0

      00FF0016H   BLOCK     CODE     NEAR LAB  LVL=0
      00FF0016H   LINE      CODE     ---       #72
      00FF0019H   LINE      CODE     ---       #73
      ---         BLOCKEND  ---      ---       LVL=0

      00FF001EH   BLOCK     CODE     NEAR LAB  LVL=0
      00FF001EH   LINE      CODE     ---       #82
      00FF0021H   LINE      CODE     ---       #83
      ---         BLOCKEND  ---      ---       LVL=0

      00FF0056H   BLOCK     CODE     NEAR LAB  LVL=0
      00FF0056H   LINE      CODE     ---       #92
      00FF0059H   LINE      CODE     ---       #93
      ---         BLOCKEND  ---      ---       LVL=0

      00FF0046H   BLOCK     CODE     NEAR LAB  LVL=0
      00FF0046H   LINE      CODE     ---       #113
      00FF0049H   LINE      CODE     ---       #114
      00FF004BH   LINE      CODE     ---       #115
      00FF004DH   LINE      CODE     ---       #116
      00FF004FH   LINE      CODE     ---       #117
      00FF0051H   LINE      CODE     ---       #118
      ---         BLOCKEND  ---      ---       LVL=0

      00FF8AC8H   BLOCK     CODE     NEAR LAB  LVL=0
      00FF8AC8H   LINE      CODE     ---       #213
      00FF8ACBH   LINE      CODE     ---       #214
      00FF8ACDH   LINE      CODE     ---       #215
      ---         BLOCKEND  ---      ---       LVL=0

      00FF8ACEH   BLOCK     CODE     NEAR LAB  LVL=0
      00FF8ACEH   LINE      CODE     ---       #235
      00FF8AD0H   LINE      CODE     ---       #236
      00FF8AD3H   LINE      CODE     ---       #237
      ---         BLOCKEND  ---      ---       LVL=0

      00FF005EH   BLOCK     CODE     NEAR LAB  LVL=0
      00FF005EH   LINE      CODE     ---       #246
      00FF0061H   LINE      CODE     ---       #247
      ---         BLOCKEND  ---      ---       LVL=0

      ---         MODULE    ---      ---       zf_adc
      00FF83C3H   PUBLIC    CODE     ---       adc_once
      00FF794FH   PUBLIC    CODE     ---       adc_init
      00000094H   SFRSYM    DATA     BYTE      P0M0
      000000D0H   SFRSYM    DATA     BYTE      PSW
      0000009DH   SFRSYM    DATA     BYTE      IRCBAND
      00000097H   SFRSYM    DATA     BYTE      AUXR2
      000000EFH   SFRSYM    DATA     BYTE      AUXINTIF
L251 LINKER/LOCATER V4.66.93.0                                                        04/24/2024  17:02:24  PAGE 39


      000000FDH   SFRSYM    DATA     BYTE      S4CON
      000000ACH   SFRSYM    DATA     BYTE      S3CON
      0000009AH   SFRSYM    DATA     BYTE      S2CON
      000000B7H   SFRSYM    DATA     BYTE      IPH
      000000CDH   SFRSYM    DATA     BYTE      SPSTAT
      000000BEH   SFRSYM    DATA     BYTE      ADC_RESL
      000000DDH   SFRSYM    DATA     BYTE      T4T3M
      000000C1H   SFRSYM    DATA     BYTE      WDT_CONTR
      000000DFH   SFRSYM    DATA     BYTE      IP3
      000000F4H   SFRSYM    DATA     BYTE      USBCON
      000000B5H   SFRSYM    DATA     BYTE      IP2
      000000FFH   SFRSYM    DATA     BYTE      RSTCFG
      000000C7H   SFRSYM    DATA     BYTE      IAP_CONTR
      000000F9H   SFRSYM    DATA     BYTE      LINICR
      0000008EH   SFRSYM    DATA     BYTE      AUXR
      000000AFH   SFRSYM    DATA     BYTE      IE2
      00000088H   SFRSYM    DATA     BYTE      TCON
      00000089H   SFRSYM    DATA     BYTE      TMOD
      00000098H   SFRSYM    DATA     BYTE      SCON
      000000F1H   SFRSYM    DATA     BYTE      CANICR
      00000087H   SFRSYM    DATA     BYTE      PCON
      000000BCH   SFRSYM    DATA     BYTE      ADC_CONTR
      000000E7H   SFRSYM    DATA     BYTE      CMPCR2
      000000E6H   SFRSYM    DATA     BYTE      CMPCR1
      000000DEH   SFRSYM    DATA     BYTE      ADCCFG
      000000B8H   SFRSYM    DATA     BYTE      IP
      0000008FH   SFRSYM    DATA     BYTE      INTCLKO
      000000EEH   SFRSYM    DATA     BYTE      IP3H
      000000B6H   SFRSYM    DATA     BYTE      IP2H
      000000BDH   SFRSYM    DATA     BYTE      ADC_RES
      000000A8H   SFRSYM    DATA     BYTE      IE
      000000BBH   SFRSYM    DATA     BYTE      P_SW3
      000000BAH   SFRSYM    DATA     BYTE      P_SW2
      000000A2H   SFRSYM    DATA     BYTE      P_SW1
      000000CEH   SFRSYM    DATA     BYTE      SPCTL
      000000F8H   SFRSYM    DATA     BYTE      P7
      000000E8H   SFRSYM    DATA     BYTE      P6
      000000C8H   SFRSYM    DATA     BYTE      P5
      000000C0H   SFRSYM    DATA     BYTE      P4
      000000B0H   SFRSYM    DATA     BYTE      P3
      000000A0H   SFRSYM    DATA     BYTE      P2
      00000090H   SFRSYM    DATA     BYTE      P1
      00000080H   SFRSYM    DATA     BYTE      P0
      00000091H   SFRSYM    DATA     BYTE      P1M1
      00000092H   SFRSYM    DATA     BYTE      P1M0
      00000093H   SFRSYM    DATA     BYTE      P0M1

      00FF794FH   BLOCK     CODE     ---       LVL=0
      00000D7FH   SYMBOL    EDATA    INT       adcn
      00000D81H   SYMBOL    EDATA    INT       speed
      00FF794FH   LINE      CODE     ---       #32
      00FF7957H   LINE      CODE     ---       #34
      00FF795AH   LINE      CODE     ---       #36
      00FF795DH   LINE      CODE     ---       #37
      00FF7965H   LINE      CODE     ---       #39
      00FF7977H   LINE      CODE     ---       #42
      00FF7992H   LINE      CODE     ---       #43
      00FF79ABH   LINE      CODE     ---       #44
      00FF79ADH   LINE      CODE     ---       #45
      00FF79BDH   LINE      CODE     ---       #48
      00FF79D8H   LINE      CODE     ---       #49
      00FF79F1H   LINE      CODE     ---       #50
      00FF79F1H   LINE      CODE     ---       #52
      00FF7A00H   LINE      CODE     ---       #54
      00FF7A03H   LINE      CODE     ---       #55
L251 LINKER/LOCATER V4.66.93.0                                                        04/24/2024  17:02:24  PAGE 40


      ---         BLOCKEND  ---      ---       LVL=0

      00FF83C3H   BLOCK     CODE     ---       LVL=0
      00000C92H   SYMBOL    EDATA    INT       adcn
      00000C94H   SYMBOL    EDATA    INT       resolution
      00FF83CBH   BLOCK     CODE     NEAR LAB  LVL=1
      00000C96H   SYMBOL    EDATA    WORD      adc_value
      ---         BLOCKEND  ---      ---       LVL=1
      00FF83C3H   LINE      CODE     ---       #66
      00FF83CBH   LINE      CODE     ---       #67
      00FF83CBH   LINE      CODE     ---       #70
      00FF83CEH   LINE      CODE     ---       #71
      00FF83D6H   LINE      CODE     ---       #73
      00FF83D9H   LINE      CODE     ---       #74
      00FF83DEH   LINE      CODE     ---       #75
      00FF83E1H   LINE      CODE     ---       #77
      00FF83E9H   LINE      CODE     ---       #78
      00FF83F1H   LINE      CODE     ---       #79
      00FF83FFH   LINE      CODE     ---       #81
      00FF8402H   LINE      CODE     ---       #82
      00FF8405H   LINE      CODE     ---       #84
      00FF8418H   LINE      CODE     ---       #87
      00FF8418H   LINE      CODE     ---       #88
      ---         BLOCKEND  ---      ---       LVL=0

      ---         MODULE    ---      ---       zf_delay
      00FF8983H   PUBLIC    CODE     ---       delay_init
      00FF87FFH   PUBLIC    CODE     ---       delay_ms
      00000D83H   PUBLIC    EDATA    WORD      zf_delay_ms
      00000D85H   PUBLIC    EDATA    WORD      zf_delay_us
      000000D0H   SFRSYM    DATA     BYTE      PSW
      0000009DH   SFRSYM    DATA     BYTE      IRCBAND
      00000097H   SFRSYM    DATA     BYTE      AUXR2
      000000EFH   SFRSYM    DATA     BYTE      AUXINTIF
      000000FDH   SFRSYM    DATA     BYTE      S4CON
      000000ACH   SFRSYM    DATA     BYTE      S3CON
      0000009AH   SFRSYM    DATA     BYTE      S2CON
      000000B7H   SFRSYM    DATA     BYTE      IPH
      000000CDH   SFRSYM    DATA     BYTE      SPSTAT
      000000DDH   SFRSYM    DATA     BYTE      T4T3M
      000000C1H   SFRSYM    DATA     BYTE      WDT_CONTR
      000000DFH   SFRSYM    DATA     BYTE      IP3
      000000F4H   SFRSYM    DATA     BYTE      USBCON
      000000B5H   SFRSYM    DATA     BYTE      IP2
      000000FFH   SFRSYM    DATA     BYTE      RSTCFG
      000000C7H   SFRSYM    DATA     BYTE      IAP_CONTR
      000000F9H   SFRSYM    DATA     BYTE      LINICR
      0000008EH   SFRSYM    DATA     BYTE      AUXR
      000000AFH   SFRSYM    DATA     BYTE      IE2
      00000088H   SFRSYM    DATA     BYTE      TCON
      00000089H   SFRSYM    DATA     BYTE      TMOD
      00000098H   SFRSYM    DATA     BYTE      SCON
      000000F1H   SFRSYM    DATA     BYTE      CANICR
      00000087H   SFRSYM    DATA     BYTE      PCON
      000000BCH   SFRSYM    DATA     BYTE      ADC_CONTR
      000000E7H   SFRSYM    DATA     BYTE      CMPCR2
      000000E6H   SFRSYM    DATA     BYTE      CMPCR1
      000000DEH   SFRSYM    DATA     BYTE      ADCCFG
      000000B8H   SFRSYM    DATA     BYTE      IP
      0000008FH   SFRSYM    DATA     BYTE      INTCLKO
      000000EEH   SFRSYM    DATA     BYTE      IP3H
      000000B6H   SFRSYM    DATA     BYTE      IP2H
      000000A8H   SFRSYM    DATA     BYTE      IE
      000000BBH   SFRSYM    DATA     BYTE      P_SW3
      000000BAH   SFRSYM    DATA     BYTE      P_SW2
L251 LINKER/LOCATER V4.66.93.0                                                        04/24/2024  17:02:24  PAGE 41


      000000A2H   SFRSYM    DATA     BYTE      P_SW1
      000000CEH   SFRSYM    DATA     BYTE      SPCTL
      000000F8H   SFRSYM    DATA     BYTE      P7
      000000E8H   SFRSYM    DATA     BYTE      P6
      000000C8H   SFRSYM    DATA     BYTE      P5
      000000C0H   SFRSYM    DATA     BYTE      P4
      000000B0H   SFRSYM    DATA     BYTE      P3
      000000A0H   SFRSYM    DATA     BYTE      P2
      00000090H   SFRSYM    DATA     BYTE      P1
      00000080H   SFRSYM    DATA     BYTE      P0

      00FF8983H   BLOCK     CODE     ---       LVL=0
      00FF8983H   LINE      CODE     ---       #34
      00FF8983H   LINE      CODE     ---       #36
      00FF8992H   LINE      CODE     ---       #37
      00FF89A5H   LINE      CODE     ---       #38
      ---         BLOCKEND  ---      ---       LVL=0

      00FF87FFH   BLOCK     CODE     ---       LVL=0
      00000D87H   SYMBOL    EDATA    WORD      ms
      00FF8803H   BLOCK     CODE     NEAR LAB  LVL=1
      00000D89H   SYMBOL    EDATA    WORD      i
      ---         BLOCKEND  ---      ---       LVL=1
      00FF87FFH   LINE      CODE     ---       #46
      00FF8803H   LINE      CODE     ---       #47
      00FF8803H   LINE      CODE     ---       #49
      00FF8803H   LINE      CODE     ---       #50
      00FF880BH   LINE      CODE     ---       #51
      00FF881FH   LINE      CODE     ---       #52
      00FF8833H   LINE      CODE     ---       #53
      ---         BLOCKEND  ---      ---       LVL=0
      00000C98H   SYMBOL    EDATA    DWORD     us
      00000C9CH   SYMBOL    EDATA    WORD      i

      ---         MODULE    ---      ---       zf_eeprom
      00000AC3H   PUBLIC    EDATA    BYTE      ?iap_read_bytes?BYTE
      00000ACDH   PUBLIC    EDATA    BYTE      ?iap_write_bytes?BYTE
      000000D0H   SFRSYM    DATA     BYTE      PSW
      0000009DH   SFRSYM    DATA     BYTE      IRCBAND
      000000D0H.5 SFRSYM    DATA     BIT       F0
      00000097H   SFRSYM    DATA     BYTE      AUXR2
      000000C6H   SFRSYM    DATA     BYTE      IAP_TRIG
      000000EFH   SFRSYM    DATA     BYTE      AUXINTIF
      000000FDH   SFRSYM    DATA     BYTE      S4CON
      000000ACH   SFRSYM    DATA     BYTE      S3CON
      0000009AH   SFRSYM    DATA     BYTE      S2CON
      000000B7H   SFRSYM    DATA     BYTE      IPH
      000000CDH   SFRSYM    DATA     BYTE      SPSTAT
      000000DDH   SFRSYM    DATA     BYTE      T4T3M
      000000C1H   SFRSYM    DATA     BYTE      WDT_CONTR
      000000C2H   SFRSYM    DATA     BYTE      IAP_DATA
      000000DFH   SFRSYM    DATA     BYTE      IP3
      000000F4H   SFRSYM    DATA     BYTE      USBCON
      000000B5H   SFRSYM    DATA     BYTE      IP2
      000000FFH   SFRSYM    DATA     BYTE      RSTCFG
      000000C7H   SFRSYM    DATA     BYTE      IAP_CONTR
      000000F9H   SFRSYM    DATA     BYTE      LINICR
      0000008EH   SFRSYM    DATA     BYTE      AUXR
      000000AFH   SFRSYM    DATA     BYTE      IE2
      00000088H   SFRSYM    DATA     BYTE      TCON
      00000089H   SFRSYM    DATA     BYTE      TMOD
      00000098H   SFRSYM    DATA     BYTE      SCON
      000000F5H   SFRSYM    DATA     BYTE      IAP_TPS
      000000F1H   SFRSYM    DATA     BYTE      CANICR
      00000087H   SFRSYM    DATA     BYTE      PCON
L251 LINKER/LOCATER V4.66.93.0                                                        04/24/2024  17:02:24  PAGE 42


      000000BCH   SFRSYM    DATA     BYTE      ADC_CONTR
      000000E7H   SFRSYM    DATA     BYTE      CMPCR2
      000000E6H   SFRSYM    DATA     BYTE      CMPCR1
      000000C4H   SFRSYM    DATA     BYTE      IAP_ADDRL
      000000C3H   SFRSYM    DATA     BYTE      IAP_ADDRH
      000000F6H   SFRSYM    DATA     BYTE      IAP_ADDRE
      000000DEH   SFRSYM    DATA     BYTE      ADCCFG
      000000B8H   SFRSYM    DATA     BYTE      IP
      0000008FH   SFRSYM    DATA     BYTE      INTCLKO
      000000EEH   SFRSYM    DATA     BYTE      IP3H
      000000B6H   SFRSYM    DATA     BYTE      IP2H
      000000C5H   SFRSYM    DATA     BYTE      IAP_CMD
      000000A8H   SFRSYM    DATA     BYTE      IE
      000000BBH   SFRSYM    DATA     BYTE      P_SW3
      000000BAH   SFRSYM    DATA     BYTE      P_SW2
      000000A2H   SFRSYM    DATA     BYTE      P_SW1
      000000CEH   SFRSYM    DATA     BYTE      SPCTL
      000000F8H   SFRSYM    DATA     BYTE      P7
      000000A8H.7 SFRSYM    DATA     BIT       EA
      000000E8H   SFRSYM    DATA     BYTE      P6
      000000C8H   SFRSYM    DATA     BYTE      P5
      000000C0H   SFRSYM    DATA     BYTE      P4
      000000B0H   SFRSYM    DATA     BYTE      P3
      000000A0H   SFRSYM    DATA     BYTE      P2
      00000090H   SFRSYM    DATA     BYTE      P1
      00000080H   SFRSYM    DATA     BYTE      P0
      00000E91H   SYMBOL    EDATA    BYTE      write_time
      00000AC3H   SYMBOL    EDATA    DWORD     addr
      00000AC7H   SYMBOL    EDATA    ---       buf
      00000ACBH   SYMBOL    EDATA    WORD      len
      00000ACDH   SYMBOL    EDATA    DWORD     addr
      00000AD1H   SYMBOL    EDATA    ---       buf
      00000AD5H   SYMBOL    EDATA    WORD      len
      00000D8BH   SYMBOL    EDATA    DWORD     addr

      ---         MODULE    ---      ---       zf_exti
      000000D0H   SFRSYM    DATA     BYTE      PSW
      0000009DH   SFRSYM    DATA     BYTE      IRCBAND
      00000097H   SFRSYM    DATA     BYTE      AUXR2
      000000EFH   SFRSYM    DATA     BYTE      AUXINTIF
      000000FDH   SFRSYM    DATA     BYTE      S4CON
      000000ACH   SFRSYM    DATA     BYTE      S3CON
      0000009AH   SFRSYM    DATA     BYTE      S2CON
      000000B7H   SFRSYM    DATA     BYTE      IPH
      000000CDH   SFRSYM    DATA     BYTE      SPSTAT
      000000DDH   SFRSYM    DATA     BYTE      T4T3M
      000000C1H   SFRSYM    DATA     BYTE      WDT_CONTR
      00000088H.2 SFRSYM    DATA     BIT       IT1
      000000A8H.2 SFRSYM    DATA     BIT       EX1
      00000088H.0 SFRSYM    DATA     BIT       IT0
      000000A8H.0 SFRSYM    DATA     BIT       EX0
      000000DFH   SFRSYM    DATA     BYTE      IP3
      000000F4H   SFRSYM    DATA     BYTE      USBCON
      000000B5H   SFRSYM    DATA     BYTE      IP2
      000000FFH   SFRSYM    DATA     BYTE      RSTCFG
      000000C7H   SFRSYM    DATA     BYTE      IAP_CONTR
      000000F9H   SFRSYM    DATA     BYTE      LINICR
      0000008EH   SFRSYM    DATA     BYTE      AUXR
      000000AFH   SFRSYM    DATA     BYTE      IE2
      00000088H   SFRSYM    DATA     BYTE      TCON
      00000089H   SFRSYM    DATA     BYTE      TMOD
      00000098H   SFRSYM    DATA     BYTE      SCON
      000000F1H   SFRSYM    DATA     BYTE      CANICR
      00000087H   SFRSYM    DATA     BYTE      PCON
      000000BCH   SFRSYM    DATA     BYTE      ADC_CONTR
L251 LINKER/LOCATER V4.66.93.0                                                        04/24/2024  17:02:24  PAGE 43


      000000E7H   SFRSYM    DATA     BYTE      CMPCR2
      000000E6H   SFRSYM    DATA     BYTE      CMPCR1
      000000DEH   SFRSYM    DATA     BYTE      ADCCFG
      000000B8H   SFRSYM    DATA     BYTE      IP
      0000008FH   SFRSYM    DATA     BYTE      INTCLKO
      000000EEH   SFRSYM    DATA     BYTE      IP3H
      000000B6H   SFRSYM    DATA     BYTE      IP2H
      000000A8H   SFRSYM    DATA     BYTE      IE
      000000BBH   SFRSYM    DATA     BYTE      P_SW3
      000000BAH   SFRSYM    DATA     BYTE      P_SW2
      000000A2H   SFRSYM    DATA     BYTE      P_SW1
      000000CEH   SFRSYM    DATA     BYTE      SPCTL
      000000F8H   SFRSYM    DATA     BYTE      P7
      000000E8H   SFRSYM    DATA     BYTE      P6
      000000C8H   SFRSYM    DATA     BYTE      P5
      000000C0H   SFRSYM    DATA     BYTE      P4
      000000B0H   SFRSYM    DATA     BYTE      P3
      000000A0H   SFRSYM    DATA     BYTE      P2
      00000090H   SFRSYM    DATA     BYTE      P1
      00000080H   SFRSYM    DATA     BYTE      P0
      00000D8FH   SYMBOL    EDATA    INT       int_n
      00000D91H   SYMBOL    EDATA    INT       mode

      ---         MODULE    ---      ---       zf_gpio
      00FF2F35H   PUBLIC    CODE     ---       gpio_mode
      00000094H   SFRSYM    DATA     BYTE      P0M0
      000000D0H   SFRSYM    DATA     BYTE      PSW
      0000009DH   SFRSYM    DATA     BYTE      IRCBAND
      00000097H   SFRSYM    DATA     BYTE      AUXR2
      000000EFH   SFRSYM    DATA     BYTE      AUXINTIF
      000000FDH   SFRSYM    DATA     BYTE      S4CON
      000000ACH   SFRSYM    DATA     BYTE      S3CON
      0000009AH   SFRSYM    DATA     BYTE      S2CON
      000000B7H   SFRSYM    DATA     BYTE      IPH
      000000CDH   SFRSYM    DATA     BYTE      SPSTAT
      000000DDH   SFRSYM    DATA     BYTE      T4T3M
      000000C1H   SFRSYM    DATA     BYTE      WDT_CONTR
      000000DFH   SFRSYM    DATA     BYTE      IP3
      000000F4H   SFRSYM    DATA     BYTE      USBCON
      000000B5H   SFRSYM    DATA     BYTE      IP2
      000000FFH   SFRSYM    DATA     BYTE      RSTCFG
      000000C7H   SFRSYM    DATA     BYTE      IAP_CONTR
      000000F9H   SFRSYM    DATA     BYTE      LINICR
      0000008EH   SFRSYM    DATA     BYTE      AUXR
      000000AFH   SFRSYM    DATA     BYTE      IE2
      00000088H   SFRSYM    DATA     BYTE      TCON
      00000089H   SFRSYM    DATA     BYTE      TMOD
      00000098H   SFRSYM    DATA     BYTE      SCON
      000000F1H   SFRSYM    DATA     BYTE      CANICR
      00000087H   SFRSYM    DATA     BYTE      PCON
      000000BCH   SFRSYM    DATA     BYTE      ADC_CONTR
      000000E7H   SFRSYM    DATA     BYTE      CMPCR2
      000000E6H   SFRSYM    DATA     BYTE      CMPCR1
      000000DEH   SFRSYM    DATA     BYTE      ADCCFG
      000000B8H   SFRSYM    DATA     BYTE      IP
      0000008FH   SFRSYM    DATA     BYTE      INTCLKO
      000000EEH   SFRSYM    DATA     BYTE      IP3H
      000000B6H   SFRSYM    DATA     BYTE      IP2H
      000000A8H   SFRSYM    DATA     BYTE      IE
      000000BBH   SFRSYM    DATA     BYTE      P_SW3
      000000BAH   SFRSYM    DATA     BYTE      P_SW2
      000000A2H   SFRSYM    DATA     BYTE      P_SW1
      000000CEH   SFRSYM    DATA     BYTE      SPCTL
      000000F8H   SFRSYM    DATA     BYTE      P7
      000000E1H   SFRSYM    DATA     BYTE      P7M1
L251 LINKER/LOCATER V4.66.93.0                                                        04/24/2024  17:02:24  PAGE 44


      000000E8H   SFRSYM    DATA     BYTE      P6
      000000C8H   SFRSYM    DATA     BYTE      P5
      000000CBH   SFRSYM    DATA     BYTE      P6M1
      000000E2H   SFRSYM    DATA     BYTE      P7M0
      000000C0H   SFRSYM    DATA     BYTE      P4
      000000C9H   SFRSYM    DATA     BYTE      P5M1
      000000CCH   SFRSYM    DATA     BYTE      P6M0
      000000B0H   SFRSYM    DATA     BYTE      P3
      000000B3H   SFRSYM    DATA     BYTE      P4M1
      000000CAH   SFRSYM    DATA     BYTE      P5M0
      000000A0H   SFRSYM    DATA     BYTE      P2
      000000B1H   SFRSYM    DATA     BYTE      P3M1
      000000B4H   SFRSYM    DATA     BYTE      P4M0
      00000090H   SFRSYM    DATA     BYTE      P1
      00000095H   SFRSYM    DATA     BYTE      P2M1
      000000B2H   SFRSYM    DATA     BYTE      P3M0
      00000080H   SFRSYM    DATA     BYTE      P0
      00000091H   SFRSYM    DATA     BYTE      P1M1
      00000096H   SFRSYM    DATA     BYTE      P2M0
      00000092H   SFRSYM    DATA     BYTE      P1M0
      00000093H   SFRSYM    DATA     BYTE      P0M1
      00000D93H   SYMBOL    EDATA    INT       pin
      00000D95H   SYMBOL    EDATA    INT       pull

      00FF2F35H   BLOCK     CODE     ---       LVL=0
      00000D97H   SYMBOL    EDATA    INT       pin
      00000D99H   SYMBOL    EDATA    INT       mode
      00FF2F35H   LINE      CODE     ---       #54
      00FF2F3DH   LINE      CODE     ---       #56
      00FF2F4AH   LINE      CODE     ---       #58
      00FF2F5AH   LINE      CODE     ---       #60
      00FF2F75H   LINE      CODE     ---       #61
      00FF2F90H   LINE      CODE     ---       #62
      00FF2F90H   LINE      CODE     ---       #63
      00FF2FA2H   LINE      CODE     ---       #65
      00FF2FBDH   LINE      CODE     ---       #66
      00FF2FD8H   LINE      CODE     ---       #67
      00FF2FD8H   LINE      CODE     ---       #68
      00FF2FEAH   LINE      CODE     ---       #70
      00FF3005H   LINE      CODE     ---       #71
      00FF3020H   LINE      CODE     ---       #72
      00FF3020H   LINE      CODE     ---       #74
      00FF3032H   LINE      CODE     ---       #76
      00FF304DH   LINE      CODE     ---       #77
      00FF3068H   LINE      CODE     ---       #78
      00FF3068H   LINE      CODE     ---       #79
      00FF307AH   LINE      CODE     ---       #81
      00FF3095H   LINE      CODE     ---       #82
      00FF30B0H   LINE      CODE     ---       #83
      00FF30B0H   LINE      CODE     ---       #84
      00FF30C2H   LINE      CODE     ---       #86
      00FF30DDH   LINE      CODE     ---       #87
      00FF30F8H   LINE      CODE     ---       #88
      00FF30F8H   LINE      CODE     ---       #89
      00FF310AH   LINE      CODE     ---       #91
      00FF3125H   LINE      CODE     ---       #92
      00FF3140H   LINE      CODE     ---       #93
      00FF3140H   LINE      CODE     ---       #94
      00FF3155H   LINE      CODE     ---       #96
      00FF3170H   LINE      CODE     ---       #97
      00FF318BH   LINE      CODE     ---       #98
      00FF318EH   LINE      CODE     ---       #100
      00FF319DH   LINE      CODE     ---       #102
      00FF31ADH   LINE      CODE     ---       #104
      00FF31C8H   LINE      CODE     ---       #105
L251 LINKER/LOCATER V4.66.93.0                                                        04/24/2024  17:02:24  PAGE 45


      00FF31E1H   LINE      CODE     ---       #106
      00FF31E1H   LINE      CODE     ---       #107
      00FF31F3H   LINE      CODE     ---       #109
      00FF320EH   LINE      CODE     ---       #110
      00FF3227H   LINE      CODE     ---       #111
      00FF3227H   LINE      CODE     ---       #112
      00FF3239H   LINE      CODE     ---       #114
      00FF3254H   LINE      CODE     ---       #115
      00FF326DH   LINE      CODE     ---       #116
      00FF326DH   LINE      CODE     ---       #118
      00FF327FH   LINE      CODE     ---       #120
      00FF329AH   LINE      CODE     ---       #121
      00FF32B3H   LINE      CODE     ---       #122
      00FF32B3H   LINE      CODE     ---       #123
      00FF32C5H   LINE      CODE     ---       #125
      00FF32E0H   LINE      CODE     ---       #126
      00FF32F9H   LINE      CODE     ---       #127
      00FF32F9H   LINE      CODE     ---       #128
      00FF330BH   LINE      CODE     ---       #130
      00FF3326H   LINE      CODE     ---       #131
      00FF333FH   LINE      CODE     ---       #132
      00FF333FH   LINE      CODE     ---       #133
      00FF3351H   LINE      CODE     ---       #135
      00FF336CH   LINE      CODE     ---       #136
      00FF3385H   LINE      CODE     ---       #137
      00FF3385H   LINE      CODE     ---       #138
      00FF339AH   LINE      CODE     ---       #140
      00FF33B5H   LINE      CODE     ---       #141
      00FF33CEH   LINE      CODE     ---       #142
      00FF33D1H   LINE      CODE     ---       #145
      00FF33E0H   LINE      CODE     ---       #147
      00FF33F0H   LINE      CODE     ---       #149
      00FF3409H   LINE      CODE     ---       #150
      00FF3424H   LINE      CODE     ---       #151
      00FF3424H   LINE      CODE     ---       #152
      00FF3436H   LINE      CODE     ---       #154
      00FF344FH   LINE      CODE     ---       #155
      00FF346AH   LINE      CODE     ---       #156
      00FF346AH   LINE      CODE     ---       #157
      00FF347CH   LINE      CODE     ---       #159
      00FF3495H   LINE      CODE     ---       #160
      00FF34B0H   LINE      CODE     ---       #161
      00FF34B0H   LINE      CODE     ---       #163
      00FF34C2H   LINE      CODE     ---       #165
      00FF34DBH   LINE      CODE     ---       #166
      00FF34F6H   LINE      CODE     ---       #167
      00FF34F6H   LINE      CODE     ---       #168
      00FF3508H   LINE      CODE     ---       #170
      00FF3521H   LINE      CODE     ---       #171
      00FF353CH   LINE      CODE     ---       #172
      00FF353CH   LINE      CODE     ---       #173
      00FF354EH   LINE      CODE     ---       #175
      00FF3567H   LINE      CODE     ---       #176
      00FF3582H   LINE      CODE     ---       #177
      00FF3582H   LINE      CODE     ---       #178
      00FF3594H   LINE      CODE     ---       #180
      00FF35ADH   LINE      CODE     ---       #181
      00FF35C8H   LINE      CODE     ---       #182
      00FF35C8H   LINE      CODE     ---       #183
      00FF35DDH   LINE      CODE     ---       #185
      00FF35F6H   LINE      CODE     ---       #186
      00FF3611H   LINE      CODE     ---       #187
      00FF3614H   LINE      CODE     ---       #189
      00FF3623H   LINE      CODE     ---       #191
      00FF3633H   LINE      CODE     ---       #193
L251 LINKER/LOCATER V4.66.93.0                                                        04/24/2024  17:02:24  PAGE 46


      00FF364CH   LINE      CODE     ---       #194
      00FF3665H   LINE      CODE     ---       #195
      00FF3665H   LINE      CODE     ---       #196
      00FF3677H   LINE      CODE     ---       #198
      00FF3690H   LINE      CODE     ---       #199
      00FF36A9H   LINE      CODE     ---       #200
      00FF36A9H   LINE      CODE     ---       #201
      00FF36BBH   LINE      CODE     ---       #203
      00FF36D4H   LINE      CODE     ---       #204
      00FF36EDH   LINE      CODE     ---       #205
      00FF36EDH   LINE      CODE     ---       #207
      00FF36FFH   LINE      CODE     ---       #209
      00FF3718H   LINE      CODE     ---       #210
      00FF3731H   LINE      CODE     ---       #211
      00FF3731H   LINE      CODE     ---       #212
      00FF3743H   LINE      CODE     ---       #214
      00FF375CH   LINE      CODE     ---       #215
      00FF3775H   LINE      CODE     ---       #216
      00FF3775H   LINE      CODE     ---       #217
      00FF3787H   LINE      CODE     ---       #219
      00FF37A0H   LINE      CODE     ---       #220
      00FF37B9H   LINE      CODE     ---       #221
      00FF37B9H   LINE      CODE     ---       #222
      00FF37CBH   LINE      CODE     ---       #224
      00FF37E4H   LINE      CODE     ---       #225
      00FF37FDH   LINE      CODE     ---       #226
      00FF37FDH   LINE      CODE     ---       #227
      00FF380FH   LINE      CODE     ---       #229
      00FF3828H   LINE      CODE     ---       #230
      00FF3841H   LINE      CODE     ---       #231
      00FF3841H   LINE      CODE     ---       #233
      ---         BLOCKEND  ---      ---       LVL=0

      ---         MODULE    ---      ---       zf_iic
      00000C9AH   PUBLIC    EDATA    BYTE      ?iic_init?BYTE
      000000D0H   SFRSYM    DATA     BYTE      PSW
      0000009DH   SFRSYM    DATA     BYTE      IRCBAND
      00000097H   SFRSYM    DATA     BYTE      AUXR2
      000000EFH   SFRSYM    DATA     BYTE      AUXINTIF
      000000FDH   SFRSYM    DATA     BYTE      S4CON
      000000ACH   SFRSYM    DATA     BYTE      S3CON
      0000009AH   SFRSYM    DATA     BYTE      S2CON
      000000B7H   SFRSYM    DATA     BYTE      IPH
      000000CDH   SFRSYM    DATA     BYTE      SPSTAT
      000000DDH   SFRSYM    DATA     BYTE      T4T3M
      000000C1H   SFRSYM    DATA     BYTE      WDT_CONTR
      000000DFH   SFRSYM    DATA     BYTE      IP3
      000000F4H   SFRSYM    DATA     BYTE      USBCON
      000000B5H   SFRSYM    DATA     BYTE      IP2
      000000FFH   SFRSYM    DATA     BYTE      RSTCFG
      000000C7H   SFRSYM    DATA     BYTE      IAP_CONTR
      000000F9H   SFRSYM    DATA     BYTE      LINICR
      0000008EH   SFRSYM    DATA     BYTE      AUXR
      000000AFH   SFRSYM    DATA     BYTE      IE2
      00000088H   SFRSYM    DATA     BYTE      TCON
      00000089H   SFRSYM    DATA     BYTE      TMOD
      00000098H   SFRSYM    DATA     BYTE      SCON
      000000F1H   SFRSYM    DATA     BYTE      CANICR
      00000087H   SFRSYM    DATA     BYTE      PCON
      000000BCH   SFRSYM    DATA     BYTE      ADC_CONTR
      000000E7H   SFRSYM    DATA     BYTE      CMPCR2
      000000E6H   SFRSYM    DATA     BYTE      CMPCR1
      000000DEH   SFRSYM    DATA     BYTE      ADCCFG
      000000B8H   SFRSYM    DATA     BYTE      IP
      0000008FH   SFRSYM    DATA     BYTE      INTCLKO
L251 LINKER/LOCATER V4.66.93.0                                                        04/24/2024  17:02:24  PAGE 47


      000000EEH   SFRSYM    DATA     BYTE      IP3H
      000000B6H   SFRSYM    DATA     BYTE      IP2H
      000000A8H   SFRSYM    DATA     BYTE      IE
      000000BBH   SFRSYM    DATA     BYTE      P_SW3
      000000BAH   SFRSYM    DATA     BYTE      P_SW2
      000000A2H   SFRSYM    DATA     BYTE      P_SW1
      000000CEH   SFRSYM    DATA     BYTE      SPCTL
      000000F8H   SFRSYM    DATA     BYTE      P7
      000000E8H   SFRSYM    DATA     BYTE      P6
      000000C8H   SFRSYM    DATA     BYTE      P5
      000000C0H   SFRSYM    DATA     BYTE      P4
      000000B0H   SFRSYM    DATA     BYTE      P3
      000000A0H   SFRSYM    DATA     BYTE      P2
      00000090H   SFRSYM    DATA     BYTE      P1
      00000080H   SFRSYM    DATA     BYTE      P0
      00000DE3H   SYMBOL    EDATA    WORD      x
      00000DE5H   SYMBOL    EDATA    BYTE      i
      00000DE6H   SYMBOL    EDATA    WORD      count
      00000DE8H   SYMBOL    EDATA    BYTE      ret
      00000E92H   SYMBOL    EDATA    BYTE      ret
      00000E30H   SYMBOL    EDATA    CHAR      dat
      00000E31H   SYMBOL    EDATA    BYTE      ret
      00000E93H   SYMBOL    EDATA    BYTE      ret
      00000E94H   SYMBOL    EDATA    BYTE      ret
      00000E95H   SYMBOL    EDATA    BYTE      ret
      00000C9EH   SYMBOL    EDATA    INT       iic_n
      00000CA0H   SYMBOL    EDATA    DWORD     wait_time
      00000DE9H   SYMBOL    EDATA    BYTE      dev_add
      00000DEAH   SYMBOL    EDATA    BYTE      reg
      00000DEBH   SYMBOL    EDATA    BYTE      dat
      00000CA4H   SYMBOL    EDATA    BYTE      dev_add
      00000CA5H   SYMBOL    EDATA    BYTE      reg
      00000CA6H   SYMBOL    EDATA    ---       dat
      00000C68H   SYMBOL    EDATA    BYTE      dev_add
      00000C69H   SYMBOL    EDATA    BYTE      reg
      00000C6AH   SYMBOL    EDATA    ---       dat
      00000C6EH   SYMBOL    EDATA    BYTE      num
      00000E32H   SYMBOL    EDATA    INT       iic_n

      ---         MODULE    ---      ---       zf_nvic
      000000D0H   SFRSYM    DATA     BYTE      PSW
      0000009DH   SFRSYM    DATA     BYTE      IRCBAND
      00000097H   SFRSYM    DATA     BYTE      AUXR2
      000000EFH   SFRSYM    DATA     BYTE      AUXINTIF
      000000FDH   SFRSYM    DATA     BYTE      S4CON
      000000ACH   SFRSYM    DATA     BYTE      S3CON
      0000009AH   SFRSYM    DATA     BYTE      S2CON
      000000B7H   SFRSYM    DATA     BYTE      IPH
      000000CDH   SFRSYM    DATA     BYTE      SPSTAT
      000000DDH   SFRSYM    DATA     BYTE      T4T3M
      000000C1H   SFRSYM    DATA     BYTE      WDT_CONTR
      000000DFH   SFRSYM    DATA     BYTE      IP3
      000000F4H   SFRSYM    DATA     BYTE      USBCON
      000000B5H   SFRSYM    DATA     BYTE      IP2
      000000FFH   SFRSYM    DATA     BYTE      RSTCFG
      000000C7H   SFRSYM    DATA     BYTE      IAP_CONTR
      000000F9H   SFRSYM    DATA     BYTE      LINICR
      0000008EH   SFRSYM    DATA     BYTE      AUXR
      000000AFH   SFRSYM    DATA     BYTE      IE2
      00000088H   SFRSYM    DATA     BYTE      TCON
      00000089H   SFRSYM    DATA     BYTE      TMOD
      00000098H   SFRSYM    DATA     BYTE      SCON
      000000F1H   SFRSYM    DATA     BYTE      CANICR
      00000087H   SFRSYM    DATA     BYTE      PCON
      000000BCH   SFRSYM    DATA     BYTE      ADC_CONTR
L251 LINKER/LOCATER V4.66.93.0                                                        04/24/2024  17:02:24  PAGE 48


      000000E7H   SFRSYM    DATA     BYTE      CMPCR2
      000000E6H   SFRSYM    DATA     BYTE      CMPCR1
      000000DEH   SFRSYM    DATA     BYTE      ADCCFG
      000000B8H   SFRSYM    DATA     BYTE      IP
      0000008FH   SFRSYM    DATA     BYTE      INTCLKO
      000000EEH   SFRSYM    DATA     BYTE      IP3H
      000000B6H   SFRSYM    DATA     BYTE      IP2H
      000000A8H   SFRSYM    DATA     BYTE      IE
      000000BBH   SFRSYM    DATA     BYTE      P_SW3
      000000BAH   SFRSYM    DATA     BYTE      P_SW2
      000000A2H   SFRSYM    DATA     BYTE      P_SW1
      000000CEH   SFRSYM    DATA     BYTE      SPCTL
      000000F8H   SFRSYM    DATA     BYTE      P7
      000000E8H   SFRSYM    DATA     BYTE      P6
      000000C8H   SFRSYM    DATA     BYTE      P5
      000000C0H   SFRSYM    DATA     BYTE      P4
      000000B0H   SFRSYM    DATA     BYTE      P3
      000000A0H   SFRSYM    DATA     BYTE      P2
      00000090H   SFRSYM    DATA     BYTE      P1
      00000080H   SFRSYM    DATA     BYTE      P0
      00000DECH   SYMBOL    EDATA    INT       irqn
      00000DEEH   SYMBOL    EDATA    BYTE      priority

      ---         MODULE    ---      ---       zf_pwm
      00FF7177H   PUBLIC    CODE     ---       pwm_duty
      00FF608BH   PUBLIC    CODE     ---       pwm_set_gpio
      00FF5CB1H   PUBLIC    CODE     ---       pwm_init
      00FF8F4BH   PUBLIC    HCONST   ---       PWM_CCR_ADDR
      00FF8F6BH   PUBLIC    HCONST   ---       PWM_ARR_ADDR
      00FF8F73H   PUBLIC    HCONST   ---       PWM_CCER_ADDR
      00FF8F83H   PUBLIC    HCONST   ---       PWM_CCMR_ADDR
      00000865H   PUBLIC    EDATA    BYTE      ?pwm_init?BYTE
      00000879H   PUBLIC    EDATA    BYTE      ?pwm_freq?BYTE
      000000D0H   SFRSYM    DATA     BYTE      PSW
      0000009DH   SFRSYM    DATA     BYTE      IRCBAND
      00000097H   SFRSYM    DATA     BYTE      AUXR2
      000000EFH   SFRSYM    DATA     BYTE      AUXINTIF
      000000FDH   SFRSYM    DATA     BYTE      S4CON
      000000ACH   SFRSYM    DATA     BYTE      S3CON
      0000009AH   SFRSYM    DATA     BYTE      S2CON
      000000B7H   SFRSYM    DATA     BYTE      IPH
      000000CDH   SFRSYM    DATA     BYTE      SPSTAT
      000000DDH   SFRSYM    DATA     BYTE      T4T3M
      000000C1H   SFRSYM    DATA     BYTE      WDT_CONTR
      000000DFH   SFRSYM    DATA     BYTE      IP3
      000000F4H   SFRSYM    DATA     BYTE      USBCON
      000000B5H   SFRSYM    DATA     BYTE      IP2
      000000FFH   SFRSYM    DATA     BYTE      RSTCFG
      000000C7H   SFRSYM    DATA     BYTE      IAP_CONTR
      000000F9H   SFRSYM    DATA     BYTE      LINICR
      0000008EH   SFRSYM    DATA     BYTE      AUXR
      000000AFH   SFRSYM    DATA     BYTE      IE2
      00000088H   SFRSYM    DATA     BYTE      TCON
      00000089H   SFRSYM    DATA     BYTE      TMOD
      00000098H   SFRSYM    DATA     BYTE      SCON
      000000F1H   SFRSYM    DATA     BYTE      CANICR
      00000087H   SFRSYM    DATA     BYTE      PCON
      000000BCH   SFRSYM    DATA     BYTE      ADC_CONTR
      000000E7H   SFRSYM    DATA     BYTE      CMPCR2
      000000E6H   SFRSYM    DATA     BYTE      CMPCR1
      000000DEH   SFRSYM    DATA     BYTE      ADCCFG
      000000B8H   SFRSYM    DATA     BYTE      IP
      0000008FH   SFRSYM    DATA     BYTE      INTCLKO
      000000EEH   SFRSYM    DATA     BYTE      IP3H
      000000B6H   SFRSYM    DATA     BYTE      IP2H
L251 LINKER/LOCATER V4.66.93.0                                                        04/24/2024  17:02:24  PAGE 49


      000000A8H   SFRSYM    DATA     BYTE      IE
      000000BBH   SFRSYM    DATA     BYTE      P_SW3
      000000BAH   SFRSYM    DATA     BYTE      P_SW2
      000000A2H   SFRSYM    DATA     BYTE      P_SW1
      000000CEH   SFRSYM    DATA     BYTE      SPCTL
      000000F8H   SFRSYM    DATA     BYTE      P7
      000000E8H   SFRSYM    DATA     BYTE      P6
      000000C8H   SFRSYM    DATA     BYTE      P5
      000000C0H   SFRSYM    DATA     BYTE      P4
      000000B0H   SFRSYM    DATA     BYTE      P3
      000000A0H   SFRSYM    DATA     BYTE      P2
      00000090H   SFRSYM    DATA     BYTE      P1
      00000080H   SFRSYM    DATA     BYTE      P0

      00FF608BH   BLOCK     CODE     ---       LVL=0
      00000E34H   SYMBOL    EDATA    INT       pwmch
      00FF608BH   LINE      CODE     ---       #49
      00FF608FH   LINE      CODE     ---       #51
      00FF6204H   LINE      CODE     ---       #53
      00FF6204H   LINE      CODE     ---       #55
      00FF620FH   LINE      CODE     ---       #56
      00FF6212H   LINE      CODE     ---       #58
      00FF6212H   LINE      CODE     ---       #60
      00FF621DH   LINE      CODE     ---       #61
      00FF6220H   LINE      CODE     ---       #63
      00FF6220H   LINE      CODE     ---       #65
      00FF622BH   LINE      CODE     ---       #66
      00FF622EH   LINE      CODE     ---       #68
      00FF622EH   LINE      CODE     ---       #70
      00FF6239H   LINE      CODE     ---       #71
      00FF623CH   LINE      CODE     ---       #73
      00FF623CH   LINE      CODE     ---       #75
      00FF6247H   LINE      CODE     ---       #76
      00FF624AH   LINE      CODE     ---       #78
      00FF624AH   LINE      CODE     ---       #80
      00FF6255H   LINE      CODE     ---       #81
      00FF6258H   LINE      CODE     ---       #84
      00FF6258H   LINE      CODE     ---       #86
      00FF6263H   LINE      CODE     ---       #87
      00FF6266H   LINE      CODE     ---       #89
      00FF6266H   LINE      CODE     ---       #91
      00FF6271H   LINE      CODE     ---       #92
      00FF6274H   LINE      CODE     ---       #94
      00FF6274H   LINE      CODE     ---       #96
      00FF627FH   LINE      CODE     ---       #97
      00FF6282H   LINE      CODE     ---       #99
      00FF6282H   LINE      CODE     ---       #101
      00FF628DH   LINE      CODE     ---       #102
      00FF6290H   LINE      CODE     ---       #104
      00FF6290H   LINE      CODE     ---       #106
      00FF629BH   LINE      CODE     ---       #107
      00FF629EH   LINE      CODE     ---       #109
      00FF629EH   LINE      CODE     ---       #111
      00FF62A9H   LINE      CODE     ---       #112
      00FF62ACH   LINE      CODE     ---       #115
      00FF62ACH   LINE      CODE     ---       #117
      00FF62B7H   LINE      CODE     ---       #118
      00FF62BAH   LINE      CODE     ---       #120
      00FF62BAH   LINE      CODE     ---       #122
      00FF62C5H   LINE      CODE     ---       #123
      00FF62C8H   LINE      CODE     ---       #125
      00FF62C8H   LINE      CODE     ---       #127
      00FF62D3H   LINE      CODE     ---       #128
      00FF62D6H   LINE      CODE     ---       #130
      00FF62D6H   LINE      CODE     ---       #132
L251 LINKER/LOCATER V4.66.93.0                                                        04/24/2024  17:02:24  PAGE 50


      00FF62E1H   LINE      CODE     ---       #133
      00FF62E4H   LINE      CODE     ---       #135
      00FF62E4H   LINE      CODE     ---       #137
      00FF62EFH   LINE      CODE     ---       #138
      00FF62F2H   LINE      CODE     ---       #140
      00FF62F2H   LINE      CODE     ---       #142
      00FF62FDH   LINE      CODE     ---       #143
      00FF6300H   LINE      CODE     ---       #147
      00FF6300H   LINE      CODE     ---       #149
      00FF630BH   LINE      CODE     ---       #150
      00FF630EH   LINE      CODE     ---       #152
      00FF630EH   LINE      CODE     ---       #154
      00FF6319H   LINE      CODE     ---       #155
      00FF631CH   LINE      CODE     ---       #157
      00FF631CH   LINE      CODE     ---       #159
      00FF6327H   LINE      CODE     ---       #160
      00FF632AH   LINE      CODE     ---       #162
      00FF632AH   LINE      CODE     ---       #164
      00FF6335H   LINE      CODE     ---       #165
      00FF6338H   LINE      CODE     ---       #167
      00FF6338H   LINE      CODE     ---       #169
      00FF6343H   LINE      CODE     ---       #170
      00FF6346H   LINE      CODE     ---       #172
      00FF6346H   LINE      CODE     ---       #174
      00FF6351H   LINE      CODE     ---       #175
      00FF6354H   LINE      CODE     ---       #177
      00FF6354H   LINE      CODE     ---       #179
      00FF635FH   LINE      CODE     ---       #180
      00FF6362H   LINE      CODE     ---       #182
      00FF6362H   LINE      CODE     ---       #184
      00FF636DH   LINE      CODE     ---       #185
      00FF6370H   LINE      CODE     ---       #189
      00FF6370H   LINE      CODE     ---       #191
      00FF637BH   LINE      CODE     ---       #192
      00FF637EH   LINE      CODE     ---       #194
      00FF637EH   LINE      CODE     ---       #196
      00FF6389H   LINE      CODE     ---       #197
      00FF638CH   LINE      CODE     ---       #199
      00FF638CH   LINE      CODE     ---       #201
      00FF6395H   LINE      CODE     ---       #202
      00FF6398H   LINE      CODE     ---       #204
      00FF6398H   LINE      CODE     ---       #206
      00FF63A3H   LINE      CODE     ---       #207
      00FF63A6H   LINE      CODE     ---       #210
      00FF63A6H   LINE      CODE     ---       #212
      00FF63B1H   LINE      CODE     ---       #213
      00FF63B4H   LINE      CODE     ---       #215
      00FF63B4H   LINE      CODE     ---       #217
      00FF63BFH   LINE      CODE     ---       #218
      00FF63C2H   LINE      CODE     ---       #220
      00FF63C2H   LINE      CODE     ---       #222
      00FF63CDH   LINE      CODE     ---       #223
      00FF63CFH   LINE      CODE     ---       #225
      00FF63CFH   LINE      CODE     ---       #227
      00FF63DAH   LINE      CODE     ---       #228
      00FF63DCH   LINE      CODE     ---       #232
      00FF63DCH   LINE      CODE     ---       #234
      00FF63E7H   LINE      CODE     ---       #235
      00FF63E9H   LINE      CODE     ---       #237
      00FF63E9H   LINE      CODE     ---       #239
      00FF63F4H   LINE      CODE     ---       #240
      00FF63F6H   LINE      CODE     ---       #242
      00FF63F6H   LINE      CODE     ---       #244
      00FF6401H   LINE      CODE     ---       #245
      00FF6403H   LINE      CODE     ---       #247
L251 LINKER/LOCATER V4.66.93.0                                                        04/24/2024  17:02:24  PAGE 51


      00FF6403H   LINE      CODE     ---       #249
      00FF640EH   LINE      CODE     ---       #250
      00FF6410H   LINE      CODE     ---       #254
      00FF6410H   LINE      CODE     ---       #256
      00FF641BH   LINE      CODE     ---       #257
      00FF641DH   LINE      CODE     ---       #259
      00FF641DH   LINE      CODE     ---       #261
      00FF6428H   LINE      CODE     ---       #262
      00FF642AH   LINE      CODE     ---       #264
      00FF642AH   LINE      CODE     ---       #266
      00FF6435H   LINE      CODE     ---       #267
      00FF6437H   LINE      CODE     ---       #269
      00FF6437H   LINE      CODE     ---       #271
      00FF6442H   LINE      CODE     ---       #272
      00FF6442H   LINE      CODE     ---       #275
      00FF6442H   LINE      CODE     ---       #277
      ---         BLOCKEND  ---      ---       LVL=0

      00FF5CB1H   BLOCK     CODE     ---       LVL=0
      00000865H   SYMBOL    EDATA    INT       pwmch
      00000867H   SYMBOL    EDATA    DWORD     freq
      0000086BH   SYMBOL    EDATA    DWORD     duty
      00FF5CB9H   BLOCK     CODE     NEAR LAB  LVL=1
      0000086FH   SYMBOL    EDATA    DWORD     match_temp
      00000873H   SYMBOL    EDATA    DWORD     period_temp
      00000877H   SYMBOL    EDATA    WORD      freq_div
      ---         BLOCKEND  ---      ---       LVL=1
      00FF5CB1H   LINE      CODE     ---       #290
      00FF5CB9H   LINE      CODE     ---       #291
      00FF5CB9H   LINE      CODE     ---       #295
      00FF5CBFH   LINE      CODE     ---       #298
      00FF5CC2H   LINE      CODE     ---       #301
      00FF5CC9H   LINE      CODE     ---       #305
      00FF5CDCH   LINE      CODE     ---       #306
      00FF5CEBH   LINE      CODE     ---       #307
      00FF5D06H   LINE      CODE     ---       #309
      00FF5D10H   LINE      CODE     ---       #311
      00FF5D37H   LINE      CODE     ---       #312
      00FF5D39H   LINE      CODE     ---       #315
      00FF5D47H   LINE      CODE     ---       #316
      00FF5D47H   LINE      CODE     ---       #319
      00FF5D56H   LINE      CODE     ---       #322
      00FF5D87H   LINE      CODE     ---       #323
      00FF5DBEH   LINE      CODE     ---       #326
      00FF5E10H   LINE      CODE     ---       #329
      00FF5E23H   LINE      CODE     ---       #330
      00FF5E32H   LINE      CODE     ---       #332
      00FF5E3FH   LINE      CODE     ---       #333
      00FF5E4CH   LINE      CODE     ---       #334
      00FF5E4FH   LINE      CODE     ---       #337
      00FF5E8DH   LINE      CODE     ---       #338
      00FF5EC0H   LINE      CODE     ---       #341
      00FF5F20H   LINE      CODE     ---       #345
      00FF5F33H   LINE      CODE     ---       #346
      00FF5F42H   LINE      CODE     ---       #348
      00FF5F4FH   LINE      CODE     ---       #349
      00FF5F5CH   LINE      CODE     ---       #350
      00FF5F5CH   LINE      CODE     ---       #353
      00FF5F8EH   LINE      CODE     ---       #354
      00FF5FC6H   LINE      CODE     ---       #357
      00FF5FF4H   LINE      CODE     ---       #358
      00FF6028H   LINE      CODE     ---       #361
      00FF6059H   LINE      CODE     ---       #362
      00FF608AH   LINE      CODE     ---       #367
      ---         BLOCKEND  ---      ---       LVL=0
L251 LINKER/LOCATER V4.66.93.0                                                        04/24/2024  17:02:24  PAGE 52



      00FF7177H   BLOCK     CODE     ---       LVL=0
      0000092EH   SYMBOL    EDATA    INT       pwmch
      00000930H   SYMBOL    EDATA    DWORD     duty
      00FF717FH   BLOCK     CODE     NEAR LAB  LVL=1
      00000934H   SYMBOL    EDATA    DWORD     match_temp
      00000938H   SYMBOL    EDATA    DWORD     arr
      ---         BLOCKEND  ---      ---       LVL=1
      00FF7177H   LINE      CODE     ---       #377
      00FF717FH   LINE      CODE     ---       #378
      00FF717FH   LINE      CODE     ---       #380
      00FF71EBH   LINE      CODE     ---       #384
      00FF71F5H   LINE      CODE     ---       #386
      00FF721CH   LINE      CODE     ---       #387
      00FF721EH   LINE      CODE     ---       #390
      00FF722CH   LINE      CODE     ---       #391
      00FF722CH   LINE      CODE     ---       #396
      00FF725AH   LINE      CODE     ---       #397
      00FF728EH   LINE      CODE     ---       #401
      ---         BLOCKEND  ---      ---       LVL=0
      00000879H   SYMBOL    EDATA    INT       pwmch
      0000087BH   SYMBOL    EDATA    DWORD     freq
      0000087FH   SYMBOL    EDATA    DWORD     duty
      00000883H   SYMBOL    EDATA    DWORD     match_temp
      00000887H   SYMBOL    EDATA    DWORD     period_temp
      0000088BH   SYMBOL    EDATA    WORD      freq_div

      ---         MODULE    ---      ---       zf_spi
      00000C69H   PUBLIC    EDATA    BYTE      ?spi_init?BYTE
      000000CFH   SFRSYM    DATA     BYTE      SPDAT
      000000D0H   SFRSYM    DATA     BYTE      PSW
      0000009DH   SFRSYM    DATA     BYTE      IRCBAND
      00000097H   SFRSYM    DATA     BYTE      AUXR2
      000000EFH   SFRSYM    DATA     BYTE      AUXINTIF
      000000FDH   SFRSYM    DATA     BYTE      S4CON
      000000ACH   SFRSYM    DATA     BYTE      S3CON
      0000009AH   SFRSYM    DATA     BYTE      S2CON
      000000B7H   SFRSYM    DATA     BYTE      IPH
      000000CDH   SFRSYM    DATA     BYTE      SPSTAT
      000000DDH   SFRSYM    DATA     BYTE      T4T3M
      000000C1H   SFRSYM    DATA     BYTE      WDT_CONTR
      000000DFH   SFRSYM    DATA     BYTE      IP3
      000000F4H   SFRSYM    DATA     BYTE      USBCON
      000000B5H   SFRSYM    DATA     BYTE      IP2
      000000FFH   SFRSYM    DATA     BYTE      RSTCFG
      000000C7H   SFRSYM    DATA     BYTE      IAP_CONTR
      000000F9H   SFRSYM    DATA     BYTE      LINICR
      0000008EH   SFRSYM    DATA     BYTE      AUXR
      000000AFH   SFRSYM    DATA     BYTE      IE2
      00000088H   SFRSYM    DATA     BYTE      TCON
      00000089H   SFRSYM    DATA     BYTE      TMOD
      00000098H   SFRSYM    DATA     BYTE      SCON
      000000F1H   SFRSYM    DATA     BYTE      CANICR
      00000087H   SFRSYM    DATA     BYTE      PCON
      000000BCH   SFRSYM    DATA     BYTE      ADC_CONTR
      000000E7H   SFRSYM    DATA     BYTE      CMPCR2
      000000E6H   SFRSYM    DATA     BYTE      CMPCR1
      000000DEH   SFRSYM    DATA     BYTE      ADCCFG
      000000B8H   SFRSYM    DATA     BYTE      IP
      0000008FH   SFRSYM    DATA     BYTE      INTCLKO
      000000EEH   SFRSYM    DATA     BYTE      IP3H
      000000B6H   SFRSYM    DATA     BYTE      IP2H
      000000A8H   SFRSYM    DATA     BYTE      IE
      000000BBH   SFRSYM    DATA     BYTE      P_SW3
      000000BAH   SFRSYM    DATA     BYTE      P_SW2
L251 LINKER/LOCATER V4.66.93.0                                                        04/24/2024  17:02:24  PAGE 53


      000000A2H   SFRSYM    DATA     BYTE      P_SW1
      000000CEH   SFRSYM    DATA     BYTE      SPCTL
      000000F8H   SFRSYM    DATA     BYTE      P7
      000000E8H   SFRSYM    DATA     BYTE      P6
      000000C8H   SFRSYM    DATA     BYTE      P5
      000000C0H   SFRSYM    DATA     BYTE      P4
      000000B0H   SFRSYM    DATA     BYTE      P3
      000000A0H   SFRSYM    DATA     BYTE      P2
      00000090H   SFRSYM    DATA     BYTE      P1
      00000080H   SFRSYM    DATA     BYTE      P0
      00000C6FH   SYMBOL    EDATA    INT       spi_n
      00000C71H   SYMBOL    EDATA    BYTE      mode
      00000C72H   SYMBOL    EDATA    INT       mstr
      00000C74H   SYMBOL    EDATA    INT       baud
      00000E96H   SYMBOL    EDATA    BYTE      dat
      00000E36H   SYMBOL    EDATA    INT       spi_n
      00000E97H   SYMBOL    EDATA    BYTE      mode

      ---         MODULE    ---      ---       zf_tim
      00FF7AB9H   PUBLIC    CODE     ---       ctimer_count_read
      00FF73A6H   PUBLIC    CODE     ---       pit_timer_ms
      00FF8419H   PUBLIC    CODE     ---       ctimer_count_init
      00FF825AH   PUBLIC    CODE     ---       ctimer_count_clean
      000000D0H   SFRSYM    DATA     BYTE      PSW
      0000009DH   SFRSYM    DATA     BYTE      IRCBAND
      00000097H   SFRSYM    DATA     BYTE      AUXR2
      000000EFH   SFRSYM    DATA     BYTE      AUXINTIF
      000000FDH   SFRSYM    DATA     BYTE      S4CON
      000000ACH   SFRSYM    DATA     BYTE      S3CON
      0000009AH   SFRSYM    DATA     BYTE      S2CON
      000000B7H   SFRSYM    DATA     BYTE      IPH
      000000CDH   SFRSYM    DATA     BYTE      SPSTAT
      000000DDH   SFRSYM    DATA     BYTE      T4T3M
      000000C1H   SFRSYM    DATA     BYTE      WDT_CONTR
      00000088H.6 SFRSYM    DATA     BIT       TR1
      00000088H.4 SFRSYM    DATA     BIT       TR0
      000000D3H   SFRSYM    DATA     BYTE      T4L
      000000D5H   SFRSYM    DATA     BYTE      T3L
      000000D7H   SFRSYM    DATA     BYTE      T2L
      0000008BH   SFRSYM    DATA     BYTE      TL1
      0000008AH   SFRSYM    DATA     BYTE      TL0
      000000D2H   SFRSYM    DATA     BYTE      T4H
      000000D4H   SFRSYM    DATA     BYTE      T3H
      000000D6H   SFRSYM    DATA     BYTE      T2H
      0000008DH   SFRSYM    DATA     BYTE      TH1
      0000008CH   SFRSYM    DATA     BYTE      TH0
      000000DFH   SFRSYM    DATA     BYTE      IP3
      000000F4H   SFRSYM    DATA     BYTE      USBCON
      000000B5H   SFRSYM    DATA     BYTE      IP2
      000000FFH   SFRSYM    DATA     BYTE      RSTCFG
      000000A8H.3 SFRSYM    DATA     BIT       ET1
      000000A8H.1 SFRSYM    DATA     BIT       ET0
      000000C7H   SFRSYM    DATA     BYTE      IAP_CONTR
      000000F9H   SFRSYM    DATA     BYTE      LINICR
      0000008EH   SFRSYM    DATA     BYTE      AUXR
      000000AFH   SFRSYM    DATA     BYTE      IE2
      00000088H   SFRSYM    DATA     BYTE      TCON
      00000089H   SFRSYM    DATA     BYTE      TMOD
      00000098H   SFRSYM    DATA     BYTE      SCON
      000000F1H   SFRSYM    DATA     BYTE      CANICR
      00000087H   SFRSYM    DATA     BYTE      PCON
      000000BCH   SFRSYM    DATA     BYTE      ADC_CONTR
      000000E7H   SFRSYM    DATA     BYTE      CMPCR2
      000000E6H   SFRSYM    DATA     BYTE      CMPCR1
      000000DEH   SFRSYM    DATA     BYTE      ADCCFG
L251 LINKER/LOCATER V4.66.93.0                                                        04/24/2024  17:02:24  PAGE 54


      000000B8H   SFRSYM    DATA     BYTE      IP
      0000008FH   SFRSYM    DATA     BYTE      INTCLKO
      000000EEH   SFRSYM    DATA     BYTE      IP3H
      000000B6H   SFRSYM    DATA     BYTE      IP2H
      000000A8H   SFRSYM    DATA     BYTE      IE
      000000BBH   SFRSYM    DATA     BYTE      P_SW3
      000000BAH   SFRSYM    DATA     BYTE      P_SW2
      000000A2H   SFRSYM    DATA     BYTE      P_SW1
      000000CEH   SFRSYM    DATA     BYTE      SPCTL
      000000F8H   SFRSYM    DATA     BYTE      P7
      000000E8H   SFRSYM    DATA     BYTE      P6
      000000C8H   SFRSYM    DATA     BYTE      P5
      000000C0H   SFRSYM    DATA     BYTE      P4
      000000B0H   SFRSYM    DATA     BYTE      P3
      000000A0H   SFRSYM    DATA     BYTE      P2
      00000090H   SFRSYM    DATA     BYTE      P1
      00000080H   SFRSYM    DATA     BYTE      P0

      00FF8419H   BLOCK     CODE     ---       LVL=0
      00000E38H   SYMBOL    EDATA    INT       tim_n
      00FF8419H   LINE      CODE     ---       #39
      00FF841DH   LINE      CODE     ---       #42
      00FF8431H   LINE      CODE     ---       #44
      00FF8431H   LINE      CODE     ---       #46
      00FF8434H   LINE      CODE     ---       #47
      00FF8437H   LINE      CODE     ---       #48
      00FF843AH   LINE      CODE     ---       #49
      00FF843DH   LINE      CODE     ---       #50
      00FF843FH   LINE      CODE     ---       #53
      00FF843FH   LINE      CODE     ---       #55
      00FF8442H   LINE      CODE     ---       #56
      00FF8445H   LINE      CODE     ---       #57
      00FF8448H   LINE      CODE     ---       #58
      00FF844BH   LINE      CODE     ---       #59
      00FF844DH   LINE      CODE     ---       #62
      00FF844DH   LINE      CODE     ---       #64
      00FF8450H   LINE      CODE     ---       #65
      00FF8453H   LINE      CODE     ---       #66
      00FF8456H   LINE      CODE     ---       #67
      00FF8458H   LINE      CODE     ---       #70
      00FF8458H   LINE      CODE     ---       #72
      00FF845BH   LINE      CODE     ---       #73
      00FF845EH   LINE      CODE     ---       #74
      00FF8461H   LINE      CODE     ---       #75
      00FF8463H   LINE      CODE     ---       #78
      00FF8463H   LINE      CODE     ---       #80
      00FF8466H   LINE      CODE     ---       #81
      00FF8469H   LINE      CODE     ---       #82
      00FF846CH   LINE      CODE     ---       #83
      00FF846CH   LINE      CODE     ---       #86
      00FF846CH   LINE      CODE     ---       #87
      ---         BLOCKEND  ---      ---       LVL=0

      00FF7AB9H   BLOCK     CODE     ---       LVL=0
      00000D9BH   SYMBOL    EDATA    INT       tim_n
      00FF7ABDH   BLOCK     CODE     NEAR LAB  LVL=1
      00000D9DH   SYMBOL    EDATA    WORD      dat
      ---         BLOCKEND  ---      ---       LVL=1
      00FF7AB9H   LINE      CODE     ---       #95
      00FF7ABDH   LINE      CODE     ---       #96
      00FF7ABDH   LINE      CODE     ---       #97
      00FF7AC3H   LINE      CODE     ---       #99
      00FF7ADEH   LINE      CODE     ---       #101
      00FF7ADEH   LINE      CODE     ---       #103
      00FF7AEAH   LINE      CODE     ---       #104
L251 LINKER/LOCATER V4.66.93.0                                                        04/24/2024  17:02:24  PAGE 55


      00FF7AF8H   LINE      CODE     ---       #105
      00FF7AFAH   LINE      CODE     ---       #107
      00FF7AFAH   LINE      CODE     ---       #109
      00FF7B06H   LINE      CODE     ---       #110
      00FF7B14H   LINE      CODE     ---       #111
      00FF7B16H   LINE      CODE     ---       #113
      00FF7B16H   LINE      CODE     ---       #115
      00FF7B22H   LINE      CODE     ---       #116
      00FF7B30H   LINE      CODE     ---       #117
      00FF7B32H   LINE      CODE     ---       #119
      00FF7B32H   LINE      CODE     ---       #121
      00FF7B3EH   LINE      CODE     ---       #122
      00FF7B4CH   LINE      CODE     ---       #123
      00FF7B4EH   LINE      CODE     ---       #125
      00FF7B4EH   LINE      CODE     ---       #127
      00FF7B5AH   LINE      CODE     ---       #128
      00FF7B68H   LINE      CODE     ---       #129
      00FF7B68H   LINE      CODE     ---       #132
      00FF7B68H   LINE      CODE     ---       #133
      00FF7B6CH   LINE      CODE     ---       #134
      ---         BLOCKEND  ---      ---       LVL=0

      00FF825AH   BLOCK     CODE     ---       LVL=0
      00000E3AH   SYMBOL    EDATA    INT       tim_n
      00FF825AH   LINE      CODE     ---       #143
      00FF825EH   LINE      CODE     ---       #145
      00FF8272H   LINE      CODE     ---       #147
      00FF8272H   LINE      CODE     ---       #149
      00FF8275H   LINE      CODE     ---       #150
      00FF8278H   LINE      CODE     ---       #151
      00FF827BH   LINE      CODE     ---       #152
      00FF827EH   LINE      CODE     ---       #153
      00FF8280H   LINE      CODE     ---       #155
      00FF8280H   LINE      CODE     ---       #157
      00FF8283H   LINE      CODE     ---       #158
      00FF8286H   LINE      CODE     ---       #159
      00FF8289H   LINE      CODE     ---       #160
      00FF828CH   LINE      CODE     ---       #161
      00FF828EH   LINE      CODE     ---       #163
      00FF828EH   LINE      CODE     ---       #165
      00FF8291H   LINE      CODE     ---       #166
      00FF8294H   LINE      CODE     ---       #167
      00FF8297H   LINE      CODE     ---       #168
      00FF829AH   LINE      CODE     ---       #169
      00FF829CH   LINE      CODE     ---       #171
      00FF829CH   LINE      CODE     ---       #173
      00FF829FH   LINE      CODE     ---       #174
      00FF82A2H   LINE      CODE     ---       #175
      00FF82A5H   LINE      CODE     ---       #176
      00FF82A8H   LINE      CODE     ---       #177
      00FF82AAH   LINE      CODE     ---       #179
      00FF82AAH   LINE      CODE     ---       #181
      00FF82ADH   LINE      CODE     ---       #182
      00FF82B0H   LINE      CODE     ---       #183
      00FF82B3H   LINE      CODE     ---       #184
      00FF82B6H   LINE      CODE     ---       #185
      00FF82B6H   LINE      CODE     ---       #187
      00FF82B6H   LINE      CODE     ---       #188
      ---         BLOCKEND  ---      ---       LVL=0

      00FF73A6H   BLOCK     CODE     ---       LVL=0
      00000CAAH   SYMBOL    EDATA    INT       tim_n
      00000CACH   SYMBOL    EDATA    WORD      time_ms
      00FF73AEH   BLOCK     CODE     NEAR LAB  LVL=1
      00000CAEH   SYMBOL    EDATA    WORD      temp
L251 LINKER/LOCATER V4.66.93.0                                                        04/24/2024  17:02:24  PAGE 56


      ---         BLOCKEND  ---      ---       LVL=1
      00FF73A6H   LINE      CODE     ---       #198
      00FF73AEH   LINE      CODE     ---       #199
      00FF73AEH   LINE      CODE     ---       #201
      00FF73D1H   LINE      CODE     ---       #203
      00FF73DBH   LINE      CODE     ---       #205
      00FF73DFH   LINE      CODE     ---       #206
      00FF73E5H   LINE      CODE     ---       #207
      00FF73EFH   LINE      CODE     ---       #208
      00FF73F2H   LINE      CODE     ---       #209
      00FF73F5H   LINE      CODE     ---       #210
      00FF73F8H   LINE      CODE     ---       #211
      00FF7404H   LINE      CODE     ---       #213
      00FF7408H   LINE      CODE     ---       #214
      00FF740EH   LINE      CODE     ---       #215
      00FF7418H   LINE      CODE     ---       #216
      00FF741BH   LINE      CODE     ---       #217
      00FF741EH   LINE      CODE     ---       #218
      00FF7420H   LINE      CODE     ---       #219
      00FF742CH   LINE      CODE     ---       #221
      00FF7432H   LINE      CODE     ---       #222
      00FF743CH   LINE      CODE     ---       #223
      00FF743FH   LINE      CODE     ---       #224
      00FF7442H   LINE      CODE     ---       #225
      00FF7444H   LINE      CODE     ---       #226
      00FF7450H   LINE      CODE     ---       #228
      00FF7456H   LINE      CODE     ---       #229
      00FF7460H   LINE      CODE     ---       #230
      00FF7463H   LINE      CODE     ---       #231
      00FF7466H   LINE      CODE     ---       #232
      00FF7468H   LINE      CODE     ---       #233
      00FF7474H   LINE      CODE     ---       #235
      00FF747AH   LINE      CODE     ---       #236
      00FF7484H   LINE      CODE     ---       #237
      00FF7487H   LINE      CODE     ---       #238
      00FF748AH   LINE      CODE     ---       #239
      ---         BLOCKEND  ---      ---       LVL=0

      ---         MODULE    ---      ---       zf_uart
      00FF7DBDH   PUBLIC    CODE     ---       uart_putchar
      00FF67DFH   PUBLIC    CODE     ---       uart_init
      00000D40H   PUBLIC    EDATA    ---       busy
      0000093CH   PUBLIC    EDATA    BYTE      ?uart_init?BYTE
      000000D0H   SFRSYM    DATA     BYTE      PSW
      0000009DH   SFRSYM    DATA     BYTE      IRCBAND
      00000097H   SFRSYM    DATA     BYTE      AUXR2
      000000EFH   SFRSYM    DATA     BYTE      AUXINTIF
      000000FDH   SFRSYM    DATA     BYTE      S4CON
      000000ACH   SFRSYM    DATA     BYTE      S3CON
      0000009AH   SFRSYM    DATA     BYTE      S2CON
      000000FEH   SFRSYM    DATA     BYTE      S4BUF
      000000ADH   SFRSYM    DATA     BYTE      S3BUF
      0000009BH   SFRSYM    DATA     BYTE      S2BUF
      000000B7H   SFRSYM    DATA     BYTE      IPH
      000000CDH   SFRSYM    DATA     BYTE      SPSTAT
      000000DDH   SFRSYM    DATA     BYTE      T4T3M
      000000C1H   SFRSYM    DATA     BYTE      WDT_CONTR
      00000088H.6 SFRSYM    DATA     BIT       TR1
      000000D3H   SFRSYM    DATA     BYTE      T4L
      000000D5H   SFRSYM    DATA     BYTE      T3L
      000000D7H   SFRSYM    DATA     BYTE      T2L
      0000008BH   SFRSYM    DATA     BYTE      TL1
      000000D2H   SFRSYM    DATA     BYTE      T4H
      000000D4H   SFRSYM    DATA     BYTE      T3H
      000000D6H   SFRSYM    DATA     BYTE      T2H
L251 LINKER/LOCATER V4.66.93.0                                                        04/24/2024  17:02:24  PAGE 57


      0000008DH   SFRSYM    DATA     BYTE      TH1
      000000DFH   SFRSYM    DATA     BYTE      IP3
      000000F4H   SFRSYM    DATA     BYTE      USBCON
      000000B5H   SFRSYM    DATA     BYTE      IP2
      000000FFH   SFRSYM    DATA     BYTE      RSTCFG
      000000C7H   SFRSYM    DATA     BYTE      IAP_CONTR
      000000F9H   SFRSYM    DATA     BYTE      LINICR
      0000008EH   SFRSYM    DATA     BYTE      AUXR
      000000AFH   SFRSYM    DATA     BYTE      IE2
      00000088H   SFRSYM    DATA     BYTE      TCON
      00000089H   SFRSYM    DATA     BYTE      TMOD
      00000098H   SFRSYM    DATA     BYTE      SCON
      000000F1H   SFRSYM    DATA     BYTE      CANICR
      00000087H   SFRSYM    DATA     BYTE      PCON
      00000099H   SFRSYM    DATA     BYTE      SBUF
      000000BCH   SFRSYM    DATA     BYTE      ADC_CONTR
      000000E7H   SFRSYM    DATA     BYTE      CMPCR2
      000000E6H   SFRSYM    DATA     BYTE      CMPCR1
      000000DEH   SFRSYM    DATA     BYTE      ADCCFG
      000000B8H   SFRSYM    DATA     BYTE      IP
      000000A8H.4 SFRSYM    DATA     BIT       ES
      0000008FH   SFRSYM    DATA     BYTE      INTCLKO
      000000EEH   SFRSYM    DATA     BYTE      IP3H
      000000B6H   SFRSYM    DATA     BYTE      IP2H
      000000A8H   SFRSYM    DATA     BYTE      IE
      000000BBH   SFRSYM    DATA     BYTE      P_SW3
      000000BAH   SFRSYM    DATA     BYTE      P_SW2
      000000A2H   SFRSYM    DATA     BYTE      P_SW1
      000000CEH   SFRSYM    DATA     BYTE      SPCTL
      000000F8H   SFRSYM    DATA     BYTE      P7
      000000E8H   SFRSYM    DATA     BYTE      P6
      000000C8H   SFRSYM    DATA     BYTE      P5
      000000C0H   SFRSYM    DATA     BYTE      P4
      000000C9H   SFRSYM    DATA     BYTE      P5M1
      000000B0H   SFRSYM    DATA     BYTE      P3
      000000CAH   SFRSYM    DATA     BYTE      P5M0
      000000A0H   SFRSYM    DATA     BYTE      P2
      00000090H   SFRSYM    DATA     BYTE      P1
      00000080H   SFRSYM    DATA     BYTE      P0

      00FF67DFH   BLOCK     CODE     ---       LVL=0
      0000093CH   SYMBOL    EDATA    INT       uart_n
      0000093EH   SYMBOL    EDATA    INT       uart_rx_pin
      00000940H   SYMBOL    EDATA    INT       uart_tx_pin
      00000942H   SYMBOL    EDATA    DWORD     baud
      00000946H   SYMBOL    EDATA    INT       tim_n
      00FF67EFH   BLOCK     CODE     NEAR LAB  LVL=1
      00000948H   SYMBOL    EDATA    WORD      brt
      ---         BLOCKEND  ---      ---       LVL=1
      00FF67DFH   LINE      CODE     ---       #45
      00FF67EFH   LINE      CODE     ---       #46
      00FF67EFH   LINE      CODE     ---       #49
      00FF6816H   LINE      CODE     ---       #52
      00FF6838H   LINE      CODE     ---       #54
      00FF6838H   LINE      CODE     ---       #56
      00FF6844H   LINE      CODE     ---       #58
      00FF6847H   LINE      CODE     ---       #59
      00FF684BH   LINE      CODE     ---       #60
      00FF6851H   LINE      CODE     ---       #61
      00FF685BH   LINE      CODE     ---       #62
      00FF685EH   LINE      CODE     ---       #63
      00FF6861H   LINE      CODE     ---       #64
      00FF6866H   LINE      CODE     ---       #65
      00FF6868H   LINE      CODE     ---       #66
      00FF6874H   LINE      CODE     ---       #68
L251 LINKER/LOCATER V4.66.93.0                                                        04/24/2024  17:02:24  PAGE 58


      00FF6877H   LINE      CODE     ---       #69
      00FF687DH   LINE      CODE     ---       #70
      00FF6887H   LINE      CODE     ---       #71
      00FF688AH   LINE      CODE     ---       #72
      00FF688AH   LINE      CODE     ---       #73
      00FF688DH   LINE      CODE     ---       #74
      00FF68A3H   LINE      CODE     ---       #76
      00FF68A7H   LINE      CODE     ---       #77
      00FF68A9H   LINE      CODE     ---       #78
      00FF68C1H   LINE      CODE     ---       #80
      00FF68C4H   LINE      CODE     ---       #81
      00FF68C6H   LINE      CODE     ---       #82
      00FF68DEH   LINE      CODE     ---       #84
      00FF68E1H   LINE      CODE     ---       #85
      00FF68E3H   LINE      CODE     ---       #86
      00FF68FBH   LINE      CODE     ---       #88
      00FF68FEH   LINE      CODE     ---       #89
      00FF68FEH   LINE      CODE     ---       #90
      00FF6903H   LINE      CODE     ---       #91
      00FF6906H   LINE      CODE     ---       #92
      00FF6909H   LINE      CODE     ---       #95
      00FF6909H   LINE      CODE     ---       #97
      00FF6915H   LINE      CODE     ---       #99
      00FF6918H   LINE      CODE     ---       #100
      00FF691EH   LINE      CODE     ---       #101
      00FF6928H   LINE      CODE     ---       #102
      00FF692BH   LINE      CODE     ---       #103
      00FF692BH   LINE      CODE     ---       #105
      00FF692EH   LINE      CODE     ---       #106
      00FF6946H   LINE      CODE     ---       #108
      00FF694AH   LINE      CODE     ---       #109
      00FF694CH   LINE      CODE     ---       #110
      00FF6964H   LINE      CODE     ---       #112
      00FF6967H   LINE      CODE     ---       #113
      00FF6967H   LINE      CODE     ---       #115
      00FF696AH   LINE      CODE     ---       #116
      00FF696FH   LINE      CODE     ---       #117
      00FF6972H   LINE      CODE     ---       #120
      00FF6972H   LINE      CODE     ---       #122
      00FF697EH   LINE      CODE     ---       #124
      00FF6981H   LINE      CODE     ---       #125
      00FF6987H   LINE      CODE     ---       #126
      00FF6991H   LINE      CODE     ---       #127
      00FF6994H   LINE      CODE     ---       #128
      00FF6996H   LINE      CODE     ---       #129
      00FF69A2H   LINE      CODE     ---       #131
      00FF69A5H   LINE      CODE     ---       #132
      00FF69ABH   LINE      CODE     ---       #133
      00FF69B5H   LINE      CODE     ---       #134
      00FF69B8H   LINE      CODE     ---       #135
      00FF69B8H   LINE      CODE     ---       #137
      00FF69BBH   LINE      CODE     ---       #138
      00FF69D3H   LINE      CODE     ---       #140
      00FF69D7H   LINE      CODE     ---       #141
      00FF69D9H   LINE      CODE     ---       #142
      00FF69F1H   LINE      CODE     ---       #144
      00FF69F4H   LINE      CODE     ---       #145
      00FF69F4H   LINE      CODE     ---       #147
      00FF69F7H   LINE      CODE     ---       #148
      00FF69FCH   LINE      CODE     ---       #149
      00FF69FFH   LINE      CODE     ---       #152
      00FF69FFH   LINE      CODE     ---       #154
      00FF6A0BH   LINE      CODE     ---       #156
      00FF6A0EH   LINE      CODE     ---       #157
      00FF6A14H   LINE      CODE     ---       #158
L251 LINKER/LOCATER V4.66.93.0                                                        04/24/2024  17:02:24  PAGE 59


      00FF6A1EH   LINE      CODE     ---       #159
      00FF6A22H   LINE      CODE     ---       #160
      00FF6A24H   LINE      CODE     ---       #161
      00FF6A30H   LINE      CODE     ---       #163
      00FF6A33H   LINE      CODE     ---       #164
      00FF6A39H   LINE      CODE     ---       #165
      00FF6A43H   LINE      CODE     ---       #166
      00FF6A46H   LINE      CODE     ---       #167
      00FF6A46H   LINE      CODE     ---       #169
      00FF6A49H   LINE      CODE     ---       #170
      00FF6A61H   LINE      CODE     ---       #172
      00FF6A65H   LINE      CODE     ---       #173
      00FF6A67H   LINE      CODE     ---       #174
      00FF6A7FH   LINE      CODE     ---       #176
      00FF6A82H   LINE      CODE     ---       #177
      00FF6A86H   LINE      CODE     ---       #178
      00FF6A89H   LINE      CODE     ---       #179
      00FF6A89H   LINE      CODE     ---       #180
      00FF6A8CH   LINE      CODE     ---       #181
      00FF6A91H   LINE      CODE     ---       #182
      00FF6A91H   LINE      CODE     ---       #185
      00FF6A91H   LINE      CODE     ---       #187
      ---         BLOCKEND  ---      ---       LVL=0

      00FF7DBDH   BLOCK     CODE     ---       LVL=0
      00000DEFH   SYMBOL    EDATA    INT       uart_n
      00000DF1H   SYMBOL    EDATA    BYTE      dat
      00FF7DBDH   LINE      CODE     ---       #196
      00FF7DC5H   LINE      CODE     ---       #198
      00FF7DD7H   LINE      CODE     ---       #200
      00FF7DD7H   LINE      CODE     ---       #201
      00FF7DE0H   LINE      CODE     ---       #202
      00FF7DE6H   LINE      CODE     ---       #203
      00FF7DECH   LINE      CODE     ---       #204
      00FF7DEEH   LINE      CODE     ---       #205
      00FF7DEEH   LINE      CODE     ---       #206
      00FF7DF7H   LINE      CODE     ---       #207
      00FF7DFDH   LINE      CODE     ---       #208
      00FF7E03H   LINE      CODE     ---       #209
      00FF7E05H   LINE      CODE     ---       #210
      00FF7E05H   LINE      CODE     ---       #211
      00FF7E0EH   LINE      CODE     ---       #212
      00FF7E14H   LINE      CODE     ---       #213
      00FF7E1AH   LINE      CODE     ---       #214
      00FF7E1CH   LINE      CODE     ---       #215
      00FF7E1CH   LINE      CODE     ---       #216
      00FF7E25H   LINE      CODE     ---       #217
      00FF7E2BH   LINE      CODE     ---       #218
      00FF7E31H   LINE      CODE     ---       #219
      00FF7E31H   LINE      CODE     ---       #220
      00FF7E31H   LINE      CODE     ---       #221
      ---         BLOCKEND  ---      ---       LVL=0
      00000BF8H   SYMBOL    EDATA    INT       uart_n
      00000BFAH   SYMBOL    EDATA    ---       p
      00000BFEH   SYMBOL    EDATA    WORD      len
      00000CB0H   SYMBOL    EDATA    INT       uart_n
      00000CB2H   SYMBOL    EDATA    ---       str

      ---         MODULE    ---      ---       zf_fifo
      00FF7F87H   PUBLIC    CODE     ---       fifo_head_offset
      00FF6DFCH   PUBLIC    CODE     ---       fifo_write_buffer
      0000099CH   PUBLIC    EDATA    BYTE      ?fifo_init?BYTE
      000008FEH   PUBLIC    EDATA    BYTE      ?fifo_write_buffer?BYTE
      000008B5H   PUBLIC    EDATA    BYTE      ?fifo_read_buffer?BYTE
      000000D0H   SFRSYM    DATA     BYTE      PSW
L251 LINKER/LOCATER V4.66.93.0                                                        04/24/2024  17:02:24  PAGE 60


      0000009DH   SFRSYM    DATA     BYTE      IRCBAND
      00000097H   SFRSYM    DATA     BYTE      AUXR2
      000000EFH   SFRSYM    DATA     BYTE      AUXINTIF
      000000FDH   SFRSYM    DATA     BYTE      S4CON
      000000ACH   SFRSYM    DATA     BYTE      S3CON
      0000009AH   SFRSYM    DATA     BYTE      S2CON
      000000B7H   SFRSYM    DATA     BYTE      IPH
      000000CDH   SFRSYM    DATA     BYTE      SPSTAT
      000000DDH   SFRSYM    DATA     BYTE      T4T3M
      000000C1H   SFRSYM    DATA     BYTE      WDT_CONTR
      000000DFH   SFRSYM    DATA     BYTE      IP3
      000000F4H   SFRSYM    DATA     BYTE      USBCON
      000000B5H   SFRSYM    DATA     BYTE      IP2
      000000FFH   SFRSYM    DATA     BYTE      RSTCFG
      000000C7H   SFRSYM    DATA     BYTE      IAP_CONTR
      000000F9H   SFRSYM    DATA     BYTE      LINICR
      0000008EH   SFRSYM    DATA     BYTE      AUXR
      000000AFH   SFRSYM    DATA     BYTE      IE2
      00000088H   SFRSYM    DATA     BYTE      TCON
      00000089H   SFRSYM    DATA     BYTE      TMOD
      00000098H   SFRSYM    DATA     BYTE      SCON
      000000F1H   SFRSYM    DATA     BYTE      CANICR
      00000087H   SFRSYM    DATA     BYTE      PCON
      000000BCH   SFRSYM    DATA     BYTE      ADC_CONTR
      000000E7H   SFRSYM    DATA     BYTE      CMPCR2
      000000E6H   SFRSYM    DATA     BYTE      CMPCR1
      000000DEH   SFRSYM    DATA     BYTE      ADCCFG
      000000B8H   SFRSYM    DATA     BYTE      IP
      0000008FH   SFRSYM    DATA     BYTE      INTCLKO
      000000EEH   SFRSYM    DATA     BYTE      IP3H
      000000B6H   SFRSYM    DATA     BYTE      IP2H
      000000A8H   SFRSYM    DATA     BYTE      IE
      000000BBH   SFRSYM    DATA     BYTE      P_SW3
      000000BAH   SFRSYM    DATA     BYTE      P_SW2
      000000A2H   SFRSYM    DATA     BYTE      P_SW1
      000000CEH   SFRSYM    DATA     BYTE      SPCTL
      000000F8H   SFRSYM    DATA     BYTE      P7
      000000E8H   SFRSYM    DATA     BYTE      P6
      000000C8H   SFRSYM    DATA     BYTE      P5
      000000C0H   SFRSYM    DATA     BYTE      P4
      000000B0H   SFRSYM    DATA     BYTE      P3
      000000A0H   SFRSYM    DATA     BYTE      P2
      00000090H   SFRSYM    DATA     BYTE      P1
      00000080H   SFRSYM    DATA     BYTE      P0
      0000099CH   SYMBOL    EDATA    ---       fifo
      000009A0H   SYMBOL    EDATA    ---       buffer_addr
      000009A4H   SYMBOL    EDATA    DWORD     size

      00FF7F87H   BLOCK     CODE     ---       LVL=0
      00000C00H   SYMBOL    EDATA    ---       fifo
      00000C04H   SYMBOL    EDATA    DWORD     offset
      00FF7F87H   LINE      CODE     ---       #61
      00FF7F8FH   LINE      CODE     ---       #63
      00FF7FA9H   LINE      CODE     ---       #65
      00FF7FABH   LINE      CODE     ---       #67
      00FF7FD0H   LINE      CODE     ---       #68
      00FF7FF0H   LINE      CODE     ---       #69
      ---         BLOCKEND  ---      ---       LVL=0
      00000C08H   SYMBOL    EDATA    ---       fifo
      00000C0CH   SYMBOL    EDATA    DWORD     offset
      00000D9FH   SYMBOL    EDATA    ---       fifo
      00000DA3H   SYMBOL    EDATA    ---       fifo

      00FF6DFCH   BLOCK     CODE     ---       LVL=0
      000008FEH   SYMBOL    EDATA    ---       fifo
L251 LINKER/LOCATER V4.66.93.0                                                        04/24/2024  17:02:24  PAGE 61


      00000902H   SYMBOL    EDATA    ---       dat
      00000906H   SYMBOL    EDATA    DWORD     length
      00FF6E04H   BLOCK     CODE     NEAR LAB  LVL=1
      0000090AH   SYMBOL    EDATA    DWORD     temp_length
      ---         BLOCKEND  ---      ---       LVL=1
      00FF6DFCH   LINE      CODE     ---       #120
      00FF6E04H   LINE      CODE     ---       #121
      00FF6E04H   LINE      CODE     ---       #124
      00FF6E1EH   LINE      CODE     ---       #126
      00FF6E40H   LINE      CODE     ---       #128
      00FF6E4FH   LINE      CODE     ---       #130
      00FF6E78H   LINE      CODE     ---       #131
      00FF6E83H   LINE      CODE     ---       #132
      00FF6E93H   LINE      CODE     ---       #133
      00FF6EC6H   LINE      CODE     ---       #134
      00FF6ED7H   LINE      CODE     ---       #135
      00FF6ED9H   LINE      CODE     ---       #138
      00FF6F02H   LINE      CODE     ---       #139
      00FF6F0DH   LINE      CODE     ---       #140
      00FF6F0DH   LINE      CODE     ---       #142
      00FF6F29H   LINE      CODE     ---       #143
      00FF6F2BH   LINE      CODE     ---       #146
      00FF6F31H   LINE      CODE     ---       #147
      00FF6F31H   LINE      CODE     ---       #149
      00FF6F33H   LINE      CODE     ---       #150
      ---         BLOCKEND  ---      ---       LVL=0
      000008B5H   SYMBOL    EDATA    ---       fifo
      000008B9H   SYMBOL    EDATA    ---       dat
      000008BDH   SYMBOL    EDATA    ---       length
      000008C1H   SYMBOL    EDATA    INT       flag
      000008C3H   SYMBOL    EDATA    BYTE      data_check
      000008C4H   SYMBOL    EDATA    DWORD     temp_length

      ---         MODULE    ---      ---       SEEKFREE_18TFT
      00000432H   PUBLIC    EDATA    BYTE      ?lcd_showfloat_simspi?BYTE
      00000462H   PUBLIC    EDATA    BYTE      ?lcd_showfloat?BYTE
      000000D0H   SFRSYM    DATA     BYTE      PSW
      0000009DH   SFRSYM    DATA     BYTE      IRCBAND
      00000097H   SFRSYM    DATA     BYTE      AUXR2
      000000EFH   SFRSYM    DATA     BYTE      AUXINTIF
      000000FDH   SFRSYM    DATA     BYTE      S4CON
      000000ACH   SFRSYM    DATA     BYTE      S3CON
      0000009AH   SFRSYM    DATA     BYTE      S2CON
      000000B7H   SFRSYM    DATA     BYTE      IPH
      000000CDH   SFRSYM    DATA     BYTE      SPSTAT
      000000DDH   SFRSYM    DATA     BYTE      T4T3M
      000000C1H   SFRSYM    DATA     BYTE      WDT_CONTR
      000000DFH   SFRSYM    DATA     BYTE      IP3
      000000F4H   SFRSYM    DATA     BYTE      USBCON
      000000B5H   SFRSYM    DATA     BYTE      IP2
      000000FFH   SFRSYM    DATA     BYTE      RSTCFG
      000000C7H   SFRSYM    DATA     BYTE      IAP_CONTR
      000000F9H   SFRSYM    DATA     BYTE      LINICR
      0000008EH   SFRSYM    DATA     BYTE      AUXR
      000000AFH   SFRSYM    DATA     BYTE      IE2
      000000A0H.5 SFRSYM    DATA     BIT       P25
      00000088H   SFRSYM    DATA     BYTE      TCON
      00000089H   SFRSYM    DATA     BYTE      TMOD
      000000A0H.3 SFRSYM    DATA     BIT       P23
      00000098H   SFRSYM    DATA     BYTE      SCON
      000000A0H.2 SFRSYM    DATA     BIT       P22
      000000A0H.1 SFRSYM    DATA     BIT       P21
      000000A0H.0 SFRSYM    DATA     BIT       P20
      000000F1H   SFRSYM    DATA     BYTE      CANICR
      00000087H   SFRSYM    DATA     BYTE      PCON
L251 LINKER/LOCATER V4.66.93.0                                                        04/24/2024  17:02:24  PAGE 62


      000000BCH   SFRSYM    DATA     BYTE      ADC_CONTR
      000000E7H   SFRSYM    DATA     BYTE      CMPCR2
      000000E6H   SFRSYM    DATA     BYTE      CMPCR1
      000000DEH   SFRSYM    DATA     BYTE      ADCCFG
      000000B8H   SFRSYM    DATA     BYTE      IP
      0000008FH   SFRSYM    DATA     BYTE      INTCLKO
      000000EEH   SFRSYM    DATA     BYTE      IP3H
      000000B6H   SFRSYM    DATA     BYTE      IP2H
      000000A8H   SFRSYM    DATA     BYTE      IE
      000000BBH   SFRSYM    DATA     BYTE      P_SW3
      000000BAH   SFRSYM    DATA     BYTE      P_SW2
      000000A2H   SFRSYM    DATA     BYTE      P_SW1
      000000CEH   SFRSYM    DATA     BYTE      SPCTL
      000000F8H   SFRSYM    DATA     BYTE      P7
      000000E8H   SFRSYM    DATA     BYTE      P6
      000000C8H   SFRSYM    DATA     BYTE      P5
      000000C0H   SFRSYM    DATA     BYTE      P4
      000000B0H   SFRSYM    DATA     BYTE      P3
      000000A0H   SFRSYM    DATA     BYTE      P2
      00000090H   SFRSYM    DATA     BYTE      P1
      00000080H   SFRSYM    DATA     BYTE      P0
      00000E3CH   SYMBOL    EDATA    BYTE      dat
      00000E3DH   SYMBOL    EDATA    BYTE      i
      00000E3EH   SYMBOL    EDATA    BYTE      dat
      00000E3FH   SYMBOL    EDATA    BYTE      i
      00000DF2H   SYMBOL    EDATA    WORD      dat
      00000DF4H   SYMBOL    EDATA    BYTE      i
      00000C10H   SYMBOL    EDATA    WORD      x_start
      00000C12H   SYMBOL    EDATA    WORD      y_start
      00000C14H   SYMBOL    EDATA    WORD      x_end
      00000C16H   SYMBOL    EDATA    WORD      y_end
      00000DA7H   SYMBOL    EDATA    INT       color
      00000DA9H   SYMBOL    EDATA    BYTE      i
      00000DAAH   SYMBOL    EDATA    BYTE      j
      00000CB6H   SYMBOL    EDATA    WORD      x
      00000CB8H   SYMBOL    EDATA    WORD      y
      00000CBAH   SYMBOL    EDATA    WORD      color
      00000C18H   SYMBOL    EDATA    WORD      x
      00000C1AH   SYMBOL    EDATA    WORD      y
      00000C1CH   SYMBOL    EDATA    CHAR      dat
      00000C1DH   SYMBOL    EDATA    BYTE      i
      00000C1EH   SYMBOL    EDATA    BYTE      j
      00000C1FH   SYMBOL    EDATA    BYTE      temp
      00000AD7H   SYMBOL    EDATA    WORD      x
      00000AD9H   SYMBOL    EDATA    WORD      y
      00000ADBH   SYMBOL    EDATA    ---       dat
      00000ADFH   SYMBOL    EDATA    WORD      j
      00000B45H   SYMBOL    EDATA    WORD      x
      00000B47H   SYMBOL    EDATA    WORD      y
      00000B49H   SYMBOL    EDATA    CHAR      dat
      00000B4AH   SYMBOL    EDATA    ---       a
      00000B4DH   SYMBOL    EDATA    BYTE      i
      00000B4EH   SYMBOL    EDATA    WORD      x
      00000B50H   SYMBOL    EDATA    WORD      y
      00000B52H   SYMBOL    EDATA    BYTE      dat
      00000B53H   SYMBOL    EDATA    ---       a
      00000B56H   SYMBOL    EDATA    BYTE      i
      000009A8H   SYMBOL    EDATA    WORD      x
      000009AAH   SYMBOL    EDATA    WORD      y
      000009ACH   SYMBOL    EDATA    INT       dat
      000009AEH   SYMBOL    EDATA    ---       a
      000009B3H   SYMBOL    EDATA    BYTE      i
      000009B4H   SYMBOL    EDATA    WORD      x
      000009B6H   SYMBOL    EDATA    WORD      y
      000009B8H   SYMBOL    EDATA    WORD      dat
L251 LINKER/LOCATER V4.66.93.0                                                        04/24/2024  17:02:24  PAGE 63


      000009BAH   SYMBOL    EDATA    ---       a
      000009BFH   SYMBOL    EDATA    BYTE      i
      000005E1H   SYMBOL    EDATA    WORD      x
      000005E3H   SYMBOL    EDATA    WORD      y
      000005E5H   SYMBOL    EDATA    LONG      dat
      000005E9H   SYMBOL    EDATA    BYTE      num
      000005EAH   SYMBOL    EDATA    ---       buff
      0000060CH   SYMBOL    EDATA    BYTE      length
      00000432H   SYMBOL    EDATA    WORD      x
      00000434H   SYMBOL    EDATA    WORD      y
      00000436H   SYMBOL    EDATA    FLOAT     dat
      0000043AH   SYMBOL    EDATA    BYTE      num
      0000043BH   SYMBOL    EDATA    BYTE      pointnum
      0000043CH   SYMBOL    EDATA    BYTE      length
      0000043DH   SYMBOL    EDATA    ---       buff
      0000045FH   SYMBOL    EDATA    CHAR      start
      00000460H   SYMBOL    EDATA    CHAR      end
      00000461H   SYMBOL    EDATA    CHAR      point
      00000E98H   SYMBOL    EDATA    BYTE      dat
      00000E99H   SYMBOL    EDATA    BYTE      dat
      00000DABH   SYMBOL    EDATA    WORD      dat
      00000DADH   SYMBOL    EDATA    ---       dat1
      00000C20H   SYMBOL    EDATA    WORD      x_start
      00000C22H   SYMBOL    EDATA    WORD      y_start
      00000C24H   SYMBOL    EDATA    WORD      x_end
      00000C26H   SYMBOL    EDATA    WORD      y_end
      00000DAFH   SYMBOL    EDATA    INT       color
      00000DB1H   SYMBOL    EDATA    BYTE      i
      00000DB2H   SYMBOL    EDATA    BYTE      j
      00000CBCH   SYMBOL    EDATA    WORD      x
      00000CBEH   SYMBOL    EDATA    WORD      y
      00000CC0H   SYMBOL    EDATA    WORD      color
      00000C28H   SYMBOL    EDATA    WORD      x
      00000C2AH   SYMBOL    EDATA    WORD      y
      00000C2CH   SYMBOL    EDATA    CHAR      dat
      00000C2DH   SYMBOL    EDATA    BYTE      i
      00000C2EH   SYMBOL    EDATA    BYTE      j
      00000C2FH   SYMBOL    EDATA    BYTE      temp
      00000AE1H   SYMBOL    EDATA    WORD      x
      00000AE3H   SYMBOL    EDATA    WORD      y
      00000AE5H   SYMBOL    EDATA    ---       dat
      00000AE9H   SYMBOL    EDATA    WORD      j
      00000B57H   SYMBOL    EDATA    WORD      x
      00000B59H   SYMBOL    EDATA    WORD      y
      00000B5BH   SYMBOL    EDATA    CHAR      dat
      00000B5CH   SYMBOL    EDATA    ---       a
      00000B5FH   SYMBOL    EDATA    BYTE      i
      00000B60H   SYMBOL    EDATA    WORD      x
      00000B62H   SYMBOL    EDATA    WORD      y
      00000B64H   SYMBOL    EDATA    BYTE      dat
      00000B65H   SYMBOL    EDATA    ---       a
      00000B68H   SYMBOL    EDATA    BYTE      i
      000009C0H   SYMBOL    EDATA    WORD      x
      000009C2H   SYMBOL    EDATA    WORD      y
      000009C4H   SYMBOL    EDATA    INT       dat
      000009C6H   SYMBOL    EDATA    ---       a
      000009CBH   SYMBOL    EDATA    BYTE      i
      000009CCH   SYMBOL    EDATA    WORD      x
      000009CEH   SYMBOL    EDATA    WORD      y
      000009D0H   SYMBOL    EDATA    WORD      dat
      000009D2H   SYMBOL    EDATA    ---       a
      000009D7H   SYMBOL    EDATA    BYTE      i
      0000060DH   SYMBOL    EDATA    WORD      x
      0000060FH   SYMBOL    EDATA    WORD      y
      00000611H   SYMBOL    EDATA    LONG      dat
L251 LINKER/LOCATER V4.66.93.0                                                        04/24/2024  17:02:24  PAGE 64


      00000615H   SYMBOL    EDATA    BYTE      num
      00000616H   SYMBOL    EDATA    ---       buff
      00000638H   SYMBOL    EDATA    BYTE      length
      00000462H   SYMBOL    EDATA    WORD      x
      00000464H   SYMBOL    EDATA    WORD      y
      00000466H   SYMBOL    EDATA    FLOAT     dat
      0000046AH   SYMBOL    EDATA    BYTE      num
      0000046BH   SYMBOL    EDATA    BYTE      pointnum
      0000046CH   SYMBOL    EDATA    BYTE      length
      0000046DH   SYMBOL    EDATA    ---       buff
      0000048FH   SYMBOL    EDATA    CHAR      start
      00000490H   SYMBOL    EDATA    CHAR      end
      00000491H   SYMBOL    EDATA    CHAR      point
      000009D8H   SYMBOL    EDATA    ---       p
      000009DCH   SYMBOL    EDATA    INT       i
      000009DEH   SYMBOL    EDATA    INT       j
      000009E0H   SYMBOL    EDATA    INT       k
      000009E2H   SYMBOL    EDATA    BYTE      picH
      000009E3H   SYMBOL    EDATA    BYTE      picL

      ---         MODULE    ---      ---       SEEKFREE_ABSOLUTE_ENCODER
      000000D0H   SFRSYM    DATA     BYTE      PSW
      0000009DH   SFRSYM    DATA     BYTE      IRCBAND
      00000097H   SFRSYM    DATA     BYTE      AUXR2
      000000EFH   SFRSYM    DATA     BYTE      AUXINTIF
      000000FDH   SFRSYM    DATA     BYTE      S4CON
      000000ACH   SFRSYM    DATA     BYTE      S3CON
      0000009AH   SFRSYM    DATA     BYTE      S2CON
      000000B7H   SFRSYM    DATA     BYTE      IPH
      000000CDH   SFRSYM    DATA     BYTE      SPSTAT
      000000DDH   SFRSYM    DATA     BYTE      T4T3M
      000000C1H   SFRSYM    DATA     BYTE      WDT_CONTR
      000000DFH   SFRSYM    DATA     BYTE      IP3
      000000F4H   SFRSYM    DATA     BYTE      USBCON
      000000B5H   SFRSYM    DATA     BYTE      IP2
      000000FFH   SFRSYM    DATA     BYTE      RSTCFG
      000000C7H   SFRSYM    DATA     BYTE      IAP_CONTR
      000000F9H   SFRSYM    DATA     BYTE      LINICR
      0000008EH   SFRSYM    DATA     BYTE      AUXR
      000000AFH   SFRSYM    DATA     BYTE      IE2
      000000A0H.7 SFRSYM    DATA     BIT       P27
      000000A0H.6 SFRSYM    DATA     BIT       P26
      000000A0H.5 SFRSYM    DATA     BIT       P25
      000000A0H.4 SFRSYM    DATA     BIT       P24
      00000088H   SFRSYM    DATA     BYTE      TCON
      00000089H   SFRSYM    DATA     BYTE      TMOD
      00000098H   SFRSYM    DATA     BYTE      SCON
      000000A0H.2 SFRSYM    DATA     BIT       P22
      000000F1H   SFRSYM    DATA     BYTE      CANICR
      00000087H   SFRSYM    DATA     BYTE      PCON
      000000BCH   SFRSYM    DATA     BYTE      ADC_CONTR
      000000E7H   SFRSYM    DATA     BYTE      CMPCR2
      000000E6H   SFRSYM    DATA     BYTE      CMPCR1
      000000DEH   SFRSYM    DATA     BYTE      ADCCFG
      000000B8H   SFRSYM    DATA     BYTE      IP
      0000008FH   SFRSYM    DATA     BYTE      INTCLKO
      000000EEH   SFRSYM    DATA     BYTE      IP3H
      000000B6H   SFRSYM    DATA     BYTE      IP2H
      000000A8H   SFRSYM    DATA     BYTE      IE
      000000BBH   SFRSYM    DATA     BYTE      P_SW3
      000000BAH   SFRSYM    DATA     BYTE      P_SW2
      000000A2H   SFRSYM    DATA     BYTE      P_SW1
      000000CEH   SFRSYM    DATA     BYTE      SPCTL
      000000F8H   SFRSYM    DATA     BYTE      P7
      000000E8H   SFRSYM    DATA     BYTE      P6
L251 LINKER/LOCATER V4.66.93.0                                                        04/24/2024  17:02:24  PAGE 65


      000000C8H   SFRSYM    DATA     BYTE      P5
      000000C0H   SFRSYM    DATA     BYTE      P4
      000000B0H   SFRSYM    DATA     BYTE      P3
      000000A0H   SFRSYM    DATA     BYTE      P2
      00000090H   SFRSYM    DATA     BYTE      P1
      00000080H   SFRSYM    DATA     BYTE      P0
      00000E40H   SYMBOL    EDATA    WORD      x
      00000E42H   SYMBOL    EDATA    BYTE      byte
      00000E43H   SYMBOL    EDATA    BYTE      i
      00000E44H   SYMBOL    EDATA    BYTE      cmd
      00000E45H   SYMBOL    EDATA    BYTE      val
      00000D45H   SYMBOL    EDATA    BYTE      cmd
      00000D46H   SYMBOL    EDATA    ---       val
      00000DF5H   SYMBOL    EDATA    BYTE      cmd
      00000DF6H   SYMBOL    EDATA    BYTE      val
      00000DF7H   SYMBOL    EDATA    BYTE      dat
      00000D4AH   SYMBOL    EDATA    BYTE      cmd
      00000D4BH   SYMBOL    EDATA    ---       val
      00000E46H   SYMBOL    EDATA    WORD      zero_position
      00000E48H   SYMBOL    EDATA    WORD      angle
      00000E9AH   SYMBOL    EDATA    BYTE      val
      00000E9BH   SYMBOL    EDATA    BYTE      byte
      00000E4AH   SYMBOL    EDATA    BYTE      cmd
      00000E4BH   SYMBOL    EDATA    BYTE      val
      00000D4FH   SYMBOL    EDATA    BYTE      cmd
      00000D50H   SYMBOL    EDATA    ---       val
      00000DF8H   SYMBOL    EDATA    BYTE      cmd
      00000DF9H   SYMBOL    EDATA    BYTE      val
      00000DFAH   SYMBOL    EDATA    BYTE      dat
      00000D54H   SYMBOL    EDATA    BYTE      cmd
      00000D55H   SYMBOL    EDATA    ---       val
      00000E4CH   SYMBOL    EDATA    WORD      zero_position
      00000E4EH   SYMBOL    EDATA    WORD      angle
      00000E9CH   SYMBOL    EDATA    BYTE      val

      ---         MODULE    ---      ---       SEEKFREE_BLUETOOTH_CH9141
      00FF0066H   PUBLIC    CODE     ---       bluetooth_ch9141_uart_callback
      000000D0H   SFRSYM    DATA     BYTE      PSW
      0000009DH   SFRSYM    DATA     BYTE      IRCBAND
      00000097H   SFRSYM    DATA     BYTE      AUXR2
      000000EFH   SFRSYM    DATA     BYTE      AUXINTIF
      000000FDH   SFRSYM    DATA     BYTE      S4CON
      000000ACH   SFRSYM    DATA     BYTE      S3CON
      0000009AH   SFRSYM    DATA     BYTE      S2CON
      000000FEH   SFRSYM    DATA     BYTE      S4BUF
      000000B7H   SFRSYM    DATA     BYTE      IPH
      000000CDH   SFRSYM    DATA     BYTE      SPSTAT
      000000DDH   SFRSYM    DATA     BYTE      T4T3M
      000000C1H   SFRSYM    DATA     BYTE      WDT_CONTR
      000000DFH   SFRSYM    DATA     BYTE      IP3
      000000F4H   SFRSYM    DATA     BYTE      USBCON
      000000B5H   SFRSYM    DATA     BYTE      IP2
      000000FFH   SFRSYM    DATA     BYTE      RSTCFG
      000000C7H   SFRSYM    DATA     BYTE      IAP_CONTR
      000000F9H   SFRSYM    DATA     BYTE      LINICR
      0000008EH   SFRSYM    DATA     BYTE      AUXR
      000000AFH   SFRSYM    DATA     BYTE      IE2
      00000080H.7 SFRSYM    DATA     BIT       P07
      00000088H   SFRSYM    DATA     BYTE      TCON
      00000089H   SFRSYM    DATA     BYTE      TMOD
      00000098H   SFRSYM    DATA     BYTE      SCON
      000000F1H   SFRSYM    DATA     BYTE      CANICR
      00000087H   SFRSYM    DATA     BYTE      PCON
      000000BCH   SFRSYM    DATA     BYTE      ADC_CONTR
      000000E7H   SFRSYM    DATA     BYTE      CMPCR2
L251 LINKER/LOCATER V4.66.93.0                                                        04/24/2024  17:02:24  PAGE 66


      000000E6H   SFRSYM    DATA     BYTE      CMPCR1
      000000DEH   SFRSYM    DATA     BYTE      ADCCFG
      000000B8H   SFRSYM    DATA     BYTE      IP
      0000008FH   SFRSYM    DATA     BYTE      INTCLKO
      000000EEH   SFRSYM    DATA     BYTE      IP3H
      000000B6H   SFRSYM    DATA     BYTE      IP2H
      000000A8H   SFRSYM    DATA     BYTE      IE
      000000BBH   SFRSYM    DATA     BYTE      P_SW3
      000000BAH   SFRSYM    DATA     BYTE      P_SW2
      000000A2H   SFRSYM    DATA     BYTE      P_SW1
      000000CEH   SFRSYM    DATA     BYTE      SPCTL
      000000F8H   SFRSYM    DATA     BYTE      P7
      000000E8H   SFRSYM    DATA     BYTE      P6
      000000C8H   SFRSYM    DATA     BYTE      P5
      000000C0H   SFRSYM    DATA     BYTE      P4
      000000B0H   SFRSYM    DATA     BYTE      P3
      000000A0H   SFRSYM    DATA     BYTE      P2
      00000090H   SFRSYM    DATA     BYTE      P1
      00000080H   SFRSYM    DATA     BYTE      P0
      00000350H   SYMBOL    EDATA    ---       bluetooth_ch9141_buffer
      00000390H   SYMBOL    EDATA    BYTE      bluetooth_ch9141_data
      00000391H   SYMBOL    EDATA    ---       bluetooth_ch9141_fifo

      00FF0066H   BLOCK     CODE     ---       LVL=0
      00FF0066H   LINE      CODE     ---       #67
      00FF0066H   LINE      CODE     ---       #70
      00FF006CH   LINE      CODE     ---       #71
      00FF007FH   LINE      CODE     ---       #72
      ---         BLOCKEND  ---      ---       LVL=0
      00000AEBH   SYMBOL    EDATA    ---       buff
      00000AEFH   SYMBOL    EDATA    DWORD     len
      00000AF3H   SYMBOL    EDATA    WORD      time_count
      000009E4H   SYMBOL    EDATA    ---       buff
      000009E8H   SYMBOL    EDATA    DWORD     len
      000009ECH   SYMBOL    EDATA    DWORD     data_len

      ---         MODULE    ---      ---       SEEKFREE_DL1A
      00000DFBH   PUBLIC    EDATA    WORD      dl1a_distance_mm
      00000DFDH   PUBLIC    EDATA    BYTE      dl1a_finsh_flag
      000000D0H   SFRSYM    DATA     BYTE      PSW
      0000009DH   SFRSYM    DATA     BYTE      IRCBAND
      00000097H   SFRSYM    DATA     BYTE      AUXR2
      000000EFH   SFRSYM    DATA     BYTE      AUXINTIF
      000000FDH   SFRSYM    DATA     BYTE      S4CON
      000000ACH   SFRSYM    DATA     BYTE      S3CON
      0000009AH   SFRSYM    DATA     BYTE      S2CON
      000000B7H   SFRSYM    DATA     BYTE      IPH
      000000CDH   SFRSYM    DATA     BYTE      SPSTAT
      000000DDH   SFRSYM    DATA     BYTE      T4T3M
      000000C1H   SFRSYM    DATA     BYTE      WDT_CONTR
      000000DFH   SFRSYM    DATA     BYTE      IP3
      000000F4H   SFRSYM    DATA     BYTE      USBCON
      000000B5H   SFRSYM    DATA     BYTE      IP2
      000000FFH   SFRSYM    DATA     BYTE      RSTCFG
      000000C7H   SFRSYM    DATA     BYTE      IAP_CONTR
      000000F9H   SFRSYM    DATA     BYTE      LINICR
      0000008EH   SFRSYM    DATA     BYTE      AUXR
      000000AFH   SFRSYM    DATA     BYTE      IE2
      00000090H.5 SFRSYM    DATA     BIT       P15
      000000A0H.4 SFRSYM    DATA     BIT       P24
      000000B0H.3 SFRSYM    DATA     BIT       P33
      00000088H   SFRSYM    DATA     BYTE      TCON
      00000089H   SFRSYM    DATA     BYTE      TMOD
      00000098H   SFRSYM    DATA     BYTE      SCON
      000000F1H   SFRSYM    DATA     BYTE      CANICR
L251 LINKER/LOCATER V4.66.93.0                                                        04/24/2024  17:02:24  PAGE 67


      00000087H   SFRSYM    DATA     BYTE      PCON
      000000BCH   SFRSYM    DATA     BYTE      ADC_CONTR
      000000E7H   SFRSYM    DATA     BYTE      CMPCR2
      000000E6H   SFRSYM    DATA     BYTE      CMPCR1
      000000DEH   SFRSYM    DATA     BYTE      ADCCFG
      000000B8H   SFRSYM    DATA     BYTE      IP
      0000008FH   SFRSYM    DATA     BYTE      INTCLKO
      000000EEH   SFRSYM    DATA     BYTE      IP3H
      000000B6H   SFRSYM    DATA     BYTE      IP2H
      000000A8H   SFRSYM    DATA     BYTE      IE
      000000BBH   SFRSYM    DATA     BYTE      P_SW3
      000000BAH   SFRSYM    DATA     BYTE      P_SW2
      000000A2H   SFRSYM    DATA     BYTE      P_SW1
      000000CEH   SFRSYM    DATA     BYTE      SPCTL
      000000F8H   SFRSYM    DATA     BYTE      P7
      000000E8H   SFRSYM    DATA     BYTE      P6
      000000C8H   SFRSYM    DATA     BYTE      P5
      000000C0H   SFRSYM    DATA     BYTE      P4
      000000B0H   SFRSYM    DATA     BYTE      P3
      000000A0H   SFRSYM    DATA     BYTE      P2
      00000090H   SFRSYM    DATA     BYTE      P1
      00000080H   SFRSYM    DATA     BYTE      P0
      00000E50H   SYMBOL    EDATA    WORD      j
      00000E9DH   SYMBOL    EDATA    BYTE      ack_dat
      00000E52H   SYMBOL    EDATA    BYTE      c
      00000E53H   SYMBOL    EDATA    BYTE      i
      00000DFEH   SYMBOL    EDATA    BYTE      ack_x
      00000DFFH   SYMBOL    EDATA    BYTE      i
      00000E00H   SYMBOL    EDATA    BYTE      c
      00000B69H   SYMBOL    EDATA    BYTE      dev_add
      00000B6AH   SYMBOL    EDATA    ---       dat
      00000B6EH   SYMBOL    EDATA    DWORD     len
      00000E01H   SYMBOL    EDATA    BYTE      dev_add
      00000E02H   SYMBOL    EDATA    BYTE      reg
      00000E03H   SYMBOL    EDATA    BYTE      dat
      00000E04H   SYMBOL    EDATA    BYTE      dev_add
      00000E05H   SYMBOL    EDATA    BYTE      reg
      00000E06H   SYMBOL    EDATA    BYTE      dat
      00000AF5H   SYMBOL    EDATA    BYTE      dev_add
      00000AF6H   SYMBOL    EDATA    BYTE      reg
      00000AF7H   SYMBOL    EDATA    ---       dat_add
      00000AFBH   SYMBOL    EDATA    DWORD     num
      00000AFFH   SYMBOL    EDATA    BYTE      dev_add
      00000B00H   SYMBOL    EDATA    BYTE      reg
      00000B01H   SYMBOL    EDATA    ---       dat_add
      00000B05H   SYMBOL    EDATA    DWORD     num
      000009F0H   SYMBOL    EDATA    ---       index
      000009F4H   SYMBOL    EDATA    ---       type_is_aperture
      000009F8H   SYMBOL    EDATA    BYTE      tmp
      000009F9H   SYMBOL    EDATA    BYTE      return_state
      000009FAH   SYMBOL    EDATA    WORD      loop_count
      00000C76H   SYMBOL    EDATA    WORD      timeout_period_mclks
      00000C78H   SYMBOL    EDATA    BYTE      vcsel_period_pclks
      00000C79H   SYMBOL    EDATA    DWORD     macro_period_ns
      00000B72H   SYMBOL    EDATA    DWORD     timeout_period_us
      00000B76H   SYMBOL    EDATA    BYTE      vcsel_period_pclks
      00000B77H   SYMBOL    EDATA    DWORD     macro_period_ns
      00000E54H   SYMBOL    EDATA    WORD      reg_val
      00000B09H   SYMBOL    EDATA    WORD      timeout_mclks
      00000B0BH   SYMBOL    EDATA    DWORD     ls_byte
      00000B0FH   SYMBOL    EDATA    WORD      ms_byte
      00000B11H   SYMBOL    EDATA    WORD      return_data
      00000D59H   SYMBOL    EDATA    ---       enables
      00000D5DH   SYMBOL    EDATA    BYTE      sequence_config
      00000E07H   SYMBOL    EDATA    INT       type
L251 LINKER/LOCATER V4.66.93.0                                                        04/24/2024  17:02:24  PAGE 68


      00000E09H   SYMBOL    EDATA    BYTE      data_buffer
      000009FCH   SYMBOL    EDATA    ---       enables
      00000A00H   SYMBOL    EDATA    ---       timeouts
      00000A04H   SYMBOL    EDATA    ---       reg_buffer
      00000A06H   SYMBOL    EDATA    WORD      reg16_buffer
      00000D5EH   SYMBOL    EDATA    BYTE      vhv_init_byte
      00000D5FH   SYMBOL    EDATA    BYTE      return_state
      00000D60H   SYMBOL    EDATA    BYTE      data_buffer
      00000D61H   SYMBOL    EDATA    WORD      loop_count
      000005B2H   SYMBOL    EDATA    DWORD     budget_us
      000005B6H   SYMBOL    EDATA    BYTE      return_state
      000005B7H   SYMBOL    EDATA    ---       data_buffer
      000005BAH   SYMBOL    EDATA    WORD      dat
      000005BCH   SYMBOL    EDATA    DWORD     used_budget_us
      000005C0H   SYMBOL    EDATA    DWORD     final_range_timeout_us
      000005C4H   SYMBOL    EDATA    WORD      final_range_timeout_mclks
      000005C6H   SYMBOL    EDATA    ---       enables
      000005CBH   SYMBOL    EDATA    ---       timeouts
      00000765H   SYMBOL    EDATA    ---       enables
      0000076AH   SYMBOL    EDATA    ---       timeouts
      00000780H   SYMBOL    EDATA    DWORD     budget_us
      00000B7BH   SYMBOL    EDATA    FLOAT     limit_mcps
      00000B7FH   SYMBOL    EDATA    ---       data_buffer
      00000B82H   SYMBOL    EDATA    WORD      limit_mcps_16bit
      00000E0AH   SYMBOL    EDATA    ---       reg_databuffer
      00000850H   SYMBOL    EDATA    DWORD     measurement_timing_budget_us
      00000854H   SYMBOL    EDATA    BYTE      stop_variable
      00000855H   SYMBOL    EDATA    BYTE      return_state
      00000856H   SYMBOL    EDATA    BYTE      reg_data_buffer
      00000857H   SYMBOL    EDATA    ---       ref_spad_map
      0000085DH   SYMBOL    EDATA    ---       data_buffer
      00000864H   SYMBOL    EDATA    BYTE      i

      ---         MODULE    ---      ---       SEEKFREE_FONT
      00FF212DH   PUBLIC    CODE     ---       oled_8x16
      00FF271DH   PUBLIC    CODE     ---       tft_ascii
      00FF2D0DH   PUBLIC    CODE     ---       oled_6x8
      000000D0H   SFRSYM    DATA     BYTE      PSW
      0000009DH   SFRSYM    DATA     BYTE      IRCBAND
      00000097H   SFRSYM    DATA     BYTE      AUXR2
      000000EFH   SFRSYM    DATA     BYTE      AUXINTIF
      000000FDH   SFRSYM    DATA     BYTE      S4CON
      000000ACH   SFRSYM    DATA     BYTE      S3CON
      0000009AH   SFRSYM    DATA     BYTE      S2CON
      000000B7H   SFRSYM    DATA     BYTE      IPH
      000000CDH   SFRSYM    DATA     BYTE      SPSTAT
      000000DDH   SFRSYM    DATA     BYTE      T4T3M
      000000C1H   SFRSYM    DATA     BYTE      WDT_CONTR
      000000DFH   SFRSYM    DATA     BYTE      IP3
      000000F4H   SFRSYM    DATA     BYTE      USBCON
      000000B5H   SFRSYM    DATA     BYTE      IP2
      000000FFH   SFRSYM    DATA     BYTE      RSTCFG
      000000C7H   SFRSYM    DATA     BYTE      IAP_CONTR
      000000F9H   SFRSYM    DATA     BYTE      LINICR
      0000008EH   SFRSYM    DATA     BYTE      AUXR
      000000AFH   SFRSYM    DATA     BYTE      IE2
      00000088H   SFRSYM    DATA     BYTE      TCON
      00000089H   SFRSYM    DATA     BYTE      TMOD
      00000098H   SFRSYM    DATA     BYTE      SCON
      000000F1H   SFRSYM    DATA     BYTE      CANICR
      00000087H   SFRSYM    DATA     BYTE      PCON
      000000BCH   SFRSYM    DATA     BYTE      ADC_CONTR
      000000E7H   SFRSYM    DATA     BYTE      CMPCR2
      000000E6H   SFRSYM    DATA     BYTE      CMPCR1
      000000DEH   SFRSYM    DATA     BYTE      ADCCFG
L251 LINKER/LOCATER V4.66.93.0                                                        04/24/2024  17:02:24  PAGE 69


      000000B8H   SFRSYM    DATA     BYTE      IP
      0000008FH   SFRSYM    DATA     BYTE      INTCLKO
      000000EEH   SFRSYM    DATA     BYTE      IP3H
      000000B6H   SFRSYM    DATA     BYTE      IP2H
      000000A8H   SFRSYM    DATA     BYTE      IE
      000000BBH   SFRSYM    DATA     BYTE      P_SW3
      000000BAH   SFRSYM    DATA     BYTE      P_SW2
      000000A2H   SFRSYM    DATA     BYTE      P_SW1
      000000CEH   SFRSYM    DATA     BYTE      SPCTL
      000000F8H   SFRSYM    DATA     BYTE      P7
      000000E8H   SFRSYM    DATA     BYTE      P6
      000000C8H   SFRSYM    DATA     BYTE      P5
      000000C0H   SFRSYM    DATA     BYTE      P4
      000000B0H   SFRSYM    DATA     BYTE      P3
      000000A0H   SFRSYM    DATA     BYTE      P2
      00000090H   SFRSYM    DATA     BYTE      P1
      00000080H   SFRSYM    DATA     BYTE      P0

      ---         MODULE    ---      ---       SEEKFREE_ICM20602
      00000A08H   PUBLIC    EDATA    INT       icm20602_acc_x
      00000A0AH   PUBLIC    EDATA    INT       icm20602_acc_y
      00000A0CH   PUBLIC    EDATA    INT       icm20602_acc_z
      00000A0EH   PUBLIC    EDATA    INT       icm20602_gyro_x
      00000A10H   PUBLIC    EDATA    INT       icm20602_gyro_y
      00000A12H   PUBLIC    EDATA    INT       icm20602_gyro_z
      000000D0H   SFRSYM    DATA     BYTE      PSW
      0000009DH   SFRSYM    DATA     BYTE      IRCBAND
      00000097H   SFRSYM    DATA     BYTE      AUXR2
      000000EFH   SFRSYM    DATA     BYTE      AUXINTIF
      000000FDH   SFRSYM    DATA     BYTE      S4CON
      000000ACH   SFRSYM    DATA     BYTE      S3CON
      0000009AH   SFRSYM    DATA     BYTE      S2CON
      000000B7H   SFRSYM    DATA     BYTE      IPH
      000000CDH   SFRSYM    DATA     BYTE      SPSTAT
      000000DDH   SFRSYM    DATA     BYTE      T4T3M
      000000C1H   SFRSYM    DATA     BYTE      WDT_CONTR
      000000DFH   SFRSYM    DATA     BYTE      IP3
      000000F4H   SFRSYM    DATA     BYTE      USBCON
      000000B5H   SFRSYM    DATA     BYTE      IP2
      000000FFH   SFRSYM    DATA     BYTE      RSTCFG
      000000C7H   SFRSYM    DATA     BYTE      IAP_CONTR
      000000F9H   SFRSYM    DATA     BYTE      LINICR
      0000008EH   SFRSYM    DATA     BYTE      AUXR
      000000AFH   SFRSYM    DATA     BYTE      IE2
      000000C0H.3 SFRSYM    DATA     BIT       P43
      000000C0H.2 SFRSYM    DATA     BIT       P42
      00000088H   SFRSYM    DATA     BYTE      TCON
      00000089H   SFRSYM    DATA     BYTE      TMOD
      000000C0H.1 SFRSYM    DATA     BIT       P41
      00000098H   SFRSYM    DATA     BYTE      SCON
      000000C0H.0 SFRSYM    DATA     BIT       P40
      000000F1H   SFRSYM    DATA     BYTE      CANICR
      00000087H   SFRSYM    DATA     BYTE      PCON
      000000BCH   SFRSYM    DATA     BYTE      ADC_CONTR
      000000E7H   SFRSYM    DATA     BYTE      CMPCR2
      000000E6H   SFRSYM    DATA     BYTE      CMPCR1
      000000DEH   SFRSYM    DATA     BYTE      ADCCFG
      000000B8H   SFRSYM    DATA     BYTE      IP
      0000008FH   SFRSYM    DATA     BYTE      INTCLKO
      000000EEH   SFRSYM    DATA     BYTE      IP3H
      000000B6H   SFRSYM    DATA     BYTE      IP2H
      000000A8H   SFRSYM    DATA     BYTE      IE
      000000BBH   SFRSYM    DATA     BYTE      P_SW3
      000000BAH   SFRSYM    DATA     BYTE      P_SW2
      000000A2H   SFRSYM    DATA     BYTE      P_SW1
L251 LINKER/LOCATER V4.66.93.0                                                        04/24/2024  17:02:24  PAGE 70


      000000CEH   SFRSYM    DATA     BYTE      SPCTL
      000000F8H   SFRSYM    DATA     BYTE      P7
      000000E8H   SFRSYM    DATA     BYTE      P6
      000000C8H   SFRSYM    DATA     BYTE      P5
      000000C0H   SFRSYM    DATA     BYTE      P4
      000000B0H   SFRSYM    DATA     BYTE      P3
      000000A0H   SFRSYM    DATA     BYTE      P2
      00000090H   SFRSYM    DATA     BYTE      P1
      00000080H   SFRSYM    DATA     BYTE      P0
      00000E56H   SYMBOL    EDATA    BYTE      byte
      00000E57H   SYMBOL    EDATA    BYTE      i
      00000E58H   SYMBOL    EDATA    BYTE      cmd
      00000E59H   SYMBOL    EDATA    BYTE      val
      00000D63H   SYMBOL    EDATA    BYTE      cmd
      00000D64H   SYMBOL    EDATA    ---       val
      00000982H   SYMBOL    EDATA    BYTE      cmd
      00000983H   SYMBOL    EDATA    ---       val
      00000987H   SYMBOL    EDATA    DWORD     num
      0000098BH   SYMBOL    EDATA    DWORD     i
      00000E5AH   SYMBOL    EDATA    BYTE      reg
      00000E5BH   SYMBOL    EDATA    BYTE      dat
      00000E5CH   SYMBOL    EDATA    BYTE      reg
      00000E5DH   SYMBOL    EDATA    BYTE      dat
      00000B84H   SYMBOL    EDATA    BYTE      reg
      00000B85H   SYMBOL    EDATA    ---       dat
      00000B89H   SYMBOL    EDATA    DWORD     len
      00000DB3H   SYMBOL    EDATA    BYTE      dat
      00000DB4H   SYMBOL    EDATA    BYTE      return_state
      00000DB5H   SYMBOL    EDATA    WORD      timeout_count
      00000CC2H   SYMBOL    EDATA    ---       dat
      00000CC8H   SYMBOL    EDATA    ---       dat
      00000CCEH   SYMBOL    EDATA    INT       acc_value
      00000CD0H   SYMBOL    EDATA    FLOAT     acc_data
      00000CD4H   SYMBOL    EDATA    INT       gyro_value
      00000CD6H   SYMBOL    EDATA    FLOAT     gyro_data
      00000DB7H   SYMBOL    EDATA    BYTE      val
      00000DB8H   SYMBOL    EDATA    BYTE      return_state
      00000DB9H   SYMBOL    EDATA    WORD      timeout_count

      ---         MODULE    ---      ---       SEEKFREE_IMU660RA
      00FF836CH   PUBLIC    CODE     ---       imu660ra_get_gyro
      00FF7713H   PUBLIC    CODE     ---       imu660ra_init
      00000A14H   PUBLIC    EDATA    INT       imu660ra_acc_x
      00000A16H   PUBLIC    EDATA    INT       imu660ra_acc_y
      00000A18H   PUBLIC    EDATA    INT       imu660ra_acc_z
      00000A1AH   PUBLIC    EDATA    INT       imu660ra_gyro_x
      00000A1CH   PUBLIC    EDATA    INT       imu660ra_gyro_y
      00000A1EH   PUBLIC    EDATA    INT       imu660ra_gyro_z
      000000D0H   SFRSYM    DATA     BYTE      PSW
      0000009DH   SFRSYM    DATA     BYTE      IRCBAND
      00000097H   SFRSYM    DATA     BYTE      AUXR2
      000000EFH   SFRSYM    DATA     BYTE      AUXINTIF
      000000FDH   SFRSYM    DATA     BYTE      S4CON
      000000ACH   SFRSYM    DATA     BYTE      S3CON
      0000009AH   SFRSYM    DATA     BYTE      S2CON
      000000B7H   SFRSYM    DATA     BYTE      IPH
      000000CDH   SFRSYM    DATA     BYTE      SPSTAT
      000000DDH   SFRSYM    DATA     BYTE      T4T3M
      000000C1H   SFRSYM    DATA     BYTE      WDT_CONTR
      000000DFH   SFRSYM    DATA     BYTE      IP3
      000000F4H   SFRSYM    DATA     BYTE      USBCON
      000000B5H   SFRSYM    DATA     BYTE      IP2
      000000FFH   SFRSYM    DATA     BYTE      RSTCFG
      000000C7H   SFRSYM    DATA     BYTE      IAP_CONTR
      000000F9H   SFRSYM    DATA     BYTE      LINICR
L251 LINKER/LOCATER V4.66.93.0                                                        04/24/2024  17:02:24  PAGE 71


      0000008EH   SFRSYM    DATA     BYTE      AUXR
      000000AFH   SFRSYM    DATA     BYTE      IE2
      00000088H   SFRSYM    DATA     BYTE      TCON
      00000089H   SFRSYM    DATA     BYTE      TMOD
      000000C0H.1 SFRSYM    DATA     BIT       P41
      00000098H   SFRSYM    DATA     BYTE      SCON
      000000C0H.0 SFRSYM    DATA     BIT       P40
      000000F1H   SFRSYM    DATA     BYTE      CANICR
      00000087H   SFRSYM    DATA     BYTE      PCON
      000000BCH   SFRSYM    DATA     BYTE      ADC_CONTR
      000000E7H   SFRSYM    DATA     BYTE      CMPCR2
      000000E6H   SFRSYM    DATA     BYTE      CMPCR1
      000000DEH   SFRSYM    DATA     BYTE      ADCCFG
      000000B8H   SFRSYM    DATA     BYTE      IP
      0000008FH   SFRSYM    DATA     BYTE      INTCLKO
      000000EEH   SFRSYM    DATA     BYTE      IP3H
      000000B6H   SFRSYM    DATA     BYTE      IP2H
      000000A8H   SFRSYM    DATA     BYTE      IE
      000000BBH   SFRSYM    DATA     BYTE      P_SW3
      000000BAH   SFRSYM    DATA     BYTE      P_SW2
      000000A2H   SFRSYM    DATA     BYTE      P_SW1
      000000CEH   SFRSYM    DATA     BYTE      SPCTL
      000000F8H   SFRSYM    DATA     BYTE      P7
      000000E8H   SFRSYM    DATA     BYTE      P6
      000000C8H   SFRSYM    DATA     BYTE      P5
      000000C0H   SFRSYM    DATA     BYTE      P4
      000000B0H   SFRSYM    DATA     BYTE      P3
      000000A0H   SFRSYM    DATA     BYTE      P2
      00000090H   SFRSYM    DATA     BYTE      P1
      00000080H   SFRSYM    DATA     BYTE      P0
      00FF89C8H   SYMBOL    CODE     ---       imu660ra_sccb_waitack
      00FF0026H   SYMBOL    CODE     ---       imu660ra_simiic_delay
      00FF850EH   SYMBOL    CODE     ---       imu660ra_self_check
      00FF8A78H   SYMBOL    CODE     ---       imu660ra_simiic_start
      00FF80C5H   SYMBOL    CODE     ---       imu660ra_simiic_read_regs
      00FF8750H   SYMBOL    CODE     ---       imu660ra_simiic_read_reg
      00FF84BFH   SYMBOL    CODE     ---       imu660ra_simiic_write_regs
      00FF8A4EH   SYMBOL    CODE     ---       imu660ra_simiic_stop
      00FF8898H   SYMBOL    CODE     ---       imu660ra_simiic_write_reg
      00FF88C2H   SYMBOL    CODE     ---       imu660ra_simiic_sendack
      00FF7FF1H   SYMBOL    CODE     ---       imu660ra_read_ch
      00FF863FH   SYMBOL    CODE     ---       imu660ra_send_ch

      00FF0026H   BLOCK     CODE     ---       LVL=0
      00000E5EH   SYMBOL    EDATA    WORD      j
      00FF0026H   LINE      CODE     ---       #74
      00FF0026H   LINE      CODE     ---       #75
      00FF0026H   LINE      CODE     ---       #76
      00FF002CH   LINE      CODE     ---       #77
      00FF0042H   LINE      CODE     ---       #78
      ---         BLOCKEND  ---      ---       LVL=0

      00FF8A78H   BLOCK     CODE     ---       LVL=0
      00FF8A78H   LINE      CODE     ---       #81
      00FF8A78H   LINE      CODE     ---       #83
      00FF8A7BH   LINE      CODE     ---       #84
      00FF8A7EH   LINE      CODE     ---       #85
      00FF8A81H   LINE      CODE     ---       #86
      00FF8A84H   LINE      CODE     ---       #87
      00FF8A87H   LINE      CODE     ---       #88
      00FF8A8AH   LINE      CODE     ---       #89
      ---         BLOCKEND  ---      ---       LVL=0

      00FF8A4EH   BLOCK     CODE     ---       LVL=0
      00FF8A4EH   LINE      CODE     ---       #92
L251 LINKER/LOCATER V4.66.93.0                                                        04/24/2024  17:02:24  PAGE 72


      00FF8A4EH   LINE      CODE     ---       #94
      00FF8A51H   LINE      CODE     ---       #95
      00FF8A54H   LINE      CODE     ---       #96
      00FF8A57H   LINE      CODE     ---       #97
      00FF8A5AH   LINE      CODE     ---       #98
      00FF8A5DH   LINE      CODE     ---       #99
      00FF8A60H   LINE      CODE     ---       #100
      00FF8A63H   LINE      CODE     ---       #101
      ---         BLOCKEND  ---      ---       LVL=0

      00FF88C2H   BLOCK     CODE     ---       LVL=0
      00000E9EH   SYMBOL    EDATA    BYTE      ack_dat
      00FF88C2H   LINE      CODE     ---       #105
      00FF88C6H   LINE      CODE     ---       #107
      00FF88C9H   LINE      CODE     ---       #108
      00FF88CCH   LINE      CODE     ---       #109
      00FF88DAH   LINE      CODE     ---       #110
      00FF88DDH   LINE      CODE     ---       #112
      00FF88E0H   LINE      CODE     ---       #113
      00FF88E3H   LINE      CODE     ---       #114
      00FF88E6H   LINE      CODE     ---       #115
      00FF88E9H   LINE      CODE     ---       #116
      ---         BLOCKEND  ---      ---       LVL=0

      00FF89C8H   BLOCK     CODE     ---       LVL=0
      00FF89C8H   LINE      CODE     ---       #119
      00FF89C8H   LINE      CODE     ---       #121
      00FF89CBH   LINE      CODE     ---       #123
      00FF89CEH   LINE      CODE     ---       #125
      00FF89D1H   LINE      CODE     ---       #126
      00FF89D4H   LINE      CODE     ---       #128
      00FF89D7H   LINE      CODE     ---       #131
      00FF89DAH   LINE      CODE     ---       #132
      00FF89DEH   LINE      CODE     ---       #133
      00FF89DEH   LINE      CODE     ---       #135
      00FF89E1H   LINE      CODE     ---       #136
      00FF89E4H   LINE      CODE     ---       #137
      00FF89E8H   LINE      CODE     ---       #138
      ---         BLOCKEND  ---      ---       LVL=0

      00FF863FH   BLOCK     CODE     ---       LVL=0
      00000E60H   SYMBOL    EDATA    BYTE      c
      00FF8643H   BLOCK     CODE     NEAR LAB  LVL=1
      00000E61H   SYMBOL    EDATA    BYTE      i
      ---         BLOCKEND  ---      ---       LVL=1
      00FF863FH   LINE      CODE     ---       #144
      00FF8643H   LINE      CODE     ---       #145
      00FF8643H   LINE      CODE     ---       #146
      00FF8649H   LINE      CODE     ---       #147
      00FF864BH   LINE      CODE     ---       #149
      00FF8657H   LINE      CODE     ---       #150
      00FF865AH   LINE      CODE     ---       #151
      00FF8664H   LINE      CODE     ---       #152
      00FF8667H   LINE      CODE     ---       #153
      00FF866AH   LINE      CODE     ---       #154
      00FF866DH   LINE      CODE     ---       #155
      00FF8670H   LINE      CODE     ---       #156
      00FF8684H   LINE      CODE     ---       #157
      00FF8687H   LINE      CODE     ---       #158
      ---         BLOCKEND  ---      ---       LVL=0

      00FF7FF1H   BLOCK     CODE     ---       LVL=0
      00000E0DH   SYMBOL    EDATA    BYTE      ack_x
      00FF7FF5H   BLOCK     CODE     NEAR LAB  LVL=1
      00000E0EH   SYMBOL    EDATA    BYTE      i
L251 LINKER/LOCATER V4.66.93.0                                                        04/24/2024  17:02:24  PAGE 73


      00000E0FH   SYMBOL    EDATA    BYTE      c
      ---         BLOCKEND  ---      ---       LVL=1
      00FF7FF1H   LINE      CODE     ---       #164
      00FF7FF5H   LINE      CODE     ---       #165
      00FF7FF5H   LINE      CODE     ---       #168
      00FF7FFAH   LINE      CODE     ---       #169
      00FF7FFDH   LINE      CODE     ---       #170
      00FF8000H   LINE      CODE     ---       #171
      00FF8003H   LINE      CODE     ---       #173
      00FF800AH   LINE      CODE     ---       #175
      00FF800DH   LINE      CODE     ---       #176
      00FF8010H   LINE      CODE     ---       #177
      00FF8013H   LINE      CODE     ---       #178
      00FF8016H   LINE      CODE     ---       #179
      00FF8019H   LINE      CODE     ---       #180
      00FF8023H   LINE      CODE     ---       #181
      00FF8026H   LINE      CODE     ---       #183
      00FF8032H   LINE      CODE     ---       #184
      00FF8049H   LINE      CODE     ---       #187
      00FF804CH   LINE      CODE     ---       #188
      00FF804FH   LINE      CODE     ---       #189
      00FF8056H   LINE      CODE     ---       #191
      00FF805AH   LINE      CODE     ---       #192
      ---         BLOCKEND  ---      ---       LVL=0

      00FF8898H   BLOCK     CODE     ---       LVL=0
      00000E10H   SYMBOL    EDATA    BYTE      dev_add
      00000E11H   SYMBOL    EDATA    BYTE      reg
      00000E12H   SYMBOL    EDATA    BYTE      dat
      00FF8898H   LINE      CODE     ---       #204
      00FF88A4H   LINE      CODE     ---       #206
      00FF88A7H   LINE      CODE     ---       #207
      00FF88B0H   LINE      CODE     ---       #208
      00FF88B7H   LINE      CODE     ---       #209
      00FF88BEH   LINE      CODE     ---       #210
      00FF88C1H   LINE      CODE     ---       #211
      ---         BLOCKEND  ---      ---       LVL=0

      00FF84BFH   BLOCK     CODE     ---       LVL=0
      00000A20H   SYMBOL    EDATA    BYTE      dev_add
      00000A21H   SYMBOL    EDATA    BYTE      reg
      00000A22H   SYMBOL    EDATA    ---       dat
      00000A26H   SYMBOL    EDATA    DWORD     len
      00FF84CBH   BLOCK     CODE     NEAR LAB  LVL=1
      00000A2AH   SYMBOL    EDATA    WORD      i
      ---         BLOCKEND  ---      ---       LVL=1
      00FF84BFH   LINE      CODE     ---       #222
      00FF84CBH   LINE      CODE     ---       #223
      00FF84CBH   LINE      CODE     ---       #224
      00FF84D1H   LINE      CODE     ---       #225
      00FF84D4H   LINE      CODE     ---       #226
      00FF84DDH   LINE      CODE     ---       #227
      00FF84E4H   LINE      CODE     ---       #229
      00FF84E6H   LINE      CODE     ---       #231
      00FF84F6H   LINE      CODE     ---       #232
      00FF850AH   LINE      CODE     ---       #235
      00FF850DH   LINE      CODE     ---       #236
      ---         BLOCKEND  ---      ---       LVL=0

      00FF8750H   BLOCK     CODE     ---       LVL=0
      00000E13H   SYMBOL    EDATA    BYTE      dev_add
      00000E14H   SYMBOL    EDATA    BYTE      reg
      00FF8758H   BLOCK     CODE     NEAR LAB  LVL=1
      00000E15H   SYMBOL    EDATA    BYTE      dat
      ---         BLOCKEND  ---      ---       LVL=1
L251 LINKER/LOCATER V4.66.93.0                                                        04/24/2024  17:02:24  PAGE 74


      00FF8750H   LINE      CODE     ---       #246
      00FF8758H   LINE      CODE     ---       #247
      00FF8758H   LINE      CODE     ---       #249
      00FF875BH   LINE      CODE     ---       #250
      00FF8764H   LINE      CODE     ---       #251
      00FF876BH   LINE      CODE     ---       #253
      00FF876EH   LINE      CODE     ---       #254
      00FF877BH   LINE      CODE     ---       #255
      00FF8783H   LINE      CODE     ---       #256
      00FF8786H   LINE      CODE     ---       #258
      00FF878AH   LINE      CODE     ---       #259
      ---         BLOCKEND  ---      ---       LVL=0

      00FF80C5H   BLOCK     CODE     ---       LVL=0
      00000B13H   SYMBOL    EDATA    BYTE      dev_add
      00000B14H   SYMBOL    EDATA    BYTE      reg
      00000B15H   SYMBOL    EDATA    ---       dat_add
      00000B19H   SYMBOL    EDATA    DWORD     num
      00FF80C5H   LINE      CODE     ---       #272
      00FF80D1H   LINE      CODE     ---       #274
      00FF80D4H   LINE      CODE     ---       #275
      00FF80DDH   LINE      CODE     ---       #276
      00FF80E4H   LINE      CODE     ---       #278
      00FF80E7H   LINE      CODE     ---       #279
      00FF80F4H   LINE      CODE     ---       #280
      00FF80F6H   LINE      CODE     ---       #282
      00FF8102H   LINE      CODE     ---       #283
      00FF810CH   LINE      CODE     ---       #284
      00FF811EH   LINE      CODE     ---       #285
      00FF8129H   LINE      CODE     ---       #286
      00FF812CH   LINE      CODE     ---       #287
      ---         BLOCKEND  ---      ---       LVL=0

      00FF850EH   BLOCK     CODE     ---       LVL=0
      00000DBBH   SYMBOL    EDATA    BYTE      dat
      00000DBCH   SYMBOL    EDATA    BYTE      return_state
      00000DBDH   SYMBOL    EDATA    WORD      timeout_count
      00FF850EH   LINE      CODE     ---       #466
      00FF850EH   LINE      CODE     ---       #467
      00FF850EH   LINE      CODE     ---       #468
      00FF8518H   LINE      CODE     ---       #469
      00FF851EH   LINE      CODE     ---       #470
      00FF851EH   LINE      CODE     ---       #472
      00FF8534H   LINE      CODE     ---       #474
      00FF853AH   LINE      CODE     ---       #475
      00FF853CH   LINE      CODE     ---       #476
      00FF853CH   LINE      CODE     ---       #477
      00FF8547H   LINE      CODE     ---       #478
      00FF854EH   LINE      CODE     ---       #479
      00FF8557H   LINE      CODE     ---       #480
      00FF855BH   LINE      CODE     ---       #481
      ---         BLOCKEND  ---      ---       LVL=0
      00000CDAH   SYMBOL    EDATA    ---       dat

      00FF836CH   BLOCK     CODE     ---       LVL=0
      00000CE0H   SYMBOL    EDATA    ---       dat
      00FF836CH   LINE      CODE     ---       #516
      00FF836CH   LINE      CODE     ---       #517
      00FF836CH   LINE      CODE     ---       #520
      00FF8380H   LINE      CODE     ---       #521
      00FF8396H   LINE      CODE     ---       #522
      00FF83ACH   LINE      CODE     ---       #523
      00FF83C2H   LINE      CODE     ---       #532
      ---         BLOCKEND  ---      ---       LVL=0
      00000CE6H   SYMBOL    EDATA    INT       acc_value
L251 LINKER/LOCATER V4.66.93.0                                                        04/24/2024  17:02:24  PAGE 75


      00000CE8H   SYMBOL    EDATA    FLOAT     acc_dat
      00000CECH   SYMBOL    EDATA    INT       gyro_value
      00000CEEH   SYMBOL    EDATA    FLOAT     gyro_dat

      00FF7713H   BLOCK     CODE     ---       LVL=0
      00000E9FH   SYMBOL    EDATA    BYTE      return_state
      00FF7713H   LINE      CODE     ---       #584
      00FF7713H   LINE      CODE     ---       #585
      00FF7713H   LINE      CODE     ---       #586
      00FF7718H   LINE      CODE     ---       #588
      00FF771FH   LINE      CODE     ---       #599
      00FF771FH   LINE      CODE     ---       #600
      00FF7727H   LINE      CODE     ---       #605
      00FF7727H   LINE      CODE     ---       #607
      00FF7732H   LINE      CODE     ---       #608
      00FF7739H   LINE      CODE     ---       #609
      00FF773BH   LINE      CODE     ---       #610
      00FF7741H   LINE      CODE     ---       #612
      00FF7741H   LINE      CODE     ---       #614
      00FF774BH   LINE      CODE     ---       #615
      00FF7752H   LINE      CODE     ---       #616
      00FF775CH   LINE      CODE     ---       #617
      00FF7774H   LINE      CODE     ---       #618
      00FF777FH   LINE      CODE     ---       #619
      00FF7786H   LINE      CODE     ---       #620
      00FF7793H   LINE      CODE     ---       #627
      00FF779EH   LINE      CODE     ---       #630
      00FF77A4H   LINE      CODE     ---       #632
      00FF77A4H   LINE      CODE     ---       #633
      00FF77AFH   LINE      CODE     ---       #634
      00FF77BAH   LINE      CODE     ---       #635
      00FF77C5H   LINE      CODE     ---       #637
      00FF77D0H   LINE      CODE     ---       #645
      00FF77DAH   LINE      CODE     ---       #654
      00FF77DAH   LINE      CODE     ---       #658
      00FF77DEH   LINE      CODE     ---       #659
      ---         BLOCKEND  ---      ---       LVL=0

      ---         MODULE    ---      ---       SEEKFREE_IMU963RA
      000008C8H   PUBLIC    EDATA    INT       imu963ra_acc_x
      000008CAH   PUBLIC    EDATA    INT       imu963ra_acc_y
      000008CCH   PUBLIC    EDATA    INT       imu963ra_acc_z
      000008CEH   PUBLIC    EDATA    INT       imu963ra_mag_x
      000008D0H   PUBLIC    EDATA    INT       imu963ra_mag_y
      000008D2H   PUBLIC    EDATA    INT       imu963ra_mag_z
      000008D4H   PUBLIC    EDATA    INT       imu963ra_gyro_x
      000008D6H   PUBLIC    EDATA    INT       imu963ra_gyro_y
      000008D8H   PUBLIC    EDATA    INT       imu963ra_gyro_z
      000000D0H   SFRSYM    DATA     BYTE      PSW
      0000009DH   SFRSYM    DATA     BYTE      IRCBAND
      00000097H   SFRSYM    DATA     BYTE      AUXR2
      000000EFH   SFRSYM    DATA     BYTE      AUXINTIF
      000000FDH   SFRSYM    DATA     BYTE      S4CON
      000000ACH   SFRSYM    DATA     BYTE      S3CON
      0000009AH   SFRSYM    DATA     BYTE      S2CON
      000000B7H   SFRSYM    DATA     BYTE      IPH
      000000CDH   SFRSYM    DATA     BYTE      SPSTAT
      000000DDH   SFRSYM    DATA     BYTE      T4T3M
      000000C1H   SFRSYM    DATA     BYTE      WDT_CONTR
      000000DFH   SFRSYM    DATA     BYTE      IP3
      000000F4H   SFRSYM    DATA     BYTE      USBCON
      000000B5H   SFRSYM    DATA     BYTE      IP2
      000000FFH   SFRSYM    DATA     BYTE      RSTCFG
      000000C7H   SFRSYM    DATA     BYTE      IAP_CONTR
      000000F9H   SFRSYM    DATA     BYTE      LINICR
L251 LINKER/LOCATER V4.66.93.0                                                        04/24/2024  17:02:24  PAGE 76


      0000008EH   SFRSYM    DATA     BYTE      AUXR
      000000AFH   SFRSYM    DATA     BYTE      IE2
      000000C0H.3 SFRSYM    DATA     BIT       P43
      000000C0H.2 SFRSYM    DATA     BIT       P42
      00000088H   SFRSYM    DATA     BYTE      TCON
      00000089H   SFRSYM    DATA     BYTE      TMOD
      000000C0H.1 SFRSYM    DATA     BIT       P41
      00000098H   SFRSYM    DATA     BYTE      SCON
      000000C0H.0 SFRSYM    DATA     BIT       P40
      000000F1H   SFRSYM    DATA     BYTE      CANICR
      00000087H   SFRSYM    DATA     BYTE      PCON
      000000BCH   SFRSYM    DATA     BYTE      ADC_CONTR
      000000E7H   SFRSYM    DATA     BYTE      CMPCR2
      000000E6H   SFRSYM    DATA     BYTE      CMPCR1
      000000DEH   SFRSYM    DATA     BYTE      ADCCFG
      000000B8H   SFRSYM    DATA     BYTE      IP
      0000008FH   SFRSYM    DATA     BYTE      INTCLKO
      000000EEH   SFRSYM    DATA     BYTE      IP3H
      000000B6H   SFRSYM    DATA     BYTE      IP2H
      000000A8H   SFRSYM    DATA     BYTE      IE
      000000BBH   SFRSYM    DATA     BYTE      P_SW3
      000000BAH   SFRSYM    DATA     BYTE      P_SW2
      000000A2H   SFRSYM    DATA     BYTE      P_SW1
      000000CEH   SFRSYM    DATA     BYTE      SPCTL
      000000F8H   SFRSYM    DATA     BYTE      P7
      000000E8H   SFRSYM    DATA     BYTE      P6
      000000C8H   SFRSYM    DATA     BYTE      P5
      000000C0H   SFRSYM    DATA     BYTE      P4
      000000B0H   SFRSYM    DATA     BYTE      P3
      000000A0H   SFRSYM    DATA     BYTE      P2
      00000090H   SFRSYM    DATA     BYTE      P1
      00000080H   SFRSYM    DATA     BYTE      P0
      00000E62H   SYMBOL    EDATA    BYTE      byte
      00000E63H   SYMBOL    EDATA    BYTE      i
      00000E64H   SYMBOL    EDATA    BYTE      cmd
      00000E65H   SYMBOL    EDATA    BYTE      val
      00000D68H   SYMBOL    EDATA    BYTE      cmd
      00000D69H   SYMBOL    EDATA    ---       val
      00000B8DH   SYMBOL    EDATA    BYTE      cmd
      00000B8EH   SYMBOL    EDATA    ---       val
      00000B92H   SYMBOL    EDATA    DWORD     num
      00000E66H   SYMBOL    EDATA    BYTE      reg
      00000E67H   SYMBOL    EDATA    BYTE      dat
      00000E68H   SYMBOL    EDATA    BYTE      reg
      00000E69H   SYMBOL    EDATA    BYTE      dat
      00000B96H   SYMBOL    EDATA    BYTE      reg
      00000B97H   SYMBOL    EDATA    ---       dat
      00000B9BH   SYMBOL    EDATA    DWORD     len
      00000CF2H   SYMBOL    EDATA    BYTE      addr
      00000CF3H   SYMBOL    EDATA    BYTE      reg
      00000CF4H   SYMBOL    EDATA    BYTE      dat
      00000CF5H   SYMBOL    EDATA    BYTE      return_state
      00000CF6H   SYMBOL    EDATA    WORD      timeout_count
      00000DBFH   SYMBOL    EDATA    BYTE      addr
      00000DC0H   SYMBOL    EDATA    BYTE      reg
      00000DC1H   SYMBOL    EDATA    WORD      timeout_count
      00000E6AH   SYMBOL    EDATA    BYTE      addr
      00000E6BH   SYMBOL    EDATA    BYTE      reg
      00000DC3H   SYMBOL    EDATA    BYTE      return_state
      00000DC4H   SYMBOL    EDATA    BYTE      dat
      00000DC5H   SYMBOL    EDATA    WORD      timeout_count
      00000DC7H   SYMBOL    EDATA    BYTE      return_state
      00000DC8H   SYMBOL    EDATA    BYTE      dat
      00000DC9H   SYMBOL    EDATA    WORD      timeout_count
      00000CF8H   SYMBOL    EDATA    ---       dat
L251 LINKER/LOCATER V4.66.93.0                                                        04/24/2024  17:02:24  PAGE 77


      00000CFEH   SYMBOL    EDATA    ---       dat
      00000C7DH   SYMBOL    EDATA    BYTE      temp_status
      00000C7EH   SYMBOL    EDATA    ---       dat
      00000D04H   SYMBOL    EDATA    INT       acc_value
      00000D06H   SYMBOL    EDATA    FLOAT     acc_dat
      00000D0AH   SYMBOL    EDATA    INT       gyro_value
      00000D0CH   SYMBOL    EDATA    FLOAT     gyro_dat
      00000D10H   SYMBOL    EDATA    INT       mag_value
      00000D12H   SYMBOL    EDATA    FLOAT     mag_dat
      00000EA0H   SYMBOL    EDATA    BYTE      return_state

      ---         MODULE    ---      ---       SEEKFREE_IPS114_SPI
      00000492H   PUBLIC    EDATA    BYTE      ?ips114_showfloat_simspi?BYTE
      000004C2H   PUBLIC    EDATA    BYTE      ?ips114_showfloat?BYTE
      000000D0H   SFRSYM    DATA     BYTE      PSW
      0000009DH   SFRSYM    DATA     BYTE      IRCBAND
      00000097H   SFRSYM    DATA     BYTE      AUXR2
      000000EFH   SFRSYM    DATA     BYTE      AUXINTIF
      000000FDH   SFRSYM    DATA     BYTE      S4CON
      000000ACH   SFRSYM    DATA     BYTE      S3CON
      0000009AH   SFRSYM    DATA     BYTE      S2CON
      000000B7H   SFRSYM    DATA     BYTE      IPH
      000000CDH   SFRSYM    DATA     BYTE      SPSTAT
      000000DDH   SFRSYM    DATA     BYTE      T4T3M
      000000C1H   SFRSYM    DATA     BYTE      WDT_CONTR
      000000DFH   SFRSYM    DATA     BYTE      IP3
      000000F4H   SFRSYM    DATA     BYTE      USBCON
      000000B5H   SFRSYM    DATA     BYTE      IP2
      000000FFH   SFRSYM    DATA     BYTE      RSTCFG
      000000C7H   SFRSYM    DATA     BYTE      IAP_CONTR
      000000F9H   SFRSYM    DATA     BYTE      LINICR
      0000008EH   SFRSYM    DATA     BYTE      AUXR
      000000AFH   SFRSYM    DATA     BYTE      IE2
      000000A0H.7 SFRSYM    DATA     BIT       P27
      000000A0H.5 SFRSYM    DATA     BIT       P25
      00000088H   SFRSYM    DATA     BYTE      TCON
      00000089H   SFRSYM    DATA     BYTE      TMOD
      000000A0H.3 SFRSYM    DATA     BIT       P23
      00000098H   SFRSYM    DATA     BYTE      SCON
      000000A0H.2 SFRSYM    DATA     BIT       P22
      000000A0H.1 SFRSYM    DATA     BIT       P21
      000000A0H.0 SFRSYM    DATA     BIT       P20
      000000F1H   SFRSYM    DATA     BYTE      CANICR
      00000087H   SFRSYM    DATA     BYTE      PCON
      000000BCH   SFRSYM    DATA     BYTE      ADC_CONTR
      000000E7H   SFRSYM    DATA     BYTE      CMPCR2
      000000E6H   SFRSYM    DATA     BYTE      CMPCR1
      000000DEH   SFRSYM    DATA     BYTE      ADCCFG
      000000B8H   SFRSYM    DATA     BYTE      IP
      0000008FH   SFRSYM    DATA     BYTE      INTCLKO
      000000EEH   SFRSYM    DATA     BYTE      IP3H
      000000B6H   SFRSYM    DATA     BYTE      IP2H
      000000A8H   SFRSYM    DATA     BYTE      IE
      000000BBH   SFRSYM    DATA     BYTE      P_SW3
      000000BAH   SFRSYM    DATA     BYTE      P_SW2
      000000A2H   SFRSYM    DATA     BYTE      P_SW1
      000000CEH   SFRSYM    DATA     BYTE      SPCTL
      000000F8H   SFRSYM    DATA     BYTE      P7
      000000E8H   SFRSYM    DATA     BYTE      P6
      000000C8H   SFRSYM    DATA     BYTE      P5
      000000C0H   SFRSYM    DATA     BYTE      P4
      000000B0H   SFRSYM    DATA     BYTE      P3
      000000A0H   SFRSYM    DATA     BYTE      P2
      00000090H   SFRSYM    DATA     BYTE      P1
      00000080H   SFRSYM    DATA     BYTE      P0
L251 LINKER/LOCATER V4.66.93.0                                                        04/24/2024  17:02:24  PAGE 78


      00000E6CH   SYMBOL    EDATA    BYTE      dat
      00000E6DH   SYMBOL    EDATA    BYTE      i
      00000E6EH   SYMBOL    EDATA    BYTE      dat
      00000E6FH   SYMBOL    EDATA    BYTE      i
      00000E16H   SYMBOL    EDATA    WORD      dat
      00000E18H   SYMBOL    EDATA    BYTE      i
      00000C30H   SYMBOL    EDATA    WORD      x1
      00000C32H   SYMBOL    EDATA    WORD      y1
      00000C34H   SYMBOL    EDATA    WORD      x2
      00000C36H   SYMBOL    EDATA    WORD      y2
      00000D16H   SYMBOL    EDATA    WORD      color
      00000D18H   SYMBOL    EDATA    WORD      i
      00000D1AH   SYMBOL    EDATA    WORD      j
      00000D1CH   SYMBOL    EDATA    WORD      x
      00000D1EH   SYMBOL    EDATA    WORD      y
      00000D20H   SYMBOL    EDATA    WORD      color
      00000C38H   SYMBOL    EDATA    WORD      x
      00000C3AH   SYMBOL    EDATA    WORD      y
      00000C3CH   SYMBOL    EDATA    CHAR      dat
      00000C3DH   SYMBOL    EDATA    BYTE      i
      00000C3EH   SYMBOL    EDATA    BYTE      j
      00000C3FH   SYMBOL    EDATA    BYTE      temp
      00000B1DH   SYMBOL    EDATA    WORD      x
      00000B1FH   SYMBOL    EDATA    WORD      y
      00000B21H   SYMBOL    EDATA    ---       dat
      00000B25H   SYMBOL    EDATA    WORD      j
      00000B9FH   SYMBOL    EDATA    WORD      x
      00000BA1H   SYMBOL    EDATA    WORD      y
      00000BA3H   SYMBOL    EDATA    CHAR      dat
      00000BA4H   SYMBOL    EDATA    ---       a
      00000BA7H   SYMBOL    EDATA    BYTE      i
      00000BA8H   SYMBOL    EDATA    WORD      x
      00000BAAH   SYMBOL    EDATA    WORD      y
      00000BACH   SYMBOL    EDATA    BYTE      dat
      00000BADH   SYMBOL    EDATA    ---       a
      00000BB0H   SYMBOL    EDATA    BYTE      i
      00000A2CH   SYMBOL    EDATA    WORD      x
      00000A2EH   SYMBOL    EDATA    WORD      y
      00000A30H   SYMBOL    EDATA    INT       dat
      00000A32H   SYMBOL    EDATA    ---       a
      00000A37H   SYMBOL    EDATA    BYTE      i
      00000A38H   SYMBOL    EDATA    WORD      x
      00000A3AH   SYMBOL    EDATA    WORD      y
      00000A3CH   SYMBOL    EDATA    WORD      dat
      00000A3EH   SYMBOL    EDATA    ---       a
      00000A43H   SYMBOL    EDATA    BYTE      i
      00000639H   SYMBOL    EDATA    WORD      x
      0000063BH   SYMBOL    EDATA    WORD      y
      0000063DH   SYMBOL    EDATA    LONG      dat
      00000641H   SYMBOL    EDATA    BYTE      num
      00000642H   SYMBOL    EDATA    ---       buff
      00000664H   SYMBOL    EDATA    BYTE      length
      00000492H   SYMBOL    EDATA    WORD      x
      00000494H   SYMBOL    EDATA    WORD      y
      00000496H   SYMBOL    EDATA    FLOAT     dat
      0000049AH   SYMBOL    EDATA    BYTE      num
      0000049BH   SYMBOL    EDATA    BYTE      pointnum
      0000049CH   SYMBOL    EDATA    BYTE      length
      0000049DH   SYMBOL    EDATA    ---       buff
      000004BFH   SYMBOL    EDATA    CHAR      start
      000004C0H   SYMBOL    EDATA    CHAR      end
      000004C1H   SYMBOL    EDATA    CHAR      point
      00000EA1H   SYMBOL    EDATA    BYTE      dat
      00000EA2H   SYMBOL    EDATA    BYTE      dat
      00000DCBH   SYMBOL    EDATA    WORD      dat
L251 LINKER/LOCATER V4.66.93.0                                                        04/24/2024  17:02:24  PAGE 79


      00000DCDH   SYMBOL    EDATA    ---       dat1
      00000C40H   SYMBOL    EDATA    WORD      x1
      00000C42H   SYMBOL    EDATA    WORD      y1
      00000C44H   SYMBOL    EDATA    WORD      x2
      00000C46H   SYMBOL    EDATA    WORD      y2
      00000D22H   SYMBOL    EDATA    WORD      color
      00000D24H   SYMBOL    EDATA    WORD      i
      00000D26H   SYMBOL    EDATA    WORD      j
      00000D28H   SYMBOL    EDATA    WORD      x
      00000D2AH   SYMBOL    EDATA    WORD      y
      00000D2CH   SYMBOL    EDATA    WORD      color
      00000C48H   SYMBOL    EDATA    WORD      x
      00000C4AH   SYMBOL    EDATA    WORD      y
      00000C4CH   SYMBOL    EDATA    CHAR      dat
      00000C4DH   SYMBOL    EDATA    BYTE      i
      00000C4EH   SYMBOL    EDATA    BYTE      j
      00000C4FH   SYMBOL    EDATA    BYTE      temp
      00000B27H   SYMBOL    EDATA    WORD      x
      00000B29H   SYMBOL    EDATA    WORD      y
      00000B2BH   SYMBOL    EDATA    ---       dat
      00000B2FH   SYMBOL    EDATA    WORD      j
      00000BB1H   SYMBOL    EDATA    WORD      x
      00000BB3H   SYMBOL    EDATA    WORD      y
      00000BB5H   SYMBOL    EDATA    CHAR      dat
      00000BB6H   SYMBOL    EDATA    ---       a
      00000BB9H   SYMBOL    EDATA    BYTE      i
      00000BBAH   SYMBOL    EDATA    WORD      x
      00000BBCH   SYMBOL    EDATA    WORD      y
      00000BBEH   SYMBOL    EDATA    BYTE      dat
      00000BBFH   SYMBOL    EDATA    ---       a
      00000BC2H   SYMBOL    EDATA    BYTE      i
      00000A44H   SYMBOL    EDATA    WORD      x
      00000A46H   SYMBOL    EDATA    WORD      y
      00000A48H   SYMBOL    EDATA    INT       dat
      00000A4AH   SYMBOL    EDATA    ---       a
      00000A4FH   SYMBOL    EDATA    BYTE      i
      00000A50H   SYMBOL    EDATA    WORD      x
      00000A52H   SYMBOL    EDATA    WORD      y
      00000A54H   SYMBOL    EDATA    WORD      dat
      00000A56H   SYMBOL    EDATA    ---       a
      00000A5BH   SYMBOL    EDATA    BYTE      i
      00000665H   SYMBOL    EDATA    WORD      x
      00000667H   SYMBOL    EDATA    WORD      y
      00000669H   SYMBOL    EDATA    LONG      dat
      0000066DH   SYMBOL    EDATA    BYTE      num
      0000066EH   SYMBOL    EDATA    ---       buff
      00000690H   SYMBOL    EDATA    BYTE      length
      000004C2H   SYMBOL    EDATA    WORD      x
      000004C4H   SYMBOL    EDATA    WORD      y
      000004C6H   SYMBOL    EDATA    FLOAT     dat
      000004CAH   SYMBOL    EDATA    BYTE      num
      000004CBH   SYMBOL    EDATA    BYTE      pointnum
      000004CCH   SYMBOL    EDATA    BYTE      length
      000004CDH   SYMBOL    EDATA    ---       buff
      000004EFH   SYMBOL    EDATA    CHAR      start
      000004F0H   SYMBOL    EDATA    CHAR      end
      000004F1H   SYMBOL    EDATA    CHAR      point

      ---         MODULE    ---      ---       SEEKFREE_MPU6050
      00000A5CH   PUBLIC    EDATA    INT       mpu6050_acc_x
      00000A5EH   PUBLIC    EDATA    INT       mpu6050_acc_y
      00000A60H   PUBLIC    EDATA    INT       mpu6050_acc_z
      00000A62H   PUBLIC    EDATA    INT       mpu6050_gyro_x
      00000A64H   PUBLIC    EDATA    INT       mpu6050_gyro_y
      00000A66H   PUBLIC    EDATA    INT       mpu6050_gyro_z
L251 LINKER/LOCATER V4.66.93.0                                                        04/24/2024  17:02:24  PAGE 80


      000000D0H   SFRSYM    DATA     BYTE      PSW
      0000009DH   SFRSYM    DATA     BYTE      IRCBAND
      00000097H   SFRSYM    DATA     BYTE      AUXR2
      000000EFH   SFRSYM    DATA     BYTE      AUXINTIF
      000000FDH   SFRSYM    DATA     BYTE      S4CON
      000000ACH   SFRSYM    DATA     BYTE      S3CON
      0000009AH   SFRSYM    DATA     BYTE      S2CON
      000000B7H   SFRSYM    DATA     BYTE      IPH
      000000CDH   SFRSYM    DATA     BYTE      SPSTAT
      000000DDH   SFRSYM    DATA     BYTE      T4T3M
      000000C1H   SFRSYM    DATA     BYTE      WDT_CONTR
      000000DFH   SFRSYM    DATA     BYTE      IP3
      000000F4H   SFRSYM    DATA     BYTE      USBCON
      000000B5H   SFRSYM    DATA     BYTE      IP2
      000000FFH   SFRSYM    DATA     BYTE      RSTCFG
      000000C7H   SFRSYM    DATA     BYTE      IAP_CONTR
      000000F9H   SFRSYM    DATA     BYTE      LINICR
      0000008EH   SFRSYM    DATA     BYTE      AUXR
      000000AFH   SFRSYM    DATA     BYTE      IE2
      00000088H   SFRSYM    DATA     BYTE      TCON
      00000089H   SFRSYM    DATA     BYTE      TMOD
      000000C0H.1 SFRSYM    DATA     BIT       P41
      00000098H   SFRSYM    DATA     BYTE      SCON
      000000C0H.0 SFRSYM    DATA     BIT       P40
      000000F1H   SFRSYM    DATA     BYTE      CANICR
      00000087H   SFRSYM    DATA     BYTE      PCON
      000000BCH   SFRSYM    DATA     BYTE      ADC_CONTR
      000000E7H   SFRSYM    DATA     BYTE      CMPCR2
      000000E6H   SFRSYM    DATA     BYTE      CMPCR1
      000000DEH   SFRSYM    DATA     BYTE      ADCCFG
      000000B8H   SFRSYM    DATA     BYTE      IP
      0000008FH   SFRSYM    DATA     BYTE      INTCLKO
      000000EEH   SFRSYM    DATA     BYTE      IP3H
      000000B6H   SFRSYM    DATA     BYTE      IP2H
      000000A8H   SFRSYM    DATA     BYTE      IE
      000000BBH   SFRSYM    DATA     BYTE      P_SW3
      000000BAH   SFRSYM    DATA     BYTE      P_SW2
      000000A2H   SFRSYM    DATA     BYTE      P_SW1
      000000CEH   SFRSYM    DATA     BYTE      SPCTL
      000000F8H   SFRSYM    DATA     BYTE      P7
      000000E8H   SFRSYM    DATA     BYTE      P6
      000000C8H   SFRSYM    DATA     BYTE      P5
      000000C0H   SFRSYM    DATA     BYTE      P4
      000000B0H   SFRSYM    DATA     BYTE      P3
      000000A0H   SFRSYM    DATA     BYTE      P2
      00000090H   SFRSYM    DATA     BYTE      P1
      00000080H   SFRSYM    DATA     BYTE      P0
      00000E70H   SYMBOL    EDATA    WORD      j
      00000EA3H   SYMBOL    EDATA    BYTE      ack_dat
      00000E72H   SYMBOL    EDATA    BYTE      c
      00000E73H   SYMBOL    EDATA    BYTE      i
      00000E19H   SYMBOL    EDATA    BYTE      ack_x
      00000E1AH   SYMBOL    EDATA    BYTE      i
      00000E1BH   SYMBOL    EDATA    BYTE      c
      00000E1CH   SYMBOL    EDATA    BYTE      dev_add
      00000E1DH   SYMBOL    EDATA    BYTE      reg
      00000E1EH   SYMBOL    EDATA    BYTE      dat
      00000E1FH   SYMBOL    EDATA    BYTE      dev_add
      00000E20H   SYMBOL    EDATA    BYTE      reg
      00000E21H   SYMBOL    EDATA    BYTE      dat
      00000C84H   SYMBOL    EDATA    BYTE      dev_add
      00000C85H   SYMBOL    EDATA    BYTE      reg
      00000C86H   SYMBOL    EDATA    ---       dat_add
      00000C8AH   SYMBOL    EDATA    BYTE      num
      00000D2EH   SYMBOL    EDATA    ---       dat
L251 LINKER/LOCATER V4.66.93.0                                                        04/24/2024  17:02:24  PAGE 81


      00000D34H   SYMBOL    EDATA    ---       dat

      ---         MODULE    ---      ---       SEEKFREE_OLED
      00FF8834H   PUBLIC    CODE     ---       oled_set_pos
      00FF6CB7H   PUBLIC    CODE     ---       oled_printf_float_px8
      00FF855CH   PUBLIC    CODE     ---       oled_wrcmd
      00FF85A8H   PUBLIC    CODE     ---       oled_wrdat
      00FF82B7H   PUBLIC    CODE     ---       oled_fill
      00FF88EAH   PUBLIC    CODE     ---       oled_uint16
      00FF8911H   PUBLIC    CODE     ---       oled_uint16_px8
      00FF7642H   PUBLIC    CODE     ---       oled_p6x8str
      00FF7E32H   PUBLIC    CODE     ---       oled_int16
      00FF7B6DH   PUBLIC    CODE     ---       oled_init
      00FF7F18H   PUBLIC    CODE     ---       oled_hexascii
      00FF7056H   PUBLIC    CODE     ---       oled_p8x16str
      000004F2H   PUBLIC    EDATA    BYTE      ?oled_printf_float_px8?BYTE
      00000522H   PUBLIC    EDATA    BYTE      ?oled_printf_float?BYTE
      00000552H   PUBLIC    EDATA    BYTE      ?oled_printf_float_spi?BYTE
      000000D0H   SFRSYM    DATA     BYTE      PSW
      0000009DH   SFRSYM    DATA     BYTE      IRCBAND
      00000097H   SFRSYM    DATA     BYTE      AUXR2
      000000EFH   SFRSYM    DATA     BYTE      AUXINTIF
      000000FDH   SFRSYM    DATA     BYTE      S4CON
      000000ACH   SFRSYM    DATA     BYTE      S3CON
      0000009AH   SFRSYM    DATA     BYTE      S2CON
      000000B7H   SFRSYM    DATA     BYTE      IPH
      000000CDH   SFRSYM    DATA     BYTE      SPSTAT
      000000DDH   SFRSYM    DATA     BYTE      T4T3M
      000000C1H   SFRSYM    DATA     BYTE      WDT_CONTR
      000000DFH   SFRSYM    DATA     BYTE      IP3
      000000F4H   SFRSYM    DATA     BYTE      USBCON
      000000B5H   SFRSYM    DATA     BYTE      IP2
      000000FFH   SFRSYM    DATA     BYTE      RSTCFG
      000000C7H   SFRSYM    DATA     BYTE      IAP_CONTR
      000000F9H   SFRSYM    DATA     BYTE      LINICR
      0000008EH   SFRSYM    DATA     BYTE      AUXR
      000000AFH   SFRSYM    DATA     BYTE      IE2
      000000A0H.7 SFRSYM    DATA     BIT       P27
      000000A0H.5 SFRSYM    DATA     BIT       P25
      00000088H   SFRSYM    DATA     BYTE      TCON
      00000089H   SFRSYM    DATA     BYTE      TMOD
      000000A0H.3 SFRSYM    DATA     BIT       P23
      00000098H   SFRSYM    DATA     BYTE      SCON
      000000A0H.2 SFRSYM    DATA     BIT       P22
      000000A0H.1 SFRSYM    DATA     BIT       P21
      000000A0H.0 SFRSYM    DATA     BIT       P20
      000000F1H   SFRSYM    DATA     BYTE      CANICR
      00000087H   SFRSYM    DATA     BYTE      PCON
      000000BCH   SFRSYM    DATA     BYTE      ADC_CONTR
      000000E7H   SFRSYM    DATA     BYTE      CMPCR2
      000000E6H   SFRSYM    DATA     BYTE      CMPCR1
      000000DEH   SFRSYM    DATA     BYTE      ADCCFG
      000000B8H   SFRSYM    DATA     BYTE      IP
      0000008FH   SFRSYM    DATA     BYTE      INTCLKO
      000000EEH   SFRSYM    DATA     BYTE      IP3H
      000000B6H   SFRSYM    DATA     BYTE      IP2H
      000000A8H   SFRSYM    DATA     BYTE      IE
      000000BBH   SFRSYM    DATA     BYTE      P_SW3
      000000BAH   SFRSYM    DATA     BYTE      P_SW2
      000000A2H   SFRSYM    DATA     BYTE      P_SW1
      000000CEH   SFRSYM    DATA     BYTE      SPCTL
      000000F8H   SFRSYM    DATA     BYTE      P7
      000000E8H   SFRSYM    DATA     BYTE      P6
      000000C8H   SFRSYM    DATA     BYTE      P5
      000000C0H   SFRSYM    DATA     BYTE      P4
L251 LINKER/LOCATER V4.66.93.0                                                        04/24/2024  17:02:24  PAGE 82


      000000B0H   SFRSYM    DATA     BYTE      P3
      000000A0H   SFRSYM    DATA     BYTE      P2
      00000090H   SFRSYM    DATA     BYTE      P1
      00000080H   SFRSYM    DATA     BYTE      P0

      00FF85A8H   BLOCK     CODE     ---       LVL=0
      00000E74H   SYMBOL    EDATA    BYTE      dat
      00FF85ACH   BLOCK     CODE     NEAR LAB  LVL=1
      00000E75H   SYMBOL    EDATA    BYTE      i
      ---         BLOCKEND  ---      ---       LVL=1
      00FF85A8H   LINE      CODE     ---       #47
      00FF85ACH   LINE      CODE     ---       #48
      00FF85ACH   LINE      CODE     ---       #49
      00FF85B2H   LINE      CODE     ---       #51
      00FF85B5H   LINE      CODE     ---       #52
      00FF85B8H   LINE      CODE     ---       #53
      00FF85BBH   LINE      CODE     ---       #54
      00FF85BDH   LINE      CODE     ---       #56
      00FF85C9H   LINE      CODE     ---       #57
      00FF85CCH   LINE      CODE     ---       #58
      00FF85CFH   LINE      CODE     ---       #60
      00FF85D2H   LINE      CODE     ---       #61
      00FF85DCH   LINE      CODE     ---       #62
      00FF85F0H   LINE      CODE     ---       #63
      00FF85F3H   LINE      CODE     ---       #64
      ---         BLOCKEND  ---      ---       LVL=0

      00FF855CH   BLOCK     CODE     ---       LVL=0
      00000E76H   SYMBOL    EDATA    BYTE      cmd
      00FF8560H   BLOCK     CODE     NEAR LAB  LVL=1
      00000E77H   SYMBOL    EDATA    BYTE      i
      ---         BLOCKEND  ---      ---       LVL=1
      00FF855CH   LINE      CODE     ---       #98
      00FF8560H   LINE      CODE     ---       #99
      00FF8560H   LINE      CODE     ---       #100
      00FF8566H   LINE      CODE     ---       #102
      00FF8569H   LINE      CODE     ---       #103
      00FF856CH   LINE      CODE     ---       #104
      00FF856FH   LINE      CODE     ---       #106
      00FF8571H   LINE      CODE     ---       #108
      00FF857DH   LINE      CODE     ---       #109
      00FF8580H   LINE      CODE     ---       #110
      00FF8583H   LINE      CODE     ---       #112
      00FF8586H   LINE      CODE     ---       #113
      00FF8590H   LINE      CODE     ---       #114
      00FF85A4H   LINE      CODE     ---       #115
      00FF85A7H   LINE      CODE     ---       #116
      ---         BLOCKEND  ---      ---       LVL=0

      00FF7F18H   BLOCK     CODE     ---       LVL=0
      00000C50H   SYMBOL    EDATA    WORD      hex
      00000C52H   SYMBOL    EDATA    ---       Print
      00FF7F20H   BLOCK     CODE     NEAR LAB  LVL=1
      00000C56H   SYMBOL    EDATA    BYTE      hexcheck
      00000C57H   SYMBOL    EDATA    BYTE      TEMP
      ---         BLOCKEND  ---      ---       LVL=1
      00FF7F18H   LINE      CODE     ---       #125
      00FF7F20H   LINE      CODE     ---       #126
      00FF7F20H   LINE      CODE     ---       #129
      00FF7F26H   LINE      CODE     ---       #130
      00FF7F36H   LINE      CODE     ---       #131
      00FF7F38H   LINE      CODE     ---       #133
      00FF7F44H   LINE      CODE     ---       #134
      00FF7F54H   LINE      CODE     ---       #135
      00FF7F62H   LINE      CODE     ---       #136
L251 LINKER/LOCATER V4.66.93.0                                                        04/24/2024  17:02:24  PAGE 83


      00FF7F7DH   LINE      CODE     ---       #137
      00FF7F86H   LINE      CODE     ---       #139
      ---         BLOCKEND  ---      ---       LVL=0

      00FF7B6DH   BLOCK     CODE     ---       LVL=0
      00FF7B6DH   LINE      CODE     ---       #148
      00FF7B6DH   LINE      CODE     ---       #151
      00FF7B70H   LINE      CODE     ---       #152
      00FF7B73H   LINE      CODE     ---       #154
      00FF7B76H   LINE      CODE     ---       #155
      00FF7B7DH   LINE      CODE     ---       #156
      00FF7B80H   LINE      CODE     ---       #158
      00FF7B85H   LINE      CODE     ---       #159
      00FF7B89H   LINE      CODE     ---       #160
      00FF7B8EH   LINE      CODE     ---       #161
      00FF7B93H   LINE      CODE     ---       #162
      00FF7B98H   LINE      CODE     ---       #163
      00FF7B9DH   LINE      CODE     ---       #166
      00FF7BA2H   LINE      CODE     ---       #167
      00FF7BA7H   LINE      CODE     ---       #173
      00FF7BACH   LINE      CODE     ---       #174
      00FF7BB1H   LINE      CODE     ---       #175
      00FF7BB6H   LINE      CODE     ---       #176
      00FF7BBBH   LINE      CODE     ---       #177
      00FF7BBFH   LINE      CODE     ---       #178
      00FF7BC4H   LINE      CODE     ---       #179
      00FF7BC9H   LINE      CODE     ---       #180
      00FF7BCEH   LINE      CODE     ---       #181
      00FF7BD3H   LINE      CODE     ---       #182
      00FF7BD8H   LINE      CODE     ---       #183
      00FF7BDDH   LINE      CODE     ---       #184
      00FF7BE2H   LINE      CODE     ---       #185
      00FF7BE7H   LINE      CODE     ---       #186
      00FF7BECH   LINE      CODE     ---       #187
      00FF7BF1H   LINE      CODE     ---       #188
      00FF7BF6H   LINE      CODE     ---       #189
      00FF7BFBH   LINE      CODE     ---       #190
      00FF7C00H   LINE      CODE     ---       #191
      00FF7C05H   LINE      CODE     ---       #192
      00FF7C0AH   LINE      CODE     ---       #193
      00FF7C0EH   LINE      CODE     ---       #194
      00FF7C14H   LINE      CODE     ---       #195
      ---         BLOCKEND  ---      ---       LVL=0

      00FF8834H   BLOCK     CODE     ---       LVL=0
      00000E78H   SYMBOL    EDATA    BYTE      x
      00000E79H   SYMBOL    EDATA    BYTE      y
      00FF8834H   LINE      CODE     ---       #205
      00FF883CH   LINE      CODE     ---       #207
      00FF8847H   LINE      CODE     ---       #208
      00FF885DH   LINE      CODE     ---       #209
      00FF8868H   LINE      CODE     ---       #210
      ---         BLOCKEND  ---      ---       LVL=0

      00FF82B7H   BLOCK     CODE     ---       LVL=0
      00000E22H   SYMBOL    EDATA    BYTE      bmp_data
      00FF82BBH   BLOCK     CODE     NEAR LAB  LVL=1
      00000E23H   SYMBOL    EDATA    BYTE      y
      00000E24H   SYMBOL    EDATA    BYTE      x
      ---         BLOCKEND  ---      ---       LVL=1
      00FF82B7H   LINE      CODE     ---       #219
      00FF82BBH   LINE      CODE     ---       #220
      00FF82BBH   LINE      CODE     ---       #223
      00FF82C2H   LINE      CODE     ---       #225
      00FF82CDH   LINE      CODE     ---       #226
L251 LINKER/LOCATER V4.66.93.0                                                        04/24/2024  17:02:24  PAGE 84


      00FF82D2H   LINE      CODE     ---       #227
      00FF82D7H   LINE      CODE     ---       #228
      00FF82FCH   LINE      CODE     ---       #229
      00FF8313H   LINE      CODE     ---       #230
      ---         BLOCKEND  ---      ---       LVL=0
      00000E25H   SYMBOL    EDATA    BYTE      x
      00000E26H   SYMBOL    EDATA    BYTE      y
      00000E27H   SYMBOL    EDATA    BYTE      data1
      00000E7AH   SYMBOL    EDATA    BYTE      x
      00000E7BH   SYMBOL    EDATA    BYTE      y

      00FF7642H   BLOCK     CODE     ---       LVL=0
      00000BC3H   SYMBOL    EDATA    BYTE      x
      00000BC4H   SYMBOL    EDATA    BYTE      y
      00000BC5H   SYMBOL    EDATA    ---       ch
      00FF764EH   BLOCK     CODE     NEAR LAB  LVL=1
      00000BC9H   SYMBOL    EDATA    BYTE      c
      00000BCAH   SYMBOL    EDATA    BYTE      i
      00000BCBH   SYMBOL    EDATA    BYTE      j
      ---         BLOCKEND  ---      ---       LVL=1
      00FF7642H   LINE      CODE     ---       #279
      00FF764EH   LINE      CODE     ---       #280
      00FF764EH   LINE      CODE     ---       #281
      00FF765DH   LINE      CODE     ---       #282
      00FF7660H   LINE      CODE     ---       #284
      00FF767BH   LINE      CODE     ---       #285
      00FF7697H   LINE      CODE     ---       #286
      00FF76A2H   LINE      CODE     ---       #287
      00FF76E2H   LINE      CODE     ---       #288
      00FF76EEH   LINE      CODE     ---       #289
      00FF76FBH   LINE      CODE     ---       #290
      00FF7712H   LINE      CODE     ---       #291
      ---         BLOCKEND  ---      ---       LVL=0

      00FF7056H   BLOCK     CODE     ---       LVL=0
      00000BCCH   SYMBOL    EDATA    BYTE      x
      00000BCDH   SYMBOL    EDATA    BYTE      y
      00000BCEH   SYMBOL    EDATA    ---       ch
      00FF7062H   BLOCK     CODE     NEAR LAB  LVL=1
      00000BD2H   SYMBOL    EDATA    BYTE      c
      00000BD3H   SYMBOL    EDATA    BYTE      i
      00000BD4H   SYMBOL    EDATA    BYTE      j
      ---         BLOCKEND  ---      ---       LVL=1
      00FF7056H   LINE      CODE     ---       #302
      00FF7062H   LINE      CODE     ---       #303
      00FF7062H   LINE      CODE     ---       #304
      00FF7071H   LINE      CODE     ---       #306
      00FF7074H   LINE      CODE     ---       #308
      00FF708FH   LINE      CODE     ---       #309
      00FF70ABH   LINE      CODE     ---       #311
      00FF70B6H   LINE      CODE     ---       #312
      00FF70F6H   LINE      CODE     ---       #314
      00FF7106H   LINE      CODE     ---       #315
      00FF7146H   LINE      CODE     ---       #317
      00FF7152H   LINE      CODE     ---       #318
      00FF715FH   LINE      CODE     ---       #319
      00FF7176H   LINE      CODE     ---       #320
      ---         BLOCKEND  ---      ---       LVL=0

      00FF8911H   BLOCK     CODE     ---       LVL=0
      00000A8CH   SYMBOL    EDATA    BYTE      x
      00000A8DH   SYMBOL    EDATA    BYTE      y
      00000A8EH   SYMBOL    EDATA    WORD      num
      00FF891DH   BLOCK     CODE     NEAR LAB  LVL=1
      00000A90H   SYMBOL    EDATA    ---       ch
L251 LINKER/LOCATER V4.66.93.0                                                        04/24/2024  17:02:24  PAGE 85


      ---         BLOCKEND  ---      ---       LVL=1
      00FF8911H   LINE      CODE     ---       #331
      00FF891DH   LINE      CODE     ---       #332
      00FF891DH   LINE      CODE     ---       #335
      00FF8928H   LINE      CODE     ---       #338
      00FF8937H   LINE      CODE     ---       #339
      ---         BLOCKEND  ---      ---       LVL=0

      00FF88EAH   BLOCK     CODE     ---       LVL=0
      00000A97H   SYMBOL    EDATA    BYTE      x
      00000A98H   SYMBOL    EDATA    BYTE      y
      00000A99H   SYMBOL    EDATA    WORD      num
      00FF88F6H   BLOCK     CODE     NEAR LAB  LVL=1
      00000A9BH   SYMBOL    EDATA    ---       ch
      ---         BLOCKEND  ---      ---       LVL=1
      00FF88EAH   LINE      CODE     ---       #350
      00FF88F6H   LINE      CODE     ---       #351
      00FF88F6H   LINE      CODE     ---       #354
      00FF8901H   LINE      CODE     ---       #356
      00FF8910H   LINE      CODE     ---       #358
      ---         BLOCKEND  ---      ---       LVL=0

      00FF7E32H   BLOCK     CODE     ---       LVL=0
      00000AA2H   SYMBOL    EDATA    BYTE      x
      00000AA3H   SYMBOL    EDATA    BYTE      y
      00000AA4H   SYMBOL    EDATA    INT       num
      00FF7E3EH   BLOCK     CODE     NEAR LAB  LVL=1
      00000AA6H   SYMBOL    EDATA    ---       ch
      ---         BLOCKEND  ---      ---       LVL=1
      00FF7E32H   LINE      CODE     ---       #369
      00FF7E3EH   LINE      CODE     ---       #370
      00FF7E3EH   LINE      CODE     ---       #372
      00FF7E6BH   LINE      CODE     ---       #373
      00FF7E7EH   LINE      CODE     ---       #374
      00FF7E8AH   LINE      CODE     ---       #376
      00FF7E95H   LINE      CODE     ---       #377
      00FF7EA4H   LINE      CODE     ---       #378
      ---         BLOCKEND  ---      ---       LVL=0
      00000691H   SYMBOL    EDATA    WORD      x
      00000693H   SYMBOL    EDATA    WORD      y
      00000695H   SYMBOL    EDATA    LONG      dat
      00000699H   SYMBOL    EDATA    BYTE      num
      0000069AH   SYMBOL    EDATA    ---       buff
      000006BCH   SYMBOL    EDATA    BYTE      length

      00FF6CB7H   BLOCK     CODE     ---       LVL=0
      000004F2H   SYMBOL    EDATA    WORD      x
      000004F4H   SYMBOL    EDATA    WORD      y
      000004F6H   SYMBOL    EDATA    FLOAT     dat
      000004FAH   SYMBOL    EDATA    BYTE      num
      000004FBH   SYMBOL    EDATA    BYTE      pointnum
      00FF6CC7H   BLOCK     CODE     NEAR LAB  LVL=1
      000004FCH   SYMBOL    EDATA    BYTE      length
      000004FDH   SYMBOL    EDATA    ---       buff
      0000051FH   SYMBOL    EDATA    CHAR      start
      00000520H   SYMBOL    EDATA    CHAR      end
      00000521H   SYMBOL    EDATA    CHAR      point
      ---         BLOCKEND  ---      ---       LVL=1
      00FF6CB7H   LINE      CODE     ---       #431
      00FF6CC7H   LINE      CODE     ---       #432
      00FF6CC7H   LINE      CODE     ---       #437
      00FF6CD7H   LINE      CODE     ---       #438
      00FF6CE7H   LINE      CODE     ---       #440
      00FF6D0FH   LINE      CODE     ---       #443
      00FF6D2AH   LINE      CODE     ---       #444
L251 LINKER/LOCATER V4.66.93.0                                                        04/24/2024  17:02:24  PAGE 86


      00FF6D37H   LINE      CODE     ---       #445
      00FF6D37H   LINE      CODE     ---       #446
      00FF6D47H   LINE      CODE     ---       #447
      00FF6D5FH   LINE      CODE     ---       #448
      00FF6D77H   LINE      CODE     ---       #449
      00FF6D79H   LINE      CODE     ---       #451
      00FF6D8AH   LINE      CODE     ---       #452
      00FF6D97H   LINE      CODE     ---       #453
      00FF6DA4H   LINE      CODE     ---       #454
      00FF6DADH   LINE      CODE     ---       #456
      00FF6DCBH   LINE      CODE     ---       #457
      00FF6DDCH   LINE      CODE     ---       #459
      00FF6DECH   LINE      CODE     ---       #461
      00FF6DFBH   LINE      CODE     ---       #462
      ---         BLOCKEND  ---      ---       LVL=0
      00000522H   SYMBOL    EDATA    WORD      x
      00000524H   SYMBOL    EDATA    WORD      y
      00000526H   SYMBOL    EDATA    FLOAT     dat
      0000052AH   SYMBOL    EDATA    BYTE      num
      0000052BH   SYMBOL    EDATA    BYTE      pointnum
      0000052CH   SYMBOL    EDATA    BYTE      length
      0000052DH   SYMBOL    EDATA    ---       buff
      0000054FH   SYMBOL    EDATA    CHAR      start
      00000550H   SYMBOL    EDATA    CHAR      end
      00000551H   SYMBOL    EDATA    CHAR      point
      000008DAH   SYMBOL    EDATA    WORD      high
      000008DCH   SYMBOL    EDATA    WORD      width
      000008DEH   SYMBOL    EDATA    ---       p
      000008E2H   SYMBOL    EDATA    BYTE      value
      000008E3H   SYMBOL    EDATA    WORD      i
      000008E5H   SYMBOL    EDATA    WORD      j
      000008E7H   SYMBOL    EDATA    WORD      temp
      000008E9H   SYMBOL    EDATA    WORD      temp1
      000008EBH   SYMBOL    EDATA    BYTE      dat
      0000094AH   SYMBOL    EDATA    BYTE      x
      0000094BH   SYMBOL    EDATA    BYTE      y
      0000094CH   SYMBOL    EDATA    BYTE      size
      0000094DH   SYMBOL    EDATA    ---       p
      00000951H   SYMBOL    EDATA    BYTE      len
      00000952H   SYMBOL    EDATA    WORD      i
      00000954H   SYMBOL    EDATA    WORD      j
      00000956H   SYMBOL    EDATA    WORD      k
      00000EA4H   SYMBOL    EDATA    BYTE      dat
      00000EA5H   SYMBOL    EDATA    BYTE      cmd
      00000C58H   SYMBOL    EDATA    WORD      hex
      00000C5AH   SYMBOL    EDATA    ---       Print
      00000C5EH   SYMBOL    EDATA    BYTE      hexcheck
      00000C5FH   SYMBOL    EDATA    BYTE      TEMP
      00000E7CH   SYMBOL    EDATA    BYTE      x
      00000E7DH   SYMBOL    EDATA    BYTE      y
      00000E28H   SYMBOL    EDATA    BYTE      bmp_data
      00000E29H   SYMBOL    EDATA    BYTE      y
      00000E2AH   SYMBOL    EDATA    BYTE      x
      00000E2BH   SYMBOL    EDATA    BYTE      x
      00000E2CH   SYMBOL    EDATA    BYTE      y
      00000E2DH   SYMBOL    EDATA    BYTE      data1
      00000E7EH   SYMBOL    EDATA    BYTE      x
      00000E7FH   SYMBOL    EDATA    BYTE      y
      00000BD5H   SYMBOL    EDATA    BYTE      x
      00000BD6H   SYMBOL    EDATA    BYTE      y
      00000BD7H   SYMBOL    EDATA    ---       ch
      00000BDBH   SYMBOL    EDATA    BYTE      c
      00000BDCH   SYMBOL    EDATA    BYTE      i
      00000BDDH   SYMBOL    EDATA    BYTE      j
      00000BDEH   SYMBOL    EDATA    BYTE      x
L251 LINKER/LOCATER V4.66.93.0                                                        04/24/2024  17:02:24  PAGE 87


      00000BDFH   SYMBOL    EDATA    BYTE      y
      00000BE0H   SYMBOL    EDATA    ---       ch
      00000BE4H   SYMBOL    EDATA    BYTE      c
      00000BE5H   SYMBOL    EDATA    BYTE      i
      00000BE6H   SYMBOL    EDATA    BYTE      j
      00000AADH   SYMBOL    EDATA    BYTE      x
      00000AAEH   SYMBOL    EDATA    BYTE      y
      00000AAFH   SYMBOL    EDATA    WORD      num
      00000AB1H   SYMBOL    EDATA    ---       ch
      00000AB8H   SYMBOL    EDATA    BYTE      x
      00000AB9H   SYMBOL    EDATA    BYTE      y
      00000ABAH   SYMBOL    EDATA    INT       num
      00000ABCH   SYMBOL    EDATA    ---       ch
      000006BDH   SYMBOL    EDATA    WORD      x
      000006BFH   SYMBOL    EDATA    WORD      y
      000006C1H   SYMBOL    EDATA    LONG      dat
      000006C5H   SYMBOL    EDATA    BYTE      num
      000006C6H   SYMBOL    EDATA    ---       buff
      000006E8H   SYMBOL    EDATA    BYTE      length
      00000552H   SYMBOL    EDATA    WORD      x
      00000554H   SYMBOL    EDATA    WORD      y
      00000556H   SYMBOL    EDATA    FLOAT     dat
      0000055AH   SYMBOL    EDATA    BYTE      num
      0000055BH   SYMBOL    EDATA    BYTE      pointnum
      0000055CH   SYMBOL    EDATA    BYTE      length
      0000055DH   SYMBOL    EDATA    ---       buff
      0000057FH   SYMBOL    EDATA    CHAR      start
      00000580H   SYMBOL    EDATA    CHAR      end
      00000581H   SYMBOL    EDATA    CHAR      point
      000008ECH   SYMBOL    EDATA    WORD      high
      000008EEH   SYMBOL    EDATA    WORD      width
      000008F0H   SYMBOL    EDATA    ---       p
      000008F4H   SYMBOL    EDATA    BYTE      value
      000008F5H   SYMBOL    EDATA    WORD      i
      000008F7H   SYMBOL    EDATA    WORD      j
      000008F9H   SYMBOL    EDATA    WORD      temp
      000008FBH   SYMBOL    EDATA    WORD      temp1
      000008FDH   SYMBOL    EDATA    BYTE      dat
      00000958H   SYMBOL    EDATA    BYTE      x
      00000959H   SYMBOL    EDATA    BYTE      y
      0000095AH   SYMBOL    EDATA    BYTE      size
      0000095BH   SYMBOL    EDATA    ---       p
      0000095FH   SYMBOL    EDATA    BYTE      len
      00000960H   SYMBOL    EDATA    WORD      i
      00000962H   SYMBOL    EDATA    WORD      j
      00000964H   SYMBOL    EDATA    WORD      k

      ---         MODULE    ---      ---       SEEKFREE_PRINTF
      00FF728FH   PUBLIC    CODE     ---       number_conversion_ascii
      00FF45EDH   PUBLIC    CODE     ---       zf_sprintf
      00FF7CB1H   PUBLIC    CODE     ---       printf_reverse_order
      0000088DH   PUBLIC    EDATA    BYTE      ?number_conversion_ascii?BYTE
      00000319H   PUBLIC    EDATA    BYTE      ?zf_sprintf?BYTE
      000000D0H   SFRSYM    DATA     BYTE      PSW
      0000009DH   SFRSYM    DATA     BYTE      IRCBAND
      00000097H   SFRSYM    DATA     BYTE      AUXR2
      000000EFH   SFRSYM    DATA     BYTE      AUXINTIF
      000000FDH   SFRSYM    DATA     BYTE      S4CON
      000000ACH   SFRSYM    DATA     BYTE      S3CON
      0000009AH   SFRSYM    DATA     BYTE      S2CON
      000000B7H   SFRSYM    DATA     BYTE      IPH
      000000CDH   SFRSYM    DATA     BYTE      SPSTAT
      000000DDH   SFRSYM    DATA     BYTE      T4T3M
      000000C1H   SFRSYM    DATA     BYTE      WDT_CONTR
      000000DFH   SFRSYM    DATA     BYTE      IP3
L251 LINKER/LOCATER V4.66.93.0                                                        04/24/2024  17:02:24  PAGE 88


      000000F4H   SFRSYM    DATA     BYTE      USBCON
      000000B5H   SFRSYM    DATA     BYTE      IP2
      000000FFH   SFRSYM    DATA     BYTE      RSTCFG
      000000C7H   SFRSYM    DATA     BYTE      IAP_CONTR
      000000F9H   SFRSYM    DATA     BYTE      LINICR
      0000008EH   SFRSYM    DATA     BYTE      AUXR
      000000AFH   SFRSYM    DATA     BYTE      IE2
      00000088H   SFRSYM    DATA     BYTE      TCON
      00000089H   SFRSYM    DATA     BYTE      TMOD
      00000098H   SFRSYM    DATA     BYTE      SCON
      000000F1H   SFRSYM    DATA     BYTE      CANICR
      00000087H   SFRSYM    DATA     BYTE      PCON
      000000BCH   SFRSYM    DATA     BYTE      ADC_CONTR
      000000E7H   SFRSYM    DATA     BYTE      CMPCR2
      000000E6H   SFRSYM    DATA     BYTE      CMPCR1
      000000DEH   SFRSYM    DATA     BYTE      ADCCFG
      000000B8H   SFRSYM    DATA     BYTE      IP
      0000008FH   SFRSYM    DATA     BYTE      INTCLKO
      000000EEH   SFRSYM    DATA     BYTE      IP3H
      000000B6H   SFRSYM    DATA     BYTE      IP2H
      000000A8H   SFRSYM    DATA     BYTE      IE
      000000BBH   SFRSYM    DATA     BYTE      P_SW3
      000000BAH   SFRSYM    DATA     BYTE      P_SW2
      000000A2H   SFRSYM    DATA     BYTE      P_SW1
      000000CEH   SFRSYM    DATA     BYTE      SPCTL
      000000F8H   SFRSYM    DATA     BYTE      P7
      000000E8H   SFRSYM    DATA     BYTE      P6
      000000C8H   SFRSYM    DATA     BYTE      P5
      000000C0H   SFRSYM    DATA     BYTE      P4
      000000B0H   SFRSYM    DATA     BYTE      P3
      000000A0H   SFRSYM    DATA     BYTE      P2
      00000090H   SFRSYM    DATA     BYTE      P1
      00000080H   SFRSYM    DATA     BYTE      P0

      00FF728FH   BLOCK     CODE     ---       LVL=0
      0000088DH   SYMBOL    EDATA    DWORD     dat
      00000891H   SYMBOL    EDATA    ---       p
      00000895H   SYMBOL    EDATA    BYTE      neg_type
      00000896H   SYMBOL    EDATA    BYTE      radix
      00FF729BH   BLOCK     CODE     NEAR LAB  LVL=1
      00000897H   SYMBOL    EDATA    LONG      neg_dat
      0000089BH   SYMBOL    EDATA    DWORD     pos_dat
      0000089FH   SYMBOL    EDATA    BYTE      temp_data
      000008A0H   SYMBOL    EDATA    BYTE      valid_num
      ---         BLOCKEND  ---      ---       LVL=1
      00FF728FH   LINE      CODE     ---       #25
      00FF729BH   LINE      CODE     ---       #26
      00FF729BH   LINE      CODE     ---       #29
      00FF72A0H   LINE      CODE     ---       #30
      00FF72A5H   LINE      CODE     ---       #32
      00FF72AEH   LINE      CODE     ---       #34
      00FF72B6H   LINE      CODE     ---       #35
      00FF72CEH   LINE      CODE     ---       #36
      00FF72CEH   LINE      CODE     ---       #38
      00FF72EAH   LINE      CODE     ---       #39
      00FF72FDH   LINE      CODE     ---       #40
      00FF730AH   LINE      CODE     ---       #42
      00FF7312H   LINE      CODE     ---       #43
      00FF731CH   LINE      CODE     ---       #44
      00FF731EH   LINE      CODE     ---       #45
      00FF7321H   LINE      CODE     ---       #48
      00FF7329H   LINE      CODE     ---       #49
      00FF7329H   LINE      CODE     ---       #51
      00FF733EH   LINE      CODE     ---       #52
      00FF7356H   LINE      CODE     ---       #53
L251 LINKER/LOCATER V4.66.93.0                                                        04/24/2024  17:02:24  PAGE 89


      00FF7362H   LINE      CODE     ---       #55
      00FF736DH   LINE      CODE     ---       #57
      00FF7380H   LINE      CODE     ---       #58
      00FF738DH   LINE      CODE     ---       #60
      00FF7395H   LINE      CODE     ---       #61
      00FF739FH   LINE      CODE     ---       #62
      00FF73A1H   LINE      CODE     ---       #63
      00FF73A1H   LINE      CODE     ---       #64
      00FF73A5H   LINE      CODE     ---       #65
      ---         BLOCKEND  ---      ---       LVL=0

      00FF7CB1H   BLOCK     CODE     ---       LVL=0
      0000098FH   SYMBOL    EDATA    ---       d_buff
      00000993H   SYMBOL    EDATA    DWORD     len
      00FF7CB9H   BLOCK     CODE     NEAR LAB  LVL=1
      00000997H   SYMBOL    EDATA    DWORD     i
      0000099BH   SYMBOL    EDATA    CHAR      temp_data
      ---         BLOCKEND  ---      ---       LVL=1
      00FF7CB1H   LINE      CODE     ---       #67
      00FF7CB9H   LINE      CODE     ---       #68
      00FF7CB9H   LINE      CODE     ---       #71
      00FF7CC1H   LINE      CODE     ---       #73
      00FF7CE0H   LINE      CODE     ---       #74
      00FF7D0AH   LINE      CODE     ---       #75
      00FF7D1DH   LINE      CODE     ---       #76
      00FF7D45H   LINE      CODE     ---       #77
      ---         BLOCKEND  ---      ---       LVL=0

      00FF45EDH   BLOCK     CODE     ---       LVL=0
      00000319H   SYMBOL    EDATA    ---       buff
      0000031DH   SYMBOL    EDATA    ---       format
      00FF45F5H   BLOCK     CODE     NEAR LAB  LVL=1
      00000321H   SYMBOL    EDATA    DWORD     buff_len
      00000325H   SYMBOL    EDATA    ---       arg
      00FF460AH   BLOCK     CODE     NEAR LAB  LVL=2
      00000329H   SYMBOL    EDATA    CHAR      ret
      00FF473FH   BLOCK     CODE     NEAR LAB  LVL=3
      0000032AH   SYMBOL    EDATA    CHAR      ch
      ---         BLOCKEND  ---      ---       LVL=3
      00FF477EH   BLOCK     CODE     NEAR LAB  LVL=3
      0000032AH   SYMBOL    EDATA    ---       vstr
      0000034BH   SYMBOL    EDATA    LONG      ival
      0000034FH   SYMBOL    EDATA    BYTE      vlen
      ---         BLOCKEND  ---      ---       LVL=3
      00FF481FH   BLOCK     CODE     NEAR LAB  LVL=3
      0000032AH   SYMBOL    EDATA    ---       vstr
      0000034BH   SYMBOL    EDATA    FLOAT     ival
      0000034FH   SYMBOL    EDATA    BYTE      vlen
      ---         BLOCKEND  ---      ---       LVL=3
      00FF49C0H   BLOCK     CODE     NEAR LAB  LVL=3
      0000032AH   SYMBOL    EDATA    ---       vstr
      0000034BH   SYMBOL    EDATA    DWORD     ival
      0000034FH   SYMBOL    EDATA    BYTE      vlen
      ---         BLOCKEND  ---      ---       LVL=3
      00FF4A38H   BLOCK     CODE     NEAR LAB  LVL=3
      0000032AH   SYMBOL    EDATA    ---       vstr
      0000034BH   SYMBOL    EDATA    DWORD     ival
      0000034FH   SYMBOL    EDATA    BYTE      vlen
      ---         BLOCKEND  ---      ---       LVL=3
      00FF4AB0H   BLOCK     CODE     NEAR LAB  LVL=3
      0000032AH   SYMBOL    EDATA    ---       vstr
      0000034BH   SYMBOL    EDATA    DWORD     ival
      0000034FH   SYMBOL    EDATA    BYTE      vlen
      ---         BLOCKEND  ---      ---       LVL=3
      00FF4B28H   BLOCK     CODE     NEAR LAB  LVL=3
L251 LINKER/LOCATER V4.66.93.0                                                        04/24/2024  17:02:24  PAGE 90


      0000032AH   SYMBOL    EDATA    ---       pc
      ---         BLOCKEND  ---      ---       LVL=3
      00FF4B82H   BLOCK     CODE     NEAR LAB  LVL=3
      0000032AH   SYMBOL    EDATA    ---       vstr
      0000034BH   SYMBOL    EDATA    DWORD     ival
      ---         BLOCKEND  ---      ---       LVL=3
      ---         BLOCKEND  ---      ---       LVL=2
      ---         BLOCKEND  ---      ---       LVL=1
      00FF45EDH   LINE      CODE     ---       #212
      00FF45F5H   LINE      CODE     ---       #213
      00FF45F5H   LINE      CODE     ---       #214
      00FF45FBH   LINE      CODE     ---       #216
      00FF4607H   LINE      CODE     ---       #218
      00FF460AH   LINE      CODE     ---       #219
      00FF460AH   LINE      CODE     ---       #220
      00FF4615H   LINE      CODE     ---       #221
      00FF4621H   LINE      CODE     ---       #223
      00FF473CH   LINE      CODE     ---       #225
      00FF473CH   LINE      CODE     ---       #229
      00FF473FH   LINE      CODE     ---       #232
      00FF473FH   LINE      CODE     ---       #233
      00FF473FH   LINE      CODE     ---       #234
      00FF4758H   LINE      CODE     ---       #235
      00FF4763H   LINE      CODE     ---       #236
      00FF476DH   LINE      CODE     ---       #237
      00FF477BH   LINE      CODE     ---       #239
      00FF477EH   LINE      CODE     ---       #242
      00FF477EH   LINE      CODE     ---       #243
      00FF477EH   LINE      CODE     ---       #244
      00FF477EH   LINE      CODE     ---       #246
      00FF4797H   LINE      CODE     ---       #247
      00FF47AEH   LINE      CODE     ---       #249
      00FF47B8H   LINE      CODE     ---       #251
      00FF47C9H   LINE      CODE     ---       #252
      00FF47D6H   LINE      CODE     ---       #253
      00FF47D6H   LINE      CODE     ---       #254
      00FF47E5H   LINE      CODE     ---       #255
      00FF47FAH   LINE      CODE     ---       #256
      00FF480AH   LINE      CODE     ---       #257
      00FF481CH   LINE      CODE     ---       #260
      00FF481FH   LINE      CODE     ---       #262
      00FF481FH   LINE      CODE     ---       #263
      00FF481FH   LINE      CODE     ---       #264
      00FF481FH   LINE      CODE     ---       #266
      00FF4838H   LINE      CODE     ---       #267
      00FF4852H   LINE      CODE     ---       #269
      00FF485DH   LINE      CODE     ---       #271
      00FF486EH   LINE      CODE     ---       #272
      00FF487BH   LINE      CODE     ---       #273
      00FF487BH   LINE      CODE     ---       #274
      00FF488AH   LINE      CODE     ---       #275
      00FF489FH   LINE      CODE     ---       #276
      00FF48AFH   LINE      CODE     ---       #277
      00FF48C1H   LINE      CODE     ---       #279
      00FF48E5H   LINE      CODE     ---       #280
      00FF48E9H   LINE      CODE     ---       #282
      00FF4903H   LINE      CODE     ---       #283
      00FF4905H   LINE      CODE     ---       #286
      00FF4929H   LINE      CODE     ---       #287
      00FF492FH   LINE      CODE     ---       #288
      00FF492FH   LINE      CODE     ---       #290
      00FF4931H   LINE      CODE     ---       #292
      00FF4942H   LINE      CODE     ---       #293
      00FF494FH   LINE      CODE     ---       #294
      00FF4959H   LINE      CODE     ---       #296
L251 LINKER/LOCATER V4.66.93.0                                                        04/24/2024  17:02:24  PAGE 91


      00FF496AH   LINE      CODE     ---       #297
      00FF4977H   LINE      CODE     ---       #299
      00FF4986H   LINE      CODE     ---       #300
      00FF499BH   LINE      CODE     ---       #301
      00FF49ABH   LINE      CODE     ---       #302
      00FF49BDH   LINE      CODE     ---       #304
      00FF49C0H   LINE      CODE     ---       #307
      00FF49C0H   LINE      CODE     ---       #308
      00FF49C0H   LINE      CODE     ---       #310
      00FF49D9H   LINE      CODE     ---       #311
      00FF49EFH   LINE      CODE     ---       #313
      00FF49FEH   LINE      CODE     ---       #314
      00FF4A13H   LINE      CODE     ---       #315
      00FF4A23H   LINE      CODE     ---       #316
      00FF4A35H   LINE      CODE     ---       #317
      00FF4A38H   LINE      CODE     ---       #319
      00FF4A38H   LINE      CODE     ---       #320
      00FF4A38H   LINE      CODE     ---       #322
      00FF4A51H   LINE      CODE     ---       #323
      00FF4A67H   LINE      CODE     ---       #325
      00FF4A76H   LINE      CODE     ---       #326
      00FF4A8BH   LINE      CODE     ---       #327
      00FF4A9BH   LINE      CODE     ---       #328
      00FF4AADH   LINE      CODE     ---       #330
      00FF4AB0H   LINE      CODE     ---       #332
      00FF4AB0H   LINE      CODE     ---       #333
      00FF4AB0H   LINE      CODE     ---       #334
      00FF4AB0H   LINE      CODE     ---       #336
      00FF4AC9H   LINE      CODE     ---       #337
      00FF4ADFH   LINE      CODE     ---       #339
      00FF4AEEH   LINE      CODE     ---       #340
      00FF4B03H   LINE      CODE     ---       #341
      00FF4B13H   LINE      CODE     ---       #342
      00FF4B25H   LINE      CODE     ---       #343
      00FF4B28H   LINE      CODE     ---       #346
      00FF4B28H   LINE      CODE     ---       #347
      00FF4B28H   LINE      CODE     ---       #348
      00FF4B41H   LINE      CODE     ---       #349
      00FF4B43H   LINE      CODE     ---       #351
      00FF4B51H   LINE      CODE     ---       #352
      00FF4B5BH   LINE      CODE     ---       #353
      00FF4B69H   LINE      CODE     ---       #354
      00FF4B73H   LINE      CODE     ---       #355
      00FF4B7FH   LINE      CODE     ---       #356
      00FF4B82H   LINE      CODE     ---       #358
      00FF4B82H   LINE      CODE     ---       #359
      00FF4B82H   LINE      CODE     ---       #361
      00FF4B9BH   LINE      CODE     ---       #363
      00FF4BADH   LINE      CODE     ---       #365
      00FF4BB8H   LINE      CODE     ---       #366
      00FF4BCBH   LINE      CODE     ---       #367
      00FF4BD7H   LINE      CODE     ---       #368
      00FF4BE5H   LINE      CODE     ---       #370
      00FF4BE7H   LINE      CODE     ---       #373
      00FF4BE7H   LINE      CODE     ---       #375
      00FF4BF0H   LINE      CODE     ---       #376
      00FF4BFAH   LINE      CODE     ---       #377
      00FF4C08H   LINE      CODE     ---       #378
      00FF4C0AH   LINE      CODE     ---       #380
      00FF4C0AH   LINE      CODE     ---       #381
      00FF4C0AH   LINE      CODE     ---       #382
      00FF4C0AH   LINE      CODE     ---       #385
      00FF4C18H   LINE      CODE     ---       #386
      00FF4C22H   LINE      CODE     ---       #387
      00FF4C30H   LINE      CODE     ---       #388
L251 LINKER/LOCATER V4.66.93.0                                                        04/24/2024  17:02:24  PAGE 92


      00FF4C30H   LINE      CODE     ---       #389
      00FF4C3AH   LINE      CODE     ---       #390
      00FF4C49H   LINE      CODE     ---       #393
      00FF4C4DH   LINE      CODE     ---       #394
      ---         BLOCKEND  ---      ---       LVL=0

      ---         MODULE    ---      ---       SEEKFREE_TSL1401
      00000110H   PUBLIC    EDATA    BYTE      tsl1401_finish_flag
      00000111H   PUBLIC    EDATA    ---       ccd_data
      000000D0H   SFRSYM    DATA     BYTE      PSW
      0000009DH   SFRSYM    DATA     BYTE      IRCBAND
      00000097H   SFRSYM    DATA     BYTE      AUXR2
      000000EFH   SFRSYM    DATA     BYTE      AUXINTIF
      000000FDH   SFRSYM    DATA     BYTE      S4CON
      000000ACH   SFRSYM    DATA     BYTE      S3CON
      0000009AH   SFRSYM    DATA     BYTE      S2CON
      000000B7H   SFRSYM    DATA     BYTE      IPH
      000000CDH   SFRSYM    DATA     BYTE      SPSTAT
      000000DDH   SFRSYM    DATA     BYTE      T4T3M
      000000C1H   SFRSYM    DATA     BYTE      WDT_CONTR
      000000DFH   SFRSYM    DATA     BYTE      IP3
      000000F4H   SFRSYM    DATA     BYTE      USBCON
      000000B5H   SFRSYM    DATA     BYTE      IP2
      000000FFH   SFRSYM    DATA     BYTE      RSTCFG
      000000C7H   SFRSYM    DATA     BYTE      IAP_CONTR
      000000F9H   SFRSYM    DATA     BYTE      LINICR
      0000008EH   SFRSYM    DATA     BYTE      AUXR
      000000AFH   SFRSYM    DATA     BYTE      IE2
      000000B0H.3 SFRSYM    DATA     BIT       P33
      00000088H   SFRSYM    DATA     BYTE      TCON
      00000089H   SFRSYM    DATA     BYTE      TMOD
      000000B0H.2 SFRSYM    DATA     BIT       P32
      00000098H   SFRSYM    DATA     BYTE      SCON
      000000F1H   SFRSYM    DATA     BYTE      CANICR
      00000087H   SFRSYM    DATA     BYTE      PCON
      000000BCH   SFRSYM    DATA     BYTE      ADC_CONTR
      000000E7H   SFRSYM    DATA     BYTE      CMPCR2
      000000E6H   SFRSYM    DATA     BYTE      CMPCR1
      000000DEH   SFRSYM    DATA     BYTE      ADCCFG
      000000B8H   SFRSYM    DATA     BYTE      IP
      0000008FH   SFRSYM    DATA     BYTE      INTCLKO
      000000EEH   SFRSYM    DATA     BYTE      IP3H
      000000B6H   SFRSYM    DATA     BYTE      IP2H
      000000A8H   SFRSYM    DATA     BYTE      IE
      000000BBH   SFRSYM    DATA     BYTE      P_SW3
      000000BAH   SFRSYM    DATA     BYTE      P_SW2
      000000A2H   SFRSYM    DATA     BYTE      P_SW1
      000000CEH   SFRSYM    DATA     BYTE      SPCTL
      000000F8H   SFRSYM    DATA     BYTE      P7
      000000E8H   SFRSYM    DATA     BYTE      P6
      000000C8H   SFRSYM    DATA     BYTE      P5
      000000C0H   SFRSYM    DATA     BYTE      P4
      000000B0H   SFRSYM    DATA     BYTE      P3
      000000A0H   SFRSYM    DATA     BYTE      P2
      00000090H   SFRSYM    DATA     BYTE      P1
      00000080H   SFRSYM    DATA     BYTE      P0
      00000C8BH   SYMBOL    EDATA    INT       uart_n
      00000C8DH   SYMBOL    EDATA    ---       dat
      00000C91H   SYMBOL    EDATA    BYTE      i
      00000EA6H   SYMBOL    EDATA    BYTE      i

      ---         MODULE    ---      ---       SEEKFREE_VIRSCO
      00000B31H   PUBLIC    EDATA    ---       virtual_scope_data
      00000966H   PUBLIC    EDATA    BYTE      ?data_conversion?BYTE
      000000D0H   SFRSYM    DATA     BYTE      PSW
L251 LINKER/LOCATER V4.66.93.0                                                        04/24/2024  17:02:24  PAGE 93


      0000009DH   SFRSYM    DATA     BYTE      IRCBAND
      00000097H   SFRSYM    DATA     BYTE      AUXR2
      000000EFH   SFRSYM    DATA     BYTE      AUXINTIF
      000000FDH   SFRSYM    DATA     BYTE      S4CON
      000000ACH   SFRSYM    DATA     BYTE      S3CON
      0000009AH   SFRSYM    DATA     BYTE      S2CON
      000000B7H   SFRSYM    DATA     BYTE      IPH
      000000CDH   SFRSYM    DATA     BYTE      SPSTAT
      000000DDH   SFRSYM    DATA     BYTE      T4T3M
      000000C1H   SFRSYM    DATA     BYTE      WDT_CONTR
      000000DFH   SFRSYM    DATA     BYTE      IP3
      000000F4H   SFRSYM    DATA     BYTE      USBCON
      000000B5H   SFRSYM    DATA     BYTE      IP2
      000000FFH   SFRSYM    DATA     BYTE      RSTCFG
      000000C7H   SFRSYM    DATA     BYTE      IAP_CONTR
      000000F9H   SFRSYM    DATA     BYTE      LINICR
      0000008EH   SFRSYM    DATA     BYTE      AUXR
      000000AFH   SFRSYM    DATA     BYTE      IE2
      00000088H   SFRSYM    DATA     BYTE      TCON
      00000089H   SFRSYM    DATA     BYTE      TMOD
      00000098H   SFRSYM    DATA     BYTE      SCON
      000000F1H   SFRSYM    DATA     BYTE      CANICR
      00000087H   SFRSYM    DATA     BYTE      PCON
      000000BCH   SFRSYM    DATA     BYTE      ADC_CONTR
      000000E7H   SFRSYM    DATA     BYTE      CMPCR2
      000000E6H   SFRSYM    DATA     BYTE      CMPCR1
      000000DEH   SFRSYM    DATA     BYTE      ADCCFG
      000000B8H   SFRSYM    DATA     BYTE      IP
      0000008FH   SFRSYM    DATA     BYTE      INTCLKO
      000000EEH   SFRSYM    DATA     BYTE      IP3H
      000000B6H   SFRSYM    DATA     BYTE      IP2H
      000000A8H   SFRSYM    DATA     BYTE      IE
      000000BBH   SFRSYM    DATA     BYTE      P_SW3
      000000BAH   SFRSYM    DATA     BYTE      P_SW2
      000000A2H   SFRSYM    DATA     BYTE      P_SW1
      000000CEH   SFRSYM    DATA     BYTE      SPCTL
      000000F8H   SFRSYM    DATA     BYTE      P7
      000000E8H   SFRSYM    DATA     BYTE      P6
      000000C8H   SFRSYM    DATA     BYTE      P5
      000000C0H   SFRSYM    DATA     BYTE      P4
      000000B0H   SFRSYM    DATA     BYTE      P3
      000000A0H   SFRSYM    DATA     BYTE      P2
      00000090H   SFRSYM    DATA     BYTE      P1
      00000080H   SFRSYM    DATA     BYTE      P0
      00000BE7H   SYMBOL    EDATA    ---       Buf
      00000BEBH   SYMBOL    EDATA    BYTE      CRC_CNT
      00000BECH   SYMBOL    EDATA    WORD      CRC_Temp
      00000BEEH   SYMBOL    EDATA    BYTE      i
      00000BEFH   SYMBOL    EDATA    BYTE      j
      00000966H   SYMBOL    EDATA    INT       data1
      00000968H   SYMBOL    EDATA    INT       data2
      0000096AH   SYMBOL    EDATA    INT       data3
      0000096CH   SYMBOL    EDATA    INT       data4
      0000096EH   SYMBOL    EDATA    ---       dat
      00000972H   SYMBOL    EDATA    WORD      CRC16

      ---         MODULE    ---      ---       SEEKFREE_WIRELESS
      00FF89E9H   PUBLIC    CODE     ---       wireless_uart_callback
      000000D0H   SFRSYM    DATA     BYTE      PSW
      0000009DH   SFRSYM    DATA     BYTE      IRCBAND
      00000097H   SFRSYM    DATA     BYTE      AUXR2
      000000EFH   SFRSYM    DATA     BYTE      AUXINTIF
      000000FDH   SFRSYM    DATA     BYTE      S4CON
      000000ACH   SFRSYM    DATA     BYTE      S3CON
      0000009AH   SFRSYM    DATA     BYTE      S2CON
L251 LINKER/LOCATER V4.66.93.0                                                        04/24/2024  17:02:24  PAGE 94


      000000FEH   SFRSYM    DATA     BYTE      S4BUF
      000000B7H   SFRSYM    DATA     BYTE      IPH
      000000CDH   SFRSYM    DATA     BYTE      SPSTAT
      000000DDH   SFRSYM    DATA     BYTE      T4T3M
      000000C1H   SFRSYM    DATA     BYTE      WDT_CONTR
      000000DFH   SFRSYM    DATA     BYTE      IP3
      000000F4H   SFRSYM    DATA     BYTE      USBCON
      000000B5H   SFRSYM    DATA     BYTE      IP2
      000000FFH   SFRSYM    DATA     BYTE      RSTCFG
      000000C7H   SFRSYM    DATA     BYTE      IAP_CONTR
      000000F9H   SFRSYM    DATA     BYTE      LINICR
      0000008EH   SFRSYM    DATA     BYTE      AUXR
      000000AFH   SFRSYM    DATA     BYTE      IE2
      00000080H.7 SFRSYM    DATA     BIT       P07
      00000088H   SFRSYM    DATA     BYTE      TCON
      00000089H   SFRSYM    DATA     BYTE      TMOD
      00000098H   SFRSYM    DATA     BYTE      SCON
      000000F1H   SFRSYM    DATA     BYTE      CANICR
      00000087H   SFRSYM    DATA     BYTE      PCON
      000000BCH   SFRSYM    DATA     BYTE      ADC_CONTR
      000000E7H   SFRSYM    DATA     BYTE      CMPCR2
      000000E6H   SFRSYM    DATA     BYTE      CMPCR1
      000000DEH   SFRSYM    DATA     BYTE      ADCCFG
      000000B8H   SFRSYM    DATA     BYTE      IP
      0000008FH   SFRSYM    DATA     BYTE      INTCLKO
      000000EEH   SFRSYM    DATA     BYTE      IP3H
      000000B6H   SFRSYM    DATA     BYTE      IP2H
      000000A8H   SFRSYM    DATA     BYTE      IE
      000000BBH   SFRSYM    DATA     BYTE      P_SW3
      000000BAH   SFRSYM    DATA     BYTE      P_SW2
      000000A2H   SFRSYM    DATA     BYTE      P_SW1
      000000CEH   SFRSYM    DATA     BYTE      SPCTL
      000000F8H   SFRSYM    DATA     BYTE      P7
      000000E8H   SFRSYM    DATA     BYTE      P6
      000000C8H   SFRSYM    DATA     BYTE      P5
      000000C0H   SFRSYM    DATA     BYTE      P4
      000000B0H   SFRSYM    DATA     BYTE      P3
      000000A0H   SFRSYM    DATA     BYTE      P2
      00000090H   SFRSYM    DATA     BYTE      P1
      00000080H   SFRSYM    DATA     BYTE      P0
      000003A5H   SYMBOL    EDATA    BYTE      wireless_uart_data
      000003A6H   SYMBOL    EDATA    ---       wireless_uart_fifo
      000003BAH   SYMBOL    EDATA    ---       wireless_uart_buffer

      00FF89E9H   BLOCK     CODE     ---       LVL=0
      00FF89E9H   LINE      CODE     ---       #48
      00FF89E9H   LINE      CODE     ---       #51
      00FF89EFH   LINE      CODE     ---       #52
      00FF8A02H   LINE      CODE     ---       #53
      ---         BLOCKEND  ---      ---       LVL=0
      00000EA7H   SYMBOL    EDATA    BYTE      dat
      00000D3AH   SYMBOL    EDATA    ---       buff
      00000D3EH   SYMBOL    EDATA    WORD      len
      00000A68H   SYMBOL    EDATA    ---       buff
      00000A6CH   SYMBOL    EDATA    DWORD     len
      00000A70H   SYMBOL    EDATA    DWORD     data_len

      ---         MODULE    ---      ---       isr
      00FF86CFH   PUBLIC    CODE     ---       UART1_Isr
      00FF8A03H   PUBLIC    CODE     ---       UART2_Isr
      00FF8A1DH   PUBLIC    CODE     ---       UART3_Isr
      00FF81F9H   PUBLIC    CODE     ---       UART4_Isr
      00FF0086H   PUBLIC    CODE     ---       INT0_Isr
      00FF000AH   PUBLIC    CODE     ---       INT1_Isr
      00FF008EH   PUBLIC    CODE     ---       INT2_Isr
L251 LINKER/LOCATER V4.66.93.0                                                        04/24/2024  17:02:24  PAGE 95


      00FF0096H   PUBLIC    CODE     ---       INT3_Isr
      00FF009EH   PUBLIC    CODE     ---       INT4_Isr
      00FF8A37H   PUBLIC    CODE     ---       TM0_Isr
      00FF8ABEH   PUBLIC    CODE     ---       TM1_Isr
      00FF8AD4H   PUBLIC    CODE     ---       TM2_Isr
      00FF8AD8H   PUBLIC    CODE     ---       TM3_Isr
      00000D6DH   PUBLIC    EDATA    DWORD     SysTickFlag
      000000D0H   SFRSYM    DATA     BYTE      PSW
      0000009DH   SFRSYM    DATA     BYTE      IRCBAND
      00000097H   SFRSYM    DATA     BYTE      AUXR2
      000000EFH   SFRSYM    DATA     BYTE      AUXINTIF
      000000FDH   SFRSYM    DATA     BYTE      S4CON
      000000ACH   SFRSYM    DATA     BYTE      S3CON
      0000009AH   SFRSYM    DATA     BYTE      S2CON
      000000B7H   SFRSYM    DATA     BYTE      IPH
      000000CDH   SFRSYM    DATA     BYTE      SPSTAT
      000000DDH   SFRSYM    DATA     BYTE      T4T3M
      000000C1H   SFRSYM    DATA     BYTE      WDT_CONTR
      000000DFH   SFRSYM    DATA     BYTE      IP3
      000000F4H   SFRSYM    DATA     BYTE      USBCON
      000000B5H   SFRSYM    DATA     BYTE      IP2
      000000FFH   SFRSYM    DATA     BYTE      RSTCFG
      000000C7H   SFRSYM    DATA     BYTE      IAP_CONTR
      000000F9H   SFRSYM    DATA     BYTE      LINICR
      0000008EH   SFRSYM    DATA     BYTE      AUXR
      000000AFH   SFRSYM    DATA     BYTE      IE2
      000000C8H.2 SFRSYM    DATA     BIT       P52
      00000088H   SFRSYM    DATA     BYTE      TCON
      00000089H   SFRSYM    DATA     BYTE      TMOD
      00000080H.4 SFRSYM    DATA     BIT       P04
      00000098H   SFRSYM    DATA     BYTE      SCON
      000000F1H   SFRSYM    DATA     BYTE      CANICR
      00000087H   SFRSYM    DATA     BYTE      PCON
      00000099H   SFRSYM    DATA     BYTE      SBUF
      000000BCH   SFRSYM    DATA     BYTE      ADC_CONTR
      000000E7H   SFRSYM    DATA     BYTE      CMPCR2
      000000E6H   SFRSYM    DATA     BYTE      CMPCR1
      000000DEH   SFRSYM    DATA     BYTE      ADCCFG
      000000B8H   SFRSYM    DATA     BYTE      IP
      0000008FH   SFRSYM    DATA     BYTE      INTCLKO
      000000EEH   SFRSYM    DATA     BYTE      IP3H
      000000B6H   SFRSYM    DATA     BYTE      IP2H
      000000A8H   SFRSYM    DATA     BYTE      IE
      000000BBH   SFRSYM    DATA     BYTE      P_SW3
      000000BAH   SFRSYM    DATA     BYTE      P_SW2
      000000A2H   SFRSYM    DATA     BYTE      P_SW1
      000000CEH   SFRSYM    DATA     BYTE      SPCTL
      000000F8H   SFRSYM    DATA     BYTE      P7
      000000E8H   SFRSYM    DATA     BYTE      P6
      000000C8H   SFRSYM    DATA     BYTE      P5
      000000C0H   SFRSYM    DATA     BYTE      P4
      000000B0H   SFRSYM    DATA     BYTE      P3
      000000A0H   SFRSYM    DATA     BYTE      P2
      00000090H   SFRSYM    DATA     BYTE      P1
      00000080H   SFRSYM    DATA     BYTE      P0

      00FF86CFH   BLOCK     CODE     ---       LVL=0
      00FF86D1H   BLOCK     CODE     NEAR LAB  LVL=1
      00000EA8H   SYMBOL    EDATA    BYTE      res
      00000D71H   SYMBOL    EDATA    BYTE      dwon_count
      ---         BLOCKEND  ---      ---       LVL=1
      00FF86CFH   LINE      CODE     ---       #22
      00FF86D1H   LINE      CODE     ---       #23
      00FF86D1H   LINE      CODE     ---       #26
      00FF86D6H   LINE      CODE     ---       #28
L251 LINKER/LOCATER V4.66.93.0                                                        04/24/2024  17:02:24  PAGE 96


      00FF86D9H   LINE      CODE     ---       #29
      00FF86DEH   LINE      CODE     ---       #30
      00FF86DEH   LINE      CODE     ---       #31
      00FF86E3H   LINE      CODE     ---       #33
      00FF86E6H   LINE      CODE     ---       #34
      00FF86ECH   LINE      CODE     ---       #36
      00FF86F1H   LINE      CODE     ---       #38
      00FF8703H   LINE      CODE     ---       #39
      00FF8707H   LINE      CODE     ---       #40
      00FF8709H   LINE      CODE     ---       #43
      00FF870EH   LINE      CODE     ---       #44
      00FF870EH   LINE      CODE     ---       #45
      ---         BLOCKEND  ---      ---       LVL=0

      00FF8A03H   BLOCK     CODE     ---       LVL=0
      00FF8A03H   LINE      CODE     ---       #49
      00FF8A05H   LINE      CODE     ---       #51
      00FF8A0AH   LINE      CODE     ---       #53
      00FF8A0DH   LINE      CODE     ---       #54
      00FF8A12H   LINE      CODE     ---       #55
      00FF8A12H   LINE      CODE     ---       #56
      00FF8A17H   LINE      CODE     ---       #58
      00FF8A1AH   LINE      CODE     ---       #61
      ---         BLOCKEND  ---      ---       LVL=0

      00FF8A1DH   BLOCK     CODE     ---       LVL=0
      00FF8A1DH   LINE      CODE     ---       #66
      00FF8A1FH   LINE      CODE     ---       #68
      00FF8A24H   LINE      CODE     ---       #70
      00FF8A27H   LINE      CODE     ---       #71
      00FF8A2CH   LINE      CODE     ---       #72
      00FF8A2CH   LINE      CODE     ---       #73
      00FF8A31H   LINE      CODE     ---       #75
      00FF8A34H   LINE      CODE     ---       #78
      ---         BLOCKEND  ---      ---       LVL=0

      00FF81F9H   BLOCK     CODE     ---       LVL=0
      00FF81F9H   LINE      CODE     ---       #83
      00FF820DH   LINE      CODE     ---       #85
      00FF8210H   LINE      CODE     ---       #86
      00FF8215H   LINE      CODE     ---       #88
      00FF8218H   LINE      CODE     ---       #89
      00FF821DH   LINE      CODE     ---       #90
      00FF821DH   LINE      CODE     ---       #91
      00FF8222H   LINE      CODE     ---       #93
      00FF8225H   LINE      CODE     ---       #95
      00FF8231H   LINE      CODE     ---       #97
      00FF8234H   LINE      CODE     ---       #98
      00FF8236H   LINE      CODE     ---       #99
      00FF8242H   LINE      CODE     ---       #101
      00FF8245H   LINE      CODE     ---       #102
      00FF8245H   LINE      CODE     ---       #105
      ---         BLOCKEND  ---      ---       LVL=0

      00FF0086H   BLOCK     CODE     ---       LVL=0
      00FF0086H   LINE      CODE     ---       #108
      00FF0086H   LINE      CODE     ---       #110
      00FF0089H   LINE      CODE     ---       #111
      ---         BLOCKEND  ---      ---       LVL=0

      00FF000AH   BLOCK     CODE     ---       LVL=0
      00FF000AH   LINE      CODE     ---       #112
      00FF000AH   LINE      CODE     ---       #115
      ---         BLOCKEND  ---      ---       LVL=0

L251 LINKER/LOCATER V4.66.93.0                                                        04/24/2024  17:02:24  PAGE 97


      00FF008EH   BLOCK     CODE     ---       LVL=0
      00FF008EH   LINE      CODE     ---       #116
      00FF008EH   LINE      CODE     ---       #118
      00FF0091H   LINE      CODE     ---       #119
      ---         BLOCKEND  ---      ---       LVL=0

      00FF0096H   BLOCK     CODE     ---       LVL=0
      00FF0096H   LINE      CODE     ---       #120
      00FF0096H   LINE      CODE     ---       #122
      00FF0099H   LINE      CODE     ---       #123
      ---         BLOCKEND  ---      ---       LVL=0

      00FF009EH   BLOCK     CODE     ---       LVL=0
      00FF009EH   LINE      CODE     ---       #125
      00FF009EH   LINE      CODE     ---       #127
      00FF00A1H   LINE      CODE     ---       #128
      ---         BLOCKEND  ---      ---       LVL=0

      00FF8A37H   BLOCK     CODE     ---       LVL=0
      00FF8A37H   LINE      CODE     ---       #130
      00FF8A3BH   LINE      CODE     ---       #132
      00FF8A49H   LINE      CODE     ---       #133
      ---         BLOCKEND  ---      ---       LVL=0

      00FF8ABEH   BLOCK     CODE     ---       LVL=0
      00FF8ABEH   LINE      CODE     ---       #134
      00FF8ABEH   LINE      CODE     ---       #136
      00FF8AC7H   LINE      CODE     ---       #137
      ---         BLOCKEND  ---      ---       LVL=0

      00FF8AD4H   BLOCK     CODE     ---       LVL=0
      00FF8AD4H   LINE      CODE     ---       #138
      00FF8AD4H   LINE      CODE     ---       #140
      00FF8AD7H   LINE      CODE     ---       #142
      ---         BLOCKEND  ---      ---       LVL=0

      00FF8AD8H   BLOCK     CODE     ---       LVL=0
      00FF8AD8H   LINE      CODE     ---       #143
      00FF8AD8H   LINE      CODE     ---       #145
      00FF8ADBH   LINE      CODE     ---       #147
      ---         BLOCKEND  ---      ---       LVL=0

      ---         MODULE    ---      ---       main
      00FF7567H   PUBLIC    CODE     ---       main
      00000DCFH   PUBLIC    EDATA    INT       flag
      00000DD1H   PUBLIC    EDATA    INT       menu
      000000D0H   SFRSYM    DATA     BYTE      PSW
      0000009DH   SFRSYM    DATA     BYTE      IRCBAND
      00000097H   SFRSYM    DATA     BYTE      AUXR2
      000000EFH   SFRSYM    DATA     BYTE      AUXINTIF
      000000FDH   SFRSYM    DATA     BYTE      S4CON
      000000ACH   SFRSYM    DATA     BYTE      S3CON
      0000009AH   SFRSYM    DATA     BYTE      S2CON
      000000B7H   SFRSYM    DATA     BYTE      IPH
      000000CDH   SFRSYM    DATA     BYTE      SPSTAT
      000000DDH   SFRSYM    DATA     BYTE      T4T3M
      000000C1H   SFRSYM    DATA     BYTE      WDT_CONTR
      000000DFH   SFRSYM    DATA     BYTE      IP3
      000000F4H   SFRSYM    DATA     BYTE      USBCON
      000000B5H   SFRSYM    DATA     BYTE      IP2
      000000FFH   SFRSYM    DATA     BYTE      RSTCFG
      000000C7H   SFRSYM    DATA     BYTE      IAP_CONTR
      000000F9H   SFRSYM    DATA     BYTE      LINICR
      0000008EH   SFRSYM    DATA     BYTE      AUXR
      000000AFH   SFRSYM    DATA     BYTE      IE2
L251 LINKER/LOCATER V4.66.93.0                                                        04/24/2024  17:02:24  PAGE 98


      00000088H   SFRSYM    DATA     BYTE      TCON
      00000089H   SFRSYM    DATA     BYTE      TMOD
      00000098H   SFRSYM    DATA     BYTE      SCON
      000000F1H   SFRSYM    DATA     BYTE      CANICR
      00000087H   SFRSYM    DATA     BYTE      PCON
      000000BCH   SFRSYM    DATA     BYTE      ADC_CONTR
      000000E7H   SFRSYM    DATA     BYTE      CMPCR2
      000000E6H   SFRSYM    DATA     BYTE      CMPCR1
      000000DEH   SFRSYM    DATA     BYTE      ADCCFG
      000000B8H   SFRSYM    DATA     BYTE      IP
      0000008FH   SFRSYM    DATA     BYTE      INTCLKO
      000000EEH   SFRSYM    DATA     BYTE      IP3H
      000000B6H   SFRSYM    DATA     BYTE      IP2H
      000000A8H   SFRSYM    DATA     BYTE      IE
      000000BBH   SFRSYM    DATA     BYTE      P_SW3
      000000BAH   SFRSYM    DATA     BYTE      P_SW2
      000000A2H   SFRSYM    DATA     BYTE      P_SW1
      000000CEH   SFRSYM    DATA     BYTE      SPCTL
      000000F8H   SFRSYM    DATA     BYTE      P7
      000000E8H   SFRSYM    DATA     BYTE      P6
      000000C8H   SFRSYM    DATA     BYTE      P5
      000000C0H   SFRSYM    DATA     BYTE      P4
      000000B0H   SFRSYM    DATA     BYTE      P3
      000000A0H   SFRSYM    DATA     BYTE      P2
      00000090H   SFRSYM    DATA     BYTE      P1
      00000080H   SFRSYM    DATA     BYTE      P0

      00FF7567H   BLOCK     CODE     ---       LVL=0
      00000E80H   SYMBOL    EDATA    INT       i
      00FF7567H   LINE      CODE     ---       #33
      00FF7567H   LINE      CODE     ---       #34
      00FF7567H   LINE      CODE     ---       #35
      00FF756DH   LINE      CODE     ---       #36
      00FF7578H   LINE      CODE     ---       #37
      00FF757BH   LINE      CODE     ---       #39
      00FF757EH   LINE      CODE     ---       #40
      00FF7599H   LINE      CODE     ---       #42
      00FF759CH   LINE      CODE     ---       #43
      00FF75A0H   LINE      CODE     ---       #44
      00FF75A3H   LINE      CODE     ---       #45
      00FF75A6H   LINE      CODE     ---       #46
      00FF75A9H   LINE      CODE     ---       #47
      00FF75BAH   LINE      CODE     ---       #50
      00FF75BAH   LINE      CODE     ---       #52
      00FF75BDH   LINE      CODE     ---       #53
      00FF75C4H   LINE      CODE     ---       #54
      00FF75D3H   LINE      CODE     ---       #55
      00FF75E2H   LINE      CODE     ---       #56
      00FF75F1H   LINE      CODE     ---       #57
      00FF7600H   LINE      CODE     ---       #58
      00FF760FH   LINE      CODE     ---       #59
      00FF761BH   LINE      CODE     ---       #60
      00FF7623H   LINE      CODE     ---       #61
      00FF762FH   LINE      CODE     ---       #63
      00FF7632H   LINE      CODE     ---       #64
      00FF7638H   LINE      CODE     ---       #65
      00FF7638H   LINE      CODE     ---       #66
      00FF763EH   LINE      CODE     ---       #67
      00FF7641H   LINE      CODE     ---       #69
      ---         BLOCKEND  ---      ---       LVL=0

      ---         MODULE    ---      ---       Inductance
      00FF4C4EH   PUBLIC    CODE     ---       NORMALIZATION_TRACKING_ADC
      00FF77DFH   PUBLIC    CODE     ---       sq
      00FF6F34H   PUBLIC    CODE     ---       show_val
L251 LINKER/LOCATER V4.66.93.0                                                        04/24/2024  17:02:24  PAGE 99


      00FF8688H   PUBLIC    CODE     ---       Inductance_Init
      00000008H   PUBLIC    EDATA    WORD      R3_NOR_ADC
      0000000AH   PUBLIC    EDATA    WORD      L3
      0000000CH   PUBLIC    EDATA    WORD      R1
      0000000EH   PUBLIC    EDATA    WORD      R2
      00000010H   PUBLIC    EDATA    WORD      R3
      00000012H   PUBLIC    EDATA    WORD      Right_Val
      00000014H   PUBLIC    EDATA    ---       ADC_MIN
      00000022H   PUBLIC    EDATA    ---       ADC_MAX
      00000030H   PUBLIC    EDATA    WORD      Left_Val
      00000032H   PUBLIC    EDATA    ---       AD_NOR_VAL
      0000004EH   PUBLIC    EDATA    ---       NOR_VAL
      0000006AH   PUBLIC    EDATA    INT       bug
      0000006CH   PUBLIC    EDATA    INT       ad_diff
      0000006EH   PUBLIC    EDATA    ---       ad_value
      000000FAH   PUBLIC    EDATA    INT       Inductance_Error
      000000FCH   PUBLIC    EDATA    WORD      L1_NOR_ADC
      000000FEH   PUBLIC    EDATA    WORD      M1_NOR_ADC
      00000100H   PUBLIC    EDATA    WORD      L2_NOR_ADC
      00000102H   PUBLIC    EDATA    WORD      L3_NOR_ADC
      00000104H   PUBLIC    EDATA    INT       ad_sum
      00000106H   PUBLIC    EDATA    WORD      R1_NOR_ADC
      00000108H   PUBLIC    EDATA    WORD      L1
      0000010AH   PUBLIC    EDATA    WORD      R2_NOR_ADC
      0000010CH   PUBLIC    EDATA    WORD      M1
      0000010EH   PUBLIC    EDATA    WORD      L2
      000000D0H   SFRSYM    DATA     BYTE      PSW
      0000009DH   SFRSYM    DATA     BYTE      IRCBAND
      00000097H   SFRSYM    DATA     BYTE      AUXR2
      000000EFH   SFRSYM    DATA     BYTE      AUXINTIF
      000000FDH   SFRSYM    DATA     BYTE      S4CON
      000000ACH   SFRSYM    DATA     BYTE      S3CON
      0000009AH   SFRSYM    DATA     BYTE      S2CON
      000000B7H   SFRSYM    DATA     BYTE      IPH
      000000CDH   SFRSYM    DATA     BYTE      SPSTAT
      000000DDH   SFRSYM    DATA     BYTE      T4T3M
      000000C1H   SFRSYM    DATA     BYTE      WDT_CONTR
      000000DFH   SFRSYM    DATA     BYTE      IP3
      000000F4H   SFRSYM    DATA     BYTE      USBCON
      000000B5H   SFRSYM    DATA     BYTE      IP2
      000000FFH   SFRSYM    DATA     BYTE      RSTCFG
      000000C7H   SFRSYM    DATA     BYTE      IAP_CONTR
      000000F9H   SFRSYM    DATA     BYTE      LINICR
      0000008EH   SFRSYM    DATA     BYTE      AUXR
      000000AFH   SFRSYM    DATA     BYTE      IE2
      00000088H   SFRSYM    DATA     BYTE      TCON
      00000089H   SFRSYM    DATA     BYTE      TMOD
      00000098H   SFRSYM    DATA     BYTE      SCON
      000000F1H   SFRSYM    DATA     BYTE      CANICR
      00000087H   SFRSYM    DATA     BYTE      PCON
      000000BCH   SFRSYM    DATA     BYTE      ADC_CONTR
      000000E7H   SFRSYM    DATA     BYTE      CMPCR2
      000000E6H   SFRSYM    DATA     BYTE      CMPCR1
      000000DEH   SFRSYM    DATA     BYTE      ADCCFG
      000000B8H   SFRSYM    DATA     BYTE      IP
      0000008FH   SFRSYM    DATA     BYTE      INTCLKO
      000000EEH   SFRSYM    DATA     BYTE      IP3H
      000000B6H   SFRSYM    DATA     BYTE      IP2H
      000000A8H   SFRSYM    DATA     BYTE      IE
      000000BBH   SFRSYM    DATA     BYTE      P_SW3
      000000BAH   SFRSYM    DATA     BYTE      P_SW2
      000000A2H   SFRSYM    DATA     BYTE      P_SW1
      000000CEH   SFRSYM    DATA     BYTE      SPCTL
      000000F8H   SFRSYM    DATA     BYTE      P7
      000000E8H   SFRSYM    DATA     BYTE      P6
L251 LINKER/LOCATER V4.66.93.0                                                        04/24/2024  17:02:24  PAGE 100


      000000C8H   SFRSYM    DATA     BYTE      P5
      000000C0H   SFRSYM    DATA     BYTE      P4
      000000B0H   SFRSYM    DATA     BYTE      P3
      000000A0H   SFRSYM    DATA     BYTE      P2
      00000090H   SFRSYM    DATA     BYTE      P1
      00000080H   SFRSYM    DATA     BYTE      P0
      00FF9017H   SYMBOL    HCONST   ---       ?tpl?0001
      00FF9025H   SYMBOL    HCONST   ---       ?tpl?0002

      00FF8688H   BLOCK     CODE     ---       LVL=0
      00FF8688H   LINE      CODE     ---       #32
      00FF8688H   LINE      CODE     ---       #34
      00FF8691H   LINE      CODE     ---       #35
      00FF8698H   LINE      CODE     ---       #36
      00FF86A1H   LINE      CODE     ---       #37
      00FF86AAH   LINE      CODE     ---       #38
      00FF86B3H   LINE      CODE     ---       #39
      00FF86BCH   LINE      CODE     ---       #40
      00FF86C5H   LINE      CODE     ---       #41
      00FF86CEH   LINE      CODE     ---       #42
      ---         BLOCKEND  ---      ---       LVL=0

      00FF77DFH   BLOCK     CODE     ---       LVL=0
      000008A1H   SYMBOL    EDATA    FLOAT     number
      00FF77E3H   BLOCK     CODE     NEAR LAB  LVL=1
      000008A5H   SYMBOL    EDATA    LONG      i
      000008A9H   SYMBOL    EDATA    FLOAT     x
      000008ADH   SYMBOL    EDATA    FLOAT     y
      000008B1H   SYMBOL    EDATA    FLOAT     f
      ---         BLOCKEND  ---      ---       LVL=1
      00FF77DFH   LINE      CODE     ---       #49
      00FF77E3H   LINE      CODE     ---       #50
      00FF77E3H   LINE      CODE     ---       #53
      00FF77EDH   LINE      CODE     ---       #55
      00FF77FEH   LINE      CODE     ---       #56
      00FF7806H   LINE      CODE     ---       #57
      00FF7815H   LINE      CODE     ---       #58
      00FF782EH   LINE      CODE     ---       #59
      00FF783DH   LINE      CODE     ---       #60
      00FF7865H   LINE      CODE     ---       #61
      00FF788DH   LINE      CODE     ---       #62
      00FF7898H   LINE      CODE     ---       #63
      ---         BLOCKEND  ---      ---       LVL=0

      00FF4C4EH   BLOCK     CODE     ---       LVL=0
      00000715H   SYMBOL    EDATA    FLOAT     I1
      00FF4C52H   BLOCK     CODE     NEAR LAB  LVL=1
      00000719H   SYMBOL    EDATA    INT       i
      0000071BH   SYMBOL    EDATA    INT       j
      0000071DH   SYMBOL    EDATA    INT       k
      0000071FH   SYMBOL    EDATA    INT       temp
      00000721H   SYMBOL    EDATA    ---       ad_sum1
      0000072FH   SYMBOL    EDATA    ---       ad_valu1
      ---         BLOCKEND  ---      ---       LVL=1
      00FF4C4EH   LINE      CODE     ---       #72
      00FF4C52H   LINE      CODE     ---       #73
      00FF4C52H   LINE      CODE     ---       #74
      00FF4C6AH   LINE      CODE     ---       #75
      00FF4C7BH   LINE      CODE     ---       #76
      00FF4C8CH   LINE      CODE     ---       #77
      00FF4C95H   LINE      CODE     ---       #79
      00FF4CAFH   LINE      CODE     ---       #80
      00FF4CC7H   LINE      CODE     ---       #81
      00FF4CE1H   LINE      CODE     ---       #82
      00FF4CFBH   LINE      CODE     ---       #83
L251 LINKER/LOCATER V4.66.93.0                                                        04/24/2024  17:02:24  PAGE 101


      00FF4D15H   LINE      CODE     ---       #84
      00FF4D2FH   LINE      CODE     ---       #85
      00FF4D49H   LINE      CODE     ---       #86
      00FF4D56H   LINE      CODE     ---       #87
      00FF4D73H   LINE      CODE     ---       #90
      00FF4D7CH   LINE      CODE     ---       #92
      00FF4D85H   LINE      CODE     ---       #94
      00FF4D8EH   LINE      CODE     ---       #96
      00FF4DCAH   LINE      CODE     ---       #98
      00FF4DEBH   LINE      CODE     ---       #99
      00FF4E23H   LINE      CODE     ---       #100
      00FF4E42H   LINE      CODE     ---       #101
      00FF4E65H   LINE      CODE     ---       #103
      00FF4E82H   LINE      CODE     ---       #104
      00FF4E9FH   LINE      CODE     ---       #107
      00FF4EA8H   LINE      CODE     ---       #109
      00FF4EB0H   LINE      CODE     ---       #111
      00FF4EE1H   LINE      CODE     ---       #112
      00FF4EFBH   LINE      CODE     ---       #113
      00FF4F22H   LINE      CODE     ---       #114
      00FF4F3FH   LINE      CODE     ---       #117
      00FF4F47H   LINE      CODE     ---       #118
      00FF4F4FH   LINE      CODE     ---       #119
      00FF4F57H   LINE      CODE     ---       #120
      00FF4F5FH   LINE      CODE     ---       #121
      00FF4F67H   LINE      CODE     ---       #122
      00FF4F6FH   LINE      CODE     ---       #123
      00FF4F77H   LINE      CODE     ---       #129
      00FF4F9CH   LINE      CODE     ---       #130
      00FF4FC1H   LINE      CODE     ---       #131
      00FF4FE6H   LINE      CODE     ---       #132
      00FF500BH   LINE      CODE     ---       #133
      00FF5030H   LINE      CODE     ---       #134
      00FF5055H   LINE      CODE     ---       #135
      00FF507AH   LINE      CODE     ---       #137
      00FF5083H   LINE      CODE     ---       #139
      00FF509FH   LINE      CODE     ---       #141
      00FF50BCH   LINE      CODE     ---       #142
      00FF50BCH   LINE      CODE     ---       #143
      00FF50DCH   LINE      CODE     ---       #145
      00FF50F7H   LINE      CODE     ---       #146
      00FF50F7H   LINE      CODE     ---       #147
      00FF512CH   LINE      CODE     ---       #148
      00FF5149H   LINE      CODE     ---       #151
      00FF5154H   LINE      CODE     ---       #152
      00FF515FH   LINE      CODE     ---       #153
      00FF516AH   LINE      CODE     ---       #154
      00FF5175H   LINE      CODE     ---       #155
      00FF5180H   LINE      CODE     ---       #156
      00FF518BH   LINE      CODE     ---       #157
      00FF5196H   LINE      CODE     ---       #159
      00FF5196H   LINE      CODE     ---       #160
      00FF51AEH   LINE      CODE     ---       #161
      00FF51C8H   LINE      CODE     ---       #162
      00FF51E2H   LINE      CODE     ---       #164
      00FF5208H   LINE      CODE     ---       #165
      00FF522EH   LINE      CODE     ---       #166
      00FF523CH   LINE      CODE     ---       #167
      00FF524AH   LINE      CODE     ---       #168
      00FF5256H   LINE      CODE     ---       #170
      00FF5279H   LINE      CODE     ---       #171
      00FF5279H   LINE      CODE     ---       #173
      00FF527DH   LINE      CODE     ---       #174
      ---         BLOCKEND  ---      ---       LVL=0

L251 LINKER/LOCATER V4.66.93.0                                                        04/24/2024  17:02:24  PAGE 102


      00FF6F34H   BLOCK     CODE     ---       LVL=0
      00FF6F34H   LINE      CODE     ---       #182
      00FF6F34H   LINE      CODE     ---       #185
      00FF6F42H   LINE      CODE     ---       #186
      00FF6F4DH   LINE      CODE     ---       #188
      00FF6F5CH   LINE      CODE     ---       #189
      00FF6F67H   LINE      CODE     ---       #191
      00FF6F76H   LINE      CODE     ---       #192
      00FF6F82H   LINE      CODE     ---       #194
      00FF6F92H   LINE      CODE     ---       #195
      00FF6F9EH   LINE      CODE     ---       #197
      00FF6FADH   LINE      CODE     ---       #198
      00FF6FB9H   LINE      CODE     ---       #200
      00FF6FC9H   LINE      CODE     ---       #201
      00FF6FD5H   LINE      CODE     ---       #203
      00FF6FE4H   LINE      CODE     ---       #204
      00FF6FF0H   LINE      CODE     ---       #206
      00FF7000H   LINE      CODE     ---       #207
      00FF700CH   LINE      CODE     ---       #210
      00FF701BH   LINE      CODE     ---       #211
      00FF7027H   LINE      CODE     ---       #212
      00FF7032H   LINE      CODE     ---       #213
      00FF703EH   LINE      CODE     ---       #214
      00FF7049H   LINE      CODE     ---       #215
      00FF7055H   LINE      CODE     ---       #223
      ---         BLOCKEND  ---      ---       LVL=0

      ---         MODULE    ---      ---       Motor
      00FF846DH   PUBLIC    CODE     ---       Motor_Init
      00FF85F4H   PUBLIC    CODE     ---       Motor_SET_PID
      00FF878BH   PUBLIC    CODE     ---       limit
      00FF748BH   PUBLIC    CODE     ---       Speed_pid_Out
      00FF7EA5H   PUBLIC    CODE     ---       Motor_PWM
      000003FAH   PUBLIC    EDATA    ---       Motor_pid
      00000422H   PUBLIC    EDATA    FLOAT     Motor_I
      00000426H   PUBLIC    EDATA    FLOAT     Motor_P
      00000A74H   PUBLIC    EDATA    BYTE      ?Motor_SET_PID?BYTE
      000000D0H   SFRSYM    DATA     BYTE      PSW
      0000009DH   SFRSYM    DATA     BYTE      IRCBAND
      00000097H   SFRSYM    DATA     BYTE      AUXR2
      000000EFH   SFRSYM    DATA     BYTE      AUXINTIF
      000000FDH   SFRSYM    DATA     BYTE      S4CON
      000000ACH   SFRSYM    DATA     BYTE      S3CON
      0000009AH   SFRSYM    DATA     BYTE      S2CON
      000000B7H   SFRSYM    DATA     BYTE      IPH
      000000CDH   SFRSYM    DATA     BYTE      SPSTAT
      000000DDH   SFRSYM    DATA     BYTE      T4T3M
      000000C1H   SFRSYM    DATA     BYTE      WDT_CONTR
      000000DFH   SFRSYM    DATA     BYTE      IP3
      000000F4H   SFRSYM    DATA     BYTE      USBCON
      000000B5H   SFRSYM    DATA     BYTE      IP2
      000000FFH   SFRSYM    DATA     BYTE      RSTCFG
      000000C7H   SFRSYM    DATA     BYTE      IAP_CONTR
      000000F9H   SFRSYM    DATA     BYTE      LINICR
      0000008EH   SFRSYM    DATA     BYTE      AUXR
      000000AFH   SFRSYM    DATA     BYTE      IE2
      000000C8H.2 SFRSYM    DATA     BIT       P52
      000000C0H.2 SFRSYM    DATA     BIT       P42
      00000088H   SFRSYM    DATA     BYTE      TCON
      00000089H   SFRSYM    DATA     BYTE      TMOD
      00000090H.3 SFRSYM    DATA     BIT       P13
      00000098H   SFRSYM    DATA     BYTE      SCON
      000000F1H   SFRSYM    DATA     BYTE      CANICR
      00000087H   SFRSYM    DATA     BYTE      PCON
      000000BCH   SFRSYM    DATA     BYTE      ADC_CONTR
L251 LINKER/LOCATER V4.66.93.0                                                        04/24/2024  17:02:24  PAGE 103


      00000080H.0 SFRSYM    DATA     BIT       P00
      000000E7H   SFRSYM    DATA     BYTE      CMPCR2
      000000E6H   SFRSYM    DATA     BYTE      CMPCR1
      000000DEH   SFRSYM    DATA     BYTE      ADCCFG
      000000B8H   SFRSYM    DATA     BYTE      IP
      0000008FH   SFRSYM    DATA     BYTE      INTCLKO
      000000EEH   SFRSYM    DATA     BYTE      IP3H
      000000B6H   SFRSYM    DATA     BYTE      IP2H
      000000A8H   SFRSYM    DATA     BYTE      IE
      000000BBH   SFRSYM    DATA     BYTE      P_SW3
      000000BAH   SFRSYM    DATA     BYTE      P_SW2
      000000A2H   SFRSYM    DATA     BYTE      P_SW1
      000000CEH   SFRSYM    DATA     BYTE      SPCTL
      000000F8H   SFRSYM    DATA     BYTE      P7
      000000E8H   SFRSYM    DATA     BYTE      P6
      000000C8H   SFRSYM    DATA     BYTE      P5
      000000C0H   SFRSYM    DATA     BYTE      P4
      000000B0H   SFRSYM    DATA     BYTE      P3
      000000A0H   SFRSYM    DATA     BYTE      P2
      00000090H   SFRSYM    DATA     BYTE      P1
      00000080H   SFRSYM    DATA     BYTE      P0

      00FF878BH   BLOCK     CODE     ---       LVL=0
      00000DD3H   SYMBOL    EDATA    INT       In
      00000DD5H   SYMBOL    EDATA    INT       limit
      00FF878BH   LINE      CODE     ---       #21
      00FF8793H   LINE      CODE     ---       #23
      00FF87C5H   LINE      CODE     ---       #24
      ---         BLOCKEND  ---      ---       LVL=0

      00FF846DH   BLOCK     CODE     ---       LVL=0
      00FF846DH   LINE      CODE     ---       #32
      00FF846DH   LINE      CODE     ---       #34
      00FF8478H   LINE      CODE     ---       #35
      00FF8483H   LINE      CODE     ---       #37
      00FF848EH   LINE      CODE     ---       #38
      00FF8499H   LINE      CODE     ---       #39
      00FF849CH   LINE      CODE     ---       #40
      00FF84ADH   LINE      CODE     ---       #41
      00FF84BEH   LINE      CODE     ---       #42
      ---         BLOCKEND  ---      ---       LVL=0

      00FF7EA5H   BLOCK     CODE     ---       LVL=0
      00000DD7H   SYMBOL    EDATA    INT       L_PWM
      00000DD9H   SYMBOL    EDATA    INT       R_PWM
      00FF7EA5H   LINE      CODE     ---       #53
      00FF7EADH   LINE      CODE     ---       #55
      00FF7EB7H   LINE      CODE     ---       #57
      00FF7EBAH   LINE      CODE     ---       #58
      00FF7ECEH   LINE      CODE     ---       #59
      00FF7ED0H   LINE      CODE     ---       #61
      00FF7ED3H   LINE      CODE     ---       #62
      00FF7EE2H   LINE      CODE     ---       #63
      00FF7EE2H   LINE      CODE     ---       #64
      00FF7EECH   LINE      CODE     ---       #66
      00FF7EEFH   LINE      CODE     ---       #67
      00FF7F03H   LINE      CODE     ---       #68
      00FF7F05H   LINE      CODE     ---       #70
      00FF7F08H   LINE      CODE     ---       #71
      00FF7F17H   LINE      CODE     ---       #72
      00FF7F17H   LINE      CODE     ---       #73
      ---         BLOCKEND  ---      ---       LVL=0

      00FF85F4H   BLOCK     CODE     ---       LVL=0
      00000A74H   SYMBOL    EDATA    FLOAT     Kp
L251 LINKER/LOCATER V4.66.93.0                                                        04/24/2024  17:02:24  PAGE 104


      00000A78H   SYMBOL    EDATA    FLOAT     Ki
      00000A7CH   SYMBOL    EDATA    FLOAT     Kd
      00FF85F4H   LINE      CODE     ---       #83
      00FF85FCH   LINE      CODE     ---       #85
      00FF8602H   LINE      CODE     ---       #86
      00FF8608H   LINE      CODE     ---       #87
      00FF860EH   LINE      CODE     ---       #88
      00FF8614H   LINE      CODE     ---       #89
      00FF861AH   LINE      CODE     ---       #90
      00FF8622H   LINE      CODE     ---       #91
      00FF862AH   LINE      CODE     ---       #92
      00FF8632H   LINE      CODE     ---       #93
      00FF8638H   LINE      CODE     ---       #94
      00FF863EH   LINE      CODE     ---       #95
      ---         BLOCKEND  ---      ---       LVL=0
      00000D72H   SYMBOL    EDATA    CHAR      NEW_DATA
      00000D73H   SYMBOL    EDATA    CHAR      OLD_DATA
      00000D74H   SYMBOL    EDATA    CHAR      k
      00000D75H   SYMBOL    EDATA    INT       result

      00FF748BH   BLOCK     CODE     ---       LVL=0
      00000974H   SYMBOL    EDATA    INT       Target_Value
      00000976H   SYMBOL    EDATA    INT       Actual_Value
      00FF7493H   BLOCK     CODE     NEAR LAB  LVL=1
      00000978H   SYMBOL    EDATA    FLOAT     Kp_Value
      0000097CH   SYMBOL    EDATA    INT       Target_LBVal
      0000042AH   SYMBOL    EDATA    FLOAT     Ki_Value
      0000042EH   SYMBOL    EDATA    FLOAT     Kd_Value
      0000097EH   SYMBOL    EDATA    FLOAT     MOTOR_PWM
      ---         BLOCKEND  ---      ---       LVL=1
      00FF748BH   LINE      CODE     ---       #133
      00FF7493H   LINE      CODE     ---       #134
      00FF7493H   LINE      CODE     ---       #135
      00FF7499H   LINE      CODE     ---       #136
      00FF749FH   LINE      CODE     ---       #138
      00FF74A5H   LINE      CODE     ---       #141
      00FF74B8H   LINE      CODE     ---       #142
      00FF74C6H   LINE      CODE     ---       #144
      00FF74CCH   LINE      CODE     ---       #145
      00FF74D2H   LINE      CODE     ---       #146
      00FF74D2H   LINE      CODE     ---       #148
      00FF74E1H   LINE      CODE     ---       #150
      00FF74F0H   LINE      CODE     ---       #151
      00FF7509H   LINE      CODE     ---       #152
      00FF7522H   LINE      CODE     ---       #154
      00FF752AH   LINE      CODE     ---       #155
      00FF7532H   LINE      CODE     ---       #157
      00FF754AH   LINE      CODE     ---       #158
      00FF754EH   LINE      CODE     ---       #159
      00FF7563H   LINE      CODE     ---       #160
      00FF7566H   LINE      CODE     ---       #161
      ---         BLOCKEND  ---      ---       LVL=0
      00000E82H   SYMBOL    EDATA    INT       time

      ---         MODULE    ---      ---       encoder
      00FF8869H   PUBLIC    CODE     ---       Encoder_Time_Init
      00FF89A6H   PUBLIC    CODE     ---       L_Encoder_Pulse
      00FF8938H   PUBLIC    CODE     ---       R_Encoder_Pulse
      00FF8194H   PUBLIC    CODE     ---       TM4_Isr
      000007C0H   PUBLIC    EDATA    INT       nh_out
      000007C2H   PUBLIC    EDATA    INT       speed
      000007C4H   PUBLIC    EDATA    INT       Sum_Pulse
      000007C6H   PUBLIC    EDATA    INT       L_Pulse
      000007C8H   PUBLIC    EDATA    FLOAT     angle1
      000007CCH   PUBLIC    EDATA    INT       R_Pulse
L251 LINKER/LOCATER V4.66.93.0                                                        04/24/2024  17:02:24  PAGE 105


      000007CEH   PUBLIC    EDATA    INT       dir_out
      000000D0H   SFRSYM    DATA     BYTE      PSW
      0000009DH   SFRSYM    DATA     BYTE      IRCBAND
      00000097H   SFRSYM    DATA     BYTE      AUXR2
      000000EFH   SFRSYM    DATA     BYTE      AUXINTIF
      000000FDH   SFRSYM    DATA     BYTE      S4CON
      000000ACH   SFRSYM    DATA     BYTE      S3CON
      0000009AH   SFRSYM    DATA     BYTE      S2CON
      000000B7H   SFRSYM    DATA     BYTE      IPH
      000000CDH   SFRSYM    DATA     BYTE      SPSTAT
      000000DDH   SFRSYM    DATA     BYTE      T4T3M
      000000C1H   SFRSYM    DATA     BYTE      WDT_CONTR
      000000DFH   SFRSYM    DATA     BYTE      IP3
      000000F4H   SFRSYM    DATA     BYTE      USBCON
      000000B5H   SFRSYM    DATA     BYTE      IP2
      000000FFH   SFRSYM    DATA     BYTE      RSTCFG
      000000C7H   SFRSYM    DATA     BYTE      IAP_CONTR
      000000F9H   SFRSYM    DATA     BYTE      LINICR
      0000008EH   SFRSYM    DATA     BYTE      AUXR
      000000AFH   SFRSYM    DATA     BYTE      IE2
      00000090H.6 SFRSYM    DATA     BIT       P16
      00000088H   SFRSYM    DATA     BYTE      TCON
      00000089H   SFRSYM    DATA     BYTE      TMOD
      000000C8H.0 SFRSYM    DATA     BIT       P50
      00000098H   SFRSYM    DATA     BYTE      SCON
      000000F1H   SFRSYM    DATA     BYTE      CANICR
      00000087H   SFRSYM    DATA     BYTE      PCON
      000000BCH   SFRSYM    DATA     BYTE      ADC_CONTR
      000000E7H   SFRSYM    DATA     BYTE      CMPCR2
      000000E6H   SFRSYM    DATA     BYTE      CMPCR1
      000000DEH   SFRSYM    DATA     BYTE      ADCCFG
      000000B8H   SFRSYM    DATA     BYTE      IP
      0000008FH   SFRSYM    DATA     BYTE      INTCLKO
      000000EEH   SFRSYM    DATA     BYTE      IP3H
      000000B6H   SFRSYM    DATA     BYTE      IP2H
      000000A8H   SFRSYM    DATA     BYTE      IE
      000000BBH   SFRSYM    DATA     BYTE      P_SW3
      000000BAH   SFRSYM    DATA     BYTE      P_SW2
      000000A2H   SFRSYM    DATA     BYTE      P_SW1
      000000CEH   SFRSYM    DATA     BYTE      SPCTL
      000000F8H   SFRSYM    DATA     BYTE      P7
      000000E8H   SFRSYM    DATA     BYTE      P6
      000000C8H   SFRSYM    DATA     BYTE      P5
      000000C0H   SFRSYM    DATA     BYTE      P4
      000000B0H   SFRSYM    DATA     BYTE      P3
      000000A0H   SFRSYM    DATA     BYTE      P2
      00000090H   SFRSYM    DATA     BYTE      P1
      00000080H   SFRSYM    DATA     BYTE      P0

      00FF8869H   BLOCK     CODE     ---       LVL=0
      00FF8869H   LINE      CODE     ---       #15
      00FF8869H   LINE      CODE     ---       #17
      00FF8874H   LINE      CODE     ---       #18
      00FF887DH   LINE      CODE     ---       #19
      00FF8888H   LINE      CODE     ---       #20
      00FF888DH   LINE      CODE     ---       #21
      00FF8894H   LINE      CODE     ---       #22
      00FF8897H   LINE      CODE     ---       #23
      ---         BLOCKEND  ---      ---       LVL=0

      00FF89A6H   BLOCK     CODE     ---       LVL=0
      00FF89A6H   LINE      CODE     ---       #31
      00FF89A6H   LINE      CODE     ---       #33
      00FF89AFH   LINE      CODE     ---       #35
      00FF89B8H   LINE      CODE     ---       #36
L251 LINKER/LOCATER V4.66.93.0                                                        04/24/2024  17:02:24  PAGE 106


      00FF89BAH   LINE      CODE     ---       #39
      00FF89C3H   LINE      CODE     ---       #40
      00FF89C3H   LINE      CODE     ---       #41
      00FF89C7H   LINE      CODE     ---       #42
      ---         BLOCKEND  ---      ---       LVL=0

      00FF8938H   BLOCK     CODE     ---       LVL=0
      00FF8938H   LINE      CODE     ---       #49
      00FF8938H   LINE      CODE     ---       #51
      00FF8941H   LINE      CODE     ---       #53
      00FF894CH   LINE      CODE     ---       #55
      00FF894EH   LINE      CODE     ---       #58
      00FF8959H   LINE      CODE     ---       #59
      00FF8959H   LINE      CODE     ---       #60
      00FF895DH   LINE      CODE     ---       #61
      ---         BLOCKEND  ---      ---       LVL=0
      00000E84H   SYMBOL    EDATA    INT       L_target
      000007D0H   SYMBOL    EDATA    INT       L
      000007D2H   SYMBOL    EDATA    INT       L_flag
      00000E86H   SYMBOL    EDATA    INT       R_target
      000007D4H   SYMBOL    EDATA    INT       R
      000007D6H   SYMBOL    EDATA    INT       R_flag

      00FF8194H   BLOCK     CODE     ---       LVL=0
      00FF81A8H   BLOCK     CODE     NEAR LAB  LVL=1
      000007D8H   SYMBOL    EDATA    INT       count
      ---         BLOCKEND  ---      ---       LVL=1
      00FF8194H   LINE      CODE     ---       #113
      00FF81A8H   LINE      CODE     ---       #114
      00FF81A8H   LINE      CODE     ---       #116
      00FF81AFH   LINE      CODE     ---       #117
      00FF81B6H   LINE      CODE     ---       #118
      00FF81C5H   LINE      CODE     ---       #123
      00FF81C8H   LINE      CODE     ---       #124
      00FF81D5H   LINE      CODE     ---       #125
      00FF81DAH   LINE      CODE     ---       #126
      00FF81E1H   LINE      CODE     ---       #127
      00FF81E4H   LINE      CODE     ---       #128
      ---         BLOCKEND  ---      ---       LVL=0

      ---         MODULE    ---      ---       direction
      00FF805BH   PUBLIC    CODE     ---       wh_Turn_Out
      00FF8314H   PUBLIC    CODE     ---       DirControl
      00FF7C15H   PUBLIC    CODE     ---       nh_Turn_Out
      000006E9H   PUBLIC    EDATA    FLOAT     Nh_D
      000006EDH   PUBLIC    EDATA    FLOAT     Wh_D
      000006F1H   PUBLIC    EDATA    FLOAT     Nh_P
      000006F5H   PUBLIC    EDATA    FLOAT     Wh_P
      0000080EH   PUBLIC    EDATA    BYTE      ?wh_Turn_Out?BYTE
      00000824H   PUBLIC    EDATA    BYTE      ?nh_Turn_Out?BYTE
      00000784H   PUBLIC    EDATA    BYTE      ?Angle_Ring?BYTE
      000007DAH   PUBLIC    EDATA    BYTE      ?DirControl_2?BYTE
      000000D0H   SFRSYM    DATA     BYTE      PSW
      0000009DH   SFRSYM    DATA     BYTE      IRCBAND
      00000097H   SFRSYM    DATA     BYTE      AUXR2
      000000EFH   SFRSYM    DATA     BYTE      AUXINTIF
      000000FDH   SFRSYM    DATA     BYTE      S4CON
      000000ACH   SFRSYM    DATA     BYTE      S3CON
      0000009AH   SFRSYM    DATA     BYTE      S2CON
      000000B7H   SFRSYM    DATA     BYTE      IPH
      000000CDH   SFRSYM    DATA     BYTE      SPSTAT
      000000DDH   SFRSYM    DATA     BYTE      T4T3M
      000000C1H   SFRSYM    DATA     BYTE      WDT_CONTR
      000000DFH   SFRSYM    DATA     BYTE      IP3
      000000F4H   SFRSYM    DATA     BYTE      USBCON
L251 LINKER/LOCATER V4.66.93.0                                                        04/24/2024  17:02:24  PAGE 107


      000000B5H   SFRSYM    DATA     BYTE      IP2
      000000FFH   SFRSYM    DATA     BYTE      RSTCFG
      000000C7H   SFRSYM    DATA     BYTE      IAP_CONTR
      000000F9H   SFRSYM    DATA     BYTE      LINICR
      0000008EH   SFRSYM    DATA     BYTE      AUXR
      000000AFH   SFRSYM    DATA     BYTE      IE2
      00000088H   SFRSYM    DATA     BYTE      TCON
      00000089H   SFRSYM    DATA     BYTE      TMOD
      00000098H   SFRSYM    DATA     BYTE      SCON
      000000F1H   SFRSYM    DATA     BYTE      CANICR
      00000087H   SFRSYM    DATA     BYTE      PCON
      000000BCH   SFRSYM    DATA     BYTE      ADC_CONTR
      000000E7H   SFRSYM    DATA     BYTE      CMPCR2
      000000E6H   SFRSYM    DATA     BYTE      CMPCR1
      000000DEH   SFRSYM    DATA     BYTE      ADCCFG
      000000B8H   SFRSYM    DATA     BYTE      IP
      0000008FH   SFRSYM    DATA     BYTE      INTCLKO
      000000EEH   SFRSYM    DATA     BYTE      IP3H
      000000B6H   SFRSYM    DATA     BYTE      IP2H
      000000A8H   SFRSYM    DATA     BYTE      IE
      000000BBH   SFRSYM    DATA     BYTE      P_SW3
      000000BAH   SFRSYM    DATA     BYTE      P_SW2
      000000A2H   SFRSYM    DATA     BYTE      P_SW1
      000000CEH   SFRSYM    DATA     BYTE      SPCTL
      000000F8H   SFRSYM    DATA     BYTE      P7
      000000E8H   SFRSYM    DATA     BYTE      P6
      000000C8H   SFRSYM    DATA     BYTE      P5
      000000C0H   SFRSYM    DATA     BYTE      P4
      000000B0H   SFRSYM    DATA     BYTE      P3
      000000A0H   SFRSYM    DATA     BYTE      P2
      00000090H   SFRSYM    DATA     BYTE      P1
      00000080H   SFRSYM    DATA     BYTE      P0

      00FF805BH   BLOCK     CODE     ---       LVL=0
      0000080EH   SYMBOL    EDATA    INT       chazhi
      00000810H   SYMBOL    EDATA    FLOAT     dir_p
      00000814H   SYMBOL    EDATA    FLOAT     dir_d
      00FF8063H   BLOCK     CODE     NEAR LAB  LVL=1
      00000818H   SYMBOL    EDATA    FLOAT     error
      000006F9H   SYMBOL    EDATA    FLOAT     last_error
      0000081CH   SYMBOL    EDATA    FLOAT     Output
      00000820H   SYMBOL    EDATA    FLOAT     error_derivative
      ---         BLOCKEND  ---      ---       LVL=1
      00FF805BH   LINE      CODE     ---       #24
      00FF8063H   LINE      CODE     ---       #25
      00FF8063H   LINE      CODE     ---       #31
      00FF8070H   LINE      CODE     ---       #33
      00FF807FH   LINE      CODE     ---       #35
      00FF80A0H   LINE      CODE     ---       #37
      00FF80A8H   LINE      CODE     ---       #39
      00FF80C1H   LINE      CODE     ---       #40
      00FF80C4H   LINE      CODE     ---       #41
      ---         BLOCKEND  ---      ---       LVL=0

      00FF7C15H   BLOCK     CODE     ---       LVL=0
      00000824H   SYMBOL    EDATA    INT       err
      00000826H   SYMBOL    EDATA    FLOAT     dir_p
      0000082AH   SYMBOL    EDATA    FLOAT     dir_d
      00FF7C1DH   BLOCK     CODE     NEAR LAB  LVL=1
      0000082EH   SYMBOL    EDATA    FLOAT     error
      000006FDH   SYMBOL    EDATA    FLOAT     last_error
      00000832H   SYMBOL    EDATA    FLOAT     Output
      00000836H   SYMBOL    EDATA    FLOAT     error_derivative
      ---         BLOCKEND  ---      ---       LVL=1
      00FF7C15H   LINE      CODE     ---       #49
L251 LINKER/LOCATER V4.66.93.0                                                        04/24/2024  17:02:24  PAGE 108


      00FF7C1DH   LINE      CODE     ---       #50
      00FF7C1DH   LINE      CODE     ---       #57
      00FF7C43H   LINE      CODE     ---       #60
      00FF7C52H   LINE      CODE     ---       #61
      00FF7C86H   LINE      CODE     ---       #63
      00FF7C8EH   LINE      CODE     ---       #65
      00FF7CA0H   LINE      CODE     ---       #66
      00FF7CADH   LINE      CODE     ---       #67
      00FF7CB0H   LINE      CODE     ---       #68
      ---         BLOCKEND  ---      ---       LVL=0

      00FF8314H   BLOCK     CODE     ---       LVL=0
      00000705H   SYMBOL    EDATA    INT       count
      00000707H   SYMBOL    EDATA    INT       wh_out
      00FF8314H   LINE      CODE     ---       #75
      00FF8314H   LINE      CODE     ---       #76
      00FF8314H   LINE      CODE     ---       #79
      00FF8320H   LINE      CODE     ---       #81
      00FF8337H   LINE      CODE     ---       #82
      00FF833DH   LINE      CODE     ---       #83
      00FF833DH   LINE      CODE     ---       #84
      00FF834BH   LINE      CODE     ---       #85
      00FF836BH   LINE      CODE     ---       #86
      ---         BLOCKEND  ---      ---       LVL=0
      00000784H   SYMBOL    EDATA    FLOAT     target
      00000788H   SYMBOL    EDATA    FLOAT     actual
      0000078CH   SYMBOL    EDATA    FLOAT     p
      00000790H   SYMBOL    EDATA    FLOAT     i
      00000794H   SYMBOL    EDATA    FLOAT     d
      00000798H   SYMBOL    EDATA    FLOAT     error
      00000709H   SYMBOL    EDATA    FLOAT     last_error
      0000070DH   SYMBOL    EDATA    FLOAT     Ki_val
      0000079CH   SYMBOL    EDATA    INT       Output
      0000079EH   SYMBOL    EDATA    FLOAT     error_derivative
      000007DAH   SYMBOL    EDATA    INT       chazhi
      000007DCH   SYMBOL    EDATA    FLOAT     dir_p
      000007E0H   SYMBOL    EDATA    FLOAT     dir_d
      000007E4H   SYMBOL    EDATA    FLOAT     dir_d2
      000007E8H   SYMBOL    EDATA    FLOAT     error
      00000711H   SYMBOL    EDATA    FLOAT     last_error
      000007ECH   SYMBOL    EDATA    FLOAT     Output
      000007F0H   SYMBOL    EDATA    FLOAT     error_derivative

      ---         MODULE    ---      ---       vofa
      00000211H   PUBLIC    EDATA    ---       DataToSend
      00000836H   PUBLIC    EDATA    BYTE      ?Send4DataToVofa?BYTE
      000000D0H   SFRSYM    DATA     BYTE      PSW
      0000009DH   SFRSYM    DATA     BYTE      IRCBAND
      00000097H   SFRSYM    DATA     BYTE      AUXR2
      000000EFH   SFRSYM    DATA     BYTE      AUXINTIF
      000000FDH   SFRSYM    DATA     BYTE      S4CON
      000000ACH   SFRSYM    DATA     BYTE      S3CON
      0000009AH   SFRSYM    DATA     BYTE      S2CON
      000000B7H   SFRSYM    DATA     BYTE      IPH
      000000CDH   SFRSYM    DATA     BYTE      SPSTAT
      000000DDH   SFRSYM    DATA     BYTE      T4T3M
      000000C1H   SFRSYM    DATA     BYTE      WDT_CONTR
      000000DFH   SFRSYM    DATA     BYTE      IP3
      000000F4H   SFRSYM    DATA     BYTE      USBCON
      000000B5H   SFRSYM    DATA     BYTE      IP2
      000000FFH   SFRSYM    DATA     BYTE      RSTCFG
      000000C7H   SFRSYM    DATA     BYTE      IAP_CONTR
      000000F9H   SFRSYM    DATA     BYTE      LINICR
      0000008EH   SFRSYM    DATA     BYTE      AUXR
      000000AFH   SFRSYM    DATA     BYTE      IE2
L251 LINKER/LOCATER V4.66.93.0                                                        04/24/2024  17:02:24  PAGE 109


      00000088H   SFRSYM    DATA     BYTE      TCON
      00000089H   SFRSYM    DATA     BYTE      TMOD
      00000098H   SFRSYM    DATA     BYTE      SCON
      000000F1H   SFRSYM    DATA     BYTE      CANICR
      00000087H   SFRSYM    DATA     BYTE      PCON
      000000BCH   SFRSYM    DATA     BYTE      ADC_CONTR
      000000E7H   SFRSYM    DATA     BYTE      CMPCR2
      000000E6H   SFRSYM    DATA     BYTE      CMPCR1
      000000DEH   SFRSYM    DATA     BYTE      ADCCFG
      000000B8H   SFRSYM    DATA     BYTE      IP
      0000008FH   SFRSYM    DATA     BYTE      INTCLKO
      000000EEH   SFRSYM    DATA     BYTE      IP3H
      000000B6H   SFRSYM    DATA     BYTE      IP2H
      000000A8H   SFRSYM    DATA     BYTE      IE
      000000BBH   SFRSYM    DATA     BYTE      P_SW3
      000000BAH   SFRSYM    DATA     BYTE      P_SW2
      000000A2H   SFRSYM    DATA     BYTE      P_SW1
      000000CEH   SFRSYM    DATA     BYTE      SPCTL
      000000F8H   SFRSYM    DATA     BYTE      P7
      000000E8H   SFRSYM    DATA     BYTE      P6
      000000C8H   SFRSYM    DATA     BYTE      P5
      000000C0H   SFRSYM    DATA     BYTE      P4
      000000B0H   SFRSYM    DATA     BYTE      P3
      000000A0H   SFRSYM    DATA     BYTE      P2
      00000090H   SFRSYM    DATA     BYTE      P1
      00000080H   SFRSYM    DATA     BYTE      P0
      0000083AH   SYMBOL    EDATA    FLOAT     _a
      0000084EH   SYMBOL    EDATA    BYTE      i
      0000084FH   SYMBOL    EDATA    BYTE      _cnt

      ---         MODULE    ---      ---       mpu6050
      00000A80H   PUBLIC    EDATA    BYTE      ?lowPassFilter?BYTE
      000000D0H   SFRSYM    DATA     BYTE      PSW
      0000009DH   SFRSYM    DATA     BYTE      IRCBAND
      00000097H   SFRSYM    DATA     BYTE      AUXR2
      000000EFH   SFRSYM    DATA     BYTE      AUXINTIF
      000000FDH   SFRSYM    DATA     BYTE      S4CON
      000000ACH   SFRSYM    DATA     BYTE      S3CON
      0000009AH   SFRSYM    DATA     BYTE      S2CON
      000000B7H   SFRSYM    DATA     BYTE      IPH
      000000CDH   SFRSYM    DATA     BYTE      SPSTAT
      000000DDH   SFRSYM    DATA     BYTE      T4T3M
      000000C1H   SFRSYM    DATA     BYTE      WDT_CONTR
      000000DFH   SFRSYM    DATA     BYTE      IP3
      000000F4H   SFRSYM    DATA     BYTE      USBCON
      000000B5H   SFRSYM    DATA     BYTE      IP2
      000000FFH   SFRSYM    DATA     BYTE      RSTCFG
      000000C7H   SFRSYM    DATA     BYTE      IAP_CONTR
      000000F9H   SFRSYM    DATA     BYTE      LINICR
      0000008EH   SFRSYM    DATA     BYTE      AUXR
      000000AFH   SFRSYM    DATA     BYTE      IE2
      00000088H   SFRSYM    DATA     BYTE      TCON
      00000089H   SFRSYM    DATA     BYTE      TMOD
      00000098H   SFRSYM    DATA     BYTE      SCON
      000000F1H   SFRSYM    DATA     BYTE      CANICR
      00000087H   SFRSYM    DATA     BYTE      PCON
      000000BCH   SFRSYM    DATA     BYTE      ADC_CONTR
      000000E7H   SFRSYM    DATA     BYTE      CMPCR2
      000000E6H   SFRSYM    DATA     BYTE      CMPCR1
      000000DEH   SFRSYM    DATA     BYTE      ADCCFG
      000000B8H   SFRSYM    DATA     BYTE      IP
      0000008FH   SFRSYM    DATA     BYTE      INTCLKO
      000000EEH   SFRSYM    DATA     BYTE      IP3H
      000000B6H   SFRSYM    DATA     BYTE      IP2H
      000000A8H   SFRSYM    DATA     BYTE      IE
L251 LINKER/LOCATER V4.66.93.0                                                        04/24/2024  17:02:24  PAGE 110


      000000BBH   SFRSYM    DATA     BYTE      P_SW3
      000000BAH   SFRSYM    DATA     BYTE      P_SW2
      000000A2H   SFRSYM    DATA     BYTE      P_SW1
      000000CEH   SFRSYM    DATA     BYTE      SPCTL
      000000F8H   SFRSYM    DATA     BYTE      P7
      000000E8H   SFRSYM    DATA     BYTE      P6
      000000C8H   SFRSYM    DATA     BYTE      P5
      000000C0H   SFRSYM    DATA     BYTE      P4
      000000B0H   SFRSYM    DATA     BYTE      P3
      000000A0H   SFRSYM    DATA     BYTE      P2
      00000090H   SFRSYM    DATA     BYTE      P1
      00000080H   SFRSYM    DATA     BYTE      P0
      00000582H   SYMBOL    EDATA    FLOAT     sum
      00000586H   SYMBOL    EDATA    INT       flag
      00000E88H   SYMBOL    EDATA    INT       i
      00000B3BH   SYMBOL    EDATA    ---       window
      00000B3FH   SYMBOL    EDATA    INT       temp
      00000B41H   SYMBOL    EDATA    INT       i
      00000B43H   SYMBOL    EDATA    INT       j
      00000A80H   SYMBOL    EDATA    FLOAT     current
      00000A84H   SYMBOL    EDATA    FLOAT     previous
      00000A88H   SYMBOL    EDATA    FLOAT     alpha
      00000588H   SYMBOL    EDATA    ---       gyro_z_values
      000005B0H   SYMBOL    EDATA    INT       index
      000007A2H   SYMBOL    EDATA    FLOAT     filtered_angle
      000007A6H   SYMBOL    EDATA    INT       i
      000007A8H   SYMBOL    EDATA    ---       window
      000007BCH   SYMBOL    EDATA    FLOAT     gyro_z

      ---         MODULE    ---      ---       TrackElement
      00FF812DH   PUBLIC    CODE     ---       Tracking
      00FF7A04H   PUBLIC    CODE     ---       Error_Speed
      00000291H   PUBLIC    EDATA    FLOAT     Sub_motor_i
      00000295H   PUBLIC    EDATA    FLOAT     Angle_D
      00000299H   PUBLIC    EDATA    FLOAT     Sub_motor_p
      0000029DH   PUBLIC    EDATA    FLOAT     Angle_I
      000002A1H   PUBLIC    EDATA    INT       Speed_Plan1
      000002A3H   PUBLIC    EDATA    INT       RAngle_Flag
      000002A5H   PUBLIC    EDATA    FLOAT     Angle_P
      000002A9H   PUBLIC    EDATA    FLOAT     Angle4
      000002ADH   PUBLIC    EDATA    INT       Err_speed
      000002AFH   PUBLIC    EDATA    INT       Sub_speed
      000002B1H   PUBLIC    EDATA    INT       shizi_flag
      000002B3H   PUBLIC    EDATA    ---       Element_Order
      000002BBH   PUBLIC    EDATA    INT       ring_flag
      000002BDH   PUBLIC    EDATA    FLOAT     Sub_wh_d
      000002C1H   PUBLIC    EDATA    LONG      Distance
      000002C5H   PUBLIC    EDATA    LONG      bmq_jifen
      000002C9H   PUBLIC    EDATA    FLOAT     Sub_wh_p
      000002CDH   PUBLIC    EDATA    INT       set_speed
      000002CFH   PUBLIC    EDATA    INT       DISTANCE_FLAG
      000002D1H   PUBLIC    EDATA    INT       RING_FLAG1
      000002D3H   PUBLIC    EDATA    INT       RING_FLAG2
      000002D5H   PUBLIC    EDATA    INT       RING_FLAG3
      000002D7H   PUBLIC    EDATA    INT       RING_FLAG4
      000002D9H   PUBLIC    EDATA    INT       ANGLE_FLAG
      000002DBH   PUBLIC    EDATA    INT       Track_flag
      000002DDH   PUBLIC    EDATA    FLOAT     angle_jifen
      000000D0H   SFRSYM    DATA     BYTE      PSW
      0000009DH   SFRSYM    DATA     BYTE      IRCBAND
      00000097H   SFRSYM    DATA     BYTE      AUXR2
      000000EFH   SFRSYM    DATA     BYTE      AUXINTIF
      000000FDH   SFRSYM    DATA     BYTE      S4CON
      000000ACH   SFRSYM    DATA     BYTE      S3CON
      0000009AH   SFRSYM    DATA     BYTE      S2CON
L251 LINKER/LOCATER V4.66.93.0                                                        04/24/2024  17:02:24  PAGE 111


      000000B7H   SFRSYM    DATA     BYTE      IPH
      000000CDH   SFRSYM    DATA     BYTE      SPSTAT
      000000DDH   SFRSYM    DATA     BYTE      T4T3M
      000000C1H   SFRSYM    DATA     BYTE      WDT_CONTR
      000000DFH   SFRSYM    DATA     BYTE      IP3
      000000F4H   SFRSYM    DATA     BYTE      USBCON
      000000B5H   SFRSYM    DATA     BYTE      IP2
      000000FFH   SFRSYM    DATA     BYTE      RSTCFG
      000000C7H   SFRSYM    DATA     BYTE      IAP_CONTR
      000000F9H   SFRSYM    DATA     BYTE      LINICR
      0000008EH   SFRSYM    DATA     BYTE      AUXR
      000000AFH   SFRSYM    DATA     BYTE      IE2
      00000088H   SFRSYM    DATA     BYTE      TCON
      00000089H   SFRSYM    DATA     BYTE      TMOD
      00000090H.3 SFRSYM    DATA     BIT       P13
      00000098H   SFRSYM    DATA     BYTE      SCON
      000000F1H   SFRSYM    DATA     BYTE      CANICR
      00000087H   SFRSYM    DATA     BYTE      PCON
      000000BCH   SFRSYM    DATA     BYTE      ADC_CONTR
      000000E7H   SFRSYM    DATA     BYTE      CMPCR2
      000000E6H   SFRSYM    DATA     BYTE      CMPCR1
      000000DEH   SFRSYM    DATA     BYTE      ADCCFG
      000000B8H   SFRSYM    DATA     BYTE      IP
      0000008FH   SFRSYM    DATA     BYTE      INTCLKO
      000000EEH   SFRSYM    DATA     BYTE      IP3H
      000000B6H   SFRSYM    DATA     BYTE      IP2H
      000000A8H   SFRSYM    DATA     BYTE      IE
      000000BBH   SFRSYM    DATA     BYTE      P_SW3
      000000BAH   SFRSYM    DATA     BYTE      P_SW2
      000000A2H   SFRSYM    DATA     BYTE      P_SW1
      000000CEH   SFRSYM    DATA     BYTE      SPCTL
      000000F8H   SFRSYM    DATA     BYTE      P7
      000000E8H   SFRSYM    DATA     BYTE      P6
      000000C8H   SFRSYM    DATA     BYTE      P5
      000000C0H   SFRSYM    DATA     BYTE      P4
      000000B0H   SFRSYM    DATA     BYTE      P3
      000000A0H   SFRSYM    DATA     BYTE      P2
      00000090H   SFRSYM    DATA     BYTE      P1
      00000080H   SFRSYM    DATA     BYTE      P0
      00000E8AH   SYMBOL    EDATA    INT       flag
      000002E1H   SYMBOL    EDATA    INT       bmq_flag
      000002E3H   SYMBOL    EDATA    INT       angle_flag
      000002E5H   SYMBOL    EDATA    INT       angle2
      000002E7H   SYMBOL    EDATA    INT       yu_flag
      000002E9H   SYMBOL    EDATA    INT       angle_flag2
      000002EBH   SYMBOL    EDATA    INT       status
      00000E8CH   SYMBOL    EDATA    INT       speed_flag
      00000C60H   SYMBOL    EDATA    FLOAT     error
      00000C64H   SYMBOL    EDATA    FLOAT     err

      00FF812DH   BLOCK     CODE     ---       LVL=0
      00000E8EH   SYMBOL    EDATA    INT       Set_speed
      00FF8131H   BLOCK     CODE     NEAR LAB  LVL=1
      000002EDH   SYMBOL    EDATA    INT       count
      000002EFH   SYMBOL    EDATA    INT       pwm
      ---         BLOCKEND  ---      ---       LVL=1
      00FF812DH   LINE      CODE     ---       #231
      00FF8131H   LINE      CODE     ---       #232
      00FF8131H   LINE      CODE     ---       #234
      00FF8146H   LINE      CODE     ---       #235
      00FF8154H   LINE      CODE     ---       #236
      00FF815BH   LINE      CODE     ---       #237
      00FF8167H   LINE      CODE     ---       #239
      00FF8176H   LINE      CODE     ---       #240
      00FF817CH   LINE      CODE     ---       #241
L251 LINKER/LOCATER V4.66.93.0                                                        04/24/2024  17:02:24  PAGE 112


      00FF817CH   LINE      CODE     ---       #243
      00FF8193H   LINE      CODE     ---       #244
      ---         BLOCKEND  ---      ---       LVL=0

      00FF7A04H   BLOCK     CODE     ---       LVL=0
      00FF7A04H   LINE      CODE     ---       #249
      00FF7A04H   LINE      CODE     ---       #251
      00FF7A10H   LINE      CODE     ---       #252
      00FF7A21H   LINE      CODE     ---       #253
      00FF7A39H   LINE      CODE     ---       #254
      00FF7A56H   LINE      CODE     ---       #255
      00FF7A6EH   LINE      CODE     ---       #256
      00FF7A8DH   LINE      CODE     ---       #257
      00FF7A99H   LINE      CODE     ---       #258
      00FF7AB8H   LINE      CODE     ---       #259
      ---         BLOCKEND  ---      ---       LVL=0

      ---         MODULE    ---      ---       menu
      00FF87C6H   PUBLIC    CODE     ---       Show_Val_Menu
      00FF6443H   PUBLIC    CODE     ---       First_menu
      00FF6A92H   PUBLIC    CODE     ---       Second_Element_menu
      00FF7899H   PUBLIC    CODE     ---       Second__Speed_menu
      00FF58AAH   PUBLIC    CODE     ---       Second_Motor_menu
      00FF3842H   PUBLIC    CODE     ---       Second__NWHuan_menu
      000000D0H   SFRSYM    DATA     BYTE      PSW
      0000009DH   SFRSYM    DATA     BYTE      IRCBAND
      00000097H   SFRSYM    DATA     BYTE      AUXR2
      000000EFH   SFRSYM    DATA     BYTE      AUXINTIF
      000000FDH   SFRSYM    DATA     BYTE      S4CON
      000000ACH   SFRSYM    DATA     BYTE      S3CON
      0000009AH   SFRSYM    DATA     BYTE      S2CON
      000000B7H   SFRSYM    DATA     BYTE      IPH
      000000CDH   SFRSYM    DATA     BYTE      SPSTAT
      000000DDH   SFRSYM    DATA     BYTE      T4T3M
      000000C1H   SFRSYM    DATA     BYTE      WDT_CONTR
      000000DFH   SFRSYM    DATA     BYTE      IP3
      000000F4H   SFRSYM    DATA     BYTE      USBCON
      000000B5H   SFRSYM    DATA     BYTE      IP2
      000000FFH   SFRSYM    DATA     BYTE      RSTCFG
      000000C7H   SFRSYM    DATA     BYTE      IAP_CONTR
      000000F9H   SFRSYM    DATA     BYTE      LINICR
      0000008EH   SFRSYM    DATA     BYTE      AUXR
      000000AFH   SFRSYM    DATA     BYTE      IE2
      000000B0H.7 SFRSYM    DATA     BIT       P37
      000000B0H.6 SFRSYM    DATA     BIT       P36
      000000C0H.4 SFRSYM    DATA     BIT       P44
      000000C0H.3 SFRSYM    DATA     BIT       P43
      00000088H   SFRSYM    DATA     BYTE      TCON
      00000089H   SFRSYM    DATA     BYTE      TMOD
      00000098H   SFRSYM    DATA     BYTE      SCON
      000000F1H   SFRSYM    DATA     BYTE      CANICR
      00000087H   SFRSYM    DATA     BYTE      PCON
      000000BCH   SFRSYM    DATA     BYTE      ADC_CONTR
      000000E7H   SFRSYM    DATA     BYTE      CMPCR2
      000000E6H   SFRSYM    DATA     BYTE      CMPCR1
      000000DEH   SFRSYM    DATA     BYTE      ADCCFG
      000000B8H   SFRSYM    DATA     BYTE      IP
      0000008FH   SFRSYM    DATA     BYTE      INTCLKO
      000000EEH   SFRSYM    DATA     BYTE      IP3H
      000000B6H   SFRSYM    DATA     BYTE      IP2H
      000000A8H   SFRSYM    DATA     BYTE      IE
      000000BBH   SFRSYM    DATA     BYTE      P_SW3
      000000BAH   SFRSYM    DATA     BYTE      P_SW2
      000000A2H   SFRSYM    DATA     BYTE      P_SW1
      000000CEH   SFRSYM    DATA     BYTE      SPCTL
L251 LINKER/LOCATER V4.66.93.0                                                        04/24/2024  17:02:24  PAGE 113


      000000F8H   SFRSYM    DATA     BYTE      P7
      000000E8H   SFRSYM    DATA     BYTE      P6
      000000C8H   SFRSYM    DATA     BYTE      P5
      000000C0H   SFRSYM    DATA     BYTE      P4
      000000B0H   SFRSYM    DATA     BYTE      P3
      000000A0H   SFRSYM    DATA     BYTE      P2
      00000090H   SFRSYM    DATA     BYTE      P1
      00000080H   SFRSYM    DATA     BYTE      P0
      00FF8F43H   SYMBOL    HCONST   ---       ?tpl?0001
      00000DDBH   SYMBOL    EDATA    INT       flag1
      00000DDDH   SYMBOL    EDATA    INT       flag

      00FF6443H   BLOCK     CODE     ---       LVL=0
      00000DDFH   SYMBOL    EDATA    INT       flag
      00000DE1H   SYMBOL    EDATA    INT       a
      00FF6443H   LINE      CODE     ---       #45
      00FF6443H   LINE      CODE     ---       #46
      00FF6443H   LINE      CODE     ---       #47
      00FF644BH   LINE      CODE     ---       #48
      00FF6451H   LINE      CODE     ---       #49
      00FF6460H   LINE      CODE     ---       #50
      00FF6470H   LINE      CODE     ---       #51
      00FF6480H   LINE      CODE     ---       #52
      00FF6490H   LINE      CODE     ---       #53
      00FF64A0H   LINE      CODE     ---       #54
      00FF64B0H   LINE      CODE     ---       #55
      00FF64B0H   LINE      CODE     ---       #58
      00FF64B9H   LINE      CODE     ---       #60
      00FF64C0H   LINE      CODE     ---       #61
      00FF64C9H   LINE      CODE     ---       #62
      00FF64D0H   LINE      CODE     ---       #63
      00FF64DEH   LINE      CODE     ---       #64
      00FF64F2H   LINE      CODE     ---       #65
      00FF64F2H   LINE      CODE     ---       #66
      00FF64FBH   LINE      CODE     ---       #68
      00FF6502H   LINE      CODE     ---       #69
      00FF650BH   LINE      CODE     ---       #70
      00FF6512H   LINE      CODE     ---       #71
      00FF6520H   LINE      CODE     ---       #72
      00FF6532H   LINE      CODE     ---       #73
      00FF6532H   LINE      CODE     ---       #74
      00FF653BH   LINE      CODE     ---       #76
      00FF6542H   LINE      CODE     ---       #77
      00FF654BH   LINE      CODE     ---       #78
      00FF6552H   LINE      CODE     ---       #79
      00FF6556H   LINE      CODE     ---       #80
      00FF655DH   LINE      CODE     ---       #81
      00FF655DH   LINE      CODE     ---       #82
      00FF6566H   LINE      CODE     ---       #84
      00FF656DH   LINE      CODE     ---       #85
      00FF6576H   LINE      CODE     ---       #86
      00FF657DH   LINE      CODE     ---       #87
      00FF6581H   LINE      CODE     ---       #88
      00FF6586H   LINE      CODE     ---       #89
      00FF6586H   LINE      CODE     ---       #90
      00FF65B6H   LINE      CODE     ---       #92
      00FF65B6H   LINE      CODE     ---       #94
      00FF65C4H   LINE      CODE     ---       #95
      00FF65D3H   LINE      CODE     ---       #96
      00FF65E2H   LINE      CODE     ---       #97
      00FF65F1H   LINE      CODE     ---       #98
      00FF6600H   LINE      CODE     ---       #99
      00FF660FH   LINE      CODE     ---       #100
      00FF6612H   LINE      CODE     ---       #101
      00FF6612H   LINE      CODE     ---       #103
L251 LINKER/LOCATER V4.66.93.0                                                        04/24/2024  17:02:24  PAGE 114


      00FF6620H   LINE      CODE     ---       #104
      00FF662FH   LINE      CODE     ---       #105
      00FF663EH   LINE      CODE     ---       #106
      00FF664DH   LINE      CODE     ---       #107
      00FF665CH   LINE      CODE     ---       #108
      00FF666BH   LINE      CODE     ---       #109
      00FF666EH   LINE      CODE     ---       #110
      00FF666EH   LINE      CODE     ---       #112
      00FF667CH   LINE      CODE     ---       #113
      00FF668BH   LINE      CODE     ---       #114
      00FF669AH   LINE      CODE     ---       #115
      00FF66A9H   LINE      CODE     ---       #116
      00FF66B8H   LINE      CODE     ---       #117
      00FF66C7H   LINE      CODE     ---       #118
      00FF66CAH   LINE      CODE     ---       #119
      00FF66CAH   LINE      CODE     ---       #121
      00FF66D8H   LINE      CODE     ---       #122
      00FF66E7H   LINE      CODE     ---       #123
      00FF66F6H   LINE      CODE     ---       #124
      00FF6705H   LINE      CODE     ---       #125
      00FF6714H   LINE      CODE     ---       #126
      00FF6723H   LINE      CODE     ---       #127
      00FF6726H   LINE      CODE     ---       #128
      00FF6726H   LINE      CODE     ---       #130
      00FF6734H   LINE      CODE     ---       #131
      00FF6743H   LINE      CODE     ---       #132
      00FF6752H   LINE      CODE     ---       #133
      00FF6761H   LINE      CODE     ---       #134
      00FF6770H   LINE      CODE     ---       #135
      00FF677FH   LINE      CODE     ---       #136
      00FF6782H   LINE      CODE     ---       #137
      00FF6782H   LINE      CODE     ---       #139
      00FF6790H   LINE      CODE     ---       #140
      00FF679FH   LINE      CODE     ---       #141
      00FF67AEH   LINE      CODE     ---       #142
      00FF67BDH   LINE      CODE     ---       #143
      00FF67CCH   LINE      CODE     ---       #144
      00FF67DBH   LINE      CODE     ---       #145
      00FF67DEH   LINE      CODE     ---       #146
      00FF67DEH   LINE      CODE     ---       #147
      00FF67DEH   LINE      CODE     ---       #148
      ---         BLOCKEND  ---      ---       LVL=0

      00FF6A92H   BLOCK     CODE     ---       LVL=0
      0000090EH   SYMBOL    EDATA    INT       flag
      00000910H   SYMBOL    EDATA    INT       i
      00000912H   SYMBOL    EDATA    INT       Order
      00000914H   SYMBOL    EDATA    INT       k
      00000916H   SYMBOL    EDATA    ---       menu_order
      00FF6A92H   LINE      CODE     ---       #158
      00FF6A92H   LINE      CODE     ---       #159
      00FF6A92H   LINE      CODE     ---       #160
      00FF6AACH   LINE      CODE     ---       #161
      00FF6ABDH   LINE      CODE     ---       #163
      00FF6ACCH   LINE      CODE     ---       #164
      00FF6ADCH   LINE      CODE     ---       #165
      00FF6AECH   LINE      CODE     ---       #166
      00FF6AFCH   LINE      CODE     ---       #168
      00FF6AFCH   LINE      CODE     ---       #170
      00FF6B05H   LINE      CODE     ---       #172
      00FF6B0CH   LINE      CODE     ---       #173
      00FF6B15H   LINE      CODE     ---       #174
      00FF6B1CH   LINE      CODE     ---       #175
      00FF6B2AH   LINE      CODE     ---       #176
      00FF6B3EH   LINE      CODE     ---       #177
L251 LINKER/LOCATER V4.66.93.0                                                        04/24/2024  17:02:24  PAGE 115


      00FF6B3EH   LINE      CODE     ---       #178
      00FF6B47H   LINE      CODE     ---       #180
      00FF6B4EH   LINE      CODE     ---       #181
      00FF6B57H   LINE      CODE     ---       #182
      00FF6B5EH   LINE      CODE     ---       #183
      00FF6B6CH   LINE      CODE     ---       #184
      00FF6B7EH   LINE      CODE     ---       #185
      00FF6B7EH   LINE      CODE     ---       #186
      00FF6B8AH   LINE      CODE     ---       #188
      00FF6B91H   LINE      CODE     ---       #189
      00FF6B9AH   LINE      CODE     ---       #190
      00FF6BA1H   LINE      CODE     ---       #191
      00FF6BAFH   LINE      CODE     ---       #192
      00FF6BBBH   LINE      CODE     ---       #193
      00FF6BC3H   LINE      CODE     ---       #195
      00FF6BE1H   LINE      CODE     ---       #196
      00FF6BFBH   LINE      CODE     ---       #197
      00FF6BFFH   LINE      CODE     ---       #198
      00FF6C04H   LINE      CODE     ---       #199
      00FF6C04H   LINE      CODE     ---       #200
      00FF6C17H   LINE      CODE     ---       #201
      00FF6C17H   LINE      CODE     ---       #202
      00FF6C20H   LINE      CODE     ---       #204
      00FF6C27H   LINE      CODE     ---       #205
      00FF6C30H   LINE      CODE     ---       #206
      00FF6C37H   LINE      CODE     ---       #207
      00FF6C3BH   LINE      CODE     ---       #208
      00FF6C3FH   LINE      CODE     ---       #209
      00FF6C3FH   LINE      CODE     ---       #211
      00FF6C47H   LINE      CODE     ---       #213
      00FF6C59H   LINE      CODE     ---       #214
      00FF6C6DH   LINE      CODE     ---       #216
      00FF6C7FH   LINE      CODE     ---       #219
      00FF6C99H   LINE      CODE     ---       #220
      00FF6CB3H   LINE      CODE     ---       #221
      00FF6CB6H   LINE      CODE     ---       #222
      ---         BLOCKEND  ---      ---       LVL=0

      00FF58AAH   BLOCK     CODE     ---       LVL=0
      0000091EH   SYMBOL    EDATA    INT       flag
      00000920H   SYMBOL    EDATA    INT       Val_add_lose
      00000922H   SYMBOL    EDATA    INT       i
      00000924H   SYMBOL    EDATA    INT       count
      00000926H   SYMBOL    EDATA    INT       long_press_delay
      00000928H   SYMBOL    EDATA    INT       pree_delay
      0000092AH   SYMBOL    EDATA    FLOAT     x
      00FF58AAH   LINE      CODE     ---       #230
      00FF58AAH   LINE      CODE     ---       #231
      00FF58AAH   LINE      CODE     ---       #232
      00FF58C4H   LINE      CODE     ---       #233
      00FF58CAH   LINE      CODE     ---       #234
      00FF58D0H   LINE      CODE     ---       #235
      00FF58DCH   LINE      CODE     ---       #237
      00FF58EBH   LINE      CODE     ---       #238
      00FF5900H   LINE      CODE     ---       #239
      00FF5910H   LINE      CODE     ---       #240
      00FF5927H   LINE      CODE     ---       #241
      00FF5937H   LINE      CODE     ---       #242
      00FF5947H   LINE      CODE     ---       #244
      00FF5947H   LINE      CODE     ---       #246
      00FF5950H   LINE      CODE     ---       #248
      00FF5957H   LINE      CODE     ---       #249
      00FF5960H   LINE      CODE     ---       #250
      00FF5967H   LINE      CODE     ---       #251
      00FF5975H   LINE      CODE     ---       #252
L251 LINKER/LOCATER V4.66.93.0                                                        04/24/2024  17:02:24  PAGE 116


      00FF5989H   LINE      CODE     ---       #253
      00FF5989H   LINE      CODE     ---       #254
      00FF5992H   LINE      CODE     ---       #256
      00FF5999H   LINE      CODE     ---       #257
      00FF59A2H   LINE      CODE     ---       #258
      00FF59A9H   LINE      CODE     ---       #259
      00FF59B7H   LINE      CODE     ---       #260
      00FF59C9H   LINE      CODE     ---       #261
      00FF59C9H   LINE      CODE     ---       #262
      00FF59D5H   LINE      CODE     ---       #264
      00FF59DCH   LINE      CODE     ---       #265
      00FF59E2H   LINE      CODE     ---       #267
      00FF59E5H   LINE      CODE     ---       #269
      00FF59ECH   LINE      CODE     ---       #270
      00FF59FAH   LINE      CODE     ---       #272
      00FF5A0FH   LINE      CODE     ---       #274
      00FF5A1BH   LINE      CODE     ---       #276
      00FF5A30H   LINE      CODE     ---       #277
      00FF5A4FH   LINE      CODE     ---       #278
      00FF5A4FH   LINE      CODE     ---       #279
      00FF5A5BH   LINE      CODE     ---       #281
      00FF5A7AH   LINE      CODE     ---       #282
      00FF5A91H   LINE      CODE     ---       #283
      00FF5A91H   LINE      CODE     ---       #284
      00FF5A9FH   LINE      CODE     ---       #285
      00FF5AB3H   LINE      CODE     ---       #286
      00FF5AB9H   LINE      CODE     ---       #287
      00FF5AC5H   LINE      CODE     ---       #289
      00FF5ACCH   LINE      CODE     ---       #290
      00FF5ADBH   LINE      CODE     ---       #292
      00FF5AE1H   LINE      CODE     ---       #293
      00FF5AEDH   LINE      CODE     ---       #295
      00FF5B02H   LINE      CODE     ---       #296
      00FF5B21H   LINE      CODE     ---       #297
      00FF5B21H   LINE      CODE     ---       #298
      00FF5B2DH   LINE      CODE     ---       #300
      00FF5B4CH   LINE      CODE     ---       #301
      00FF5B63H   LINE      CODE     ---       #302
      00FF5B63H   LINE      CODE     ---       #303
      00FF5B6FH   LINE      CODE     ---       #305
      00FF5B79H   LINE      CODE     ---       #307
      00FF5B89H   LINE      CODE     ---       #308
      00FF5B99H   LINE      CODE     ---       #309
      00FF5BA1H   LINE      CODE     ---       #310
      00FF5BA9H   LINE      CODE     ---       #311
      00FF5BABH   LINE      CODE     ---       #312
      00FF5BB7H   LINE      CODE     ---       #314
      00FF5BC7H   LINE      CODE     ---       #315
      00FF5BD7H   LINE      CODE     ---       #316
      00FF5BDFH   LINE      CODE     ---       #317
      00FF5BE5H   LINE      CODE     ---       #318
      00FF5BE5H   LINE      CODE     ---       #320
      00FF5BF1H   LINE      CODE     ---       #322
      00FF5C14H   LINE      CODE     ---       #323
      00FF5C2BH   LINE      CODE     ---       #324
      00FF5C2BH   LINE      CODE     ---       #326
      00FF5C2BH   LINE      CODE     ---       #327
      00FF5C34H   LINE      CODE     ---       #329
      00FF5C3BH   LINE      CODE     ---       #330
      00FF5C44H   LINE      CODE     ---       #331
      00FF5C4BH   LINE      CODE     ---       #332
      00FF5C4FH   LINE      CODE     ---       #333
      00FF5C53H   LINE      CODE     ---       #334
      00FF5C53H   LINE      CODE     ---       #335
      00FF5C5BH   LINE      CODE     ---       #337
L251 LINKER/LOCATER V4.66.93.0                                                        04/24/2024  17:02:24  PAGE 117


      00FF5C6DH   LINE      CODE     ---       #338
      00FF5C81H   LINE      CODE     ---       #340
      00FF5C93H   LINE      CODE     ---       #341
      00FF5CADH   LINE      CODE     ---       #342
      00FF5CB0H   LINE      CODE     ---       #343
      ---         BLOCKEND  ---      ---       LVL=0

      00FF3842H   BLOCK     CODE     ---       LVL=0
      000007F4H   SYMBOL    EDATA    INT       flag
      000007F6H   SYMBOL    EDATA    INT       i
      000007F8H   SYMBOL    EDATA    INT       Val_add_lose
      000007FAH   SYMBOL    EDATA    INT       count
      000007FCH   SYMBOL    EDATA    INT       flag1
      000007FEH   SYMBOL    EDATA    FLOAT     x
      00000802H   SYMBOL    EDATA    FLOAT     x1
      00000806H   SYMBOL    EDATA    WORD      long_press_delay
      00000808H   SYMBOL    EDATA    WORD      pree_delay
      0000080AH   SYMBOL    EDATA    INT       page
      0000080CH   SYMBOL    EDATA    INT       page1
      00FF3842H   LINE      CODE     ---       #356
      00FF3842H   LINE      CODE     ---       #357
      00FF3842H   LINE      CODE     ---       #358
      00FF3868H   LINE      CODE     ---       #359
      00FF387EH   LINE      CODE     ---       #360
      00FF388AH   LINE      CODE     ---       #361
      00FF3892H   LINE      CODE     ---       #362
      00FF389AH   LINE      CODE     ---       #363
      00FF38A6H   LINE      CODE     ---       #365
      00FF38AAH   LINE      CODE     ---       #366
      00FF38AAH   LINE      CODE     ---       #367
      00FF38AAH   LINE      CODE     ---       #370
      00FF38B3H   LINE      CODE     ---       #372
      00FF38BAH   LINE      CODE     ---       #373
      00FF38C3H   LINE      CODE     ---       #374
      00FF38CAH   LINE      CODE     ---       #375
      00FF38D8H   LINE      CODE     ---       #377
      00FF38E4H   LINE      CODE     ---       #378
      00FF38ECH   LINE      CODE     ---       #379
      00FF3906H   LINE      CODE     ---       #380
      00FF3906H   LINE      CODE     ---       #382
      00FF390FH   LINE      CODE     ---       #384
      00FF3916H   LINE      CODE     ---       #385
      00FF391FH   LINE      CODE     ---       #386
      00FF3926H   LINE      CODE     ---       #387
      00FF3934H   LINE      CODE     ---       #389
      00FF394AH   LINE      CODE     ---       #390
      00FF3952H   LINE      CODE     ---       #391
      00FF395AH   LINE      CODE     ---       #392
      00FF395CH   LINE      CODE     ---       #394
      00FF3972H   LINE      CODE     ---       #395
      00FF397AH   LINE      CODE     ---       #396
      00FF3982H   LINE      CODE     ---       #397
      00FF3982H   LINE      CODE     ---       #400
      00FF3991H   LINE      CODE     ---       #402
      00FF39A0H   LINE      CODE     ---       #404
      00FF39A4H   LINE      CODE     ---       #405
      00FF39ACH   LINE      CODE     ---       #406
      00FF39BBH   LINE      CODE     ---       #407
      00FF39D0H   LINE      CODE     ---       #408
      00FF39E0H   LINE      CODE     ---       #409
      00FF39F7H   LINE      CODE     ---       #410
      00FF3A07H   LINE      CODE     ---       #411
      00FF3A1EH   LINE      CODE     ---       #412
      00FF3A2EH   LINE      CODE     ---       #413
      00FF3A45H   LINE      CODE     ---       #414
L251 LINKER/LOCATER V4.66.93.0                                                        04/24/2024  17:02:24  PAGE 118


      00FF3A47H   LINE      CODE     ---       #416
      00FF3A53H   LINE      CODE     ---       #418
      00FF3A5FH   LINE      CODE     ---       #420
      00FF3A63H   LINE      CODE     ---       #421
      00FF3A6BH   LINE      CODE     ---       #423
      00FF3A7BH   LINE      CODE     ---       #424
      00FF3A8BH   LINE      CODE     ---       #425
      00FF3A8BH   LINE      CODE     ---       #428
      00FF3AA6H   LINE      CODE     ---       #430
      00FF3AADH   LINE      CODE     ---       #431
      00FF3AB3H   LINE      CODE     ---       #432
      00FF3AB6H   LINE      CODE     ---       #434
      00FF3ABDH   LINE      CODE     ---       #435
      00FF3ACBH   LINE      CODE     ---       #436
      00FF3AE0H   LINE      CODE     ---       #438
      00FF3AECH   LINE      CODE     ---       #439
      00FF3B01H   LINE      CODE     ---       #440
      00FF3B20H   LINE      CODE     ---       #441
      00FF3B2FH   LINE      CODE     ---       #442
      00FF3B46H   LINE      CODE     ---       #443
      00FF3B65H   LINE      CODE     ---       #444
      00FF3B74H   LINE      CODE     ---       #445
      00FF3B93H   LINE      CODE     ---       #446
      00FF3BAAH   LINE      CODE     ---       #447
      00FF3BB8H   LINE      CODE     ---       #448
      00FF3BD7H   LINE      CODE     ---       #449
      00FF3BEEH   LINE      CODE     ---       #450
      00FF3BEEH   LINE      CODE     ---       #451
      00FF3BFCH   LINE      CODE     ---       #452
      00FF3C10H   LINE      CODE     ---       #453
      00FF3C16H   LINE      CODE     ---       #454
      00FF3C22H   LINE      CODE     ---       #456
      00FF3C29H   LINE      CODE     ---       #457
      00FF3C38H   LINE      CODE     ---       #459
      00FF3C3EH   LINE      CODE     ---       #460
      00FF3C5DH   LINE      CODE     ---       #462
      00FF3C5DH   LINE      CODE     ---       #464
      00FF3C72H   LINE      CODE     ---       #465
      00FF3C91H   LINE      CODE     ---       #466
      00FF3C94H   LINE      CODE     ---       #467
      00FF3C94H   LINE      CODE     ---       #469
      00FF3CABH   LINE      CODE     ---       #470
      00FF3CCAH   LINE      CODE     ---       #471
      00FF3CCCH   LINE      CODE     ---       #472
      00FF3CCCH   LINE      CODE     ---       #474
      00FF3CEBH   LINE      CODE     ---       #475
      00FF3D02H   LINE      CODE     ---       #476
      00FF3D04H   LINE      CODE     ---       #477
      00FF3D04H   LINE      CODE     ---       #479
      00FF3D23H   LINE      CODE     ---       #480
      00FF3D3AH   LINE      CODE     ---       #481
      00FF3D3AH   LINE      CODE     ---       #482
      00FF3D3AH   LINE      CODE     ---       #484
      00FF3D3AH   LINE      CODE     ---       #486
      00FF3D55H   LINE      CODE     ---       #488
      00FF3D5CH   LINE      CODE     ---       #489
      00FF3D65H   LINE      CODE     ---       #490
      00FF3D6CH   LINE      CODE     ---       #491
      00FF3D7BH   LINE      CODE     ---       #493
      00FF3D89H   LINE      CODE     ---       #494
      00FF3D9BH   LINE      CODE     ---       #495
      00FF3DA5H   LINE      CODE     ---       #497
      00FF3DB4H   LINE      CODE     ---       #498
      00FF3DC3H   LINE      CODE     ---       #499
      00FF3DCBH   LINE      CODE     ---       #500
L251 LINKER/LOCATER V4.66.93.0                                                        04/24/2024  17:02:24  PAGE 119


      00FF3DD9H   LINE      CODE     ---       #501
      00FF3DDBH   LINE      CODE     ---       #502
      00FF3DE7H   LINE      CODE     ---       #504
      00FF3DF6H   LINE      CODE     ---       #505
      00FF3E05H   LINE      CODE     ---       #506
      00FF3E0DH   LINE      CODE     ---       #507
      00FF3E0DH   LINE      CODE     ---       #510
      00FF3E19H   LINE      CODE     ---       #512
      00FF3E3AH   LINE      CODE     ---       #513
      00FF3E51H   LINE      CODE     ---       #514
      00FF3E51H   LINE      CODE     ---       #515
      00FF3E5DH   LINE      CODE     ---       #517
      00FF3E80H   LINE      CODE     ---       #518
      00FF3E97H   LINE      CODE     ---       #519
      00FF3E97H   LINE      CODE     ---       #521
      00FF3EA0H   LINE      CODE     ---       #523
      00FF3EA7H   LINE      CODE     ---       #524
      00FF3EB0H   LINE      CODE     ---       #525
      00FF3EB7H   LINE      CODE     ---       #526
      00FF3EBBH   LINE      CODE     ---       #527
      00FF3EBFH   LINE      CODE     ---       #528
      00FF3EBFH   LINE      CODE     ---       #530
      00FF3EC7H   LINE      CODE     ---       #532
      00FF3ED9H   LINE      CODE     ---       #533
      00FF3EEDH   LINE      CODE     ---       #535
      00FF3EFFH   LINE      CODE     ---       #536
      00FF3F19H   LINE      CODE     ---       #537
      00FF3F1CH   LINE      CODE     ---       #538
      ---         BLOCKEND  ---      ---       LVL=0

      00FF7899H   BLOCK     CODE     ---       LVL=0
      00FF7899H   LINE      CODE     ---       #547
      00FF7899H   LINE      CODE     ---       #549
      00FF789DH   LINE      CODE     ---       #550
      00FF78ABH   LINE      CODE     ---       #551
      00FF78B6H   LINE      CODE     ---       #552
      00FF78B6H   LINE      CODE     ---       #554
      00FF78BFH   LINE      CODE     ---       #556
      00FF78C6H   LINE      CODE     ---       #557
      00FF78CFH   LINE      CODE     ---       #558
      00FF78D6H   LINE      CODE     ---       #559
      00FF78E4H   LINE      CODE     ---       #560
      00FF78EFH   LINE      CODE     ---       #561
      00FF78EFH   LINE      CODE     ---       #562
      00FF78F8H   LINE      CODE     ---       #564
      00FF78FFH   LINE      CODE     ---       #565
      00FF7908H   LINE      CODE     ---       #566
      00FF790FH   LINE      CODE     ---       #567
      00FF791DH   LINE      CODE     ---       #568
      00FF7928H   LINE      CODE     ---       #569
      00FF7928H   LINE      CODE     ---       #570
      00FF7931H   LINE      CODE     ---       #572
      00FF7938H   LINE      CODE     ---       #573
      00FF7941H   LINE      CODE     ---       #574
      00FF7948H   LINE      CODE     ---       #575
      00FF794CH   LINE      CODE     ---       #576
      00FF794EH   LINE      CODE     ---       #577
      00FF794EH   LINE      CODE     ---       #579
      ---         BLOCKEND  ---      ---       LVL=0

      00FF87C6H   BLOCK     CODE     ---       LVL=0
      00FF87C6H   LINE      CODE     ---       #588
      00FF87C6H   LINE      CODE     ---       #590
      00FF87C6H   LINE      CODE     ---       #592
      00FF87D5H   LINE      CODE     ---       #593
L251 LINKER/LOCATER V4.66.93.0                                                        04/24/2024  17:02:24  PAGE 120


      00FF87D8H   LINE      CODE     ---       #594
      00FF87E1H   LINE      CODE     ---       #596
      00FF87E8H   LINE      CODE     ---       #597
      00FF87F1H   LINE      CODE     ---       #598
      00FF87F8H   LINE      CODE     ---       #599
      00FF87FCH   LINE      CODE     ---       #600
      00FF87FEH   LINE      CODE     ---       #601
      00FF87FEH   LINE      CODE     ---       #603
      ---         BLOCKEND  ---      ---       LVL=0

      ---         MODULE    ---      ---       SEEKFREE_CONFIG
      00FF00A6H   PUBLIC    CODE     ---       dl1b_default_configuration
      00FF012DH   PUBLIC    CODE     ---       imu660ra_config_file

      ---         MODULE    ---      ---       PRINTF
      00000765H   PUBLIC    EDATA    ---       ?PRINTF?BYTE
      00FF3F1DH   PUBLIC    CODE     NEAR LAB  PRINTF

      ---         MODULE    ---      ---       ?C?PRNFMT
      00FF3F76H   PUBLIC    CODE     ---       ?C?PRNFMT

      ---         MODULE    ---      ---       ?C?FPCONVERT
      00FF4393H   PUBLIC    CODE     ---       ?C?FPCONVERT
      00FF444BH   PUBLIC    CODE     ---       ?C?FPROUND

      ---         MODULE    ---      ---       ?C?FTNPWR
      00FF44BEH   PUBLIC    CODE     ---       ?C?FTNPWR

      ---         MODULE    ---      ---       ?C_START
      00FF0000H   PUBLIC    CODE     ---       ?C?STARTUP
      00FF0000H   PUBLIC    CODE     ---       ?C_STARTUP

      ---         MODULE    ---      ---       ?C?INITEDATA
      00FF8724H   PUBLIC    CODE     ---       ?C?INITEDATA

      ---         MODULE    ---      ---       ?C?SIDIV
      00FF44F5H   PUBLIC    CODE     ---       ?C?SIDIV

      ---         MODULE    ---      ---       ?C?LMUL
      00FF4527H   PUBLIC    CODE     ---       ?C?LMUL

      ---         MODULE    ---      ---       ?C?LIMUL
      00FF4538H   PUBLIC    CODE     ---       ?C?LIMUL

      ---         MODULE    ---      ---       ?C?ULDIV
      00FF4543H   PUBLIC    CODE     NEAR LAB  ?C?ULDIV
      00FF4541H   PUBLIC    CODE     NEAR LAB  ?C?ULIDIV

      ---         MODULE    ---      ---       ?C?SLDIV
      00FF4594H   PUBLIC    CODE     NEAR LAB  ?C?SLDIV

      ---         MODULE    ---      ---       ?C?BMOVENP
      00FF45CAH   PUBLIC    CODE     ---       ?C?BMOVENP
      00FF45C8H   PUBLIC    CODE     ---       ?C?BMOVENP8

      ---         MODULE    ---      ---       ABS
      00FF8AAEH   PUBLIC    CODE     ---       abs?_

      ---         MODULE    ---      ---       memcpy
      00FF895EH   PUBLIC    CODE     ---       memcpy?_

      ---         MODULE    ---      ---       memset

      ---         MODULE    ---      ---       ?C?INITEDATA_END
      00FF8E8DH   PUBLIC    HCONST   WORD      ?C?INITEDATA_END
L251 LINKER/LOCATER V4.66.93.0                                                        04/24/2024  17:02:24  PAGE 121





*** WARNING L25: DATA TYPES DIFFERENT
    SYMBOL:  Error_Speed
    MODULE:  .\Out_File\encoder.obj (encoder)
   DEFINED:  .\Out_File\TrackElement.obj (TrackElement)

Program Size: data=8.0 edata+hdata=4001 xdata=0 const=1535 code=35535
L251 RUN COMPLETE.  1 WARNING(S),  0 ERROR(S)
